 game_debug

 Timestamp is 4dfdaf17 (Sun Jun 19 03:11:03 2011)

 Preferred load address is 21000000

 Start         Length     Name                   Class
 0001:00000000 00081498H .textbss                DATA
 0002:00000000 000f1d7aH .text                   CODE
 0002:000f1d80 00017970H .text$x                 CODE
 0002:001096f0 000079bbH .text$yc                CODE
 0002:001110b0 00002c93H .text$yd                CODE
 0003:00000000 00000104H .CRT$XCA                DATA
 0003:00000104 00000446H .CRT$XCU                DATA
 0003:0000054c 00000104H .CRT$XCZ                DATA
 0003:00000650 00000104H .CRT$XIA                DATA
 0003:00000754 00000104H .CRT$XIAA               DATA
 0003:00000858 00000104H .CRT$XIC                DATA
 0003:0000095c 00000104H .CRT$XIZ                DATA
 0003:00000a60 00020b27H .rdata                  DATA
 0003:00021588 0000015cH .rdata$debug            DATA
 0003:000216e4 00000156H .rdata$r                DATA
 0003:0002183c 00000104H .rtc$IAA                DATA
 0003:00021940 00000104H .rtc$IZZ                DATA
 0003:00021a44 00000104H .rtc$TAA                DATA
 0003:00021b48 00000104H .rtc$TZZ                DATA
 0003:00021c50 00015c8fH .xdata$x                DATA
 0003:000378e0 0000015cH .edata                  DATA
 0004:00000000 00000208H .data                   DATA
 0004:00000208 00008008H .bss                    DATA
 0005:00000000 00000064H .idata$2                DATA
 0005:00000064 00000014H .idata$3                DATA
 0005:00000078 00000af0H .idata$4                DATA
 0005:00000b68 00000af0H .idata$5                DATA
 0005:00001658 00008775H .idata$6                DATA
 0006:00000000 00000169H .rsrc$01                DATA
 0006:00000170 00000a99H .rsrc$02                DATA

  Address         Publics by Value              Rva+Base       Lib:Object

 0000:00000000       ___safe_se_handler_count   00000000     <absolute>
 0000:00000000       __except_list              00000000     <absolute>
 0000:00000000       ___safe_se_handler_table   00000000     <absolute>
 0000:00009876       __ldused                   00009876     <absolute>
 0000:00009876       __fltused                  00009876     <absolute>
 0000:00000000       ___ImageBase               21000000     <linker-defined>
 0001:00000000       __enc$textbss$begin        21001000     <linker-defined>
 0001:00081498       __enc$textbss$end          21082498     <linker-defined>
 0002:0000d8e0       ??_H@YGXPAXIHP6EPAX0@Z@Z   210908e0 f i c_gamelog.obj
 0002:0000d920       ?Open@CGameLog@@QAEXI@Z    21090920 f   c_gamelog.obj
 0002:0000dbe0       ?XtoW@@YA?AV?$basic_string@_WU?$char_traits@_W@std@@V?$K2StringAllocator@_W@@@std@@IHHH@Z 21090be0 f i c_gamelog.obj
 0002:0000dc30       ??0?$basic_string@_WU?$char_traits@_W@std@@V?$K2StringAllocator@_W@@@std@@QAE@U_Has_debug_it@01@@Z 21090c30 f i c_gamelog.obj
 0002:0000dce0       ??0?$basic_string@_WU?$char_traits@_W@std@@V?$K2StringAllocator@_W@@@std@@QAE@PB_W@Z 21090ce0 f i c_gamelog.obj
 0002:0000dd90       ??1?$basic_string@_WU?$char_traits@_W@std@@V?$K2StringAllocator@_W@@@std@@QAE@XZ 21090d90 f i c_gamelog.obj
 0002:0000de10       ??4?$basic_string@_WU?$char_traits@_W@std@@V?$K2StringAllocator@_W@@@std@@QAEAAV01@ABV01@@Z 21090e10 f i c_gamelog.obj
 0002:0000de40       ??0_Has_debug_it@?$basic_string@_WU?$char_traits@_W@std@@V?$K2StringAllocator@_W@@@std@@QAE@_N@Z 21090e40 f i c_gamelog.obj
 0002:0000de70       ??1?$_String_val@_WV?$K2StringAllocator@_W@@@std@@QAE@XZ 21090e70 f i c_gamelog.obj
 0002:0000def0       ?assign@?$basic_string@_WU?$char_traits@_W@std@@V?$K2StringAllocator@_W@@@std@@QAEAAV12@ABV12@@Z 21090ef0 f i c_gamelog.obj
 0002:0000df30       ?assign@?$basic_string@_WU?$char_traits@_W@std@@V?$K2StringAllocator@_W@@@std@@QAEAAV12@ABV12@II@Z 21090f30 f i c_gamelog.obj
 0002:0000e020       ?assign@?$basic_string@_WU?$char_traits@_W@std@@V?$K2StringAllocator@_W@@@std@@QAEAAV12@PB_W@Z 21091020 f i c_gamelog.obj
 0002:0000e060       ?_Tidy@?$basic_string@_WU?$char_traits@_W@std@@V?$K2StringAllocator@_W@@@std@@IAEX_NI@Z 21091060 f i c_gamelog.obj
 0002:0000e100       ?_Myptr@?$basic_string@_WU?$char_traits@_W@std@@V?$K2StringAllocator@_W@@@std@@IAEPA_WXZ 21091100 f i c_gamelog.obj
 0002:0000e140       ?_Myptr@?$basic_string@_WU?$char_traits@_W@std@@V?$K2StringAllocator@_W@@@std@@IBEPB_WXZ 21091140 f i c_gamelog.obj
 0002:0000e180       ??0?$_String_val@_WV?$K2StringAllocator@_W@@@std@@IAE@V?$K2StringAllocator@_W@@@Z 21091180 f i c_gamelog.obj
 0002:0000e220       ??0?$K2StringAllocator@_W@@QAE@XZ 21091220 f i c_gamelog.obj
 0002:0000e250       ?GetInstance@CMemManager@@SAPAV1@XZ 21091250 f i c_gamelog.obj
 0002:0000e320       ??1?$K2StringAllocator@_W@@QAE@XZ 21091320 f i c_gamelog.obj
 0002:0000e340       ?assign@?$basic_string@_WU?$char_traits@_W@std@@V?$K2StringAllocator@_W@@@std@@QAEAAV12@PB_WI@Z 21091340 f i c_gamelog.obj
 0002:0000e400       ?erase@?$basic_string@_WU?$char_traits@_W@std@@V?$K2StringAllocator@_W@@@std@@QAEAAV12@II@Z 21091400 f i c_gamelog.obj
 0002:0000e4d0       ?size@?$basic_string@_WU?$char_traits@_W@std@@V?$K2StringAllocator@_W@@@std@@QBEIXZ 210914d0 f i c_gamelog.obj
 0002:0000e4f0       ?_Eos@?$basic_string@_WU?$char_traits@_W@std@@V?$K2StringAllocator@_W@@@std@@IAEXI@Z 210914f0 f i c_gamelog.obj
 0002:0000e540       ?_Grow@?$basic_string@_WU?$char_traits@_W@std@@V?$K2StringAllocator@_W@@@std@@IAE_NI_N@Z 21091540 f i c_gamelog.obj
 0002:0000e610       ??0?$K2StringAllocator@_W@@QAE@ABV0@@Z 21091610 f i c_gamelog.obj
 0002:0000e640       ?deallocate@?$K2StringAllocator@_W@@QAEXPA_WI@Z 21091640 f i c_gamelog.obj
 0002:0000e680       ?max_size@?$basic_string@_WU?$char_traits@_W@std@@V?$K2StringAllocator@_W@@@std@@QBEIXZ 21091680 f i c_gamelog.obj
 0002:0000e6d0       ?_Copy@?$basic_string@_WU?$char_traits@_W@std@@V?$K2StringAllocator@_W@@@std@@IAEXII@Z 210916d0 f i c_gamelog.obj
 0002:0000e8c0       ?_Inside@?$basic_string@_WU?$char_traits@_W@std@@V?$K2StringAllocator@_W@@@std@@IAE_NPB_W@Z 210918c0 f i c_gamelog.obj
 0002:0000e930       ?allocate@?$K2StringAllocator@_W@@QAEPA_WI@Z 21091930 f i c_gamelog.obj
 0002:0000e980       ?Allocate@CMemManager@@SAPAXIPBDW4MemoryType@@00F@Z 21091980 f i c_gamelog.obj
 0002:0000e9c0       ??$?H_WU?$char_traits@_W@std@@V?$K2StringAllocator@_W@@@std@@YA?AV?$basic_string@_WU?$char_traits@_W@std@@V?$K2StringAllocator@_W@@@0@PB_WABV10@@Z 210919c0 f i c_gamelog.obj
 0002:0000ea70       ??0?$basic_string@_WU?$char_traits@_W@std@@V?$K2StringAllocator@_W@@@std@@QAE@ABV01@@Z 21091a70 f i c_gamelog.obj
 0002:0000eb10       ??Y?$basic_string@_WU?$char_traits@_W@std@@V?$K2StringAllocator@_W@@@std@@QAEAAV01@ABV01@@Z 21091b10 f i c_gamelog.obj
 0002:0000eb40       ?append@?$basic_string@_WU?$char_traits@_W@std@@V?$K2StringAllocator@_W@@@std@@QAEAAV12@ABV12@@Z 21091b40 f i c_gamelog.obj
 0002:0000eb80       ??0?$_String_val@_WV?$K2StringAllocator@_W@@@std@@QAE@ABV01@@Z 21091b80 f i c_gamelog.obj
 0002:0000ec20       ?append@?$basic_string@_WU?$char_traits@_W@std@@V?$K2StringAllocator@_W@@@std@@QAEAAV12@ABV12@II@Z 21091c20 f i c_gamelog.obj
 0002:0000ed40       ??$?H_WU?$char_traits@_W@std@@V?$K2StringAllocator@_W@@@std@@YA?AV?$basic_string@_WU?$char_traits@_W@std@@V?$K2StringAllocator@_W@@@0@ABV10@PB_W@Z 21091d40 f i c_gamelog.obj
 0002:0000edf0       ??Y?$basic_string@_WU?$char_traits@_W@std@@V?$K2StringAllocator@_W@@@std@@QAEAAV01@PB_W@Z 21091df0 f i c_gamelog.obj
 0002:0000ee20       ?append@?$basic_string@_WU?$char_traits@_W@std@@V?$K2StringAllocator@_W@@@std@@QAEAAV12@PB_W@Z 21091e20 f i c_gamelog.obj
 0002:0000ee60       ?append@?$basic_string@_WU?$char_traits@_W@std@@V?$K2StringAllocator@_W@@@std@@QAEAAV12@PB_WI@Z 21091e60 f i c_gamelog.obj
 0002:0000ef70       ??$_UItoW@I@@YA?AV?$basic_string@_WU?$char_traits@_W@std@@V?$K2StringAllocator@_W@@@std@@IHHH@Z 21091f70 f i c_gamelog.obj
 0002:0000f050       ??$copy_s@U?$char_traits@_W@std@@@_Traits_helper@std@@YAPA_WPA_WIPB_WI@Z 21092050 f i c_gamelog.obj
 0002:0000f0a0       ??$_Debug_pointer@_W@std@@YAXPB_W0I@Z 210920a0 f i c_gamelog.obj
 0002:0000f0e0       ??$move_s@U?$char_traits@_W@std@@@_Traits_helper@std@@YAPA_WPA_WIPB_WI@Z 210920e0 f i c_gamelog.obj
 0002:0000f130       ?WriteInfo@CGameLog@@QAEXW4EGameLogEvent@@ABV?$basic_string@_WU?$char_traits@_W@std@@V?$K2StringAllocator@_W@@@std@@111@Z 21092130 f   c_gamelog.obj
 0002:0000f3c0       ?GetNewl@CConsole@@QBEABV?$basic_string@_WU?$char_traits@_W@std@@V?$K2StringAllocator@_W@@@std@@XZ 210923c0 f i c_gamelog.obj
 0002:0000f3f0       ?GetGameLogEventName@@YA?AV?$basic_string@_WU?$char_traits@_W@std@@V?$K2StringAllocator@_W@@@std@@W4EGameLogEvent@@@Z 210923f0 f i c_gamelog.obj
 0002:0000fea0       ?empty@?$basic_string@_WU?$char_traits@_W@std@@V?$K2StringAllocator@_W@@@std@@QBE_NXZ 21092ea0 f i c_gamelog.obj
 0002:0000fed0       ??$QuoteStr@V?$basic_string@_WU?$char_traits@_W@std@@V?$K2StringAllocator@_W@@@std@@@@YA?AV?$basic_string@_WU?$char_traits@_W@std@@V?$K2StringAllocator@_W@@@std@@V01@@Z 21092ed0 f i c_gamelog.obj
 0002:0000ffb0       ?XtoW@@YAABV?$basic_string@_WU?$char_traits@_W@std@@V?$K2StringAllocator@_W@@@std@@ABV12@@Z 21092fb0 f i c_gamelog.obj
 0002:0000ffd0       ?WriteStatus@CGameLog@@QAEXW4EGameLogEvent@@ABV?$basic_string@_WU?$char_traits@_W@std@@V?$K2StringAllocator@_W@@@std@@1@Z 21092fd0 f   c_gamelog.obj
 0002:000101c0       ?GetCurrentGamePointer@IGame@@SAPAV1@XZ 210931c0 f i c_gamelog.obj
 0002:000101e0       ?GetMatchTime@IGame@@QBEIXZ 210931e0 f i c_gamelog.obj
 0002:00010260       ?GetGameTime@IGame@@QBEIXZ 21093260 f i c_gamelog.obj
 0002:00010280       ?GetGamePhase@IGame@@QBEIXZ 21093280 f i c_gamelog.obj
 0002:000102d0       ?GetGamePhase@CGameInfo@@QBEIXZ 210932d0 f i c_gamelog.obj
 0002:00010300       ?GetPhaseStartTime@IGame@@QBEIXZ 21093300 f i c_gamelog.obj
 0002:00010350       ?GetPhaseStartTime@CGameInfo@@QBEIXZ 21093350 f i c_gamelog.obj
 0002:00010380       ??$MAX@H@@YAABHABH0@Z      21093380 f i c_gamelog.obj
 0002:000103c0       ?WritePlayer@CGameLog@@QAEXW4EGameLogEvent@@PAVCPlayer@@ABV?$basic_string@_WU?$char_traits@_W@std@@V?$K2StringAllocator@_W@@@std@@2@Z 210933c0 f   c_gamelog.obj
 0002:00010fe0       ?GetSelectedHero@CPlayer@@QBEGXZ 21093fe0 f i c_gamelog.obj
 0002:00011010       ?HasSelectedHero@CPlayer@@QBE_NXZ 21094010 f i c_gamelog.obj
 0002:00011050       ?GetRank@CPlayer@@QBEMXZ   21094050 f i c_gamelog.obj
 0002:00011080       ?GetAccountID@CPlayer@@QBEHXZ 21094080 f i c_gamelog.obj
 0002:000110b0       ?GetClientNumber@CPlayer@@QBEHXZ 210940b0 f i c_gamelog.obj
 0002:000110d0       ?GetTrueName@CPlayer@@QBEABV?$basic_string@_WU?$char_traits@_W@std@@V?$K2StringAllocator@_W@@@std@@XZ 210940d0 f i c_gamelog.obj
 0002:00011130       ?GetName@CPlayer@@QBEABV?$basic_string@_WU?$char_traits@_W@std@@V?$K2StringAllocator@_W@@@std@@XZ 21094130 f i c_gamelog.obj
 0002:00011170       ?GetTeam@CPlayer@@QBEIXZ   21094170 f i c_gamelog.obj
 0002:000111a0       ?GetActionCount@CPlayer@@QBEIXZ 210941a0 f i c_gamelog.obj
 0002:000111d0       ?GetActionCountPeriod@CPlayer@@QBEIXZ 210941d0 f i c_gamelog.obj
 0002:00011220       ?WriteKill@CGameLog@@QAEXPAVIUnitEntity@@0PAVIGameEntity@@PAV?$vector@HV?$K2VectorAllocator@H@@@@@Z 21094220 f   c_gamelog.obj
 0002:00011b50       ?GetTeam@IVisualEntity@@QBEIXZ 21094b50 f i c_gamelog.obj
 0002:00011b80       ?GetPosition@IVisualEntity@@QBEABV?$CVec3@M@@XZ 21094b80 f i c_gamelog.obj
 0002:00011bb0       ?INT_FLOOR@@YAHM@Z         21094bb0 f i c_gamelog.obj
 0002:00011bd0       ?XtoW@@YA?AV?$basic_string@_WU?$char_traits@_W@std@@V?$K2StringAllocator@_W@@@std@@HHHH@Z 21094bd0 f i c_gamelog.obj
 0002:00011c20       ?GetTypeName@IGameEntity@@QBEABV?$basic_string@_WU?$char_traits@_W@std@@V?$K2StringAllocator@_W@@@std@@XZ 21094c20 f i c_gamelog.obj
 0002:00011c40       ?GetOwnerClientNumber@IUnitEntity@@QBEHXZ 21094c40 f i c_gamelog.obj
 0002:00011c70       ??$_ItoW@H@@YA?AV?$basic_string@_WU?$char_traits@_W@std@@V?$K2StringAllocator@_W@@@std@@HHHH@Z 21094c70 f i c_gamelog.obj
 0002:00011d70       ??1?$_Vector_iterator@HV?$K2VectorAllocator@H@@@std@@QAE@XZ 21094d70 f i c_gamelog.obj
 0002:00011da0       ??1?$_Vector_const_iterator@HV?$K2VectorAllocator@H@@@std@@QAE@XZ 21094da0 f i c_gamelog.obj
 0002:00011dd0       ??1?$_Ranit@HHPBHABH@std@@QAE@XZ 21094dd0 f i c_gamelog.obj
 0002:00011e00       ??1_Iterator_base@std@@QAE@XZ 21094e00 f i c_gamelog.obj
 0002:00011e80       ?_Orphan_me@_Iterator_base@std@@QAEXXZ 21094e80 f i c_gamelog.obj
 0002:00011f20       ?WriteAssist@CGameLog@@QAEXPAVIUnitEntity@@0PAVIGameEntity@@PAVCPlayer@@@Z 21094f20 f   c_gamelog.obj
 0002:000123d0       ?WriteDamage@CGameLog@@QAEXPAVIUnitEntity@@HGGM@Z 210953d0 f   c_gamelog.obj
 0002:00012840       ?XtoW@@YA?AV?$basic_string@_WU?$char_traits@_W@std@@V?$K2StringAllocator@_W@@@std@@MHHH@Z 21095840 f i c_gamelog.obj
 0002:00012920       ?GetPlayer@IGame@@QAEPAVCPlayer@@H@Z 21095920 f i c_gamelog.obj
 0002:00012a30       ??1iterator@?$_Tree@V?$_Tmap_traits@HPAVCPlayer@@U?$less@H@std@@V?$K2MapAllocator@U?$pair@$$CBHPAVCPlayer@@@std@@@@$0A@@std@@@std@@QAE@XZ 21095a30 f i c_gamelog.obj
 0002:00012a60       ??1const_iterator@?$_Tree@V?$_Tmap_traits@HPAVCPlayer@@U?$less@H@std@@V?$K2MapAllocator@U?$pair@$$CBHPAVCPlayer@@@std@@@@$0A@@std@@@std@@QAE@XZ 21095a60 f i c_gamelog.obj
 0002:00012a90       ??1?$_Bidit@U?$pair@$$CBHPAVCPlayer@@@std@@HPBU12@ABU12@@std@@QAE@XZ 21095a90 f i c_gamelog.obj
 0002:00012ac0       ?end@?$_Tree@V?$_Tmap_traits@HPAVCPlayer@@U?$less@H@std@@V?$K2MapAllocator@U?$pair@$$CBHPAVCPlayer@@@std@@@@$0A@@std@@@std@@QAE?AViterator@12@XZ 21095ac0 f i c_gamelog.obj
 0002:00012b10       ?find@?$_Tree@V?$_Tmap_traits@HPAVCPlayer@@U?$less@H@std@@V?$K2MapAllocator@U?$pair@$$CBHPAVCPlayer@@@std@@@@$0A@@std@@@std@@QAE?AViterator@12@ABH@Z 21095b10 f i c_gamelog.obj
 0002:00012cf0       ??Citerator@?$_Tree@V?$_Tmap_traits@HPAVCPlayer@@U?$less@H@std@@V?$K2MapAllocator@U?$pair@$$CBHPAVCPlayer@@@std@@@@$0A@@std@@@std@@QBEPAU?$pair@$$CBHPAVCPlayer@@@2@XZ 21095cf0 f i c_gamelog.obj
 0002:00012d20       ??8const_iterator@?$_Tree@V?$_Tmap_traits@HPAVCPlayer@@U?$less@H@std@@V?$K2MapAllocator@U?$pair@$$CBHPAVCPlayer@@@std@@@@$0A@@std@@@std@@QBE_NABV012@@Z 21095d20 f i c_gamelog.obj
 0002:00012de0       ??0iterator@?$_Tree@V?$_Tmap_traits@HPAVCPlayer@@U?$less@H@std@@V?$K2MapAllocator@U?$pair@$$CBHPAVCPlayer@@@std@@@@$0A@@std@@@std@@QAE@ABV012@@Z 21095de0 f i c_gamelog.obj
 0002:00012e10       ??0const_iterator@?$_Tree@V?$_Tmap_traits@HPAVCPlayer@@U?$less@H@std@@V?$K2MapAllocator@U?$pair@$$CBHPAVCPlayer@@@std@@@@$0A@@std@@@std@@QAE@ABV012@@Z 21095e10 f i c_gamelog.obj
 0002:00012e50       ??0?$_Bidit@U?$pair@$$CBHPAVCPlayer@@@std@@HPBU12@ABU12@@std@@QAE@ABU01@@Z 21095e50 f i c_gamelog.obj
 0002:00012e80       ??0_Iterator_base@std@@QAE@ABV01@@Z 21095e80 f i c_gamelog.obj
 0002:00012ed0       ??4_Iterator_base@std@@QAEAAV01@ABV01@@Z 21095ed0 f i c_gamelog.obj
 0002:00012f80       ?_Adopt@_Iterator_base@std@@QAEXPBV_Container_base@2@@Z 21095f80 f i c_gamelog.obj
 0002:00013050       ?_Key@?$_Tree@V?$_Tmap_traits@HPAVCPlayer@@U?$less@H@std@@V?$K2MapAllocator@U?$pair@$$CBHPAVCPlayer@@@std@@@@$0A@@std@@@std@@KAABHPAU_Node@?$_Tree_nod@V?$_Tmap_traits@HPAVCPlayer@@U?$less@H@std@@V?$K2MapAllocator@U?$pair@$$CBHPAVCPlayer@@@std@@@@$0A@@std@@@2@@Z 21096050 f i c_gamelog.obj
 0002:00013080       ?lower_bound@?$_Tree@V?$_Tmap_traits@HPAVCPlayer@@U?$less@H@std@@V?$K2MapAllocator@U?$pair@$$CBHPAVCPlayer@@@std@@@@$0A@@std@@@std@@QAE?AViterator@12@ABH@Z 21096080 f i c_gamelog.obj
 0002:000130e0       ??0iterator@?$_Tree@V?$_Tmap_traits@HPAVCPlayer@@U?$less@H@std@@V?$K2MapAllocator@U?$pair@$$CBHPAVCPlayer@@@std@@@@$0A@@std@@@std@@QAE@PAU_Node@?$_Tree_nod@V?$_Tmap_traits@HPAVCPlayer@@U?$less@H@std@@V?$K2MapAllocator@U?$pair@$$CBHPAVCPlayer@@@std@@@@$0A@@std@@@2@PBV12@@Z 210960e0 f i c_gamelog.obj
 0002:00013120       ??Diterator@?$_Tree@V?$_Tmap_traits@HPAVCPlayer@@U?$less@H@std@@V?$K2MapAllocator@U?$pair@$$CBHPAVCPlayer@@@std@@@@$0A@@std@@@std@@QBEAAU?$pair@$$CBHPAVCPlayer@@@2@XZ 21096120 f i c_gamelog.obj
 0002:00013150       ?_Mynode@const_iterator@?$_Tree@V?$_Tmap_traits@HPAVCPlayer@@U?$less@H@std@@V?$K2MapAllocator@U?$pair@$$CBHPAVCPlayer@@@std@@@@$0A@@std@@@std@@QBEPAU_Node@?$_Tree_nod@V?$_Tmap_traits@HPAVCPlayer@@U?$less@H@std@@V?$K2MapAllocator@U?$pair@$$CBHPAVCPlayer@@@std@@@@$0A@@std@@@3@XZ 21096150 f i c_gamelog.obj
 0002:00013170       ?_Myval@?$_Tree@V?$_Tmap_traits@HPAVCPlayer@@U?$less@H@std@@V?$K2MapAllocator@U?$pair@$$CBHPAVCPlayer@@@std@@@@$0A@@std@@@std@@KAAAU?$pair@$$CBHPAVCPlayer@@@2@PAU_Node@?$_Tree_nod@V?$_Tmap_traits@HPAVCPlayer@@U?$less@H@std@@V?$K2MapAllocator@U?$pair@$$CBHPAVCPlayer@@@std@@@@$0A@@std@@@2@@Z 21096170 f i c_gamelog.obj
 0002:00013190       ?_Lbound@?$_Tree@V?$_Tmap_traits@HPAVCPlayer@@U?$less@H@std@@V?$K2MapAllocator@U?$pair@$$CBHPAVCPlayer@@@std@@@@$0A@@std@@@std@@IBEPAU_Node@?$_Tree_nod@V?$_Tmap_traits@HPAVCPlayer@@U?$less@H@std@@V?$K2MapAllocator@U?$pair@$$CBHPAVCPlayer@@@std@@@@$0A@@std@@@2@ABH@Z 21096190 f i c_gamelog.obj
 0002:00013260       ?_Left@?$_Tree@V?$_Tmap_traits@HPAVCPlayer@@U?$less@H@std@@V?$K2MapAllocator@U?$pair@$$CBHPAVCPlayer@@@std@@@@$0A@@std@@@std@@KAAAPAU_Node@?$_Tree_nod@V?$_Tmap_traits@HPAVCPlayer@@U?$less@H@std@@V?$K2MapAllocator@U?$pair@$$CBHPAVCPlayer@@@std@@@@$0A@@std@@@2@PAU342@@Z 21096260 f i c_gamelog.obj
 0002:00013280       ?_Right@?$_Tree@V?$_Tmap_traits@HPAVCPlayer@@U?$less@H@std@@V?$K2MapAllocator@U?$pair@$$CBHPAVCPlayer@@@std@@@@$0A@@std@@@std@@KAAAPAU_Node@?$_Tree_nod@V?$_Tmap_traits@HPAVCPlayer@@U?$less@H@std@@V?$K2MapAllocator@U?$pair@$$CBHPAVCPlayer@@@std@@@@$0A@@std@@@2@PAU342@@Z 21096280 f i c_gamelog.obj
 0002:000132a0       ?_Kfn@?$_Tmap_traits@HPAVCPlayer@@U?$less@H@std@@V?$K2MapAllocator@U?$pair@$$CBHPAVCPlayer@@@std@@@@$0A@@std@@SAABHABU?$pair@$$CBHPAVCPlayer@@@2@@Z 210962a0 f i c_gamelog.obj
 0002:000132c0       ??0const_iterator@?$_Tree@V?$_Tmap_traits@HPAVCPlayer@@U?$less@H@std@@V?$K2MapAllocator@U?$pair@$$CBHPAVCPlayer@@@std@@@@$0A@@std@@@std@@QAE@PAU_Node@?$_Tree_nod@V?$_Tmap_traits@HPAVCPlayer@@U?$less@H@std@@V?$K2MapAllocator@U?$pair@$$CBHPAVCPlayer@@@std@@@@$0A@@std@@@2@PBV12@@Z 210962c0 f i c_gamelog.obj
 0002:00013350       ??Dconst_iterator@?$_Tree@V?$_Tmap_traits@HPAVCPlayer@@U?$less@H@std@@V?$K2MapAllocator@U?$pair@$$CBHPAVCPlayer@@@std@@@@$0A@@std@@@std@@QBEABU?$pair@$$CBHPAVCPlayer@@@2@XZ 21096350 f i c_gamelog.obj
 0002:00013410       ??0?$_Bidit@U?$pair@$$CBHPAVCPlayer@@@std@@HPBU12@ABU12@@std@@QAE@XZ 21096410 f i c_gamelog.obj
 0002:00013440       ??0_Iterator_base@std@@QAE@XZ 21096440 f i c_gamelog.obj
 0002:00013480       ?_Isnil@?$_Tree@V?$_Tmap_traits@HPAVCPlayer@@U?$less@H@std@@V?$K2MapAllocator@U?$pair@$$CBHPAVCPlayer@@@std@@@@$0A@@std@@@std@@KAAADPAU_Node@?$_Tree_nod@V?$_Tmap_traits@HPAVCPlayer@@U?$less@H@std@@V?$K2MapAllocator@U?$pair@$$CBHPAVCPlayer@@@std@@@@$0A@@std@@@2@@Z 21096480 f i c_gamelog.obj
 0002:000134a0       ?_Root@?$_Tree@V?$_Tmap_traits@HPAVCPlayer@@U?$less@H@std@@V?$K2MapAllocator@U?$pair@$$CBHPAVCPlayer@@@std@@@@$0A@@std@@@std@@IBEAAPAU_Node@?$_Tree_nod@V?$_Tmap_traits@HPAVCPlayer@@U?$less@H@std@@V?$K2MapAllocator@U?$pair@$$CBHPAVCPlayer@@@std@@@@$0A@@std@@@2@XZ 210964a0 f i c_gamelog.obj
 0002:000134d0       ?_Parent@?$_Tree@V?$_Tmap_traits@HPAVCPlayer@@U?$less@H@std@@V?$K2MapAllocator@U?$pair@$$CBHPAVCPlayer@@@std@@@@$0A@@std@@@std@@KAAAPAU_Node@?$_Tree_nod@V?$_Tmap_traits@HPAVCPlayer@@U?$less@H@std@@V?$K2MapAllocator@U?$pair@$$CBHPAVCPlayer@@@std@@@@$0A@@std@@@2@PAU342@@Z 210964d0 f i c_gamelog.obj
 0002:000134f0       ??$_Debug_lt_pred@U?$less@H@std@@HH@std@@YA_NU?$less@H@0@ABH1PB_WI@Z 210964f0 f i c_gamelog.obj
 0002:00013570       ?WriteItem@CGameLog@@QAEXW4EGameLogEvent@@PAVIEntityItem@@PAVIUnitEntity@@@Z 21096570 f   c_gamelog.obj
 0002:00013bf0       ?WriteDeny@CGameLog@@QAEXPAVIUnitEntity@@0PAVIGameEntity@@MG@Z 21096bf0 f   c_gamelog.obj
 0002:00014180       ?INT_CEIL@@YAHM@Z          21097180 f i c_gamelog.obj
 0002:000141b0       ?ceil@@YAMM@Z              210971b0 f i c_gamelog.obj
 0002:000141e0       _ceilf                     210971e0 f i c_gamelog.obj
 0002:00014220       ?WriteExperience@CGameLog@@QAEXW4EGameLogEvent@@PAVIUnitEntity@@1M@Z 21097220 f   c_gamelog.obj
 0002:00014650       ?WriteGold@CGameLog@@QAEXW4EGameLogEvent@@PAVCPlayer@@PAVIUnitEntity@@G@Z 21097650 f   c_gamelog.obj
 0002:00014980       ?WriteAbility@CGameLog@@QAEXW4EGameLogEvent@@PAVIEntityAbility@@PAVIUnitEntity@@@Z 21097980 f   c_gamelog.obj
 0002:00014e20       ?GetSlot@ISlaveEntity@@QBEEXZ 21097e20 f i c_gamelog.obj
 0002:00014e50       ?WriteHero@CGameLog@@QAEXW4EGameLogEvent@@PAVIHeroEntity@@ABV?$basic_string@_WU?$char_traits@_W@std@@V?$K2StringAllocator@_W@@@std@@@Z 21097e50 f   c_gamelog.obj
 0002:000152f0       ?GetDeathTimeStamp@IHeroEntity@@QBEIXZ 210982f0 f i c_gamelog.obj
 0002:00015320       ?WriteAward@CGameLog@@QAEXW4EGameLogEvent@@PAVIUnitEntity@@1G@Z 21098320 f   c_gamelog.obj
 0002:000158c0       ?GetKillStreak@CPlayer@@QBEEXZ 210988c0 f i c_gamelog.obj
 0002:000158f0       ?GetMultiKill@CPlayer@@QBEEXZ 210988f0 f i c_gamelog.obj
 0002:00015920       ?GetSmackdowns@CPlayer@@QBEEXZ 21098920 f i c_gamelog.obj
 0002:00015950       ?GetHumiliations@CPlayer@@QBEEXZ 21098950 f i c_gamelog.obj
 0002:00015980       ?GetRivals@CPlayer@@QBEEXZ 21098980 f i c_gamelog.obj
 0002:000159b0       ?GetPaybacks@CPlayer@@QBEEXZ 210989b0 f i c_gamelog.obj
 0002:000159e0       ?GetOwnerPlayer@IUnitEntity@@QBEPAVCPlayer@@XZ 210989e0 f i c_gamelog.obj
 0002:00015a20       ?begin@?$vector@HV?$K2VectorAllocator@H@@@std@@QAE?AV?$_Vector_iterator@HV?$K2VectorAllocator@H@@@2@XZ 21098a20 f i c_gamelog.obj
 0002:00015a70       ?end@?$vector@HV?$K2VectorAllocator@H@@@std@@QAE?AV?$_Vector_iterator@HV?$K2VectorAllocator@H@@@2@XZ 21098a70 f i c_gamelog.obj
 0002:00015ac0       ??R?$less@H@std@@QBE_NABH0@Z 21098ac0 f i c_gamelog.obj
 0002:00015af0       ??D?$_Vector_iterator@HV?$K2VectorAllocator@H@@@std@@QBEAAHXZ 21098af0 f i c_gamelog.obj
 0002:00015b20       ??E?$_Vector_iterator@HV?$K2VectorAllocator@H@@@std@@QAEAAV01@XZ 21098b20 f i c_gamelog.obj
 0002:00015b50       ??9?$_Vector_const_iterator@HV?$K2VectorAllocator@H@@@std@@QBE_NABV01@@Z 21098b50 f i c_gamelog.obj
 0002:00015b90       ??0?$_Vector_iterator@HV?$K2VectorAllocator@H@@@std@@QAE@PAHPBV_Container_base@1@@Z 21098b90 f i c_gamelog.obj
 0002:00015bd0       ??D?$_Vector_const_iterator@HV?$K2VectorAllocator@H@@@std@@QBEABHXZ 21098bd0 f i c_gamelog.obj
 0002:00015c90       ??E?$_Vector_const_iterator@HV?$K2VectorAllocator@H@@@std@@QAEAAV01@XZ 21098c90 f i c_gamelog.obj
 0002:00015d80       ??8?$_Vector_const_iterator@HV?$K2VectorAllocator@H@@@std@@QBE_NABV01@@Z 21098d80 f i c_gamelog.obj
 0002:00015dc0       ??0?$_Vector_const_iterator@HV?$K2VectorAllocator@H@@@std@@QAE@PAHPBV_Container_base@1@@Z 21098dc0 f i c_gamelog.obj
 0002:00015ec0       ?_Compat@?$_Vector_const_iterator@HV?$K2VectorAllocator@H@@@std@@QBEXABV12@@Z 21098ec0 f i c_gamelog.obj
 0002:00015f70       ??0?$_Ranit@HHPBHABH@std@@QAE@XZ 21098f70 f i c_gamelog.obj
 0002:00015fa0       ??$ABS@H@@YAHH@Z           21098fa0 f i c_gamelog.obj
 0002:00015fe0       ??$_Char_traits_cat@U?$char_traits@_W@std@@@std@@YA?AU_Secure_char_traits_tag@0@XZ 21098fe0 f i c_gamelog.obj
 0002:00016000       ??$copy_s@U?$char_traits@_W@std@@@_Traits_helper@std@@YAPA_WPA_WIPB_WIU_Secure_char_traits_tag@1@@Z 21099000 f i c_gamelog.obj
 0002:00016040       ??$move_s@U?$char_traits@_W@std@@@_Traits_helper@std@@YAPA_WPA_WIPB_WIU_Secure_char_traits_tag@1@@Z 21099040 f i c_gamelog.obj
 0002:00016080       ?Release@CGameServer@@SAXXZ 21099080 f   c_gameserver.obj
 0002:00016110       ??1CGameServer@@UAE@XZ     21099110 f   c_gameserver.obj
 0002:000163c0       ??1CGameLog@@QAE@XZ        210993c0 f i c_gameserver.obj
 0002:000163f0       ?IsServer@CGameServer@@UBE_NXZ 210993f0 f i c_gameserver.obj
 0002:00016410       ?RegisterGameMechanics@CGameServer@@UAEII@Z 21099410 f i c_gameserver.obj
 0002:00016450       ?RegisterGameMechanics@CGameServer@@UAEIABV?$basic_string@_WU?$char_traits@_W@std@@V?$K2StringAllocator@_W@@@std@@@Z 21099450 f i c_gameserver.obj
 0002:00016490       ?AllocateEntity@CGameServer@@UAEPAVIGameEntity@@ABV?$basic_string@_WU?$char_traits@_W@std@@V?$K2StringAllocator@_W@@@std@@I@Z 21099490 f i c_gameserver.obj
 0002:000164e0       ?AllocateEntity@CGameServer@@UAEPAVIGameEntity@@GI@Z 210994e0 f i c_gameserver.obj
 0002:00016530       ?AllocateDynamicEntity@CGameServer@@UAEPAVIGameEntity@@ABV?$basic_string@_WU?$char_traits@_W@std@@V?$K2StringAllocator@_W@@@std@@II@Z 21099530 f i c_gameserver.obj
 0002:00016570       ?AllocateDynamicEntity@CGameServer@@UAEPAVIGameEntity@@GII@Z 21099570 f i c_gameserver.obj
 0002:000165b0       ?FindPath@CGameServer@@UBEIABV?$CVec2@M@@MI0MPAV?$vector@IV?$K2VectorAllocator@I@@@@@Z 210995b0 f i c_gameserver.obj
 0002:00016610       ?AccessPath@CGameServer@@UBEPAVCPath@@I@Z 21099610 f i c_gameserver.obj
 0002:00016650       ?ClonePath@CGameServer@@UBEII@Z 21099650 f i c_gameserver.obj
 0002:00016690       ?FreePath@CGameServer@@UBEXI@Z 21099690 f i c_gameserver.obj
 0002:000166d0       ?BlockPath@CGameServer@@UAEIIABV?$CVec2@M@@MM@Z 210996d0 f i c_gameserver.obj
 0002:00016720       ?BlockPath@CGameServer@@UAEXAAV?$vector@IV?$K2VectorAllocator@I@@@@IABVCConvexPolyhedron@@M@Z 21099720 f i c_gameserver.obj
 0002:00016770       ?ClearPath@CGameServer@@UAEXI@Z 21099770 f i c_gameserver.obj
 0002:000167b0       ?LogPlayer@CGameServer@@UAEXW4EGameLogEvent@@PAVCPlayer@@@Z 210997b0 f i c_gameserver.obj
 0002:00016800       ?LogKill@CGameServer@@UAEXPAVIUnitEntity@@0PAVIGameEntity@@PAV?$vector@HV?$K2VectorAllocator@H@@@@@Z 21099800 f i c_gameserver.obj
 0002:00016840       ?LogAssist@CGameServer@@UAEXPAVIUnitEntity@@0PAVIGameEntity@@PAVCPlayer@@@Z 21099840 f i c_gameserver.obj
 0002:00016880       ?LogDamage@CGameServer@@UAEXPAVIUnitEntity@@HGGM@Z 21099880 f i c_gameserver.obj
 0002:000168d0       ?LogDeny@CGameServer@@UAEXPAVIUnitEntity@@0PAVIGameEntity@@MG@Z 210998d0 f i c_gameserver.obj
 0002:00016920       ?LogExperience@CGameServer@@UAEXW4EGameLogEvent@@PAVIUnitEntity@@1M@Z 21099920 f i c_gameserver.obj
 0002:00016970       ?LogGold@CGameServer@@UAEXW4EGameLogEvent@@PAVCPlayer@@PAVIUnitEntity@@G@Z 21099970 f i c_gameserver.obj
 0002:000169c0       ?LogHero@CGameServer@@UAEXW4EGameLogEvent@@PAVIHeroEntity@@ABV?$basic_string@_WU?$char_traits@_W@std@@V?$K2StringAllocator@_W@@@std@@@Z 210999c0 f i c_gameserver.obj
 0002:00016a00       ?LogAward@CGameServer@@UAEXW4EGameLogEvent@@PAVIUnitEntity@@1G@Z 21099a00 f i c_gameserver.obj
 0002:00016a50       ?LogItem@CGameServer@@UAEXW4EGameLogEvent@@PAVIEntityItem@@PAVIUnitEntity@@@Z 21099a50 f i c_gameserver.obj
 0002:00016a90       ?LogAbility@CGameServer@@UAEXW4EGameLogEvent@@PAVIEntityAbility@@PAVIUnitEntity@@@Z 21099a90 f i c_gameserver.obj
 0002:00016ad0       ??6CConsoleStream@@QAEAAV0@ABV?$basic_string@_WU?$char_traits@_W@std@@V?$K2StringAllocator@_W@@@std@@@Z 21099ad0 f i c_gameserver.obj
 0002:00016b00       ?AddOutputHistory@CConsoleStream@@AAEXABV?$basic_string@_WU?$char_traits@_W@std@@V?$K2StringAllocator@_W@@@std@@@Z 21099b00 f i c_gameserver.obj
 0002:00016b30       ??6CConsole@@QAEAAVCConsoleStream@@PB_W@Z 21099b30 f i c_gameserver.obj
 0002:00016b60       ??6CConsoleStream@@QAEAAV0@PB_W@Z 21099b60 f i c_gameserver.obj
 0002:00016bf0       ?GetHTTPManager@CHost@@QBEPAVCHTTPManager@@XZ 21099bf0 f i c_gameserver.obj
 0002:00016c10       ??1?$vector@IV?$K2VectorAllocator@I@@@@QAE@XZ 21099c10 f i c_gameserver.obj
 0002:00016c40       ??1IGame@@UAE@XZ           21099c40 f i c_gameserver.obj
 0002:00016d60       ?IsServer@IGame@@UBE_NXZ   21099d60 f i c_gameserver.obj
 0002:00016d80       ?IsClient@IGame@@UBE_NXZ   21099d80 f i c_gameserver.obj
 0002:00016da0       ?GetLocalClientNum@IGame@@UAEHXZ 21099da0 f i c_gameserver.obj
 0002:00016dc0       ?GetLocalPlayer@IGame@@UAEPAVCPlayer@@XZ 21099dc0 f i c_gameserver.obj
 0002:00016de0       ?StartMatch@IGame@@UAEXXZ  21099de0 f i c_gameserver.obj
 0002:00016e00       ?EndMatch@IGame@@UAEXH@Z   21099e00 f i c_gameserver.obj
 0002:00016e20       ?RegisterGameMechanics@IGame@@UAEII@Z 21099e20 f i c_gameserver.obj
 0002:00016e60       ?SendPopup@IGame@@UAEXEPAVIUnitEntity@@0G@Z 21099e60 f i c_gameserver.obj
 0002:00016e80       ?SendPopup@IGame@@UAEXW4EPopup@@PAVIUnitEntity@@1G@Z 21099e80 f i c_gameserver.obj
 0002:00016ea0       ?SendPing@IGame@@UAEXEPAVIUnitEntity@@0ABV?$CVec2@M@@@Z 21099ea0 f i c_gameserver.obj
 0002:00016ec0       ?SendPing@IGame@@UAEXW4EPing@@PAVIUnitEntity@@1ABV?$CVec2@M@@@Z 21099ec0 f i c_gameserver.obj
 0002:00016ee0       ?GetWorldPointer@IGame@@QBEPAVCWorld@@XZ 21099ee0 f i c_gameserver.obj
 0002:00016f00       ?DeleteWorldEntity@IGame@@UAEXI@Z 21099f00 f i c_gameserver.obj
 0002:00016f30       ?DeleteEntity@CWorld@@QBEXI@Z 21099f30 f i c_gameserver.obj
 0002:00016f70       ?GetVision@IGame@@UBEGMM@Z 21099f70 f i c_gameserver.obj
 0002:00016f90       ?AllocateEntity@IGame@@UAEPAVIGameEntity@@ABV?$basic_string@_WU?$char_traits@_W@std@@V?$K2StringAllocator@_W@@@std@@I@Z 21099f90 f i c_gameserver.obj
 0002:00016fb0       ?AllocateEntity@IGame@@UAEPAVIGameEntity@@GI@Z 21099fb0 f i c_gameserver.obj
 0002:00016fd0       ?AllocateDynamicEntity@IGame@@UAEPAVIGameEntity@@ABV?$basic_string@_WU?$char_traits@_W@std@@V?$K2StringAllocator@_W@@@std@@II@Z 21099fd0 f i c_gameserver.obj
 0002:00016ff0       ?AllocateDynamicEntity@IGame@@UAEPAVIGameEntity@@GII@Z 21099ff0 f i c_gameserver.obj
 0002:00017010       ?DeleteEntity@IGame@@UAEXPAVIGameEntity@@@Z 2109a010 f i c_gameserver.obj
 0002:00017030       ?DeleteEntity@IGame@@UAEXI@Z 2109a030 f i c_gameserver.obj
 0002:00017050       ?GetEntityString@IGame@@UBEABV?$basic_string@_WU?$char_traits@_W@std@@V?$K2StringAllocator@_W@@@std@@ABV23@@Z 2109a050 f i c_gameserver.obj
 0002:00017070       ?GetEntityString@IGame@@UBEABV?$basic_string@_WU?$char_traits@_W@std@@V?$K2StringAllocator@_W@@@std@@I@Z 2109a070 f i c_gameserver.obj
 0002:00017090       ?GetEntityStringIndex@IGame@@UBEIABV?$basic_string@_WU?$char_traits@_W@std@@V?$K2StringAllocator@_W@@@std@@@Z 2109a090 f i c_gameserver.obj
 0002:000170b0       ?GetPrecacheList@IGame@@UAEXABV?$basic_string@_WU?$char_traits@_W@std@@V?$K2StringAllocator@_W@@@std@@W4EPrecacheScheme@@0AAV?$deque@USHeroPrecache@@V?$K2DequeAllocator@USHeroPrecache@@@@@@@Z 2109a0b0 f i c_gameserver.obj
 0002:000170d0       ?GetCurrentSnapshot@IGame@@UAEPAVCClientSnapshot@@XZ 2109a0d0 f i c_gameserver.obj
 0002:000170f0       ?IsEntitySelected@IGame@@UAE_NI@Z 2109a0f0 f i c_gameserver.obj
 0002:00017110       ?IsEntityHoverSelected@IGame@@UAE_NI@Z 2109a110 f i c_gameserver.obj
 0002:00017130       ?GetActiveControlEntity@IGame@@UAEIXZ 2109a130 f i c_gameserver.obj
 0002:00017150       ?AddCameraEffectAngleOffset@IGame@@UAEXABV?$CVec3@M@@@Z 2109a150 f i c_gameserver.obj
 0002:00017170       ?AddCameraEffectOffset@IGame@@UAEXABV?$CVec3@M@@@Z 2109a170 f i c_gameserver.obj
 0002:00017190       ?GetCamera@IGame@@UBEPAVCCamera@@XZ 2109a190 f i c_gameserver.obj
 0002:000171b0       ?AddOverlay@IGame@@UAEXABV?$CVec4@M@@@Z 2109a1b0 f i c_gameserver.obj
 0002:000171d0       ?AddOverlay@IGame@@UAEXABV?$CVec4@M@@I@Z 2109a1d0 f i c_gameserver.obj
 0002:000171f0       ?GetPropType@IGame@@UBEABV?$basic_string@_WU?$char_traits@_W@std@@V?$K2StringAllocator@_W@@@std@@ABV23@@Z 2109a1f0 f i c_gameserver.obj
 0002:00017210       ?SendMessage@IGame@@UAEXABV?$basic_string@_WU?$char_traits@_W@std@@V?$K2StringAllocator@_W@@@std@@H@Z 2109a210 f i c_gameserver.obj
 0002:00017230       ?SendGameData@IGame@@UAEXHABVIBuffer@@_N@Z 2109a230 f i c_gameserver.obj
 0002:00017250       ?SendGameData@IGame@@UAEXHABVIBuffer@@_NI@Z 2109a250 f i c_gameserver.obj
 0002:00017270       ?SendReliablePacket@IGame@@UAEXHABVIBuffer@@@Z 2109a270 f i c_gameserver.obj
 0002:00017290       ?BroadcastGameData@IGame@@UAEXABVIBuffer@@_NHI@Z 2109a290 f i c_gameserver.obj
 0002:000172b0       ?BroadcastGameDataToTeam@IGame@@UAEXHABVIBuffer@@_NH@Z 2109a2b0 f i c_gameserver.obj
 0002:000172d0       ?HasMegaCreeps@IGame@@UAE_NI@Z 2109a2d0 f i c_gameserver.obj
 0002:000172f0       ?UpdateHeroList@IGame@@UAEXXZ 2109a2f0 f i c_gameserver.obj
 0002:00017310       ?FindPath@IGame@@UBEIABV?$CVec2@M@@MI0MPAV?$vector@IV?$K2VectorAllocator@I@@@@@Z 2109a310 f i c_gameserver.obj
 0002:00017330       ?AccessPath@IGame@@UBEPAVCPath@@I@Z 2109a330 f i c_gameserver.obj
 0002:00017350       ?ClonePath@IGame@@UBEII@Z  2109a350 f i c_gameserver.obj
 0002:00017370       ?FreePath@IGame@@UBEXI@Z   2109a370 f i c_gameserver.obj
 0002:00017390       ?BlockPath@IGame@@UAEIIABV?$CVec2@M@@MM@Z 2109a390 f i c_gameserver.obj
 0002:000173b0       ?BlockPath@IGame@@UAEXAAV?$vector@IV?$K2VectorAllocator@I@@@@IABVCConvexPolyhedron@@M@Z 2109a3b0 f i c_gameserver.obj
 0002:000173d0       ?ClearPath@IGame@@UAEXI@Z  2109a3d0 f i c_gameserver.obj
 0002:000173f0       ?GetConnectedClientCount@IGame@@UAEHH@Z 2109a3f0 f i c_gameserver.obj
 0002:00017410       ?UnitRespawned@IGame@@UAEXI@Z 2109a410 f i c_gameserver.obj
 0002:00017430       ?UnitKilled@IGame@@UAEXI@Z 2109a430 f i c_gameserver.obj
 0002:00017450       ?UpdateUnitVisibility@IGame@@UAEXPAVIUnitEntity@@@Z 2109a450 f i c_gameserver.obj
 0002:00017470       ?LogPlayer@IGame@@UAEXW4EGameLogEvent@@PAVCPlayer@@@Z 2109a470 f i c_gameserver.obj
 0002:00017490       ?LogKill@IGame@@UAEXPAVIUnitEntity@@0PAVIGameEntity@@PAV?$vector@HV?$K2VectorAllocator@H@@@@@Z 2109a490 f i c_gameserver.obj
 0002:000174b0       ?LogAssist@IGame@@UAEXPAVIUnitEntity@@0PAVIGameEntity@@PAVCPlayer@@@Z 2109a4b0 f i c_gameserver.obj
 0002:000174d0       ?LogDamage@IGame@@UAEXPAVIUnitEntity@@HGGM@Z 2109a4d0 f i c_gameserver.obj
 0002:000174f0       ?LogDeny@IGame@@UAEXPAVIUnitEntity@@0PAVIGameEntity@@MG@Z 2109a4f0 f i c_gameserver.obj
 0002:00017510       ?LogExperience@IGame@@UAEXW4EGameLogEvent@@PAVIUnitEntity@@1M@Z 2109a510 f i c_gameserver.obj
 0002:00017530       ?LogGold@IGame@@UAEXW4EGameLogEvent@@PAVCPlayer@@PAVIUnitEntity@@G@Z 2109a530 f i c_gameserver.obj
 0002:00017550       ?LogHero@IGame@@UAEXW4EGameLogEvent@@PAVIHeroEntity@@ABV?$basic_string@_WU?$char_traits@_W@std@@V?$K2StringAllocator@_W@@@std@@@Z 2109a550 f i c_gameserver.obj
 0002:00017570       ?LogAward@IGame@@UAEXW4EGameLogEvent@@PAVIUnitEntity@@1G@Z 2109a570 f i c_gameserver.obj
 0002:00017590       ?LogItem@IGame@@UAEXW4EGameLogEvent@@PAVIEntityItem@@PAVIUnitEntity@@@Z 2109a590 f i c_gameserver.obj
 0002:000175b0       ?LogAbility@IGame@@UAEXW4EGameLogEvent@@PAVIEntityAbility@@PAVIUnitEntity@@@Z 2109a5b0 f i c_gameserver.obj
 0002:000175d0       ?UsePlayerColors@IGame@@UAE_NXZ 2109a5d0 f i c_gameserver.obj
 0002:000175f0       ?UseHeroIndicators@IGame@@UAE_NXZ 2109a5f0 f i c_gameserver.obj
 0002:00017610       ?RequestChangeTeam@IGame@@UAEXHII@Z 2109a610 f i c_gameserver.obj
 0002:00017630       ?ChangeTeam@IGame@@UAEXHII@Z 2109a630 f i c_gameserver.obj
 0002:00017650       ?PurchaseItem@IGame@@UAE_NHIGH@Z 2109a650 f i c_gameserver.obj
 0002:00017670       ?SellItem@IGame@@UAEXHIH@Z 2109a670 f i c_gameserver.obj
 0002:00017690       ?MoveItem@IGame@@UAEXHIHH@Z 2109a690 f i c_gameserver.obj
 0002:000176b0       ?BuyBackHero@IGame@@UAE_NHI@Z 2109a6b0 f i c_gameserver.obj
 0002:000176d0       ?SetSelection@IGame@@UAEXHABV?$set@IU?$less@I@std@@V?$K2SetAllocator@I@@@@@Z 2109a6d0 f i c_gameserver.obj
 0002:000176f0       ?CanAccessAltAvatar@IGame@@UAE_NABV?$basic_string@_WU?$char_traits@_W@std@@V?$K2StringAllocator@_W@@@std@@0@Z 2109a6f0 f i c_gameserver.obj
 0002:00017710       ??_EIGame@@UAEPAXI@Z       2109a710 f i c_gameserver.obj
 0002:00017710       ??_GIGame@@UAEPAXI@Z       2109a710 f i c_gameserver.obj
 0002:00017760       ??1?$map@IPAVCTeamInfo@@U?$less@I@std@@V?$K2MapAllocator@U?$pair@$$CBIPAVCTeamInfo@@@std@@@@@@QAE@XZ 2109a760 f i c_gameserver.obj
 0002:00017790       ??1?$vector@USWaterMarker@IGame@@V?$K2VectorAllocator@USWaterMarker@IGame@@@@@@QAE@XZ 2109a790 f i c_gameserver.obj
 0002:000177c0       ??1?$map@HPAVCPlayer@@U?$less@H@std@@V?$K2MapAllocator@U?$pair@$$CBHPAVCPlayer@@@std@@@@@@QAE@XZ 2109a7c0 f i c_gameserver.obj
 0002:000177f0       ??1?$vector@GV?$K2VectorAllocator@G@@@@QAE@XZ 2109a7f0 f i c_gameserver.obj
 0002:00017820       ??1?$map@IPAVCTeamInfo@@U?$less@I@std@@V?$K2MapAllocator@U?$pair@$$CBIPAVCTeamInfo@@@std@@@@@std@@QAE@XZ 2109a820 f i c_gameserver.obj
 0002:00017850       ??1?$map@HPAVCPlayer@@U?$less@H@std@@V?$K2MapAllocator@U?$pair@$$CBHPAVCPlayer@@@std@@@@@std@@QAE@XZ 2109a850 f i c_gameserver.obj
 0002:00017880       ??1?$vector@IV?$K2VectorAllocator@I@@@std@@QAE@XZ 2109a880 f i c_gameserver.obj
 0002:00017900       ??1?$_Tree@V?$_Tmap_traits@HPAVCPlayer@@U?$less@H@std@@V?$K2MapAllocator@U?$pair@$$CBHPAVCPlayer@@@std@@@@$0A@@std@@@std@@QAE@XZ 2109a900 f i c_gameserver.obj
 0002:00017980       ??1?$_Tree@V?$_Tmap_traits@IPAVCTeamInfo@@U?$less@I@std@@V?$K2MapAllocator@U?$pair@$$CBIPAVCTeamInfo@@@std@@@@$0A@@std@@@std@@QAE@XZ 2109a980 f i c_gameserver.obj
 0002:00017a00       ??1?$vector@USWaterMarker@IGame@@V?$K2VectorAllocator@USWaterMarker@IGame@@@@@std@@QAE@XZ 2109aa00 f i c_gameserver.obj
 0002:00017a80       ??1?$vector@GV?$K2VectorAllocator@G@@@std@@QAE@XZ 2109aa80 f i c_gameserver.obj
 0002:00017b00       ??1?$_Vector_val@IV?$K2VectorAllocator@I@@@std@@QAE@XZ 2109ab00 f i c_gameserver.obj
 0002:00017b80       ??1?$_Tree_val@V?$_Tmap_traits@HPAVCPlayer@@U?$less@H@std@@V?$K2MapAllocator@U?$pair@$$CBHPAVCPlayer@@@std@@@@$0A@@std@@@std@@QAE@XZ 2109ab80 f i c_gameserver.obj
 0002:00017c00       ??1?$_Tree_val@V?$_Tmap_traits@IPAVCTeamInfo@@U?$less@I@std@@V?$K2MapAllocator@U?$pair@$$CBIPAVCTeamInfo@@@std@@@@$0A@@std@@@std@@QAE@XZ 2109ac00 f i c_gameserver.obj
 0002:00017c80       ??1?$_Vector_val@USWaterMarker@IGame@@V?$K2VectorAllocator@USWaterMarker@IGame@@@@@std@@QAE@XZ 2109ac80 f i c_gameserver.obj
 0002:00017d00       ??1?$_Vector_val@GV?$K2VectorAllocator@G@@@std@@QAE@XZ 2109ad00 f i c_gameserver.obj
 0002:00017d80       ??1?$_Tree_ptr@V?$_Tmap_traits@HPAVCPlayer@@U?$less@H@std@@V?$K2MapAllocator@U?$pair@$$CBHPAVCPlayer@@@std@@@@$0A@@std@@@std@@QAE@XZ 2109ad80 f i c_gameserver.obj
 0002:00017e00       ??1?$_Tree_ptr@V?$_Tmap_traits@IPAVCTeamInfo@@U?$less@I@std@@V?$K2MapAllocator@U?$pair@$$CBIPAVCTeamInfo@@@std@@@@$0A@@std@@@std@@QAE@XZ 2109ae00 f i c_gameserver.obj
 0002:00017e80       ??1?$_Tree_nod@V?$_Tmap_traits@HPAVCPlayer@@U?$less@H@std@@V?$K2MapAllocator@U?$pair@$$CBHPAVCPlayer@@@std@@@@$0A@@std@@@std@@QAE@XZ 2109ae80 f i c_gameserver.obj
 0002:00017f00       ??1?$_Tree_nod@V?$_Tmap_traits@IPAVCTeamInfo@@U?$less@I@std@@V?$K2MapAllocator@U?$pair@$$CBIPAVCTeamInfo@@@std@@@@$0A@@std@@@std@@QAE@XZ 2109af00 f i c_gameserver.obj
 0002:00017f80       ??1?$_Tmap_traits@HPAVCPlayer@@U?$less@H@std@@V?$K2MapAllocator@U?$pair@$$CBHPAVCPlayer@@@std@@@@$0A@@std@@QAE@XZ 2109af80 f i c_gameserver.obj
 0002:00017fb0       ??1?$_Tmap_traits@IPAVCTeamInfo@@U?$less@I@std@@V?$K2MapAllocator@U?$pair@$$CBIPAVCTeamInfo@@@std@@@@$0A@@std@@QAE@XZ 2109afb0 f i c_gameserver.obj
 0002:00017fe0       ?_Tidy@?$vector@IV?$K2VectorAllocator@I@@@std@@IAEXXZ 2109afe0 f i c_gameserver.obj
 0002:00018080       ?_Destroy@?$vector@IV?$K2VectorAllocator@I@@@std@@IAEXPAI0@Z 2109b080 f i c_gameserver.obj
 0002:000180c0       ??1?$K2VectorAllocator@I@@QAE@XZ 2109b0c0 f i c_gameserver.obj
 0002:000180e0       ?deallocate@?$K2VectorAllocator@I@@QAEXPAII@Z 2109b0e0 f i c_gameserver.obj
 0002:00018120       ?_Tidy@?$_Tree@V?$_Tmap_traits@HPAVCPlayer@@U?$less@H@std@@V?$K2MapAllocator@U?$pair@$$CBHPAVCPlayer@@@std@@@@$0A@@std@@@std@@IAEXXZ 2109b120 f i c_gameserver.obj
 0002:00018270       ??1?$K2MapAllocator@U?$pair@$$CBHPAVCPlayer@@@std@@@@QAE@XZ 2109b270 f i c_gameserver.obj
 0002:00018290       ??1?$K2MapAllocator@U_Node@?$_Tree_nod@V?$_Tmap_traits@HPAVCPlayer@@U?$less@H@std@@V?$K2MapAllocator@U?$pair@$$CBHPAVCPlayer@@@std@@@@$0A@@std@@@std@@@@QAE@XZ 2109b290 f i c_gameserver.obj
 0002:000182b0       ??1?$K2MapAllocator@PAU_Node@?$_Tree_nod@V?$_Tmap_traits@HPAVCPlayer@@U?$less@H@std@@V?$K2MapAllocator@U?$pair@$$CBHPAVCPlayer@@@std@@@@$0A@@std@@@std@@@@QAE@XZ 2109b2b0 f i c_gameserver.obj
 0002:000182d0       ?_Tidy@?$_Tree@V?$_Tmap_traits@IPAVCTeamInfo@@U?$less@I@std@@V?$K2MapAllocator@U?$pair@$$CBIPAVCTeamInfo@@@std@@@@$0A@@std@@@std@@IAEXXZ 2109b2d0 f i c_gameserver.obj
 0002:00018420       ??1iterator@?$_Tree@V?$_Tmap_traits@IPAVCTeamInfo@@U?$less@I@std@@V?$K2MapAllocator@U?$pair@$$CBIPAVCTeamInfo@@@std@@@@$0A@@std@@@std@@QAE@XZ 2109b420 f i c_gameserver.obj
 0002:00018450       ??1const_iterator@?$_Tree@V?$_Tmap_traits@IPAVCTeamInfo@@U?$less@I@std@@V?$K2MapAllocator@U?$pair@$$CBIPAVCTeamInfo@@@std@@@@$0A@@std@@@std@@QAE@XZ 2109b450 f i c_gameserver.obj
 0002:00018480       ??1?$_Bidit@U?$pair@$$CBIPAVCTeamInfo@@@std@@HPBU12@ABU12@@std@@QAE@XZ 2109b480 f i c_gameserver.obj
 0002:000184b0       ?end@?$_Tree@V?$_Tmap_traits@IPAVCTeamInfo@@U?$less@I@std@@V?$K2MapAllocator@U?$pair@$$CBIPAVCTeamInfo@@@std@@@@$0A@@std@@@std@@QAE?AViterator@12@XZ 2109b4b0 f i c_gameserver.obj
 0002:00018500       ?_Left@?$_Tree@V?$_Tmap_traits@IPAVCTeamInfo@@U?$less@I@std@@V?$K2MapAllocator@U?$pair@$$CBIPAVCTeamInfo@@@std@@@@$0A@@std@@@std@@KAAAPAU_Node@?$_Tree_nod@V?$_Tmap_traits@IPAVCTeamInfo@@U?$less@I@std@@V?$K2MapAllocator@U?$pair@$$CBIPAVCTeamInfo@@@std@@@@$0A@@std@@@2@PAU342@@Z 2109b500 f i c_gameserver.obj
 0002:00018520       ?_Parent@?$_Tree@V?$_Tmap_traits@IPAVCTeamInfo@@U?$less@I@std@@V?$K2MapAllocator@U?$pair@$$CBIPAVCTeamInfo@@@std@@@@$0A@@std@@@std@@KAAAPAU_Node@?$_Tree_nod@V?$_Tmap_traits@IPAVCTeamInfo@@U?$less@I@std@@V?$K2MapAllocator@U?$pair@$$CBIPAVCTeamInfo@@@std@@@@$0A@@std@@@2@PAU342@@Z 2109b520 f i c_gameserver.obj
 0002:00018540       ?_Right@?$_Tree@V?$_Tmap_traits@IPAVCTeamInfo@@U?$less@I@std@@V?$K2MapAllocator@U?$pair@$$CBIPAVCTeamInfo@@@std@@@@$0A@@std@@@std@@KAAAPAU_Node@?$_Tree_nod@V?$_Tmap_traits@IPAVCTeamInfo@@U?$less@I@std@@V?$K2MapAllocator@U?$pair@$$CBIPAVCTeamInfo@@@std@@@@$0A@@std@@@2@PAU342@@Z 2109b540 f i c_gameserver.obj
 0002:00018560       ??1?$K2MapAllocator@U?$pair@$$CBIPAVCTeamInfo@@@std@@@@QAE@XZ 2109b560 f i c_gameserver.obj
 0002:00018580       ??1?$K2MapAllocator@U_Node@?$_Tree_nod@V?$_Tmap_traits@IPAVCTeamInfo@@U?$less@I@std@@V?$K2MapAllocator@U?$pair@$$CBIPAVCTeamInfo@@@std@@@@$0A@@std@@@std@@@@QAE@XZ 2109b580 f i c_gameserver.obj
 0002:000185a0       ?deallocate@?$K2MapAllocator@U_Node@?$_Tree_nod@V?$_Tmap_traits@IPAVCTeamInfo@@U?$less@I@std@@V?$K2MapAllocator@U?$pair@$$CBIPAVCTeamInfo@@@std@@@@$0A@@std@@@std@@@@QAEXPAU_Node@?$_Tree_nod@V?$_Tmap_traits@IPAVCTeamInfo@@U?$less@I@std@@V?$K2MapAllocator@U?$pair@$$CBIPAVCTeamInfo@@@std@@@@$0A@@std@@@std@@I@Z 2109b5a0 f i c_gameserver.obj
 0002:000185e0       ??1?$K2MapAllocator@PAU_Node@?$_Tree_nod@V?$_Tmap_traits@IPAVCTeamInfo@@U?$less@I@std@@V?$K2MapAllocator@U?$pair@$$CBIPAVCTeamInfo@@@std@@@@$0A@@std@@@std@@@@QAE@XZ 2109b5e0 f i c_gameserver.obj
 0002:00018600       ?_Tidy@?$vector@USWaterMarker@IGame@@V?$K2VectorAllocator@USWaterMarker@IGame@@@@@std@@IAEXXZ 2109b600 f i c_gameserver.obj
 0002:000186a0       ??1?$K2VectorAllocator@USWaterMarker@IGame@@@@QAE@XZ 2109b6a0 f i c_gameserver.obj
 0002:000186c0       ?_Tidy@?$vector@GV?$K2VectorAllocator@G@@@std@@IAEXXZ 2109b6c0 f i c_gameserver.obj
 0002:00018760       ??1?$K2VectorAllocator@G@@QAE@XZ 2109b760 f i c_gameserver.obj
 0002:00018780       ??0iterator@?$_Tree@V?$_Tmap_traits@IPAVCTeamInfo@@U?$less@I@std@@V?$K2MapAllocator@U?$pair@$$CBIPAVCTeamInfo@@@std@@@@$0A@@std@@@std@@QAE@PAU_Node@?$_Tree_nod@V?$_Tmap_traits@IPAVCTeamInfo@@U?$less@I@std@@V?$K2MapAllocator@U?$pair@$$CBIPAVCTeamInfo@@@std@@@@$0A@@std@@@2@PBV12@@Z 2109b780 f i c_gameserver.obj
 0002:000187c0       ??0const_iterator@?$_Tree@V?$_Tmap_traits@IPAVCTeamInfo@@U?$less@I@std@@V?$K2MapAllocator@U?$pair@$$CBIPAVCTeamInfo@@@std@@@@$0A@@std@@@std@@QAE@PAU_Node@?$_Tree_nod@V?$_Tmap_traits@IPAVCTeamInfo@@U?$less@I@std@@V?$K2MapAllocator@U?$pair@$$CBIPAVCTeamInfo@@@std@@@@$0A@@std@@@2@PBV12@@Z 2109b7c0 f i c_gameserver.obj
 0002:00018850       ??0?$_Bidit@U?$pair@$$CBIPAVCTeamInfo@@@std@@HPBU12@ABU12@@std@@QAE@XZ 2109b850 f i c_gameserver.obj
 0002:00018880       ?begin@?$_Tree@V?$_Tmap_traits@HPAVCPlayer@@U?$less@H@std@@V?$K2MapAllocator@U?$pair@$$CBHPAVCPlayer@@@std@@@@$0A@@std@@@std@@QAE?AViterator@12@XZ 2109b880 f i c_gameserver.obj
 0002:000188d0       ?erase@?$_Tree@V?$_Tmap_traits@HPAVCPlayer@@U?$less@H@std@@V?$K2MapAllocator@U?$pair@$$CBHPAVCPlayer@@@std@@@@$0A@@std@@@std@@QAE?AViterator@12@V312@0@Z 2109b8d0 f i c_gameserver.obj
 0002:00018b60       ?deallocate@?$K2MapAllocator@U_Node@?$_Tree_nod@V?$_Tmap_traits@HPAVCPlayer@@U?$less@H@std@@V?$K2MapAllocator@U?$pair@$$CBHPAVCPlayer@@@std@@@@$0A@@std@@@std@@@@QAEXPAU_Node@?$_Tree_nod@V?$_Tmap_traits@HPAVCPlayer@@U?$less@H@std@@V?$K2MapAllocator@U?$pair@$$CBHPAVCPlayer@@@std@@@@$0A@@std@@@std@@I@Z 2109bb60 f i c_gameserver.obj
 0002:00018ba0       ?destroy@?$allocator@PAU_Node@?$_Tree_nod@V?$_Tmap_traits@HPAVCPlayer@@U?$less@H@std@@V?$K2MapAllocator@U?$pair@$$CBHPAVCPlayer@@@std@@@@$0A@@std@@@std@@@std@@QAEXPAPAU_Node@?$_Tree_nod@V?$_Tmap_traits@HPAVCPlayer@@U?$less@H@std@@V?$K2MapAllocator@U?$pair@$$CBHPAVCPlayer@@@std@@@@$0A@@std@@@2@@Z 2109bba0 f i c_gameserver.obj
 0002:00018bd0       ?begin@?$_Tree@V?$_Tmap_traits@IPAVCTeamInfo@@U?$less@I@std@@V?$K2MapAllocator@U?$pair@$$CBIPAVCTeamInfo@@@std@@@@$0A@@std@@@std@@QAE?AViterator@12@XZ 2109bbd0 f i c_gameserver.obj
 0002:00018c20       ?_Lmost@?$_Tree@V?$_Tmap_traits@IPAVCTeamInfo@@U?$less@I@std@@V?$K2MapAllocator@U?$pair@$$CBIPAVCTeamInfo@@@std@@@@$0A@@std@@@std@@IBEAAPAU_Node@?$_Tree_nod@V?$_Tmap_traits@IPAVCTeamInfo@@U?$less@I@std@@V?$K2MapAllocator@U?$pair@$$CBIPAVCTeamInfo@@@std@@@@$0A@@std@@@2@XZ 2109bc20 f i c_gameserver.obj
 0002:00018c50       ?erase@?$_Tree@V?$_Tmap_traits@IPAVCTeamInfo@@U?$less@I@std@@V?$K2MapAllocator@U?$pair@$$CBIPAVCTeamInfo@@@std@@@@$0A@@std@@@std@@QAE?AViterator@12@V312@0@Z 2109bc50 f i c_gameserver.obj
 0002:00018ee0       ??0iterator@?$_Tree@V?$_Tmap_traits@IPAVCTeamInfo@@U?$less@I@std@@V?$K2MapAllocator@U?$pair@$$CBIPAVCTeamInfo@@@std@@@@$0A@@std@@@std@@QAE@ABV012@@Z 2109bee0 f i c_gameserver.obj
 0002:00018f10       ??0const_iterator@?$_Tree@V?$_Tmap_traits@IPAVCTeamInfo@@U?$less@I@std@@V?$K2MapAllocator@U?$pair@$$CBIPAVCTeamInfo@@@std@@@@$0A@@std@@@std@@QAE@ABV012@@Z 2109bf10 f i c_gameserver.obj
 0002:00018f50       ??0?$_Bidit@U?$pair@$$CBIPAVCTeamInfo@@@std@@HPBU12@ABU12@@std@@QAE@ABU01@@Z 2109bf50 f i c_gameserver.obj
 0002:00018f80       ?erase@?$_Tree@V?$_Tmap_traits@IPAVCTeamInfo@@U?$less@I@std@@V?$K2MapAllocator@U?$pair@$$CBIPAVCTeamInfo@@@std@@@@$0A@@std@@@std@@QAE?AViterator@12@V312@@Z 2109bf80 f i c_gameserver.obj
 0002:00019960       ?clear@?$_Tree@V?$_Tmap_traits@IPAVCTeamInfo@@U?$less@I@std@@V?$K2MapAllocator@U?$pair@$$CBIPAVCTeamInfo@@@std@@@@$0A@@std@@@std@@QAEXXZ 2109c960 f i c_gameserver.obj
 0002:000199f0       ??8const_iterator@?$_Tree@V?$_Tmap_traits@IPAVCTeamInfo@@U?$less@I@std@@V?$K2MapAllocator@U?$pair@$$CBIPAVCTeamInfo@@@std@@@@$0A@@std@@@std@@QBE_NABV012@@Z 2109c9f0 f i c_gameserver.obj
 0002:00019ab0       ??9const_iterator@?$_Tree@V?$_Tmap_traits@IPAVCTeamInfo@@U?$less@I@std@@V?$K2MapAllocator@U?$pair@$$CBIPAVCTeamInfo@@@std@@@@$0A@@std@@@std@@QBE_NABV012@@Z 2109cab0 f i c_gameserver.obj
 0002:00019af0       ?_Color@?$_Tree@V?$_Tmap_traits@IPAVCTeamInfo@@U?$less@I@std@@V?$K2MapAllocator@U?$pair@$$CBIPAVCTeamInfo@@@std@@@@$0A@@std@@@std@@KAAADPAU_Node@?$_Tree_nod@V?$_Tmap_traits@IPAVCTeamInfo@@U?$less@I@std@@V?$K2MapAllocator@U?$pair@$$CBIPAVCTeamInfo@@@std@@@@$0A@@std@@@2@@Z 2109caf0 f i c_gameserver.obj
 0002:00019b10       ?_Isnil@?$_Tree@V?$_Tmap_traits@IPAVCTeamInfo@@U?$less@I@std@@V?$K2MapAllocator@U?$pair@$$CBIPAVCTeamInfo@@@std@@@@$0A@@std@@@std@@KAAADPAU_Node@?$_Tree_nod@V?$_Tmap_traits@IPAVCTeamInfo@@U?$less@I@std@@V?$K2MapAllocator@U?$pair@$$CBIPAVCTeamInfo@@@std@@@@$0A@@std@@@2@@Z 2109cb10 f i c_gameserver.obj
 0002:00019b30       ?_Erase@?$_Tree@V?$_Tmap_traits@IPAVCTeamInfo@@U?$less@I@std@@V?$K2MapAllocator@U?$pair@$$CBIPAVCTeamInfo@@@std@@@@$0A@@std@@@std@@IAEXPAU_Node@?$_Tree_nod@V?$_Tmap_traits@IPAVCTeamInfo@@U?$less@I@std@@V?$K2MapAllocator@U?$pair@$$CBIPAVCTeamInfo@@@std@@@@$0A@@std@@@2@@Z 2109cb30 f i c_gameserver.obj
 0002:00019bd0       ?_Lrotate@?$_Tree@V?$_Tmap_traits@IPAVCTeamInfo@@U?$less@I@std@@V?$K2MapAllocator@U?$pair@$$CBIPAVCTeamInfo@@@std@@@@$0A@@std@@@std@@IAEXPAU_Node@?$_Tree_nod@V?$_Tmap_traits@IPAVCTeamInfo@@U?$less@I@std@@V?$K2MapAllocator@U?$pair@$$CBIPAVCTeamInfo@@@std@@@@$0A@@std@@@2@@Z 2109cbd0 f i c_gameserver.obj
 0002:00019d60       ?_Max@?$_Tree@V?$_Tmap_traits@IPAVCTeamInfo@@U?$less@I@std@@V?$K2MapAllocator@U?$pair@$$CBIPAVCTeamInfo@@@std@@@@$0A@@std@@@std@@KAPAU_Node@?$_Tree_nod@V?$_Tmap_traits@IPAVCTeamInfo@@U?$less@I@std@@V?$K2MapAllocator@U?$pair@$$CBIPAVCTeamInfo@@@std@@@@$0A@@std@@@2@PAU342@@Z 2109cd60 f i c_gameserver.obj
 0002:00019dc0       ?_Min@?$_Tree@V?$_Tmap_traits@IPAVCTeamInfo@@U?$less@I@std@@V?$K2MapAllocator@U?$pair@$$CBIPAVCTeamInfo@@@std@@@@$0A@@std@@@std@@KAPAU_Node@?$_Tree_nod@V?$_Tmap_traits@IPAVCTeamInfo@@U?$less@I@std@@V?$K2MapAllocator@U?$pair@$$CBIPAVCTeamInfo@@@std@@@@$0A@@std@@@2@PAU342@@Z 2109cdc0 f i c_gameserver.obj
 0002:00019e20       ?_Rmost@?$_Tree@V?$_Tmap_traits@IPAVCTeamInfo@@U?$less@I@std@@V?$K2MapAllocator@U?$pair@$$CBIPAVCTeamInfo@@@std@@@@$0A@@std@@@std@@IBEAAPAU_Node@?$_Tree_nod@V?$_Tmap_traits@IPAVCTeamInfo@@U?$less@I@std@@V?$K2MapAllocator@U?$pair@$$CBIPAVCTeamInfo@@@std@@@@$0A@@std@@@2@XZ 2109ce20 f i c_gameserver.obj
 0002:00019e50       ?_Root@?$_Tree@V?$_Tmap_traits@IPAVCTeamInfo@@U?$less@I@std@@V?$K2MapAllocator@U?$pair@$$CBIPAVCTeamInfo@@@std@@@@$0A@@std@@@std@@IBEAAPAU_Node@?$_Tree_nod@V?$_Tmap_traits@IPAVCTeamInfo@@U?$less@I@std@@V?$K2MapAllocator@U?$pair@$$CBIPAVCTeamInfo@@@std@@@@$0A@@std@@@2@XZ 2109ce50 f i c_gameserver.obj
 0002:00019e80       ?_Rrotate@?$_Tree@V?$_Tmap_traits@IPAVCTeamInfo@@U?$less@I@std@@V?$K2MapAllocator@U?$pair@$$CBIPAVCTeamInfo@@@std@@@@$0A@@std@@@std@@IAEXPAU_Node@?$_Tree_nod@V?$_Tmap_traits@IPAVCTeamInfo@@U?$less@I@std@@V?$K2MapAllocator@U?$pair@$$CBIPAVCTeamInfo@@@std@@@@$0A@@std@@@2@@Z 2109ce80 f i c_gameserver.obj
 0002:0001a010       ?_Orphan_ptr@?$_Tree@V?$_Tmap_traits@IPAVCTeamInfo@@U?$less@I@std@@V?$K2MapAllocator@U?$pair@$$CBIPAVCTeamInfo@@@std@@@@$0A@@std@@@std@@IBEXAAV12@PAU_Node@?$_Tree_nod@V?$_Tmap_traits@IPAVCTeamInfo@@U?$less@I@std@@V?$K2MapAllocator@U?$pair@$$CBIPAVCTeamInfo@@@std@@@@$0A@@std@@@2@@Z 2109d010 f i c_gameserver.obj
 0002:0001a0c0       ?destroy@?$allocator@U_Node@?$_Tree_nod@V?$_Tmap_traits@IPAVCTeamInfo@@U?$less@I@std@@V?$K2MapAllocator@U?$pair@$$CBIPAVCTeamInfo@@@std@@@@$0A@@std@@@std@@@std@@QAEXPAU_Node@?$_Tree_nod@V?$_Tmap_traits@IPAVCTeamInfo@@U?$less@I@std@@V?$K2MapAllocator@U?$pair@$$CBIPAVCTeamInfo@@@std@@@@$0A@@std@@@2@@Z 2109d0c0 f i c_gameserver.obj
 0002:0001a0f0       ?_Mynode@const_iterator@?$_Tree@V?$_Tmap_traits@IPAVCTeamInfo@@U?$less@I@std@@V?$K2MapAllocator@U?$pair@$$CBIPAVCTeamInfo@@@std@@@@$0A@@std@@@std@@QBEPAU_Node@?$_Tree_nod@V?$_Tmap_traits@IPAVCTeamInfo@@U?$less@I@std@@V?$K2MapAllocator@U?$pair@$$CBIPAVCTeamInfo@@@std@@@@$0A@@std@@@3@XZ 2109d0f0 f i c_gameserver.obj
 0002:0001a110       ??Eiterator@?$_Tree@V?$_Tmap_traits@IPAVCTeamInfo@@U?$less@I@std@@V?$K2MapAllocator@U?$pair@$$CBIPAVCTeamInfo@@@std@@@@$0A@@std@@@std@@QAEAAV012@XZ 2109d110 f i c_gameserver.obj
 0002:0001a140       ?destroy@?$allocator@PAU_Node@?$_Tree_nod@V?$_Tmap_traits@IPAVCTeamInfo@@U?$less@I@std@@V?$K2MapAllocator@U?$pair@$$CBIPAVCTeamInfo@@@std@@@@$0A@@std@@@std@@@std@@QAEXPAPAU_Node@?$_Tree_nod@V?$_Tmap_traits@IPAVCTeamInfo@@U?$less@I@std@@V?$K2MapAllocator@U?$pair@$$CBIPAVCTeamInfo@@@std@@@@$0A@@std@@@2@@Z 2109d140 f i c_gameserver.obj
 0002:0001a170       ?_Destroy@?$vector@USWaterMarker@IGame@@V?$K2VectorAllocator@USWaterMarker@IGame@@@@@std@@IAEXPAUSWaterMarker@IGame@@0@Z 2109d170 f i c_gameserver.obj
 0002:0001a1b0       ?deallocate@?$K2VectorAllocator@USWaterMarker@IGame@@@@QAEXPAUSWaterMarker@IGame@@I@Z 2109d1b0 f i c_gameserver.obj
 0002:0001a1f0       ?_Destroy@?$vector@GV?$K2VectorAllocator@G@@@std@@IAEXPAG0@Z 2109d1f0 f i c_gameserver.obj
 0002:0001a230       ?deallocate@?$K2VectorAllocator@G@@QAEXPAGI@Z 2109d230 f i c_gameserver.obj
 0002:0001a270       ??Econst_iterator@?$_Tree@V?$_Tmap_traits@IPAVCTeamInfo@@U?$less@I@std@@V?$K2MapAllocator@U?$pair@$$CBIPAVCTeamInfo@@@std@@@@$0A@@std@@@std@@QAEAAV012@XZ 2109d270 f i c_gameserver.obj
 0002:0001a2a0       ?erase@?$_Tree@V?$_Tmap_traits@HPAVCPlayer@@U?$less@H@std@@V?$K2MapAllocator@U?$pair@$$CBHPAVCPlayer@@@std@@@@$0A@@std@@@std@@QAE?AViterator@12@V312@@Z 2109d2a0 f i c_gameserver.obj
 0002:0001ac80       ?clear@?$_Tree@V?$_Tmap_traits@HPAVCPlayer@@U?$less@H@std@@V?$K2MapAllocator@U?$pair@$$CBHPAVCPlayer@@@std@@@@$0A@@std@@@std@@QAEXXZ 2109dc80 f i c_gameserver.obj
 0002:0001ad10       ?_Lmost@?$_Tree@V?$_Tmap_traits@HPAVCPlayer@@U?$less@H@std@@V?$K2MapAllocator@U?$pair@$$CBHPAVCPlayer@@@std@@@@$0A@@std@@@std@@IBEAAPAU_Node@?$_Tree_nod@V?$_Tmap_traits@HPAVCPlayer@@U?$less@H@std@@V?$K2MapAllocator@U?$pair@$$CBHPAVCPlayer@@@std@@@@$0A@@std@@@2@XZ 2109dd10 f i c_gameserver.obj
 0002:0001ad40       ?_Inc@const_iterator@?$_Tree@V?$_Tmap_traits@IPAVCTeamInfo@@U?$less@I@std@@V?$K2MapAllocator@U?$pair@$$CBIPAVCTeamInfo@@@std@@@@$0A@@std@@@std@@QAEXXZ 2109dd40 f i c_gameserver.obj
 0002:0001aeb0       ??Eiterator@?$_Tree@V?$_Tmap_traits@IPAVCTeamInfo@@U?$less@I@std@@V?$K2MapAllocator@U?$pair@$$CBIPAVCTeamInfo@@@std@@@@$0A@@std@@@std@@QAE?AV012@H@Z 2109deb0 f i c_gameserver.obj
 0002:0001af60       ??Eiterator@?$_Tree@V?$_Tmap_traits@HPAVCPlayer@@U?$less@H@std@@V?$K2MapAllocator@U?$pair@$$CBHPAVCPlayer@@@std@@@@$0A@@std@@@std@@QAE?AV012@H@Z 2109df60 f i c_gameserver.obj
 0002:0001b010       ??9const_iterator@?$_Tree@V?$_Tmap_traits@HPAVCPlayer@@U?$less@H@std@@V?$K2MapAllocator@U?$pair@$$CBHPAVCPlayer@@@std@@@@$0A@@std@@@std@@QBE_NABV012@@Z 2109e010 f i c_gameserver.obj
 0002:0001b050       ?_Color@?$_Tree@V?$_Tmap_traits@HPAVCPlayer@@U?$less@H@std@@V?$K2MapAllocator@U?$pair@$$CBHPAVCPlayer@@@std@@@@$0A@@std@@@std@@KAAADPAU_Node@?$_Tree_nod@V?$_Tmap_traits@HPAVCPlayer@@U?$less@H@std@@V?$K2MapAllocator@U?$pair@$$CBHPAVCPlayer@@@std@@@@$0A@@std@@@2@@Z 2109e050 f i c_gameserver.obj
 0002:0001b070       ?_Erase@?$_Tree@V?$_Tmap_traits@HPAVCPlayer@@U?$less@H@std@@V?$K2MapAllocator@U?$pair@$$CBHPAVCPlayer@@@std@@@@$0A@@std@@@std@@IAEXPAU_Node@?$_Tree_nod@V?$_Tmap_traits@HPAVCPlayer@@U?$less@H@std@@V?$K2MapAllocator@U?$pair@$$CBHPAVCPlayer@@@std@@@@$0A@@std@@@2@@Z 2109e070 f i c_gameserver.obj
 0002:0001b110       ?_Lrotate@?$_Tree@V?$_Tmap_traits@HPAVCPlayer@@U?$less@H@std@@V?$K2MapAllocator@U?$pair@$$CBHPAVCPlayer@@@std@@@@$0A@@std@@@std@@IAEXPAU_Node@?$_Tree_nod@V?$_Tmap_traits@HPAVCPlayer@@U?$less@H@std@@V?$K2MapAllocator@U?$pair@$$CBHPAVCPlayer@@@std@@@@$0A@@std@@@2@@Z 2109e110 f i c_gameserver.obj
 0002:0001b2a0       ?_Max@?$_Tree@V?$_Tmap_traits@HPAVCPlayer@@U?$less@H@std@@V?$K2MapAllocator@U?$pair@$$CBHPAVCPlayer@@@std@@@@$0A@@std@@@std@@KAPAU_Node@?$_Tree_nod@V?$_Tmap_traits@HPAVCPlayer@@U?$less@H@std@@V?$K2MapAllocator@U?$pair@$$CBHPAVCPlayer@@@std@@@@$0A@@std@@@2@PAU342@@Z 2109e2a0 f i c_gameserver.obj
 0002:0001b300       ?_Min@?$_Tree@V?$_Tmap_traits@HPAVCPlayer@@U?$less@H@std@@V?$K2MapAllocator@U?$pair@$$CBHPAVCPlayer@@@std@@@@$0A@@std@@@std@@KAPAU_Node@?$_Tree_nod@V?$_Tmap_traits@HPAVCPlayer@@U?$less@H@std@@V?$K2MapAllocator@U?$pair@$$CBHPAVCPlayer@@@std@@@@$0A@@std@@@2@PAU342@@Z 2109e300 f i c_gameserver.obj
 0002:0001b360       ?_Rmost@?$_Tree@V?$_Tmap_traits@HPAVCPlayer@@U?$less@H@std@@V?$K2MapAllocator@U?$pair@$$CBHPAVCPlayer@@@std@@@@$0A@@std@@@std@@IBEAAPAU_Node@?$_Tree_nod@V?$_Tmap_traits@HPAVCPlayer@@U?$less@H@std@@V?$K2MapAllocator@U?$pair@$$CBHPAVCPlayer@@@std@@@@$0A@@std@@@2@XZ 2109e360 f i c_gameserver.obj
 0002:0001b390       ?_Rrotate@?$_Tree@V?$_Tmap_traits@HPAVCPlayer@@U?$less@H@std@@V?$K2MapAllocator@U?$pair@$$CBHPAVCPlayer@@@std@@@@$0A@@std@@@std@@IAEXPAU_Node@?$_Tree_nod@V?$_Tmap_traits@HPAVCPlayer@@U?$less@H@std@@V?$K2MapAllocator@U?$pair@$$CBHPAVCPlayer@@@std@@@@$0A@@std@@@2@@Z 2109e390 f i c_gameserver.obj
 0002:0001b520       ?_Orphan_ptr@?$_Tree@V?$_Tmap_traits@HPAVCPlayer@@U?$less@H@std@@V?$K2MapAllocator@U?$pair@$$CBHPAVCPlayer@@@std@@@@$0A@@std@@@std@@IBEXAAV12@PAU_Node@?$_Tree_nod@V?$_Tmap_traits@HPAVCPlayer@@U?$less@H@std@@V?$K2MapAllocator@U?$pair@$$CBHPAVCPlayer@@@std@@@@$0A@@std@@@2@@Z 2109e520 f i c_gameserver.obj
 0002:0001b5d0       ?destroy@?$allocator@U_Node@?$_Tree_nod@V?$_Tmap_traits@HPAVCPlayer@@U?$less@H@std@@V?$K2MapAllocator@U?$pair@$$CBHPAVCPlayer@@@std@@@@$0A@@std@@@std@@@std@@QAEXPAU_Node@?$_Tree_nod@V?$_Tmap_traits@HPAVCPlayer@@U?$less@H@std@@V?$K2MapAllocator@U?$pair@$$CBHPAVCPlayer@@@std@@@@$0A@@std@@@2@@Z 2109e5d0 f i c_gameserver.obj
 0002:0001b600       ??Eiterator@?$_Tree@V?$_Tmap_traits@HPAVCPlayer@@U?$less@H@std@@V?$K2MapAllocator@U?$pair@$$CBHPAVCPlayer@@@std@@@@$0A@@std@@@std@@QAEAAV012@XZ 2109e600 f i c_gameserver.obj
 0002:0001b630       ??Econst_iterator@?$_Tree@V?$_Tmap_traits@HPAVCPlayer@@U?$less@H@std@@V?$K2MapAllocator@U?$pair@$$CBHPAVCPlayer@@@std@@@@$0A@@std@@@std@@QAEAAV012@XZ 2109e630 f i c_gameserver.obj
 0002:0001b660       ?_Inc@const_iterator@?$_Tree@V?$_Tmap_traits@HPAVCPlayer@@U?$less@H@std@@V?$K2MapAllocator@U?$pair@$$CBHPAVCPlayer@@@std@@@@$0A@@std@@@std@@QAEXXZ 2109e660 f i c_gameserver.obj
 0002:0001b7d0       ??$swap@D@std@@YAXAAD0@Z   2109e7d0 f i c_gameserver.obj
 0002:0001b810       ??$_Destroy_range@IV?$K2VectorAllocator@I@@@std@@YAXPAI0AAV?$K2VectorAllocator@I@@@Z 2109e810 f i c_gameserver.obj
 0002:0001b860       ??$_Destroy@U_Node@?$_Tree_nod@V?$_Tmap_traits@IPAVCTeamInfo@@U?$less@I@std@@V?$K2MapAllocator@U?$pair@$$CBIPAVCTeamInfo@@@std@@@@$0A@@std@@@std@@@std@@YAXPAU_Node@?$_Tree_nod@V?$_Tmap_traits@IPAVCTeamInfo@@U?$less@I@std@@V?$K2MapAllocator@U?$pair@$$CBIPAVCTeamInfo@@@std@@@@$0A@@std@@@0@@Z 2109e860 f i c_gameserver.obj
 0002:0001b880       ??$_Destroy@PAU_Node@?$_Tree_nod@V?$_Tmap_traits@HPAVCPlayer@@U?$less@H@std@@V?$K2MapAllocator@U?$pair@$$CBHPAVCPlayer@@@std@@@@$0A@@std@@@std@@@std@@YAXPAPAU_Node@?$_Tree_nod@V?$_Tmap_traits@HPAVCPlayer@@U?$less@H@std@@V?$K2MapAllocator@U?$pair@$$CBHPAVCPlayer@@@std@@@@$0A@@std@@@0@@Z 2109e880 f i c_gameserver.obj
 0002:0001b8a0       ??$_Destroy@PAU_Node@?$_Tree_nod@V?$_Tmap_traits@IPAVCTeamInfo@@U?$less@I@std@@V?$K2MapAllocator@U?$pair@$$CBIPAVCTeamInfo@@@std@@@@$0A@@std@@@std@@@std@@YAXPAPAU_Node@?$_Tree_nod@V?$_Tmap_traits@IPAVCTeamInfo@@U?$less@I@std@@V?$K2MapAllocator@U?$pair@$$CBIPAVCTeamInfo@@@std@@@@$0A@@std@@@0@@Z 2109e8a0 f i c_gameserver.obj
 0002:0001b8c0       ??$_Destroy_range@USWaterMarker@IGame@@V?$K2VectorAllocator@USWaterMarker@IGame@@@@@std@@YAXPAUSWaterMarker@IGame@@0AAV?$K2VectorAllocator@USWaterMarker@IGame@@@@@Z 2109e8c0 f i c_gameserver.obj
 0002:0001b910       ??$_Destroy_range@GV?$K2VectorAllocator@G@@@std@@YAXPAG0AAV?$K2VectorAllocator@G@@@Z 2109e910 f i c_gameserver.obj
 0002:0001b960       ??$_Destroy@U_Node@?$_Tree_nod@V?$_Tmap_traits@HPAVCPlayer@@U?$less@H@std@@V?$K2MapAllocator@U?$pair@$$CBHPAVCPlayer@@@std@@@@$0A@@std@@@std@@@std@@YAXPAU_Node@?$_Tree_nod@V?$_Tmap_traits@HPAVCPlayer@@U?$less@H@std@@V?$K2MapAllocator@U?$pair@$$CBHPAVCPlayer@@@std@@@@$0A@@std@@@0@@Z 2109e960 f i c_gameserver.obj
 0002:0001b980       ??_ECGameServer@@UAEPAXI@Z 2109e980 f i c_gameserver.obj
 0002:0001b980       ??_GCGameServer@@UAEPAXI@Z 2109e980 f i c_gameserver.obj
 0002:0001b9d0       ??1?$vector@U?$pair@GE@std@@V?$K2VectorAllocator@U?$pair@GE@std@@@@@@QAE@XZ 2109e9d0 f i c_gameserver.obj
 0002:0001ba00       ??1?$map@HVCPlayerAccountStats@@U?$less@H@std@@V?$K2MapAllocator@U?$pair@$$CBHVCPlayerAccountStats@@@std@@@@@@QAE@XZ 2109ea00 f i c_gameserver.obj
 0002:0001ba30       ??1iterator@?$_Tree@V?$_Tmap_traits@HVCPlayerAccountStats@@U?$less@H@std@@V?$K2MapAllocator@U?$pair@$$CBHVCPlayerAccountStats@@@std@@@@$0A@@std@@@std@@QAE@XZ 2109ea30 f i c_gameserver.obj
 0002:0001ba60       ??1?$vector@USMatchKillEntry@@V?$K2VectorAllocator@USMatchKillEntry@@@@@@QAE@XZ 2109ea60 f i c_gameserver.obj
 0002:0001ba90       ??1?$vector@USGuestEntry@@V?$K2VectorAllocator@USGuestEntry@@@@@@QAE@XZ 2109ea90 f i c_gameserver.obj
 0002:0001bac0       ??1?$vector@USDelayedMessage@CGameServer@@V?$K2VectorAllocator@USDelayedMessage@CGameServer@@@@@@QAE@XZ 2109eac0 f i c_gameserver.obj
 0002:0001baf0       ??1?$map@HVCPlayerAccountStats@@U?$less@H@std@@V?$K2MapAllocator@U?$pair@$$CBHVCPlayerAccountStats@@@std@@@@@std@@QAE@XZ 2109eaf0 f i c_gameserver.obj
 0002:0001bb20       ??1const_iterator@?$_Tree@V?$_Tmap_traits@HVCPlayerAccountStats@@U?$less@H@std@@V?$K2MapAllocator@U?$pair@$$CBHVCPlayerAccountStats@@@std@@@@$0A@@std@@@std@@QAE@XZ 2109eb20 f i c_gameserver.obj
 0002:0001bb50       ??1?$_Bidit@U?$pair@$$CBHVCPlayerAccountStats@@@std@@HPBU12@ABU12@@std@@QAE@XZ 2109eb50 f i c_gameserver.obj
 0002:0001bb80       ??0CGameServer@@AAE@XZ     2109eb80 f   c_gameserver.obj
 0002:0001c0d0       ??0CGameLog@@QAE@XZ        2109f0d0 f i c_gameserver.obj
 0002:0001c100       ??0IGame@@QAE@ABV?$basic_string@_WU?$char_traits@_W@std@@V?$K2StringAllocator@_W@@@std@@@Z 2109f100 f i c_gameserver.obj
 0002:0001c2b0       ??0?$vector@IV?$K2VectorAllocator@I@@@@QAE@XZ 2109f2b0 f i c_gameserver.obj
 0002:0001c2e0       ??0?$map@HPAVCPlayer@@U?$less@H@std@@V?$K2MapAllocator@U?$pair@$$CBHPAVCPlayer@@@std@@@@@@QAE@XZ 2109f2e0 f i c_gameserver.obj
 0002:0001c310       ??0?$map@IPAVCTeamInfo@@U?$less@I@std@@V?$K2MapAllocator@U?$pair@$$CBIPAVCTeamInfo@@@std@@@@@@QAE@XZ 2109f310 f i c_gameserver.obj
 0002:0001c340       ??0?$vector@USWaterMarker@IGame@@V?$K2VectorAllocator@USWaterMarker@IGame@@@@@@QAE@XZ 2109f340 f i c_gameserver.obj
 0002:0001c370       ??0?$vector@GV?$K2VectorAllocator@G@@@@QAE@XZ 2109f370 f i c_gameserver.obj
 0002:0001c3a0       ??0?$vector@IV?$K2VectorAllocator@I@@@std@@QAE@XZ 2109f3a0 f i c_gameserver.obj
 0002:0001c430       ?_Buy@?$vector@IV?$K2VectorAllocator@I@@@std@@IAE_NI@Z 2109f430 f i c_gameserver.obj
 0002:0001c4e0       ?max_size@?$vector@IV?$K2VectorAllocator@I@@@std@@QBEIXZ 2109f4e0 f i c_gameserver.obj
 0002:0001c510       ?_Xlen@?$vector@IV?$K2VectorAllocator@I@@@std@@KAXXZ 2109f510 f i c_gameserver.obj
 0002:0001c5c0       ??0length_error@std@@QAE@ABV?$basic_string@DU?$char_traits@D@std@@V?$allocator@D@2@@1@@Z 2109f5c0 f i c_gameserver.obj
 0002:0001c600       ??0logic_error@std@@QAE@ABV?$basic_string@DU?$char_traits@D@std@@V?$allocator@D@2@@1@@Z 2109f600 f i c_gameserver.obj
 0002:0001c690       ?what@logic_error@std@@UBEPBDXZ 2109f690 f i c_gameserver.obj
 0002:0001c6c0       ??_Elogic_error@std@@UAEPAXI@Z 2109f6c0 f i c_gameserver.obj
 0002:0001c6c0       ??_Glogic_error@std@@UAEPAXI@Z 2109f6c0 f i c_gameserver.obj
 0002:0001c710       ??1logic_error@std@@UAE@XZ 2109f710 f i c_gameserver.obj
 0002:0001c750       ??1length_error@std@@UAE@XZ 2109f750 f i c_gameserver.obj
 0002:0001c780       ??_Elength_error@std@@UAEPAXI@Z 2109f780 f i c_gameserver.obj
 0002:0001c780       ??_Glength_error@std@@UAEPAXI@Z 2109f780 f i c_gameserver.obj
 0002:0001c7d0       ??0logic_error@std@@QAE@ABV01@@Z 2109f7d0 f i c_gameserver.obj
 0002:0001c870       ?allocate@?$K2VectorAllocator@I@@QAEPAII@Z 2109f870 f i c_gameserver.obj
 0002:0001c8c0       ??0?$map@HPAVCPlayer@@U?$less@H@std@@V?$K2MapAllocator@U?$pair@$$CBHPAVCPlayer@@@std@@@@@std@@QAE@XZ 2109f8c0 f i c_gameserver.obj
 0002:0001c960       ??0?$map@IPAVCTeamInfo@@U?$less@I@std@@V?$K2MapAllocator@U?$pair@$$CBIPAVCTeamInfo@@@std@@@@@std@@QAE@XZ 2109f960 f i c_gameserver.obj
 0002:0001ca00       ??0?$vector@USWaterMarker@IGame@@V?$K2VectorAllocator@USWaterMarker@IGame@@@@@std@@QAE@XZ 2109fa00 f i c_gameserver.obj
 0002:0001ca90       ??0?$vector@GV?$K2VectorAllocator@G@@@std@@QAE@XZ 2109fa90 f i c_gameserver.obj
 0002:0001cb20       ??0length_error@std@@QAE@ABV01@@Z 2109fb20 f i c_gameserver.obj
 0002:0001cb60       ??0?$_Vector_val@IV?$K2VectorAllocator@I@@@std@@IAE@V?$K2VectorAllocator@I@@@Z 2109fb60 f i c_gameserver.obj
 0002:0001cc00       ??0?$K2VectorAllocator@I@@QAE@XZ 2109fc00 f i c_gameserver.obj
 0002:0001cc30       ?max_size@?$allocator@I@std@@QBEIXZ 2109fc30 f i c_gameserver.obj
 0002:0001cc70       ??0?$_Tree@V?$_Tmap_traits@HPAVCPlayer@@U?$less@H@std@@V?$K2MapAllocator@U?$pair@$$CBHPAVCPlayer@@@std@@@@$0A@@std@@@std@@QAE@ABU?$less@H@1@ABV?$K2MapAllocator@U?$pair@$$CBHPAVCPlayer@@@std@@@@@Z 2109fc70 f i c_gameserver.obj
 0002:0001cd10       ??0?$K2MapAllocator@U?$pair@$$CBHPAVCPlayer@@@std@@@@QAE@XZ 2109fd10 f i c_gameserver.obj
 0002:0001cd40       ??0?$_Tree@V?$_Tmap_traits@IPAVCTeamInfo@@U?$less@I@std@@V?$K2MapAllocator@U?$pair@$$CBIPAVCTeamInfo@@@std@@@@$0A@@std@@@std@@QAE@ABU?$less@I@1@ABV?$K2MapAllocator@U?$pair@$$CBIPAVCTeamInfo@@@std@@@@@Z 2109fd40 f i c_gameserver.obj
 0002:0001cde0       ??0?$K2MapAllocator@U?$pair@$$CBIPAVCTeamInfo@@@std@@@@QAE@XZ 2109fde0 f i c_gameserver.obj
 0002:0001ce10       ?_Buy@?$vector@USWaterMarker@IGame@@V?$K2VectorAllocator@USWaterMarker@IGame@@@@@std@@IAE_NI@Z 2109fe10 f i c_gameserver.obj
 0002:0001cec0       ??0?$_Vector_val@USWaterMarker@IGame@@V?$K2VectorAllocator@USWaterMarker@IGame@@@@@std@@IAE@V?$K2VectorAllocator@USWaterMarker@IGame@@@@@Z 2109fec0 f i c_gameserver.obj
 0002:0001cf60       ??0?$K2VectorAllocator@USWaterMarker@IGame@@@@QAE@XZ 2109ff60 f i c_gameserver.obj
 0002:0001cf90       ?_Buy@?$vector@GV?$K2VectorAllocator@G@@@std@@IAE_NI@Z 2109ff90 f i c_gameserver.obj
 0002:0001d040       ??0?$_Vector_val@GV?$K2VectorAllocator@G@@@std@@IAE@V?$K2VectorAllocator@G@@@Z 210a0040 f i c_gameserver.obj
 0002:0001d0e0       ??0?$K2VectorAllocator@G@@QAE@XZ 210a00e0 f i c_gameserver.obj
 0002:0001d110       ??0?$K2VectorAllocator@I@@QAE@ABV0@@Z 210a0110 f i c_gameserver.obj
 0002:0001d140       ??0?$allocator@I@std@@QAE@XZ 210a0140 f i c_gameserver.obj
 0002:0001d160       ??0?$allocator@G@std@@QAE@XZ 210a0160 f i c_gameserver.obj
 0002:0001d180       ?_Init@?$_Tree@V?$_Tmap_traits@HPAVCPlayer@@U?$less@H@std@@V?$K2MapAllocator@U?$pair@$$CBHPAVCPlayer@@@std@@@@$0A@@std@@@std@@IAEXXZ 210a0180 f i c_gameserver.obj
 0002:0001d210       ??0?$_Tree_val@V?$_Tmap_traits@HPAVCPlayer@@U?$less@H@std@@V?$K2MapAllocator@U?$pair@$$CBHPAVCPlayer@@@std@@@@$0A@@std@@@std@@IAE@ABU?$less@H@1@V?$K2MapAllocator@U?$pair@$$CBHPAVCPlayer@@@std@@@@@Z 210a0210 f i c_gameserver.obj
 0002:0001d2c0       ??0?$K2MapAllocator@U?$pair@$$CBHPAVCPlayer@@@std@@@@QAE@ABV0@@Z 210a02c0 f i c_gameserver.obj
 0002:0001d2f0       ??0?$allocator@U?$pair@$$CBHPAVCPlayer@@@std@@@std@@QAE@XZ 210a02f0 f i c_gameserver.obj
 0002:0001d310       ?_Init@?$_Tree@V?$_Tmap_traits@IPAVCTeamInfo@@U?$less@I@std@@V?$K2MapAllocator@U?$pair@$$CBIPAVCTeamInfo@@@std@@@@$0A@@std@@@std@@IAEXXZ 210a0310 f i c_gameserver.obj
 0002:0001d3a0       ??0?$_Tree_val@V?$_Tmap_traits@IPAVCTeamInfo@@U?$less@I@std@@V?$K2MapAllocator@U?$pair@$$CBIPAVCTeamInfo@@@std@@@@$0A@@std@@@std@@IAE@ABU?$less@I@1@V?$K2MapAllocator@U?$pair@$$CBIPAVCTeamInfo@@@std@@@@@Z 210a03a0 f i c_gameserver.obj
 0002:0001d450       ??0?$K2MapAllocator@U?$pair@$$CBIPAVCTeamInfo@@@std@@@@QAE@ABV0@@Z 210a0450 f i c_gameserver.obj
 0002:0001d480       ??0?$allocator@U?$pair@$$CBIPAVCTeamInfo@@@std@@@std@@QAE@XZ 210a0480 f i c_gameserver.obj
 0002:0001d4a0       ?max_size@?$vector@USWaterMarker@IGame@@V?$K2VectorAllocator@USWaterMarker@IGame@@@@@std@@QBEIXZ 210a04a0 f i c_gameserver.obj
 0002:0001d4d0       ?_Xlen@?$vector@USWaterMarker@IGame@@V?$K2VectorAllocator@USWaterMarker@IGame@@@@@std@@KAXXZ 210a04d0 f i c_gameserver.obj
 0002:0001d580       ??0?$K2VectorAllocator@USWaterMarker@IGame@@@@QAE@ABV0@@Z 210a0580 f i c_gameserver.obj
 0002:0001d5b0       ?allocate@?$K2VectorAllocator@USWaterMarker@IGame@@@@QAEPAUSWaterMarker@IGame@@I@Z 210a05b0 f i c_gameserver.obj
 0002:0001d600       ??0?$allocator@USWaterMarker@IGame@@@std@@QAE@XZ 210a0600 f i c_gameserver.obj
 0002:0001d620       ?max_size@?$vector@GV?$K2VectorAllocator@G@@@std@@QBEIXZ 210a0620 f i c_gameserver.obj
 0002:0001d650       ?_Xlen@?$vector@GV?$K2VectorAllocator@G@@@std@@KAXXZ 210a0650 f i c_gameserver.obj
 0002:0001d700       ??0?$K2VectorAllocator@G@@QAE@ABV0@@Z 210a0700 f i c_gameserver.obj
 0002:0001d730       ?allocate@?$K2VectorAllocator@G@@QAEPAGI@Z 210a0730 f i c_gameserver.obj
 0002:0001d780       ??0?$allocator@I@std@@QAE@ABV01@@Z 210a0780 f i c_gameserver.obj
 0002:0001d7a0       ??0?$allocator@G@std@@QAE@ABV01@@Z 210a07a0 f i c_gameserver.obj
 0002:0001d7c0       ?max_size@?$allocator@G@std@@QBEIXZ 210a07c0 f i c_gameserver.obj
 0002:0001d800       ?_Buynode@?$_Tree@V?$_Tmap_traits@HPAVCPlayer@@U?$less@H@std@@V?$K2MapAllocator@U?$pair@$$CBHPAVCPlayer@@@std@@@@$0A@@std@@@std@@IAEPAU_Node@?$_Tree_nod@V?$_Tmap_traits@HPAVCPlayer@@U?$less@H@std@@V?$K2MapAllocator@U?$pair@$$CBHPAVCPlayer@@@std@@@@$0A@@std@@@2@XZ 210a0800 f i c_gameserver.obj
 0002:0001d9e0       ??0?$_Tree_ptr@V?$_Tmap_traits@HPAVCPlayer@@U?$less@H@std@@V?$K2MapAllocator@U?$pair@$$CBHPAVCPlayer@@@std@@@@$0A@@std@@@std@@QAE@ABU?$less@H@1@V?$K2MapAllocator@U?$pair@$$CBHPAVCPlayer@@@std@@@@@Z 210a09e0 f i c_gameserver.obj
 0002:0001da90       ??0?$allocator@U?$pair@$$CBHPAVCPlayer@@@std@@@std@@QAE@ABV01@@Z 210a0a90 f i c_gameserver.obj
 0002:0001dab0       ?_Buynode@?$_Tree@V?$_Tmap_traits@IPAVCTeamInfo@@U?$less@I@std@@V?$K2MapAllocator@U?$pair@$$CBIPAVCTeamInfo@@@std@@@@$0A@@std@@@std@@IAEPAU_Node@?$_Tree_nod@V?$_Tmap_traits@IPAVCTeamInfo@@U?$less@I@std@@V?$K2MapAllocator@U?$pair@$$CBIPAVCTeamInfo@@@std@@@@$0A@@std@@@2@XZ 210a0ab0 f i c_gameserver.obj
 0002:0001dc90       ??0?$_Tree_ptr@V?$_Tmap_traits@IPAVCTeamInfo@@U?$less@I@std@@V?$K2MapAllocator@U?$pair@$$CBIPAVCTeamInfo@@@std@@@@$0A@@std@@@std@@QAE@ABU?$less@I@1@V?$K2MapAllocator@U?$pair@$$CBIPAVCTeamInfo@@@std@@@@@Z 210a0c90 f i c_gameserver.obj
 0002:0001dd40       ??0?$allocator@U?$pair@$$CBIPAVCTeamInfo@@@std@@@std@@QAE@ABV01@@Z 210a0d40 f i c_gameserver.obj
 0002:0001dd60       ??0?$allocator@USWaterMarker@IGame@@@std@@QAE@ABV01@@Z 210a0d60 f i c_gameserver.obj
 0002:0001dd80       ?max_size@?$allocator@USWaterMarker@IGame@@@std@@QBEIXZ 210a0d80 f i c_gameserver.obj
 0002:0001ddc0       ??0?$_Tree_nod@V?$_Tmap_traits@HPAVCPlayer@@U?$less@H@std@@V?$K2MapAllocator@U?$pair@$$CBHPAVCPlayer@@@std@@@@$0A@@std@@@std@@IAE@ABU?$less@H@1@V?$K2MapAllocator@U?$pair@$$CBHPAVCPlayer@@@std@@@@@Z 210a0dc0 f i c_gameserver.obj
 0002:0001de60       ?allocate@?$K2MapAllocator@U_Node@?$_Tree_nod@V?$_Tmap_traits@HPAVCPlayer@@U?$less@H@std@@V?$K2MapAllocator@U?$pair@$$CBHPAVCPlayer@@@std@@@@$0A@@std@@@std@@@@QAEPAU_Node@?$_Tree_nod@V?$_Tmap_traits@HPAVCPlayer@@U?$less@H@std@@V?$K2MapAllocator@U?$pair@$$CBHPAVCPlayer@@@std@@@@$0A@@std@@@std@@I@Z 210a0e60 f i c_gameserver.obj
 0002:0001deb0       ?construct@?$allocator@PAU_Node@?$_Tree_nod@V?$_Tmap_traits@HPAVCPlayer@@U?$less@H@std@@V?$K2MapAllocator@U?$pair@$$CBHPAVCPlayer@@@std@@@@$0A@@std@@@std@@@std@@QAEXPAPAU_Node@?$_Tree_nod@V?$_Tmap_traits@HPAVCPlayer@@U?$less@H@std@@V?$K2MapAllocator@U?$pair@$$CBHPAVCPlayer@@@std@@@@$0A@@std@@@2@ABQAU342@@Z 210a0eb0 f i c_gameserver.obj
 0002:0001dee0       ??0?$_Tree_nod@V?$_Tmap_traits@IPAVCTeamInfo@@U?$less@I@std@@V?$K2MapAllocator@U?$pair@$$CBIPAVCTeamInfo@@@std@@@@$0A@@std@@@std@@IAE@ABU?$less@I@1@V?$K2MapAllocator@U?$pair@$$CBIPAVCTeamInfo@@@std@@@@@Z 210a0ee0 f i c_gameserver.obj
 0002:0001df80       ?allocate@?$K2MapAllocator@U_Node@?$_Tree_nod@V?$_Tmap_traits@IPAVCTeamInfo@@U?$less@I@std@@V?$K2MapAllocator@U?$pair@$$CBIPAVCTeamInfo@@@std@@@@$0A@@std@@@std@@@@QAEPAU_Node@?$_Tree_nod@V?$_Tmap_traits@IPAVCTeamInfo@@U?$less@I@std@@V?$K2MapAllocator@U?$pair@$$CBIPAVCTeamInfo@@@std@@@@$0A@@std@@@std@@I@Z 210a0f80 f i c_gameserver.obj
 0002:0001dfd0       ?construct@?$allocator@PAU_Node@?$_Tree_nod@V?$_Tmap_traits@IPAVCTeamInfo@@U?$less@I@std@@V?$K2MapAllocator@U?$pair@$$CBIPAVCTeamInfo@@@std@@@@$0A@@std@@@std@@@std@@QAEXPAPAU_Node@?$_Tree_nod@V?$_Tmap_traits@IPAVCTeamInfo@@U?$less@I@std@@V?$K2MapAllocator@U?$pair@$$CBIPAVCTeamInfo@@@std@@@@$0A@@std@@@2@ABQAU342@@Z 210a0fd0 f i c_gameserver.obj
 0002:0001e000       ??0?$_Tmap_traits@HPAVCPlayer@@U?$less@H@std@@V?$K2MapAllocator@U?$pair@$$CBHPAVCPlayer@@@std@@@@$0A@@std@@QAE@U?$less@H@1@@Z 210a1000 f i c_gameserver.obj
 0002:0001e030       ??0?$_Tmap_traits@IPAVCTeamInfo@@U?$less@I@std@@V?$K2MapAllocator@U?$pair@$$CBIPAVCTeamInfo@@@std@@@@$0A@@std@@QAE@U?$less@I@1@@Z 210a1030 f i c_gameserver.obj
 0002:0001e060       ??$?0U?$pair@$$CBHPAVCPlayer@@@std@@@?$K2MapAllocator@PAU_Node@?$_Tree_nod@V?$_Tmap_traits@HPAVCPlayer@@U?$less@H@std@@V?$K2MapAllocator@U?$pair@$$CBHPAVCPlayer@@@std@@@@$0A@@std@@@std@@@@QAE@ABV?$K2MapAllocator@U?$pair@$$CBHPAVCPlayer@@@std@@@@@Z 210a1060 f i c_gameserver.obj
 0002:0001e090       ??$?0U?$pair@$$CBIPAVCTeamInfo@@@std@@@?$K2MapAllocator@PAU_Node@?$_Tree_nod@V?$_Tmap_traits@IPAVCTeamInfo@@U?$less@I@std@@V?$K2MapAllocator@U?$pair@$$CBIPAVCTeamInfo@@@std@@@@$0A@@std@@@std@@@@QAE@ABV?$K2MapAllocator@U?$pair@$$CBIPAVCTeamInfo@@@std@@@@@Z 210a1090 f i c_gameserver.obj
 0002:0001e0c0       ??$?0U?$pair@$$CBHPAVCPlayer@@@std@@@?$K2MapAllocator@U_Node@?$_Tree_nod@V?$_Tmap_traits@HPAVCPlayer@@U?$less@H@std@@V?$K2MapAllocator@U?$pair@$$CBHPAVCPlayer@@@std@@@@$0A@@std@@@std@@@@QAE@ABV?$K2MapAllocator@U?$pair@$$CBHPAVCPlayer@@@std@@@@@Z 210a10c0 f i c_gameserver.obj
 0002:0001e0f0       ??$_Construct@PAU_Node@?$_Tree_nod@V?$_Tmap_traits@HPAVCPlayer@@U?$less@H@std@@V?$K2MapAllocator@U?$pair@$$CBHPAVCPlayer@@@std@@@@$0A@@std@@@std@@PAU123@@std@@YAXPAPAU_Node@?$_Tree_nod@V?$_Tmap_traits@HPAVCPlayer@@U?$less@H@std@@V?$K2MapAllocator@U?$pair@$$CBHPAVCPlayer@@@std@@@@$0A@@std@@@0@ABQAU120@@Z 210a10f0 f i c_gameserver.obj
 0002:0001e150       ??2@YAPAXIPAX@Z            210a1150 f i c_gameserver.obj
 0002:0001e170       ??$?0U?$pair@$$CBIPAVCTeamInfo@@@std@@@?$K2MapAllocator@U_Node@?$_Tree_nod@V?$_Tmap_traits@IPAVCTeamInfo@@U?$less@I@std@@V?$K2MapAllocator@U?$pair@$$CBIPAVCTeamInfo@@@std@@@@$0A@@std@@@std@@@@QAE@ABV?$K2MapAllocator@U?$pair@$$CBIPAVCTeamInfo@@@std@@@@@Z 210a1170 f i c_gameserver.obj
 0002:0001e1a0       ??$_Construct@PAU_Node@?$_Tree_nod@V?$_Tmap_traits@IPAVCTeamInfo@@U?$less@I@std@@V?$K2MapAllocator@U?$pair@$$CBIPAVCTeamInfo@@@std@@@@$0A@@std@@@std@@PAU123@@std@@YAXPAPAU_Node@?$_Tree_nod@V?$_Tmap_traits@IPAVCTeamInfo@@U?$less@I@std@@V?$K2MapAllocator@U?$pair@$$CBIPAVCTeamInfo@@@std@@@@$0A@@std@@@0@ABQAU120@@Z 210a11a0 f i c_gameserver.obj
 0002:0001e200       ?DeleteEntity@CGameServer@@UAEXPAVIGameEntity@@@Z 210a1200 f   c_gameserver.obj
 0002:0001e2b0       ?SetDelete@IGameEntity@@QAEX_N@Z 210a12b0 f i c_gameserver.obj
 0002:0001e2e0       ?DeleteEntity@CGameServer@@UAEXI@Z 210a12e0 f   c_gameserver.obj
 0002:0001e320       ?GetEntity@IGame@@QAEPAVIGameEntity@@I@Z 210a1320 f i c_gameserver.obj
 0002:0001e360       ?Initialize@CGameServer@@QAE_NPAVCHostServer@@@Z 210a1360 f   c_gameserver.obj
 0002:0001e6e0       ?IsReplay@CHost@@QBE_NXZ   210a16e0 f i c_gameserver.obj
 0002:0001e700       ?SetGameTime@IGame@@IAEXI@Z 210a1700 f i c_gameserver.obj
 0002:0001e730       ?SetTotalTime@IGame@@IAEXI@Z 210a1730 f i c_gameserver.obj
 0002:0001e760       ?SetFrameLength@IGame@@IAEXI@Z 210a1760 f i c_gameserver.obj
 0002:0001e790       ?SetWorldPointer@IGame@@QAEXPAVCWorld@@@Z 210a1790 f i c_gameserver.obj
 0002:0001e7c0       ?SetEntityDirectory@IGame@@QAEXPAVIEntityDirectory@@@Z 210a17c0 f i c_gameserver.obj
 0002:0001e7f0       ?Validate@IGame@@QBE_NXZ   210a17f0 f i c_gameserver.obj
 0002:0001e9a0       ?GetBuffer@CStateBlock@@QAEAAVCBufferDynamic@@XZ 210a19a0 f i c_gameserver.obj
 0002:0001e9c0       ?Modify@CStateBlock@@QAEXXZ 210a19c0 f i c_gameserver.obj
 0002:0001e9f0       ?GetWorld@CHostServer@@QBEPAVCWorld@@XZ 210a19f0 f i c_gameserver.obj
 0002:0001ea20       ?ReplayFrame@CGameServer@@AAEXXZ 210a1a20 f   c_gameserver.obj
 0002:0001edb0       ?GetLength@IBuffer@@UBEIXZ 210a1db0 f i c_gameserver.obj
 0002:0001edd0       ??0CBufferDynamic@@QAE@XZ  210a1dd0 f i c_gameserver.obj
 0002:0001ee60       ?GetReadPos@IBuffer@@UBEIXZ 210a1e60 f i c_gameserver.obj
 0002:0001ee80       ?Rewind@IBuffer@@UBEXXZ    210a1e80 f i c_gameserver.obj
 0002:0001eeb0       ?Duplicate@IBuffer@@UAEPADI@Z 210a1eb0 f i c_gameserver.obj
 0002:0001eef0       ?Duplicate@IBuffer@@UAEPADXZ 210a1ef0 f i c_gameserver.obj
 0002:0001ef30       ?Get@IBuffer@@UBEPBDXZ     210a1f30 f i c_gameserver.obj
 0002:0001ef60       ?Clear@IBuffer@@UAEXXZ     210a1f60 f i c_gameserver.obj
 0002:0001efa0       ?ClearFaults@IBuffer@@QAEXXZ 210a1fa0 f i c_gameserver.obj
 0002:0001efd0       ?Clear@IBuffer@@UAEXD@Z    210a1fd0 f i c_gameserver.obj
 0002:0001f030       ?Set@CMemManager@@SAPAXPAXEI@Z 210a2030 f i c_gameserver.obj
 0002:0001f060       ??4IBuffer@@UAEAAV0@PB_W@Z 210a2060 f i c_gameserver.obj
 0002:0001f0b0       ??4IBuffer@@UAEAAV0@ABV0@@Z 210a20b0 f i c_gameserver.obj
 0002:0001f110       ??AIBuffer@@UAEAADI@Z      210a2110 f i c_gameserver.obj
 0002:0001f1e0       ??AIBuffer@@UBEDI@Z        210a21e0 f i c_gameserver.obj
 0002:0001f2b0       ?Duplicate@IBuffer@@UAEPADII@Z 210a22b0 f i c_gameserver.obj
 0002:0001f340       ?Copy@CMemManager@@SAPAXPAXPBXI@Z 210a2340 f i c_gameserver.obj
 0002:0001f370       ?Get@IBuffer@@UBEPBDI@Z    210a2370 f i c_gameserver.obj
 0002:0001f3b0       ??_GCBufferDynamic@@UAEPAXI@Z 210a23b0 f i c_gameserver.obj
 0002:0001f3b0       ??_ECBufferDynamic@@UAEPAXI@Z 210a23b0 f i c_gameserver.obj
 0002:0001f400       ??1CBufferDynamic@@UAE@XZ  210a2400 f i c_gameserver.obj
 0002:0001f430       ?Append@CBufferDynamic@@UAE_NPBXI@Z 210a2430 f i c_gameserver.obj
 0002:0001f540       ??$MAX@I@@YAABIABI0@Z      210a2540 f i c_gameserver.obj
 0002:0001f580       ?GetClientMap@CHostServer@@QAEAAV?$map@HPAVCClientConnection@@U?$less@H@std@@V?$K2MapAllocator@U?$pair@$$CBHPAVCClientConnection@@@std@@@@@@XZ 210a2580 f i c_gameserver.obj
 0002:0001f5b0       ??1iterator@?$_Tree@V?$_Tmap_traits@IV?$basic_string@DU?$char_traits@D@std@@V?$K2StringAllocator@D@@@std@@U?$less@I@2@V?$K2MapAllocator@U?$pair@$$CBIV?$basic_string@DU?$char_traits@D@std@@V?$K2StringAllocator@D@@@std@@@std@@@@$0A@@std@@@std@@QAE@XZ 210a25b0 f i c_gameserver.obj
 0002:0001f5e0       ??1iterator@?$_Tree@V?$_Tmap_traits@IVCBufferDynamic@@U?$less@I@std@@V?$K2MapAllocator@U?$pair@$$CBIVCBufferDynamic@@@std@@@@$0A@@std@@@std@@QAE@XZ 210a25e0 f i c_gameserver.obj
 0002:0001f610       ??1iterator@?$_Tree@V?$_Tmap_traits@HPAVCClientConnection@@U?$less@H@std@@V?$K2MapAllocator@U?$pair@$$CBHPAVCClientConnection@@@std@@@@$0A@@std@@@std@@QAE@XZ 210a2610 f i c_gameserver.obj
 0002:0001f640       ??1const_iterator@?$_Tree@V?$_Tmap_traits@IV?$basic_string@DU?$char_traits@D@std@@V?$K2StringAllocator@D@@@std@@U?$less@I@2@V?$K2MapAllocator@U?$pair@$$CBIV?$basic_string@DU?$char_traits@D@std@@V?$K2StringAllocator@D@@@std@@@std@@@@$0A@@std@@@std@@QAE@XZ 210a2640 f i c_gameserver.obj
 0002:0001f670       ??1const_iterator@?$_Tree@V?$_Tmap_traits@IVCBufferDynamic@@U?$less@I@std@@V?$K2MapAllocator@U?$pair@$$CBIVCBufferDynamic@@@std@@@@$0A@@std@@@std@@QAE@XZ 210a2670 f i c_gameserver.obj
 0002:0001f6a0       ??1const_iterator@?$_Tree@V?$_Tmap_traits@HPAVCClientConnection@@U?$less@H@std@@V?$K2MapAllocator@U?$pair@$$CBHPAVCClientConnection@@@std@@@@$0A@@std@@@std@@QAE@XZ 210a26a0 f i c_gameserver.obj
 0002:0001f6d0       ??1?$_Bidit@U?$pair@$$CBIV?$basic_string@DU?$char_traits@D@std@@V?$K2StringAllocator@D@@@std@@@std@@HPBU12@ABU12@@std@@QAE@XZ 210a26d0 f i c_gameserver.obj
 0002:0001f700       ??1?$_Bidit@U?$pair@$$CBIVCBufferDynamic@@@std@@HPBU12@ABU12@@std@@QAE@XZ 210a2700 f i c_gameserver.obj
 0002:0001f730       ??1?$_Bidit@U?$pair@$$CBHPAVCClientConnection@@@std@@HPBU12@ABU12@@std@@QAE@XZ 210a2730 f i c_gameserver.obj
 0002:0001f760       ?VoteFrame@CGameServer@@AAEXXZ 210a2760 f   c_gameserver.obj
 0002:00020490       ?SetFlags@CPlayer@@QAEXG@Z 210a3490 f i c_gameserver.obj
 0002:000204d0       ?HasFlags@CPlayer@@QBE_NG@Z 210a34d0 f i c_gameserver.obj
 0002:00020510       ?GetVote@CPlayer@@QBEEXZ   210a3510 f i c_gameserver.obj
 0002:00020540       ?IsDisconnected@CPlayer@@QBE_NXZ 210a3540 f i c_gameserver.obj
 0002:00020570       ?GetTeamID@CTeamInfo@@QBEIXZ 210a3570 f i c_gameserver.obj
 0002:000205a0       ?INT_ROUND@@YAHM@Z         210a35a0 f i c_gameserver.obj
 0002:00020600       ?GetActiveVoteType@CGameInfo@@QBEEXZ 210a3600 f i c_gameserver.obj
 0002:00020630       ?GetVoteTarget@CGameInfo@@QBEHXZ 210a3630 f i c_gameserver.obj
 0002:00020660       ?GetVoteEndTime@CGameInfo@@QBEIXZ 210a3660 f i c_gameserver.obj
 0002:00020690       ?SetVotesRequired@CGameInfo@@QAEXE@Z 210a3690 f i c_gameserver.obj
 0002:000206c0       ?SetYesVotes@CGameInfo@@QAEXE@Z 210a36c0 f i c_gameserver.obj
 0002:000206f0       ?GetTotalTime@IGame@@QBEIXZ 210a36f0 f i c_gameserver.obj
 0002:00020710       ?GetGameInfo@IGame@@QBEPAVCGameInfo@@XZ 210a3710 f i c_gameserver.obj
 0002:00020740       ?GetTeam@IGame@@QBEPAVCTeamInfo@@I@Z 210a3740 f i c_gameserver.obj
 0002:00020850       ??B?$CCvar@II@@QBEIXZ      210a3850 f i c_gameserver.obj
 0002:00020880       ??B?$CCvar@MM@@QBEMXZ      210a3880 f i c_gameserver.obj
 0002:000208b0       ?end@?$_Tree@V?$_Tmap_traits@IPAVCTeamInfo@@U?$less@I@std@@V?$K2MapAllocator@U?$pair@$$CBIPAVCTeamInfo@@@std@@@@$0A@@std@@@std@@QBE?AVconst_iterator@12@XZ 210a38b0 f i c_gameserver.obj
 0002:00020900       ?find@?$_Tree@V?$_Tmap_traits@IPAVCTeamInfo@@U?$less@I@std@@V?$K2MapAllocator@U?$pair@$$CBIPAVCTeamInfo@@@std@@@@$0A@@std@@@std@@QBE?AVconst_iterator@12@ABI@Z 210a3900 f i c_gameserver.obj
 0002:00020ae0       ??Cconst_iterator@?$_Tree@V?$_Tmap_traits@IPAVCTeamInfo@@U?$less@I@std@@V?$K2MapAllocator@U?$pair@$$CBIPAVCTeamInfo@@@std@@@@$0A@@std@@@std@@QBEPBU?$pair@$$CBIPAVCTeamInfo@@@2@XZ 210a3ae0 f i c_gameserver.obj
 0002:00020b10       ?_Key@?$_Tree@V?$_Tmap_traits@IPAVCTeamInfo@@U?$less@I@std@@V?$K2MapAllocator@U?$pair@$$CBIPAVCTeamInfo@@@std@@@@$0A@@std@@@std@@KAABIPAU_Node@?$_Tree_nod@V?$_Tmap_traits@IPAVCTeamInfo@@U?$less@I@std@@V?$K2MapAllocator@U?$pair@$$CBIPAVCTeamInfo@@@std@@@@$0A@@std@@@2@@Z 210a3b10 f i c_gameserver.obj
 0002:00020b40       ?lower_bound@?$_Tree@V?$_Tmap_traits@IPAVCTeamInfo@@U?$less@I@std@@V?$K2MapAllocator@U?$pair@$$CBIPAVCTeamInfo@@@std@@@@$0A@@std@@@std@@QBE?AVconst_iterator@12@ABI@Z 210a3b40 f i c_gameserver.obj
 0002:00020ba0       ??Dconst_iterator@?$_Tree@V?$_Tmap_traits@IPAVCTeamInfo@@U?$less@I@std@@V?$K2MapAllocator@U?$pair@$$CBIPAVCTeamInfo@@@std@@@@$0A@@std@@@std@@QBEABU?$pair@$$CBIPAVCTeamInfo@@@2@XZ 210a3ba0 f i c_gameserver.obj
 0002:00020c60       ?_Myval@?$_Tree@V?$_Tmap_traits@IPAVCTeamInfo@@U?$less@I@std@@V?$K2MapAllocator@U?$pair@$$CBIPAVCTeamInfo@@@std@@@@$0A@@std@@@std@@KAAAU?$pair@$$CBIPAVCTeamInfo@@@2@PAU_Node@?$_Tree_nod@V?$_Tmap_traits@IPAVCTeamInfo@@U?$less@I@std@@V?$K2MapAllocator@U?$pair@$$CBIPAVCTeamInfo@@@std@@@@$0A@@std@@@2@@Z 210a3c60 f i c_gameserver.obj
 0002:00020c80       ?_Lbound@?$_Tree@V?$_Tmap_traits@IPAVCTeamInfo@@U?$less@I@std@@V?$K2MapAllocator@U?$pair@$$CBIPAVCTeamInfo@@@std@@@@$0A@@std@@@std@@IBEPAU_Node@?$_Tree_nod@V?$_Tmap_traits@IPAVCTeamInfo@@U?$less@I@std@@V?$K2MapAllocator@U?$pair@$$CBIPAVCTeamInfo@@@std@@@@$0A@@std@@@2@ABI@Z 210a3c80 f i c_gameserver.obj
 0002:00020d50       ?_Kfn@?$_Tmap_traits@IPAVCTeamInfo@@U?$less@I@std@@V?$K2MapAllocator@U?$pair@$$CBIPAVCTeamInfo@@@std@@@@$0A@@std@@SAABIABU?$pair@$$CBIPAVCTeamInfo@@@2@@Z 210a3d50 f i c_gameserver.obj
 0002:00020d70       ??$_Debug_lt_pred@U?$less@I@std@@II@std@@YA_NU?$less@I@0@ABI1PB_WI@Z 210a3d70 f i c_gameserver.obj
 0002:00020df0       ?UpdatePauseStatus@CGameServer@@AAEXXZ 210a3df0 f   c_gameserver.obj
 0002:000213c0       ?IsActiveTeam@CTeamInfo@@QBE_NXZ 210a43c0 f i c_gameserver.obj
 0002:00021410       ?SetFlags@CTeamInfo@@QAEXE@Z 210a4410 f i c_gameserver.obj
 0002:00021450       ?GetPlayer@CTeamInfo@@QBEPAVCPlayer@@I@Z 210a4450 f i c_gameserver.obj
 0002:00021490       ??6@YAAAVIBuffer@@AAV0@E@Z 210a4490 f i c_gameserver.obj
 0002:000214c0       ??6@YAAAVIBuffer@@AAV0@ABV?$basic_string@DU?$char_traits@D@std@@V?$K2StringAllocator@D@@@std@@@Z 210a44c0 f i c_gameserver.obj
 0002:00021500       ?GetFrameLength@IGame@@QBEIXZ 210a4500 f i c_gameserver.obj
 0002:00021520       ?SetFlags@IGame@@QAEXE@Z   210a4520 f i c_gameserver.obj
 0002:00021560       ?SetFlags@CGameInfo@@QAEXE@Z 210a4560 f i c_gameserver.obj
 0002:000215a0       ?RemoveFlags@IGame@@QAEXE@Z 210a45a0 f i c_gameserver.obj
 0002:000215e0       ?RemoveFlags@CGameInfo@@QAEXE@Z 210a45e0 f i c_gameserver.obj
 0002:00021620       ?GetTeams@IGame@@QBEABV?$map@IPAVCTeamInfo@@U?$less@I@std@@V?$K2MapAllocator@U?$pair@$$CBIPAVCTeamInfo@@@std@@@@@@XZ 210a4620 f i c_gameserver.obj
 0002:00021650       ??1?$basic_string@DU?$char_traits@D@std@@V?$K2StringAllocator@D@@@std@@QAE@XZ 210a4650 f i c_gameserver.obj
 0002:000216d0       ?c_str@?$basic_string@DU?$char_traits@D@std@@V?$K2StringAllocator@D@@@std@@QBEPBDXZ 210a46d0 f i c_gameserver.obj
 0002:00021700       ?length@?$basic_string@DU?$char_traits@D@std@@V?$K2StringAllocator@D@@@std@@QBEIXZ 210a4700 f i c_gameserver.obj
 0002:00021720       ??1?$_String_val@DV?$K2StringAllocator@D@@@std@@QAE@XZ 210a4720 f i c_gameserver.obj
 0002:000217a0       ?_Tidy@?$basic_string@DU?$char_traits@D@std@@V?$K2StringAllocator@D@@@std@@IAEX_NI@Z 210a47a0 f i c_gameserver.obj
 0002:00021840       ?_Myptr@?$basic_string@DU?$char_traits@D@std@@V?$K2StringAllocator@D@@@std@@IBEPBDXZ 210a4840 f i c_gameserver.obj
 0002:00021880       ??1?$K2StringAllocator@D@@QAE@XZ 210a4880 f i c_gameserver.obj
 0002:000218a0       ?_Eos@?$basic_string@DU?$char_traits@D@std@@V?$K2StringAllocator@D@@@std@@IAEXI@Z 210a48a0 f i c_gameserver.obj
 0002:000218f0       ?_Myptr@?$basic_string@DU?$char_traits@D@std@@V?$K2StringAllocator@D@@@std@@IAEPADXZ 210a48f0 f i c_gameserver.obj
 0002:00021930       ?deallocate@?$K2StringAllocator@D@@QAEXPADI@Z 210a4930 f i c_gameserver.obj
 0002:00021970       ??$copy_s@U?$char_traits@D@std@@@_Traits_helper@std@@YAPADPADIPBDI@Z 210a4970 f i c_gameserver.obj
 0002:000219c0       ??0?$map@IPAVCTeamInfo@@U?$less@I@std@@V?$K2MapAllocator@U?$pair@$$CBIPAVCTeamInfo@@@std@@@@@@QAE@ABV0@@Z 210a49c0 f i c_gameserver.obj
 0002:000219f0       ??0?$map@IPAVCTeamInfo@@U?$less@I@std@@V?$K2MapAllocator@U?$pair@$$CBIPAVCTeamInfo@@@std@@@@@std@@QAE@ABV01@@Z 210a49f0 f i c_gameserver.obj
 0002:00021a20       ?Frame@CGameServer@@QAEXXZ 210a4a20 f   c_gameserver.obj
 0002:00022b60       ?SetLastInteractionTime@CPlayer@@QAEXI@Z 210a5b60 f i c_gameserver.obj
 0002:00022ba0       ?GetLastInteractionTime@CPlayer@@QBEIXZ 210a5ba0 f i c_gameserver.obj
 0002:00022bd0       ?SetAFKWarningSent@CPlayer@@QAEX_N@Z 210a5bd0 f i c_gameserver.obj
 0002:00022c00       ?GetAFKWarningSent@CPlayer@@QBE_NXZ 210a5c00 f i c_gameserver.obj
 0002:00022c30       ?SetLoadingProgress@CPlayer@@QAEXM@Z 210a5c30 f i c_gameserver.obj
 0002:00022c60       ?RemoveFlags@CPlayer@@QAEXG@Z 210a5c60 f i c_gameserver.obj
 0002:00022ca0       ?SetPing@CPlayer@@QAEXG@Z  210a5ca0 f i c_gameserver.obj
 0002:00022cd0       ?GetTerminationTime@CPlayer@@QBEIXZ 210a5cd0 f i c_gameserver.obj
 0002:00022d00       ?AddPlayTime@CPlayer@@QAEXI@Z 210a5d00 f i c_gameserver.obj
 0002:00022d40       ?DecrementChatCounter@CPlayer@@QAEXXZ 210a5d40 f i c_gameserver.obj
 0002:00022d90       ?SetAllowChat@CPlayer@@QAEX_N@Z 210a5d90 f i c_gameserver.obj
 0002:00022dc0       ??6@YAAAVIBuffer@@AAV0@G@Z 210a5dc0 f i c_gameserver.obj
 0002:00022df0       ?WriteShort@IBuffer@@QAEXF@Z 210a5df0 f i c_gameserver.obj
 0002:00022e30       ?SetServerAccess@CGameInfo@@QAEXW4EServerAccess@@@Z 210a5e30 f i c_gameserver.obj
 0002:00022e60       ?SetHostFlags@CGameInfo@@QAEXE@Z 210a5e60 f i c_gameserver.obj
 0002:00022e90       ?HasFlags@CGameInfo@@QBE_NE@Z 210a5e90 f i c_gameserver.obj
 0002:00022ed0       ?HasFlags@IGame@@QBE_NE@Z  210a5ed0 f i c_gameserver.obj
 0002:00022f20       ?HasGameOptions@IGame@@QBE_NI@Z 210a5f20 f i c_gameserver.obj
 0002:00022f70       ?HasGameOptions@CGameInfo@@QBE_NI@Z 210a5f70 f i c_gameserver.obj
 0002:00022fb0       ?ScriptFrame@IGame@@QAEXXZ 210a5fb0 f i c_gameserver.obj
 0002:00022fe0       ??B?$CCvar@_N_N@@QBE_NXZ   210a5fe0 f i c_gameserver.obj
 0002:00023010       ?GetClientNum@CClientConnection@@QBEHXZ 210a6010 f i c_gameserver.obj
 0002:00023030       ?GetLoadingProgress@CClientConnection@@QBEMXZ 210a6030 f i c_gameserver.obj
 0002:00023060       ?GetPing@CClientConnection@@QBEGXZ 210a6060 f i c_gameserver.obj
 0002:00023090       ?GetState@CClientConnection@@QBE?AW4EClientConnectionState@@XZ 210a6090 f i c_gameserver.obj
 0002:000230c0       ?SetStream@CClientConnection@@QAEXI@Z 210a60c0 f i c_gameserver.obj
 0002:000230f0       ?GetServerAccess@CHostServer@@QBE?AW4EServerAccess@@XZ 210a60f0 f i c_gameserver.obj
 0002:00023140       ?SetForceInviteOnly@CHostServer@@QAEX_N@Z 210a6140 f i c_gameserver.obj
 0002:00023170       ?GetHostFlags@CHostServer@@QBEEXZ 210a6170 f i c_gameserver.obj
 0002:000231a0       ?IsArrangedMatch@CHostServer@@QBE_NXZ 210a61a0 f i c_gameserver.obj
 0002:000231d0       ?GetTime@CHostServer@@QBEIXZ 210a61d0 f i c_gameserver.obj
 0002:00023200       ?GetFrameNumber@CHostServer@@QBEIXZ 210a6200 f i c_gameserver.obj
 0002:00023230       ?GetFrameLength@CHostServer@@QBEIXZ 210a6230 f i c_gameserver.obj
 0002:00023260       ?GetPauseTime@CHostServer@@QBEIXZ 210a6260 f i c_gameserver.obj
 0002:00023290       ??1?$_Vector_iterator@USDelayedMessage@CGameServer@@V?$K2VectorAllocator@USDelayedMessage@CGameServer@@@@@std@@QAE@XZ 210a6290 f i c_gameserver.obj
 0002:000232c0       ??0?$_Vector_iterator@USDelayedMessage@CGameServer@@V?$K2VectorAllocator@USDelayedMessage@CGameServer@@@@@std@@QAE@ABV01@@Z 210a62c0 f i c_gameserver.obj
 0002:000232f0       ??4?$_Vector_iterator@USDelayedMessage@CGameServer@@V?$K2VectorAllocator@USDelayedMessage@CGameServer@@@@@std@@QAEAAV01@ABV01@@Z 210a62f0 f i c_gameserver.obj
 0002:00023320       ??1?$_Vector_const_iterator@USDelayedMessage@CGameServer@@V?$K2VectorAllocator@USDelayedMessage@CGameServer@@@@@std@@QAE@XZ 210a6320 f i c_gameserver.obj
 0002:00023350       ??0?$_Vector_const_iterator@USDelayedMessage@CGameServer@@V?$K2VectorAllocator@USDelayedMessage@CGameServer@@@@@std@@QAE@ABV01@@Z 210a6350 f i c_gameserver.obj
 0002:00023390       ??4?$_Vector_const_iterator@USDelayedMessage@CGameServer@@V?$K2VectorAllocator@USDelayedMessage@CGameServer@@@@@std@@QAEAAV01@ABV01@@Z 210a6390 f i c_gameserver.obj
 0002:000233d0       ??1?$_Ranit@USDelayedMessage@CGameServer@@HPBU12@ABU12@@std@@QAE@XZ 210a63d0 f i c_gameserver.obj
 0002:00023400       ??0?$_Ranit@USDelayedMessage@CGameServer@@HPBU12@ABU12@@std@@QAE@ABU01@@Z 210a6400 f i c_gameserver.obj
 0002:00023430       ??4?$_Ranit@USDelayedMessage@CGameServer@@HPBU12@ABU12@@std@@QAEAAU01@ABU01@@Z 210a6430 f i c_gameserver.obj
 0002:00023460       ?GetAccountAuth@CGameServer@@QAEXXZ 210a6460 f   c_gameserver.obj
 0002:00024370       ??1CPHPData@@QAE@XZ        210a7370 f i c_gameserver.obj
 0002:00024400       ?GetString@CPHPData@@QBE?AV?$basic_string@_WU?$char_traits@_W@std@@V?$K2StringAllocator@_W@@@std@@XZ 210a7400 f i c_gameserver.obj
 0002:00024730       ?GetVar@CPHPData@@QBEPBV1@ABV?$basic_string@_WU?$char_traits@_W@std@@V?$K2StringAllocator@_W@@@std@@@Z 210a7730 f i c_gameserver.obj
 0002:00024860       ?GetSize@CPHPData@@QBEIXZ  210a7860 f i c_gameserver.obj
 0002:000248b0       ?GetVar@CPHPData@@QBEPBV1@I@Z 210a78b0 f i c_gameserver.obj
 0002:00024900       ?GetKeyName@CPHPData@@QBEABV?$basic_string@_WU?$char_traits@_W@std@@V?$K2StringAllocator@_W@@@std@@I@Z 210a7900 f i c_gameserver.obj
 0002:00024960       ??1?$vector@VCPHPData@@V?$K2VectorAllocator@VCPHPData@@@@@@QAE@XZ 210a7960 f i c_gameserver.obj
 0002:00024990       ??1?$_Vector_const_iterator@VCPHPData@@V?$K2VectorAllocator@VCPHPData@@@@@std@@QAE@XZ 210a7990 f i c_gameserver.obj
 0002:000249c0       ??1?$_Ranit@VCPHPData@@HPBV1@ABV1@@std@@QAE@XZ 210a79c0 f i c_gameserver.obj
 0002:000249f0       ?GetAccountID@CPlayerAccountStats@@QBEHXZ 210a79f0 f i c_gameserver.obj
 0002:00024a10       ?GetGameCookie@CPlayerAccountStats@@QBE?AV?$basic_string@_WU?$char_traits@_W@std@@V?$K2StringAllocator@_W@@@std@@XZ 210a7a10 f i c_gameserver.obj
 0002:00024a60       ?SetTargetURL@CHTTPRequest@@QAEXABV?$basic_string@DU?$char_traits@D@std@@V?$K2StringAllocator@D@@@std@@@Z 210a7a60 f i c_gameserver.obj
 0002:00024a90       ?AddVariable@CHTTPRequest@@QAEXABV?$basic_string@_WU?$char_traits@_W@std@@V?$K2StringAllocator@_W@@@std@@0@Z 210a7a90 f i c_gameserver.obj
 0002:00024c30       ?SendPostRequest@CHTTPRequest@@QAEXXZ 210a7c30 f i c_gameserver.obj
 0002:00024ce0       ?GetResponse@CHTTPRequest@@QBEABV?$basic_string@_WU?$char_traits@_W@std@@V?$K2StringAllocator@_W@@@std@@XZ 210a7ce0 f i c_gameserver.obj
 0002:00024d00       ?IsActive@CHTTPRequest@@QBE_NXZ 210a7d00 f i c_gameserver.obj
 0002:00024d30       ?WasSuccessful@CHTTPRequest@@QBE_NXZ 210a7d30 f i c_gameserver.obj
 0002:00024d60       ??1?$pair@V?$basic_string@DU?$char_traits@D@std@@V?$K2StringAllocator@D@@@std@@V12@@std@@QAE@XZ 210a7d60 f i c_gameserver.obj
 0002:00024de0       ?URLEncode@@YA?AV?$basic_string@DU?$char_traits@D@std@@V?$K2StringAllocator@D@@@std@@ABV?$basic_string@_WU?$char_traits@_W@std@@V?$K2StringAllocator@_W@@@2@_N1@Z 210a7de0 f i c_gameserver.obj
 0002:00024ea0       ?XtoW@@YA?AV?$basic_string@_WU?$char_traits@_W@std@@V?$K2StringAllocator@_W@@@std@@_N0@Z 210a7ea0 f i c_gameserver.obj
 0002:00024f40       ?AtoI@@YAHABV?$basic_string@_WU?$char_traits@_W@std@@V?$K2StringAllocator@_W@@@std@@@Z 210a7f40 f i c_gameserver.obj
 0002:00024f70       ??6CConsole@@QAEAAVCConsoleStream@@ABV?$basic_string@_WU?$char_traits@_W@std@@V?$K2StringAllocator@_W@@@std@@@Z 210a7f70 f i c_gameserver.obj
 0002:00024fa0       ?GetTime@CHost@@QAEIXZ     210a7fa0 f i c_gameserver.obj
 0002:00024fc0       ?c_str@?$basic_string@_WU?$char_traits@_W@std@@V?$K2StringAllocator@_W@@@std@@QBEPB_WXZ 210a7fc0 f i c_gameserver.obj
 0002:00024ff0       ??4?$basic_string@DU?$char_traits@D@std@@V?$K2StringAllocator@D@@@std@@QAEAAV01@ABV01@@Z 210a7ff0 f i c_gameserver.obj
 0002:00025020       ?assign@?$basic_string@DU?$char_traits@D@std@@V?$K2StringAllocator@D@@@std@@QAEAAV12@ABV12@@Z 210a8020 f i c_gameserver.obj
 0002:00025060       ?assign@?$basic_string@DU?$char_traits@D@std@@V?$K2StringAllocator@D@@@std@@QAEAAV12@ABV12@II@Z 210a8060 f i c_gameserver.obj
 0002:00025150       ?erase@?$basic_string@DU?$char_traits@D@std@@V?$K2StringAllocator@D@@@std@@QAEAAV12@II@Z 210a8150 f i c_gameserver.obj
 0002:00025220       ?size@?$basic_string@DU?$char_traits@D@std@@V?$K2StringAllocator@D@@@std@@QBEIXZ 210a8220 f i c_gameserver.obj
 0002:00025240       ?_Grow@?$basic_string@DU?$char_traits@D@std@@V?$K2StringAllocator@D@@@std@@IAE_NI_N@Z 210a8240 f i c_gameserver.obj
 0002:00025310       ?max_size@?$basic_string@DU?$char_traits@D@std@@V?$K2StringAllocator@D@@@std@@QBEIXZ 210a8310 f i c_gameserver.obj
 0002:00025360       ?_Copy@?$basic_string@DU?$char_traits@D@std@@V?$K2StringAllocator@D@@@std@@IAEXII@Z 210a8360 f i c_gameserver.obj
 0002:00025550       ?allocate@?$K2StringAllocator@D@@QAEPADI@Z 210a8550 f i c_gameserver.obj
 0002:000255a0       ??$?HDU?$char_traits@D@std@@V?$K2StringAllocator@D@@@std@@YA?AV?$basic_string@DU?$char_traits@D@std@@V?$K2StringAllocator@D@@@0@PBDABV10@@Z 210a85a0 f i c_gameserver.obj
 0002:00025650       ??0?$basic_string@DU?$char_traits@D@std@@V?$K2StringAllocator@D@@@std@@QAE@PBD@Z 210a8650 f i c_gameserver.obj
 0002:00025700       ??0?$basic_string@DU?$char_traits@D@std@@V?$K2StringAllocator@D@@@std@@QAE@ABV01@@Z 210a8700 f i c_gameserver.obj
 0002:000257a0       ?assign@?$basic_string@DU?$char_traits@D@std@@V?$K2StringAllocator@D@@@std@@QAEAAV12@PBD@Z 210a87a0 f i c_gameserver.obj
 0002:000257e0       ??0?$_String_val@DV?$K2StringAllocator@D@@@std@@IAE@V?$K2StringAllocator@D@@@Z 210a87e0 f i c_gameserver.obj
 0002:00025880       ??0?$_String_val@DV?$K2StringAllocator@D@@@std@@QAE@ABV01@@Z 210a8880 f i c_gameserver.obj
 0002:00025920       ??0?$K2StringAllocator@D@@QAE@XZ 210a8920 f i c_gameserver.obj
 0002:00025950       ?assign@?$basic_string@DU?$char_traits@D@std@@V?$K2StringAllocator@D@@@std@@QAEAAV12@PBDI@Z 210a8950 f i c_gameserver.obj
 0002:00025a00       ??0?$K2StringAllocator@D@@QAE@ABV0@@Z 210a8a00 f i c_gameserver.obj
 0002:00025a30       ?_Inside@?$basic_string@DU?$char_traits@D@std@@V?$K2StringAllocator@D@@@std@@IAE_NPBD@Z 210a8a30 f i c_gameserver.obj
 0002:00025aa0       ??$_Debug_pointer@D@std@@YAXPBDPB_WI@Z 210a8aa0 f i c_gameserver.obj
 0002:00025ae0       ??$?8_WU?$char_traits@_W@std@@V?$K2StringAllocator@_W@@@std@@YA_NABV?$basic_string@_WU?$char_traits@_W@std@@V?$K2StringAllocator@_W@@@0@0@Z 210a8ae0 f i c_gameserver.obj
 0002:00025b10       ??$?9_WU?$char_traits@_W@std@@V?$K2StringAllocator@_W@@@std@@YA_NABV?$basic_string@_WU?$char_traits@_W@std@@V?$K2StringAllocator@_W@@@0@0@Z 210a8b10 f i c_gameserver.obj
 0002:00025b50       ??$move_s@U?$char_traits@D@std@@@_Traits_helper@std@@YAPADPADIPBDI@Z 210a8b50 f i c_gameserver.obj
 0002:00025ba0       ?GetCookie@CClientConnection@@QBEABV?$basic_string@_WU?$char_traits@_W@std@@V?$K2StringAllocator@_W@@@std@@XZ 210a8ba0 f i c_gameserver.obj
 0002:00025bc0       ?GetMasterServerURL@CHostServer@@QBEABV?$basic_string@DU?$char_traits@D@std@@V?$K2StringAllocator@D@@@std@@XZ 210a8bc0 f i c_gameserver.obj
 0002:00025bf0       ?GetSessionCookie@CHostServer@@QBEABV?$basic_string@_WU?$char_traits@_W@std@@V?$K2StringAllocator@_W@@@std@@XZ 210a8bf0 f i c_gameserver.obj
 0002:00025c20       ?AllPlayersReady@CGameServer@@QBE_NXZ 210a8c20 f   c_gameserver.obj
 0002:00025da0       ?AllPlayersFullyConnected@CGameServer@@QBE_NXZ 210a8da0 f   c_gameserver.obj
 0002:00025f30       ?GetTeamSize@IGame@@QBEIXZ 210a8f30 f i c_gameserver.obj
 0002:00025f80       ?GetTeamSize@CGameInfo@@QBEIXZ 210a8f80 f i c_gameserver.obj
 0002:00025fb0       ?AllPlayersConnected@CGameServer@@QBE_NXZ 210a8fb0 f   c_gameserver.obj
 0002:00026130       ?GetClientCount@CGameServer@@QAEIH@Z 210a9130 f   c_gameserver.obj
 0002:000261a0       ?GetConnectedClientCount@CGameServer@@UAEHH@Z 210a91a0 f   c_gameserver.obj
 0002:00026320       ?StartReplayRecording@CGameServer@@QAE_NXZ 210a9320 f   c_gameserver.obj
 0002:00026a00       ?GetGameName@CGameInfo@@QBE?AV?$basic_string@_WU?$char_traits@_W@std@@V?$K2StringAllocator@_W@@@std@@XZ 210a9a00 f i c_gameserver.obj
 0002:00026a60       ?GetMatchID@CGameInfo@@QBEIXZ 210a9a60 f i c_gameserver.obj
 0002:00026a90       ??$?H_WU?$char_traits@_W@std@@V?$K2StringAllocator@_W@@@std@@YA?AV?$basic_string@_WU?$char_traits@_W@std@@V?$K2StringAllocator@_W@@@0@ABV10@0@Z 210a9a90 f i c_gameserver.obj
 0002:00026b40       ?RequestStartGame@CGameServer@@QAEXH@Z 210a9b40 f   c_gameserver.obj
 0002:00027000       ?HasNotificationFlags@CPlayer@@QBE_NI@Z 210aa000 f i c_gameserver.obj
 0002:00027030       ?SetGamePhaseEndTime@IGame@@QAEXI@Z 210aa030 f i c_gameserver.obj
 0002:00027080       ?SetGamePhaseEndTime@CGameInfo@@QAEXI@Z 210aa080 f i c_gameserver.obj
 0002:000270e0       ?StartGame@CGameServer@@QAEX_N0@Z 210aa0e0 f   c_gameserver.obj
 0002:00028570       ?StoreMatchPointValues@CPlayer@@QAEXXZ 210ab570 f i c_gameserver.obj
 0002:000285c0       ?SetDraftRound@CPlayer@@QAEXI@Z 210ab5c0 f i c_gameserver.obj
 0002:000285f0       ?UnlockSlot@CTeamInfo@@QAEXI@Z 210ab5f0 f i c_gameserver.obj
 0002:00028650       ?SetExtraTime@CTeamInfo@@QAEXI@Z 210ab650 f i c_gameserver.obj
 0002:00028680       ?SetUsingExtraTime@CTeamInfo@@QAEX_N@Z 210ab680 f i c_gameserver.obj
 0002:000286b0       ?SetWinChance@CTeamInfo@@QAEXM@Z 210ab6b0 f i c_gameserver.obj
 0002:000286e0       ?pow@@YAMMM@Z              210ab6e0 f i c_gameserver.obj
 0002:00028710       _powf                      210ab710 f i c_gameserver.obj
 0002:00028750       ?GetFirstBanTeam@CGameInfo@@QBEIXZ 210ab750 f i c_gameserver.obj
 0002:00028780       ?GetGameOptions@CGameInfo@@QBEIXZ 210ab780 f i c_gameserver.obj
 0002:000287b0       ?GetGameMode@IGame@@QBEIXZ 210ab7b0 f i c_gameserver.obj
 0002:00028800       ?GetGameMode@CGameInfo@@QBEIXZ 210ab800 f i c_gameserver.obj
 0002:00028830       ?GetAlternatePicks@IGame@@QBE_NXZ 210ab830 f i c_gameserver.obj
 0002:00028890       ?GetBanCount@IGame@@QBEIXZ 210ab890 f i c_gameserver.obj
 0002:000288f0       ?SetGamePhase@IGame@@QAEXW4EGamePhase@@II@Z 210ab8f0 f i c_gameserver.obj
 0002:00028940       ?SetServerAccess@CHostServer@@QAEXW4EServerAccess@@@Z 210ab940 f i c_gameserver.obj
 0002:00028990       ??1?$vector@PAVCPlayer@@V?$K2VectorAllocator@PAVCPlayer@@@@@@QAE@XZ 210ab990 f i c_gameserver.obj
 0002:000289c0       ??1?$_Vector_iterator@PAVCPlayer@@V?$K2VectorAllocator@PAVCPlayer@@@@@std@@QAE@XZ 210ab9c0 f i c_gameserver.obj
 0002:000289f0       ??1?$_Vector_const_iterator@PAVCPlayer@@V?$K2VectorAllocator@PAVCPlayer@@@@@std@@QAE@XZ 210ab9f0 f i c_gameserver.obj
 0002:00028a20       ??1?$_Ranit@PAVCPlayer@@HPBQAV1@ABQAV1@@std@@QAE@XZ 210aba20 f i c_gameserver.obj
 0002:00028a50       ?StartPreMatch@CGameServer@@QAEXXZ 210aba50 f   c_gameserver.obj
 0002:00028c30       ?SetStat@CTeamInfo@@QAEXW4ETeamStat@@I@Z 210abc30 f i c_gameserver.obj
 0002:00028c60       ?StartMatch@CGameServer@@UAEXXZ 210abc60 f   c_gameserver.obj
 0002:00028f90       ?IsLoaded@CWorld@@QBE_NXZ  210abf90 f i c_gameserver.obj
 0002:00028fb0       ?EndMatch@CGameServer@@UAEXH@Z 210abfb0 f   c_gameserver.obj
 0002:00029610       ?Close@CGameLog@@QAEXXZ    210ac610 f i c_gameserver.obj
 0002:00029640       ?GetPath@CGameLog@@QBEABV?$basic_string@_WU?$char_traits@_W@std@@V?$K2StringAllocator@_W@@@std@@XZ 210ac640 f i c_gameserver.obj
 0002:00029670       ?GetStat@CPlayer@@QBEIW4EPlayerStat@@@Z 210ac670 f i c_gameserver.obj
 0002:000296a0       ?GetBaseBuildingIndex@CTeamInfo@@QBEIXZ 210ac6a0 f i c_gameserver.obj
 0002:000296d0       ??6CConsoleStream@@QAEAAV0@H@Z 210ac6d0 f i c_gameserver.obj
 0002:00029780       ??6@YAAAVIBuffer@@AAV0@H@Z 210ac780 f i c_gameserver.obj
 0002:000297b0       ?WriteInt@IBuffer@@QAEXH@Z 210ac7b0 f i c_gameserver.obj
 0002:000297f0       ??6@YAAAVIBuffer@@AAV0@I@Z 210ac7f0 f i c_gameserver.obj
 0002:00029820       ?SetMatchLength@CGameInfo@@QAEXI@Z 210ac820 f i c_gameserver.obj
 0002:00029850       ?SetWinningTeam@IGame@@QAEXH@Z 210ac850 f i c_gameserver.obj
 0002:00029880       ?GetWinningTeam@IGame@@QBEHXZ 210ac880 f i c_gameserver.obj
 0002:000298a0       ?SetFinalMatchTime@IGame@@QAEXI@Z 210ac8a0 f i c_gameserver.obj
 0002:000298d0       ?GetBuildingEntity@IGame@@QAEPAVIBuildingEntity@@I@Z 210ac8d0 f i c_gameserver.obj
 0002:00029930       ?GetFirstEntity@IGame@@QAEPAVIGameEntity@@XZ 210ac930 f i c_gameserver.obj
 0002:00029970       ?GetNextEntity@IGame@@QAEPAVIGameEntity@@PAV2@@Z 210ac970 f i c_gameserver.obj
 0002:000299b0       ?Remake@CGameServer@@QAEXXZ 210ac9b0 f   c_gameserver.obj
 0002:0002a9e0       ?SetWorldIndex@IVisualEntity@@QAEXI@Z 210ad9e0 f i c_gameserver.obj
 0002:0002aa10       ?GetIndex@CWorldEntity@@QBEIXZ 210ada10 f i c_gameserver.obj
 0002:0002aa30       ?SetGameIndex@CWorldEntity@@QAEXI@Z 210ada30 f i c_gameserver.obj
 0002:0002aa60       ?GetType@CWorldEntity@@QBE?AV?$basic_string@_WU?$char_traits@_W@std@@V?$K2StringAllocator@_W@@@std@@XZ 210ada60 f i c_gameserver.obj
 0002:0002aab0       ?GetPropertyBool@CWorldEntity@@QBE_NABV?$basic_string@_WU?$char_traits@_W@std@@V?$K2StringAllocator@_W@@@std@@_N@Z 210adab0 f i c_gameserver.obj
 0002:0002ab80       ?AtoB@@YA_NABV?$basic_string@_WU?$char_traits@_W@std@@V?$K2StringAllocator@_W@@@std@@@Z 210adb80 f i c_gameserver.obj
 0002:0002ac60       ?CompareNoCase@@YAHABV?$basic_string@_WU?$char_traits@_W@std@@V?$K2StringAllocator@_W@@@std@@0@Z 210adc60 f i c_gameserver.obj
 0002:0002ac90       ?WTOF@@YANABV?$basic_string@_WU?$char_traits@_W@std@@V?$K2StringAllocator@_W@@@std@@@Z 210adc90 f i c_gameserver.obj
 0002:0002acc0       ?HasProperty@CWorldEntity@@QBE_NABV?$basic_string@_WU?$char_traits@_W@std@@V?$K2StringAllocator@_W@@@std@@@Z 210adcc0 f i c_gameserver.obj
 0002:0002ada0       ?GetProperty@CWorldEntity@@QBE?AV?$basic_string@_WU?$char_traits@_W@std@@V?$K2StringAllocator@_W@@@std@@ABV23@0@Z 210adda0 f i c_gameserver.obj
 0002:0002aef0       ??1const_iterator@?$_Tree@V?$_Tmap_traits@V?$basic_string@_WU?$char_traits@_W@std@@V?$K2StringAllocator@_W@@@std@@V12@U?$less@V?$basic_string@_WU?$char_traits@_W@std@@V?$K2StringAllocator@_W@@@std@@@2@V?$K2MapAllocator@U?$pair@$$CBV?$basic_string@_WU?$char_traits@_W@std@@V?$K2StringAllocator@_W@@@std@@V12@@std@@@@$0A@@std@@@std@@QAE@XZ 210adef0 f i c_gameserver.obj
 0002:0002af20       ??1?$_Bidit@U?$pair@$$CBV?$basic_string@_WU?$char_traits@_W@std@@V?$K2StringAllocator@_W@@@std@@V12@@std@@HPBU12@ABU12@@std@@QAE@XZ 210adf20 f i c_gameserver.obj
 0002:0002af50       ?GetScale@CWorld@@QBEMXZ   210adf50 f i c_gameserver.obj
 0002:0002af80       ?GetTileWidth@CWorld@@QBEHXZ 210adf80 f i c_gameserver.obj
 0002:0002afb0       ?GetTileHeight@CWorld@@QBEHXZ 210adfb0 f i c_gameserver.obj
 0002:0002afe0       ?GetEntityByHandle@CWorld@@QBEPAVCWorldEntity@@I@Z 210adfe0 f i c_gameserver.obj
 0002:0002b020       ?GetType@IGameEntity@@QBEGXZ 210ae020 f i c_gameserver.obj
 0002:0002b040       ?GetIndex@IGameEntity@@QBEIXZ 210ae040 f i c_gameserver.obj
 0002:0002b060       ?GetWorldEntityList@IGame@@QAEAAV?$vector@IV?$K2VectorAllocator@I@@@@XZ 210ae060 f i c_gameserver.obj
 0002:0002b090       ?GetEntityList@CWorld@@QBEAAV?$vector@IV?$K2VectorAllocator@I@@@@XZ 210ae090 f i c_gameserver.obj
 0002:0002b0c0       ?GetWorldLightsMap@IGame@@QAEAAV?$map@IPAVCWorldLight@@U?$less@I@std@@V?$K2MapAllocator@U?$pair@$$CBIPAVCWorldLight@@@std@@@@@@XZ 210ae0c0 f i c_gameserver.obj
 0002:0002b0f0       ?GetLightsMap@CWorld@@QBEAAV?$map@IPAVCWorldLight@@U?$less@I@std@@V?$K2MapAllocator@U?$pair@$$CBIPAVCWorldLight@@@std@@@@@@XZ 210ae0f0 f i c_gameserver.obj
 0002:0002b120       ?ResetWorld@IGame@@QAEXXZ  210ae120 f i c_gameserver.obj
 0002:0002b160       ?ClearWorldTree@CWorld@@QAEXXZ 210ae160 f i c_gameserver.obj
 0002:0002b1c0       ?RestoreWorldEntityList@CWorld@@QBEXXZ 210ae1c0 f i c_gameserver.obj
 0002:0002b200       ?ClearWaterMarkers@IGame@@QAEXXZ 210ae200 f i c_gameserver.obj
 0002:0002b230       ?GetEntities@IGame@@QAEXAAV?$vector@IV?$K2VectorAllocator@I@@@@G@Z 210ae230 f i c_gameserver.obj
 0002:0002b270       ?clear@?$vector@IV?$K2VectorAllocator@I@@@std@@QAEXXZ 210ae270 f i c_gameserver.obj
 0002:0002b330       ?end@?$_Tree@V?$_Tmap_traits@V?$basic_string@_WU?$char_traits@_W@std@@V?$K2StringAllocator@_W@@@std@@V12@U?$less@V?$basic_string@_WU?$char_traits@_W@std@@V?$K2StringAllocator@_W@@@std@@@2@V?$K2MapAllocator@U?$pair@$$CBV?$basic_string@_WU?$char_traits@_W@std@@V?$K2StringAllocator@_W@@@std@@V12@@std@@@@$0A@@std@@@std@@QBE?AVconst_iterator@12@XZ 210ae330 f i c_gameserver.obj
 0002:0002b380       ?find@?$_Tree@V?$_Tmap_traits@V?$basic_string@_WU?$char_traits@_W@std@@V?$K2StringAllocator@_W@@@std@@V12@U?$less@V?$basic_string@_WU?$char_traits@_W@std@@V?$K2StringAllocator@_W@@@std@@@2@V?$K2MapAllocator@U?$pair@$$CBV?$basic_string@_WU?$char_traits@_W@std@@V?$K2StringAllocator@_W@@@std@@V12@@std@@@@$0A@@std@@@std@@QBE?AVconst_iterator@12@ABV?$basic_string@_WU?$char_traits@_W@std@@V?$K2StringAllocator@_W@@@2@@Z 210ae380 f i c_gameserver.obj
 0002:0002b560       ??Cconst_iterator@?$_Tree@V?$_Tmap_traits@V?$basic_string@_WU?$char_traits@_W@std@@V?$K2StringAllocator@_W@@@std@@V12@U?$less@V?$basic_string@_WU?$char_traits@_W@std@@V?$K2StringAllocator@_W@@@std@@@2@V?$K2MapAllocator@U?$pair@$$CBV?$basic_string@_WU?$char_traits@_W@std@@V?$K2StringAllocator@_W@@@std@@V12@@std@@@@$0A@@std@@@std@@QBEPBU?$pair@$$CBV?$basic_string@_WU?$char_traits@_W@std@@V?$K2StringAllocator@_W@@@std@@V12@@2@XZ 210ae560 f i c_gameserver.obj
 0002:0002b590       ??9const_iterator@?$_Tree@V?$_Tmap_traits@V?$basic_string@_WU?$char_traits@_W@std@@V?$K2StringAllocator@_W@@@std@@V12@U?$less@V?$basic_string@_WU?$char_traits@_W@std@@V?$K2StringAllocator@_W@@@std@@@2@V?$K2MapAllocator@U?$pair@$$CBV?$basic_string@_WU?$char_traits@_W@std@@V?$K2StringAllocator@_W@@@std@@V12@@std@@@@$0A@@std@@@std@@QBE_NABV012@@Z 210ae590 f i c_gameserver.obj
 0002:0002b5d0       ?clear@?$vector@USWaterMarker@IGame@@V?$K2VectorAllocator@USWaterMarker@IGame@@@@@std@@QAEXXZ 210ae5d0 f i c_gameserver.obj
 0002:0002b690       ??1?$_Vector_iterator@IV?$K2VectorAllocator@I@@@std@@QAE@XZ 210ae690 f i c_gameserver.obj
 0002:0002b6c0       ??0const_iterator@?$_Tree@V?$_Tmap_traits@V?$basic_string@_WU?$char_traits@_W@std@@V?$K2StringAllocator@_W@@@std@@V12@U?$less@V?$basic_string@_WU?$char_traits@_W@std@@V?$K2StringAllocator@_W@@@std@@@2@V?$K2MapAllocator@U?$pair@$$CBV?$basic_string@_WU?$char_traits@_W@std@@V?$K2StringAllocator@_W@@@std@@V12@@std@@@@$0A@@std@@@std@@QAE@ABV012@@Z 210ae6c0 f i c_gameserver.obj
 0002:0002b700       ??1?$_Vector_iterator@USWaterMarker@IGame@@V?$K2VectorAllocator@USWaterMarker@IGame@@@@@std@@QAE@XZ 210ae700 f i c_gameserver.obj
 0002:0002b730       ??1?$_Vector_const_iterator@IV?$K2VectorAllocator@I@@@std@@QAE@XZ 210ae730 f i c_gameserver.obj
 0002:0002b760       ??0?$_Bidit@U?$pair@$$CBV?$basic_string@_WU?$char_traits@_W@std@@V?$K2StringAllocator@_W@@@std@@V12@@std@@HPBU12@ABU12@@std@@QAE@ABU01@@Z 210ae760 f i c_gameserver.obj
 0002:0002b790       ??1?$_Vector_const_iterator@USWaterMarker@IGame@@V?$K2VectorAllocator@USWaterMarker@IGame@@@@@std@@QAE@XZ 210ae790 f i c_gameserver.obj
 0002:0002b7c0       ??1?$_Ranit@IHPBIABI@std@@QAE@XZ 210ae7c0 f i c_gameserver.obj
 0002:0002b7f0       ??1?$_Ranit@USWaterMarker@IGame@@HPBU12@ABU12@@std@@QAE@XZ 210ae7f0 f i c_gameserver.obj
 0002:0002b820       ?begin@?$vector@IV?$K2VectorAllocator@I@@@std@@QAE?AV?$_Vector_iterator@IV?$K2VectorAllocator@I@@@2@XZ 210ae820 f i c_gameserver.obj
 0002:0002b870       ?end@?$vector@IV?$K2VectorAllocator@I@@@std@@QAE?AV?$_Vector_iterator@IV?$K2VectorAllocator@I@@@2@XZ 210ae870 f i c_gameserver.obj
 0002:0002b8c0       ?erase@?$vector@IV?$K2VectorAllocator@I@@@std@@QAE?AV?$_Vector_iterator@IV?$K2VectorAllocator@I@@@2@V32@0@Z 210ae8c0 f i c_gameserver.obj
 0002:0002ba40       ?_Orphan_range@?$vector@IV?$K2VectorAllocator@I@@@std@@IBEXPAI0@Z 210aea40 f i c_gameserver.obj
 0002:0002bae0       ?_Key@?$_Tree@V?$_Tmap_traits@V?$basic_string@_WU?$char_traits@_W@std@@V?$K2StringAllocator@_W@@@std@@V12@U?$less@V?$basic_string@_WU?$char_traits@_W@std@@V?$K2StringAllocator@_W@@@std@@@2@V?$K2MapAllocator@U?$pair@$$CBV?$basic_string@_WU?$char_traits@_W@std@@V?$K2StringAllocator@_W@@@std@@V12@@std@@@@$0A@@std@@@std@@KAABV?$basic_string@_WU?$char_traits@_W@std@@V?$K2StringAllocator@_W@@@2@PAU_Node@?$_Tree_nod@V?$_Tmap_traits@V?$basic_string@_WU?$char_traits@_W@std@@V?$K2StringAllocator@_W@@@std@@V12@U?$less@V?$basic_string@_WU?$char_traits@_W@std@@V?$K2StringAllocator@_W@@@std@@@2@V?$K2MapAllocator@U?$pair@$$CBV?$basic_string@_WU?$char_traits@_W@std@@V?$K2StringAllocator@_W@@@std@@V12@@std@@@@$0A@@std@@@2@@Z 210aeae0 f i c_gameserver.obj
 0002:0002bb10       ?lower_bound@?$_Tree@V?$_Tmap_traits@V?$basic_string@_WU?$char_traits@_W@std@@V?$K2StringAllocator@_W@@@std@@V12@U?$less@V?$basic_string@_WU?$char_traits@_W@std@@V?$K2StringAllocator@_W@@@std@@@2@V?$K2MapAllocator@U?$pair@$$CBV?$basic_string@_WU?$char_traits@_W@std@@V?$K2StringAllocator@_W@@@std@@V12@@std@@@@$0A@@std@@@std@@QBE?AVconst_iterator@12@ABV?$basic_string@_WU?$char_traits@_W@std@@V?$K2StringAllocator@_W@@@2@@Z 210aeb10 f i c_gameserver.obj
 0002:0002bb70       ??0const_iterator@?$_Tree@V?$_Tmap_traits@V?$basic_string@_WU?$char_traits@_W@std@@V?$K2StringAllocator@_W@@@std@@V12@U?$less@V?$basic_string@_WU?$char_traits@_W@std@@V?$K2StringAllocator@_W@@@std@@@2@V?$K2MapAllocator@U?$pair@$$CBV?$basic_string@_WU?$char_traits@_W@std@@V?$K2StringAllocator@_W@@@std@@V12@@std@@@@$0A@@std@@@std@@QAE@PAU_Node@?$_Tree_nod@V?$_Tmap_traits@V?$basic_string@_WU?$char_traits@_W@std@@V?$K2StringAllocator@_W@@@std@@V12@U?$less@V?$basic_string@_WU?$char_traits@_W@std@@V?$K2StringAllocator@_W@@@std@@@2@V?$K2MapAllocator@U?$pair@$$CBV?$basic_string@_WU?$char_traits@_W@std@@V?$K2StringAllocator@_W@@@std@@V12@@std@@@@$0A@@std@@@2@PBV12@@Z 210aeb70 f i c_gameserver.obj
 0002:0002bc00       ??Dconst_iterator@?$_Tree@V?$_Tmap_traits@V?$basic_string@_WU?$char_traits@_W@std@@V?$K2StringAllocator@_W@@@std@@V12@U?$less@V?$basic_string@_WU?$char_traits@_W@std@@V?$K2StringAllocator@_W@@@std@@@2@V?$K2MapAllocator@U?$pair@$$CBV?$basic_string@_WU?$char_traits@_W@std@@V?$K2StringAllocator@_W@@@std@@V12@@std@@@@$0A@@std@@@std@@QBEABU?$pair@$$CBV?$basic_string@_WU?$char_traits@_W@std@@V?$K2StringAllocator@_W@@@std@@V12@@2@XZ 210aec00 f i c_gameserver.obj
 0002:0002bcc0       ??8const_iterator@?$_Tree@V?$_Tmap_traits@V?$basic_string@_WU?$char_traits@_W@std@@V?$K2StringAllocator@_W@@@std@@V12@U?$less@V?$basic_string@_WU?$char_traits@_W@std@@V?$K2StringAllocator@_W@@@std@@@2@V?$K2MapAllocator@U?$pair@$$CBV?$basic_string@_WU?$char_traits@_W@std@@V?$K2StringAllocator@_W@@@std@@V12@@std@@@@$0A@@std@@@std@@QBE_NABV012@@Z 210aecc0 f i c_gameserver.obj
 0002:0002bd80       ?_Mynode@const_iterator@?$_Tree@V?$_Tmap_traits@V?$basic_string@_WU?$char_traits@_W@std@@V?$K2StringAllocator@_W@@@std@@V12@U?$less@V?$basic_string@_WU?$char_traits@_W@std@@V?$K2StringAllocator@_W@@@std@@@2@V?$K2MapAllocator@U?$pair@$$CBV?$basic_string@_WU?$char_traits@_W@std@@V?$K2StringAllocator@_W@@@std@@V12@@std@@@@$0A@@std@@@std@@QBEPAU_Node@?$_Tree_nod@V?$_Tmap_traits@V?$basic_string@_WU?$char_traits@_W@std@@V?$K2StringAllocator@_W@@@std@@V12@U?$less@V?$basic_string@_WU?$char_traits@_W@std@@V?$K2StringAllocator@_W@@@std@@@2@V?$K2MapAllocator@U?$pair@$$CBV?$basic_string@_WU?$char_traits@_W@std@@V?$K2StringAllocator@_W@@@std@@V12@@std@@@@$0A@@std@@@3@XZ 210aed80 f i c_gameserver.obj
 0002:0002bda0       ?begin@?$vector@USWaterMarker@IGame@@V?$K2VectorAllocator@USWaterMarker@IGame@@@@@std@@QAE?AV?$_Vector_iterator@USWaterMarker@IGame@@V?$K2VectorAllocator@USWaterMarker@IGame@@@@@2@XZ 210aeda0 f i c_gameserver.obj
 0002:0002bdf0       ?end@?$vector@USWaterMarker@IGame@@V?$K2VectorAllocator@USWaterMarker@IGame@@@@@std@@QAE?AV?$_Vector_iterator@USWaterMarker@IGame@@V?$K2VectorAllocator@USWaterMarker@IGame@@@@@2@XZ 210aedf0 f i c_gameserver.obj
 0002:0002be40       ?erase@?$vector@USWaterMarker@IGame@@V?$K2VectorAllocator@USWaterMarker@IGame@@@@@std@@QAE?AV?$_Vector_iterator@USWaterMarker@IGame@@V?$K2VectorAllocator@USWaterMarker@IGame@@@@@2@V32@0@Z 210aee40 f i c_gameserver.obj
 0002:0002bfc0       ?_Orphan_range@?$vector@USWaterMarker@IGame@@V?$K2VectorAllocator@USWaterMarker@IGame@@@@@std@@IBEXPAUSWaterMarker@IGame@@0@Z 210aefc0 f i c_gameserver.obj
 0002:0002c060       ??0?$_Bidit@U?$pair@$$CBV?$basic_string@_WU?$char_traits@_W@std@@V?$K2StringAllocator@_W@@@std@@V12@@std@@HPBU12@ABU12@@std@@QAE@XZ 210af060 f i c_gameserver.obj
 0002:0002c090       ?_Myval@?$_Tree@V?$_Tmap_traits@V?$basic_string@_WU?$char_traits@_W@std@@V?$K2StringAllocator@_W@@@std@@V12@U?$less@V?$basic_string@_WU?$char_traits@_W@std@@V?$K2StringAllocator@_W@@@std@@@2@V?$K2MapAllocator@U?$pair@$$CBV?$basic_string@_WU?$char_traits@_W@std@@V?$K2StringAllocator@_W@@@std@@V12@@std@@@@$0A@@std@@@std@@KAAAU?$pair@$$CBV?$basic_string@_WU?$char_traits@_W@std@@V?$K2StringAllocator@_W@@@std@@V12@@2@PAU_Node@?$_Tree_nod@V?$_Tmap_traits@V?$basic_string@_WU?$char_traits@_W@std@@V?$K2StringAllocator@_W@@@std@@V12@U?$less@V?$basic_string@_WU?$char_traits@_W@std@@V?$K2StringAllocator@_W@@@std@@@2@V?$K2MapAllocator@U?$pair@$$CBV?$basic_string@_WU?$char_traits@_W@std@@V?$K2StringAllocator@_W@@@std@@V12@@std@@@@$0A@@std@@@2@@Z 210af090 f i c_gameserver.obj
 0002:0002c0b0       ?_Lbound@?$_Tree@V?$_Tmap_traits@V?$basic_string@_WU?$char_traits@_W@std@@V?$K2StringAllocator@_W@@@std@@V12@U?$less@V?$basic_string@_WU?$char_traits@_W@std@@V?$K2StringAllocator@_W@@@std@@@2@V?$K2MapAllocator@U?$pair@$$CBV?$basic_string@_WU?$char_traits@_W@std@@V?$K2StringAllocator@_W@@@std@@V12@@std@@@@$0A@@std@@@std@@IBEPAU_Node@?$_Tree_nod@V?$_Tmap_traits@V?$basic_string@_WU?$char_traits@_W@std@@V?$K2StringAllocator@_W@@@std@@V12@U?$less@V?$basic_string@_WU?$char_traits@_W@std@@V?$K2StringAllocator@_W@@@std@@@2@V?$K2MapAllocator@U?$pair@$$CBV?$basic_string@_WU?$char_traits@_W@std@@V?$K2StringAllocator@_W@@@std@@V12@@std@@@@$0A@@std@@@2@ABV?$basic_string@_WU?$char_traits@_W@std@@V?$K2StringAllocator@_W@@@2@@Z 210af0b0 f i c_gameserver.obj
 0002:0002c180       ?_Isnil@?$_Tree@V?$_Tmap_traits@V?$basic_string@_WU?$char_traits@_W@std@@V?$K2StringAllocator@_W@@@std@@V12@U?$less@V?$basic_string@_WU?$char_traits@_W@std@@V?$K2StringAllocator@_W@@@std@@@2@V?$K2MapAllocator@U?$pair@$$CBV?$basic_string@_WU?$char_traits@_W@std@@V?$K2StringAllocator@_W@@@std@@V12@@std@@@@$0A@@std@@@std@@KAAADPAU_Node@?$_Tree_nod@V?$_Tmap_traits@V?$basic_string@_WU?$char_traits@_W@std@@V?$K2StringAllocator@_W@@@std@@V12@U?$less@V?$basic_string@_WU?$char_traits@_W@std@@V?$K2StringAllocator@_W@@@std@@@2@V?$K2MapAllocator@U?$pair@$$CBV?$basic_string@_WU?$char_traits@_W@std@@V?$K2StringAllocator@_W@@@std@@V12@@std@@@@$0A@@std@@@2@@Z 210af180 f i c_gameserver.obj
 0002:0002c1a0       ?_Left@?$_Tree@V?$_Tmap_traits@V?$basic_string@_WU?$char_traits@_W@std@@V?$K2StringAllocator@_W@@@std@@V12@U?$less@V?$basic_string@_WU?$char_traits@_W@std@@V?$K2StringAllocator@_W@@@std@@@2@V?$K2MapAllocator@U?$pair@$$CBV?$basic_string@_WU?$char_traits@_W@std@@V?$K2StringAllocator@_W@@@std@@V12@@std@@@@$0A@@std@@@std@@KAAAPAU_Node@?$_Tree_nod@V?$_Tmap_traits@V?$basic_string@_WU?$char_traits@_W@std@@V?$K2StringAllocator@_W@@@std@@V12@U?$less@V?$basic_string@_WU?$char_traits@_W@std@@V?$K2StringAllocator@_W@@@std@@@2@V?$K2MapAllocator@U?$pair@$$CBV?$basic_string@_WU?$char_traits@_W@std@@V?$K2StringAllocator@_W@@@std@@V12@@std@@@@$0A@@std@@@2@PAU342@@Z 210af1a0 f i c_gameserver.obj
 0002:0002c1c0       ?_Right@?$_Tree@V?$_Tmap_traits@V?$basic_string@_WU?$char_traits@_W@std@@V?$K2StringAllocator@_W@@@std@@V12@U?$less@V?$basic_string@_WU?$char_traits@_W@std@@V?$K2StringAllocator@_W@@@std@@@2@V?$K2MapAllocator@U?$pair@$$CBV?$basic_string@_WU?$char_traits@_W@std@@V?$K2StringAllocator@_W@@@std@@V12@@std@@@@$0A@@std@@@std@@KAAAPAU_Node@?$_Tree_nod@V?$_Tmap_traits@V?$basic_string@_WU?$char_traits@_W@std@@V?$K2StringAllocator@_W@@@std@@V12@U?$less@V?$basic_string@_WU?$char_traits@_W@std@@V?$K2StringAllocator@_W@@@std@@@2@V?$K2MapAllocator@U?$pair@$$CBV?$basic_string@_WU?$char_traits@_W@std@@V?$K2StringAllocator@_W@@@std@@V12@@std@@@@$0A@@std@@@2@PAU342@@Z 210af1c0 f i c_gameserver.obj
 0002:0002c1e0       ?_Root@?$_Tree@V?$_Tmap_traits@V?$basic_string@_WU?$char_traits@_W@std@@V?$K2StringAllocator@_W@@@std@@V12@U?$less@V?$basic_string@_WU?$char_traits@_W@std@@V?$K2StringAllocator@_W@@@std@@@2@V?$K2MapAllocator@U?$pair@$$CBV?$basic_string@_WU?$char_traits@_W@std@@V?$K2StringAllocator@_W@@@std@@V12@@std@@@@$0A@@std@@@std@@IBEAAPAU_Node@?$_Tree_nod@V?$_Tmap_traits@V?$basic_string@_WU?$char_traits@_W@std@@V?$K2StringAllocator@_W@@@std@@V12@U?$less@V?$basic_string@_WU?$char_traits@_W@std@@V?$K2StringAllocator@_W@@@std@@@2@V?$K2MapAllocator@U?$pair@$$CBV?$basic_string@_WU?$char_traits@_W@std@@V?$K2StringAllocator@_W@@@std@@V12@@std@@@@$0A@@std@@@2@XZ 210af1e0 f i c_gameserver.obj
 0002:0002c210       ?_Parent@?$_Tree@V?$_Tmap_traits@V?$basic_string@_WU?$char_traits@_W@std@@V?$K2StringAllocator@_W@@@std@@V12@U?$less@V?$basic_string@_WU?$char_traits@_W@std@@V?$K2StringAllocator@_W@@@std@@@2@V?$K2MapAllocator@U?$pair@$$CBV?$basic_string@_WU?$char_traits@_W@std@@V?$K2StringAllocator@_W@@@std@@V12@@std@@@@$0A@@std@@@std@@KAAAPAU_Node@?$_Tree_nod@V?$_Tmap_traits@V?$basic_string@_WU?$char_traits@_W@std@@V?$K2StringAllocator@_W@@@std@@V12@U?$less@V?$basic_string@_WU?$char_traits@_W@std@@V?$K2StringAllocator@_W@@@std@@@2@V?$K2MapAllocator@U?$pair@$$CBV?$basic_string@_WU?$char_traits@_W@std@@V?$K2StringAllocator@_W@@@std@@V12@@std@@@@$0A@@std@@@2@PAU342@@Z 210af210 f i c_gameserver.obj
 0002:0002c230       ?_Kfn@?$_Tmap_traits@V?$basic_string@_WU?$char_traits@_W@std@@V?$K2StringAllocator@_W@@@std@@V12@U?$less@V?$basic_string@_WU?$char_traits@_W@std@@V?$K2StringAllocator@_W@@@std@@@2@V?$K2MapAllocator@U?$pair@$$CBV?$basic_string@_WU?$char_traits@_W@std@@V?$K2StringAllocator@_W@@@std@@V12@@std@@@@$0A@@std@@SAABV?$basic_string@_WU?$char_traits@_W@std@@V?$K2StringAllocator@_W@@@2@ABU?$pair@$$CBV?$basic_string@_WU?$char_traits@_W@std@@V?$K2StringAllocator@_W@@@std@@V12@@2@@Z 210af230 f i c_gameserver.obj
 0002:0002c250       ??0?$_Vector_iterator@IV?$K2VectorAllocator@I@@@std@@QAE@PAIPBV_Container_base@1@@Z 210af250 f i c_gameserver.obj
 0002:0002c290       ??9?$_Vector_const_iterator@IV?$K2VectorAllocator@I@@@std@@QBE_NABV01@@Z 210af290 f i c_gameserver.obj
 0002:0002c2d0       ??M?$_Vector_const_iterator@IV?$K2VectorAllocator@I@@@std@@QBE_NABV01@@Z 210af2d0 f i c_gameserver.obj
 0002:0002c310       ??0?$_Vector_iterator@USWaterMarker@IGame@@V?$K2VectorAllocator@USWaterMarker@IGame@@@@@std@@QAE@PAUSWaterMarker@IGame@@PBV_Container_base@1@@Z 210af310 f i c_gameserver.obj
 0002:0002c350       ??9?$_Vector_const_iterator@USWaterMarker@IGame@@V?$K2VectorAllocator@USWaterMarker@IGame@@@@@std@@QBE_NABV01@@Z 210af350 f i c_gameserver.obj
 0002:0002c390       ??M?$_Vector_const_iterator@USWaterMarker@IGame@@V?$K2VectorAllocator@USWaterMarker@IGame@@@@@std@@QBE_NABV01@@Z 210af390 f i c_gameserver.obj
 0002:0002c3d0       ??0?$_Vector_const_iterator@IV?$K2VectorAllocator@I@@@std@@QAE@PAIPBV_Container_base@1@@Z 210af3d0 f i c_gameserver.obj
 0002:0002c4d0       ??8?$_Vector_const_iterator@IV?$K2VectorAllocator@I@@@std@@QBE_NABV01@@Z 210af4d0 f i c_gameserver.obj
 0002:0002c510       ?_Compat@?$_Vector_const_iterator@IV?$K2VectorAllocator@I@@@std@@QBEXABV12@@Z 210af510 f i c_gameserver.obj
 0002:0002c5c0       ??0?$_Vector_const_iterator@USWaterMarker@IGame@@V?$K2VectorAllocator@USWaterMarker@IGame@@@@@std@@QAE@PAUSWaterMarker@IGame@@PBV_Container_base@1@@Z 210af5c0 f i c_gameserver.obj
 0002:0002c6c0       ??8?$_Vector_const_iterator@USWaterMarker@IGame@@V?$K2VectorAllocator@USWaterMarker@IGame@@@@@std@@QBE_NABV01@@Z 210af6c0 f i c_gameserver.obj
 0002:0002c700       ?_Compat@?$_Vector_const_iterator@USWaterMarker@IGame@@V?$K2VectorAllocator@USWaterMarker@IGame@@@@@std@@QBEXABV12@@Z 210af700 f i c_gameserver.obj
 0002:0002c7b0       ??0?$_Ranit@IHPBIABI@std@@QAE@XZ 210af7b0 f i c_gameserver.obj
 0002:0002c7e0       ??0?$_Ranit@USWaterMarker@IGame@@HPBU12@ABU12@@std@@QAE@XZ 210af7e0 f i c_gameserver.obj
 0002:0002c810       ??$_CompareNoCase@V?$basic_string@_WU?$char_traits@_W@std@@V?$K2StringAllocator@_W@@@std@@@@YAHABV?$basic_string@_WU?$char_traits@_W@std@@V?$K2StringAllocator@_W@@@std@@0@Z 210af810 f i c_gameserver.obj
 0002:0002cad0       ??1?$_String_const_iterator@_WU?$char_traits@_W@std@@V?$K2StringAllocator@_W@@@std@@QAE@XZ 210afad0 f i c_gameserver.obj
 0002:0002cb00       ??1?$_Ranit_base@_WHPB_WAB_WV_Iterator_base@std@@@std@@QAE@XZ 210afb00 f i c_gameserver.obj
 0002:0002cb30       ??$?8_WU?$char_traits@_W@std@@V?$K2StringAllocator@_W@@@std@@YA_NABV?$basic_string@_WU?$char_traits@_W@std@@V?$K2StringAllocator@_W@@@0@PB_W@Z 210afb30 f i c_gameserver.obj
 0002:0002cb60       ??$unchecked_copy@PAIPAI@stdext@@YAPAIPAI00@Z 210afb60 f i c_gameserver.obj
 0002:0002cbf0       ??$_Debug_lt_pred@U?$less@V?$basic_string@_WU?$char_traits@_W@std@@V?$K2StringAllocator@_W@@@std@@@std@@V?$basic_string@_WU?$char_traits@_W@std@@V?$K2StringAllocator@_W@@@2@V32@@std@@YA_NU?$less@V?$basic_string@_WU?$char_traits@_W@std@@V?$K2StringAllocator@_W@@@std@@@0@ABV?$basic_string@_WU?$char_traits@_W@std@@V?$K2StringAllocator@_W@@@0@1PB_WI@Z 210afbf0 f i c_gameserver.obj
 0002:0002cc70       ??R?$less@V?$basic_string@_WU?$char_traits@_W@std@@V?$K2StringAllocator@_W@@@std@@@std@@QBE_NABV?$basic_string@_WU?$char_traits@_W@std@@V?$K2StringAllocator@_W@@@1@0@Z 210afc70 f i c_gameserver.obj
 0002:0002cca0       ??$?M_WU?$char_traits@_W@std@@V?$K2StringAllocator@_W@@@std@@YA_NABV?$basic_string@_WU?$char_traits@_W@std@@V?$K2StringAllocator@_W@@@0@0@Z 210afca0 f i c_gameserver.obj
 0002:0002ccd0       ??$unchecked_copy@PAUSWaterMarker@IGame@@PAU12@@stdext@@YAPAUSWaterMarker@IGame@@PAU12@00@Z 210afcd0 f i c_gameserver.obj
 0002:0002cd60       ?GetIndex@CWorldLight@@QBEIXZ 210afd60 f i c_gameserver.obj
 0002:0002cd80       ??4iterator@?$_Tree@V?$_Tmap_traits@HPAVCPlayer@@U?$less@H@std@@V?$K2MapAllocator@U?$pair@$$CBHPAVCPlayer@@@std@@@@$0A@@std@@@std@@QAEAAV012@ABV012@@Z 210afd80 f i c_gameserver.obj
 0002:0002cdb0       ??1iterator@?$_Tree@V?$_Tmap_traits@IPAVCWorldLight@@U?$less@I@std@@V?$K2MapAllocator@U?$pair@$$CBIPAVCWorldLight@@@std@@@@$0A@@std@@@std@@QAE@XZ 210afdb0 f i c_gameserver.obj
 0002:0002cde0       ??4const_iterator@?$_Tree@V?$_Tmap_traits@HPAVCPlayer@@U?$less@H@std@@V?$K2MapAllocator@U?$pair@$$CBHPAVCPlayer@@@std@@@@$0A@@std@@@std@@QAEAAV012@ABV012@@Z 210afde0 f i c_gameserver.obj
 0002:0002ce20       ??1const_iterator@?$_Tree@V?$_Tmap_traits@IPAVCWorldLight@@U?$less@I@std@@V?$K2MapAllocator@U?$pair@$$CBIPAVCWorldLight@@@std@@@@$0A@@std@@@std@@QAE@XZ 210afe20 f i c_gameserver.obj
 0002:0002ce50       ??4?$_Bidit@U?$pair@$$CBHPAVCPlayer@@@std@@HPBU12@ABU12@@std@@QAEAAU01@ABU01@@Z 210afe50 f i c_gameserver.obj
 0002:0002ce80       ??1?$_Bidit@U?$pair@$$CBIPAVCWorldLight@@@std@@HPBU12@ABU12@@std@@QAE@XZ 210afe80 f i c_gameserver.obj
 0002:0002ceb0       ?Concede@CGameServer@@QAEXH@Z 210afeb0 f   c_gameserver.obj
 0002:0002d3b0       ?Reset@CGameServer@@QAEX_NABV?$basic_string@_WU?$char_traits@_W@std@@V?$K2StringAllocator@_W@@@std@@0W4EMatchAbortedReason@@@Z 210b03b0 f   c_gameserver.obj
 0002:0002d880       ?ClearGlobalModifiers@IGame@@QAEXXZ 210b0880 f i c_gameserver.obj
 0002:0002d8b0       ?SetGameInfo@IGame@@QAEXPAVCGameInfo@@@Z 210b08b0 f i c_gameserver.obj
 0002:0002d8e0       ?ClearTeams@IGame@@QAEXXZ  210b08e0 f i c_gameserver.obj
 0002:0002d910       ?ClearEventList@IGame@@QAEXXZ 210b0910 f i c_gameserver.obj
 0002:0002d940       ?clear@?$basic_string@_WU?$char_traits@_W@std@@V?$K2StringAllocator@_W@@@std@@QAEXXZ 210b0940 f i c_gameserver.obj
 0002:0002da00       ??1?$_String_iterator@_WU?$char_traits@_W@std@@V?$K2StringAllocator@_W@@@std@@QAE@XZ 210b0a00 f i c_gameserver.obj
 0002:0002da30       ?erase@?$basic_string@_WU?$char_traits@_W@std@@V?$K2StringAllocator@_W@@@std@@QAE?AV?$_String_iterator@_WU?$char_traits@_W@std@@V?$K2StringAllocator@_W@@@2@V32@0@Z 210b0a30 f i c_gameserver.obj
 0002:0002dbf0       ?begin@?$basic_string@_WU?$char_traits@_W@std@@V?$K2StringAllocator@_W@@@std@@QAE?AV?$_String_iterator@_WU?$char_traits@_W@std@@V?$K2StringAllocator@_W@@@2@XZ 210b0bf0 f i c_gameserver.obj
 0002:0002dc40       ?end@?$basic_string@_WU?$char_traits@_W@std@@V?$K2StringAllocator@_W@@@std@@QAE?AV?$_String_iterator@_WU?$char_traits@_W@std@@V?$K2StringAllocator@_W@@@2@XZ 210b0c40 f i c_gameserver.obj
 0002:0002dca0       ??0?$_String_const_iterator@_WU?$char_traits@_W@std@@V?$K2StringAllocator@_W@@@std@@QAE@ABV01@@Z 210b0ca0 f i c_gameserver.obj
 0002:0002dce0       ??0?$_Ranit_base@_WHPB_WAB_WV_Iterator_base@std@@@std@@QAE@ABU01@@Z 210b0ce0 f i c_gameserver.obj
 0002:0002dd10       ?_Pdif@?$basic_string@_WU?$char_traits@_W@std@@V?$K2StringAllocator@_W@@@std@@KAIV?$_String_const_iterator@_WU?$char_traits@_W@std@@V?$K2StringAllocator@_W@@@2@0@Z 210b0d10 f i c_gameserver.obj
 0002:0002ddc0       ??0?$_String_iterator@_WU?$char_traits@_W@std@@V?$K2StringAllocator@_W@@@std@@QAE@PA_WPBV_Container_base@1@@Z 210b0dc0 f i c_gameserver.obj
 0002:0002de00       ??0?$_String_const_iterator@_WU?$char_traits@_W@std@@V?$K2StringAllocator@_W@@@std@@QAE@PB_WPBV_Container_base@1@@Z 210b0e00 f i c_gameserver.obj
 0002:0002df20       ??G?$_String_const_iterator@_WU?$char_traits@_W@std@@V?$K2StringAllocator@_W@@@std@@QBEHABV01@@Z 210b0f20 f i c_gameserver.obj
 0002:0002df60       ??0?$_Ranit_base@_WHPB_WAB_WV_Iterator_base@std@@@std@@QAE@XZ 210b0f60 f i c_gameserver.obj
 0002:0002df90       ?_Compat@?$_String_const_iterator@_WU?$char_traits@_W@std@@V?$K2StringAllocator@_W@@@std@@QBEXABV12@@Z 210b0f90 f i c_gameserver.obj
 0002:0002e040       ?ComparePlayerRank@@YA_NPAVCPlayer@@0@Z 210b1040 f   c_gameserver.obj
 0002:0002e0a0       ?BalanceTeams@CGameServer@@QAEX_N@Z 210b10a0 f   c_gameserver.obj
 0002:0002ea40       ?GetClientList@CTeamInfo@@QAEAAV?$vector@HV?$K2VectorAllocator@H@@@@XZ 210b1a40 f i c_gameserver.obj
 0002:0002ea70       ?IsSlotLocked@CTeamInfo@@QAE_NI@Z 210b1a70 f i c_gameserver.obj
 0002:0002ead0       ?GetTeamSize@CTeamInfo@@QBEIXZ 210b1ad0 f i c_gameserver.obj
 0002:0002eb00       ?IsFull@CTeamInfo@@QBE_NXZ 210b1b00 f i c_gameserver.obj
 0002:0002eb40       ?fabs@@YAMM@Z              210b1b40 f i c_gameserver.obj
 0002:0002eb70       _fabsf                     210b1b70 f i c_gameserver.obj
 0002:0002eba0       ??1?$vector@HV?$K2VectorAllocator@H@@@@QAE@XZ 210b1ba0 f i c_gameserver.obj
 0002:0002ebd0       ??1?$vector@HV?$K2VectorAllocator@H@@@std@@QAE@XZ 210b1bd0 f i c_gameserver.obj
 0002:0002ec50       ??1?$_Vector_val@HV?$K2VectorAllocator@H@@@std@@QAE@XZ 210b1c50 f i c_gameserver.obj
 0002:0002ecd0       ?_Tidy@?$vector@HV?$K2VectorAllocator@H@@@std@@IAEXXZ 210b1cd0 f i c_gameserver.obj
 0002:0002ed70       ??1?$K2VectorAllocator@H@@QAE@XZ 210b1d70 f i c_gameserver.obj
 0002:0002ed90       ?_Destroy@?$vector@HV?$K2VectorAllocator@H@@@std@@IAEXPAH0@Z 210b1d90 f i c_gameserver.obj
 0002:0002edd0       ?deallocate@?$K2VectorAllocator@H@@QAEXPAHI@Z 210b1dd0 f i c_gameserver.obj
 0002:0002ee10       ??$_Destroy_range@HV?$K2VectorAllocator@H@@@std@@YAXPAH0AAV?$K2VectorAllocator@H@@@Z 210b1e10 f i c_gameserver.obj
 0002:0002ee60       ??1?$deque@PAVCPlayer@@V?$K2DequeAllocator@PAVCPlayer@@@@@@QAE@XZ 210b1e60 f i c_gameserver.obj
 0002:0002ee90       ??1?$_Deque_iterator@PAVCPlayer@@V?$K2DequeAllocator@PAVCPlayer@@@@$00@std@@QAE@XZ 210b1e90 f i c_gameserver.obj
 0002:0002eec0       ??1?$_Deque_const_iterator@PAVCPlayer@@V?$K2DequeAllocator@PAVCPlayer@@@@$00@std@@QAE@XZ 210b1ec0 f i c_gameserver.obj
 0002:0002eef0       ?SwapPlayerSlots@CGameServer@@QAEXHIHI@Z 210b1ef0 f   c_gameserver.obj
 0002:0002f010       ?ForceSwapPlayerSlots@CGameServer@@QAEXHIHI@Z 210b2010 f   c_gameserver.obj
 0002:0002f310       ?LockSlot@CTeamInfo@@QAEXI@Z 210b2310 f i c_gameserver.obj
 0002:0002f370       ?LockSlot@CGameServer@@QAEXHI@Z 210b2370 f   c_gameserver.obj
 0002:0002f3c0       ?UnlockSlot@CGameServer@@QAEXHI@Z 210b23c0 f   c_gameserver.obj
 0002:0002f410       ?ToggleSlotLock@CGameServer@@QAEXHI@Z 210b2410 f   c_gameserver.obj
 0002:0002f460       ?ToggleSlotLock@CTeamInfo@@QAEXI@Z 210b2460 f i c_gameserver.obj
 0002:0002f4c0       ?ResetPlayerVotes@CGameServer@@QAEXXZ 210b24c0 f   c_gameserver.obj
 0002:0002f5b0       ?SetVote@CPlayer@@QAEXE@Z  210b25b0 f i c_gameserver.obj
 0002:0002f5e0       ?SetupFrame@CGameServer@@AAE_NXZ 210b25e0 f   c_gameserver.obj
 0002:00031200       ?GetDraftRound@CPlayer@@QBEIXZ 210b4200 f i c_gameserver.obj
 0002:00031230       ?HasSelectedAvatar@CPlayer@@QBE_NXZ 210b4230 f i c_gameserver.obj
 0002:00031270       ?GetBanCount@CTeamInfo@@QBEIXZ 210b4270 f i c_gameserver.obj
 0002:000312a0       ?IncrementBanCount@CTeamInfo@@QAEXXZ 210b42a0 f i c_gameserver.obj
 0002:000312e0       ?GetExtraTime@CTeamInfo@@QBEIXZ 210b42e0 f i c_gameserver.obj
 0002:00031310       ?GetUsingExtraTime@CTeamInfo@@QBE_NXZ 210b4310 f i c_gameserver.obj
 0002:00031340       ?GetPhaseEndTime@IGame@@QBEIXZ 210b4340 f i c_gameserver.obj
 0002:00031390       ?GetPhaseEndTime@CGameInfo@@QBEIXZ 210b4390 f i c_gameserver.obj
 0002:000313f0       ?IsConnected@CClientConnection@@QBE_NXZ 210b43f0 f i c_gameserver.obj
 0002:00031420       ?ActiveFrame@CGameServer@@AAE_NXZ 210b4420 f   c_gameserver.obj
 0002:00031890       ?GetRemainingPhaseTime@IGame@@QBEIXZ 210b4890 f i c_gameserver.obj
 0002:00031900       ?EndedFrame@CGameServer@@AAE_NXZ 210b4900 f   c_gameserver.obj
 0002:00031ca0       ?HasManager@CHostServer@@QBE_NXZ 210b4ca0 f i c_gameserver.obj
 0002:00031cd0       ?IsKickVoteValid@CGameServer@@AAE_NPAVCPlayer@@@Z 210b4cd0 f   c_gameserver.obj
 0002:00031d50       ?IsVisible@CGameServer@@AAE_NPAVIUnitEntity@@MM@Z 210b4d50 f   c_gameserver.obj
 0002:00031f70       ?IsVisible@CVisibilityMap@@QBE_NII@Z 210b4f70 f i c_gameserver.obj
 0002:00031fc0       ?GetCellIndex@CVisibilityMap@@ABEIII@Z 210b4fc0 f i c_gameserver.obj
 0002:00031ff0       ??6CConsoleStream@@QAEAAV0@PBD@Z 210b4ff0 f i c_gameserver.obj
 0002:00032080       ?AddOutputHistory@CConsoleStream@@AAEXABV?$basic_string@DU?$char_traits@D@std@@V?$K2StringAllocator@D@@@std@@@Z 210b5080 f i c_gameserver.obj
 0002:00032120       ??6CConsoleStream@@QAEAAV0@I@Z 210b5120 f i c_gameserver.obj
 0002:000321d0       ??$CLAMP@H@@YAHHHH@Z       210b51d0 f i c_gameserver.obj
 0002:00032220       ?UpdateVoIP@CGameServer@@QAEXXZ 210b5220 f   c_gameserver.obj
 0002:00032800       ?GetHero@CPlayer@@QBEPAVIHeroEntity@@XZ 210b5800 f i c_gameserver.obj
 0002:00032840       ?GetHeroIndex@CPlayer@@QBEIXZ 210b5840 f i c_gameserver.obj
 0002:00032870       ?GetHeroEntity@IGame@@QAEPAVIHeroEntity@@I@Z 210b5870 f i c_gameserver.obj
 0002:000328d0       ??1?$map@HPAVIHeroEntity@@U?$less@H@std@@V?$K2MapAllocator@U?$pair@$$CBHPAVIHeroEntity@@@std@@@@@@QAE@XZ 210b58d0 f i c_gameserver.obj
 0002:00032900       ??1?$pair@Viterator@?$_Tree@V?$_Tmap_traits@HPAVIHeroEntity@@U?$less@H@std@@V?$K2MapAllocator@U?$pair@$$CBHPAVIHeroEntity@@@std@@@@$0A@@std@@@std@@_N@std@@QAE@XZ 210b5900 f i c_gameserver.obj
 0002:00032930       ??1?$map@HV?$vector@HV?$K2VectorAllocator@H@@@@U?$less@H@std@@V?$K2MapAllocator@U?$pair@$$CBHV?$vector@HV?$K2VectorAllocator@H@@@@@std@@@@@@QAE@XZ 210b5930 f i c_gameserver.obj
 0002:00032960       ??1iterator@?$_Tree@V?$_Tmap_traits@HPAVIHeroEntity@@U?$less@H@std@@V?$K2MapAllocator@U?$pair@$$CBHPAVIHeroEntity@@@std@@@@$0A@@std@@@std@@QAE@XZ 210b5960 f i c_gameserver.obj
 0002:00032990       ??0iterator@?$_Tree@V?$_Tmap_traits@HPAVIHeroEntity@@U?$less@H@std@@V?$K2MapAllocator@U?$pair@$$CBHPAVIHeroEntity@@@std@@@@$0A@@std@@@std@@QAE@ABV012@@Z 210b5990 f i c_gameserver.obj
 0002:000329c0       ??1iterator@?$_Tree@V?$_Tmap_traits@HV?$vector@HV?$K2VectorAllocator@H@@@@U?$less@H@std@@V?$K2MapAllocator@U?$pair@$$CBHV?$vector@HV?$K2VectorAllocator@H@@@@@std@@@@$0A@@std@@@std@@QAE@XZ 210b59c0 f i c_gameserver.obj
 0002:000329f0       ??1?$map@HPAVIHeroEntity@@U?$less@H@std@@V?$K2MapAllocator@U?$pair@$$CBHPAVIHeroEntity@@@std@@@@@std@@QAE@XZ 210b59f0 f i c_gameserver.obj
 0002:00032a20       ??1?$map@HV?$vector@HV?$K2VectorAllocator@H@@@@U?$less@H@std@@V?$K2MapAllocator@U?$pair@$$CBHV?$vector@HV?$K2VectorAllocator@H@@@@@std@@@@@std@@QAE@XZ 210b5a20 f i c_gameserver.obj
 0002:00032a50       ??1const_iterator@?$_Tree@V?$_Tmap_traits@HPAVIHeroEntity@@U?$less@H@std@@V?$K2MapAllocator@U?$pair@$$CBHPAVIHeroEntity@@@std@@@@$0A@@std@@@std@@QAE@XZ 210b5a50 f i c_gameserver.obj
 0002:00032a80       ??0const_iterator@?$_Tree@V?$_Tmap_traits@HPAVIHeroEntity@@U?$less@H@std@@V?$K2MapAllocator@U?$pair@$$CBHPAVIHeroEntity@@@std@@@@$0A@@std@@@std@@QAE@ABV012@@Z 210b5a80 f i c_gameserver.obj
 0002:00032ac0       ??1const_iterator@?$_Tree@V?$_Tmap_traits@HV?$vector@HV?$K2VectorAllocator@H@@@@U?$less@H@std@@V?$K2MapAllocator@U?$pair@$$CBHV?$vector@HV?$K2VectorAllocator@H@@@@@std@@@@$0A@@std@@@std@@QAE@XZ 210b5ac0 f i c_gameserver.obj
 0002:00032af0       ??1?$_Bidit@U?$pair@$$CBHPAVIHeroEntity@@@std@@HPBU12@ABU12@@std@@QAE@XZ 210b5af0 f i c_gameserver.obj
 0002:00032b20       ??0?$_Bidit@U?$pair@$$CBHPAVIHeroEntity@@@std@@HPBU12@ABU12@@std@@QAE@ABU01@@Z 210b5b20 f i c_gameserver.obj
 0002:00032b50       ??1?$_Bidit@U?$pair@$$CBHV?$vector@HV?$K2VectorAllocator@H@@@@@std@@HPBU12@ABU12@@std@@QAE@XZ 210b5b50 f i c_gameserver.obj
 0002:00032b80       ?ParseGameLog@CGameServer@@QAEXABV?$basic_string@_WU?$char_traits@_W@std@@V?$K2StringAllocator@_W@@@std@@@Z 210b5b80 f   c_gameserver.obj
 0002:0003aba0       ?GetPlayTime@CPlayer@@QBEIXZ 210bdba0 f i c_gameserver.obj
 0002:0003abd0       ?AddHeroDamage@CGameStats@@QAEXI@Z 210bdbd0 f i c_gameserver.obj
 0002:0003ac00       ?AddHeroKills@CGameStats@@QAEXI@Z 210bdc00 f i c_gameserver.obj
 0002:0003ac40       ?AddHeroAssists@CGameStats@@QAEXI@Z 210bdc40 f i c_gameserver.obj
 0002:0003ac80       ?AddHeroExperience@CGameStats@@QAEXI@Z 210bdc80 f i c_gameserver.obj
 0002:0003acc0       ?AddCreepDamage@CGameStats@@QAEXI@Z 210bdcc0 f i c_gameserver.obj
 0002:0003ad00       ?AddCreepKills@CGameStats@@QAEXI@Z 210bdd00 f i c_gameserver.obj
 0002:0003ad40       ?AddCreepExperience@CGameStats@@QAEXI@Z 210bdd40 f i c_gameserver.obj
 0002:0003ad80       ?AddNeutralDamage@CGameStats@@QAEXI@Z 210bdd80 f i c_gameserver.obj
 0002:0003adc0       ?AddNeutralKills@CGameStats@@QAEXI@Z 210bddc0 f i c_gameserver.obj
 0002:0003ae00       ?AddNeutralExperience@CGameStats@@QAEXI@Z 210bde00 f i c_gameserver.obj
 0002:0003ae40       ?AddBuildingDamage@CGameStats@@QAEXI@Z 210bde40 f i c_gameserver.obj
 0002:0003ae80       ?AddBuildingKills@CGameStats@@QAEXI@Z 210bde80 f i c_gameserver.obj
 0002:0003aec0       ?AddBuildingExperience@CGameStats@@QAEXI@Z 210bdec0 f i c_gameserver.obj
 0002:0003af00       ?AddDenies@CGameStats@@QAEXI@Z 210bdf00 f i c_gameserver.obj
 0002:0003af40       ?AddDeniedExperience@CGameStats@@QAEXI@Z 210bdf40 f i c_gameserver.obj
 0002:0003af80       ?AddExperience@CGameStats@@QAEXI@Z 210bdf80 f i c_gameserver.obj
 0002:0003afc0       ?AddHeroBounty@CGameStats@@QAEXI@Z 210bdfc0 f i c_gameserver.obj
 0002:0003b000       ?AddCreepBounty@CGameStats@@QAEXI@Z 210be000 f i c_gameserver.obj
 0002:0003b040       ?AddNeutralBounty@CGameStats@@QAEXI@Z 210be040 f i c_gameserver.obj
 0002:0003b080       ?AddBuildingBounty@CGameStats@@QAEXI@Z 210be080 f i c_gameserver.obj
 0002:0003b0c0       ?AddGoldEarned@CGameStats@@QAEXI@Z 210be0c0 f i c_gameserver.obj
 0002:0003b100       ?AddGoldSpent@CGameStats@@QAEXI@Z 210be100 f i c_gameserver.obj
 0002:0003b140       ?AddGoldLost@CGameStats@@QAEXI@Z 210be140 f i c_gameserver.obj
 0002:0003b180       ?AddDeaths@CGameStats@@QAEXI@Z 210be180 f i c_gameserver.obj
 0002:0003b1c0       ?AddTimeDead@CGameStats@@QAEXI@Z 210be1c0 f i c_gameserver.obj
 0002:0003b200       ?SetTimePlayed@CGameStats@@QAEXI@Z 210be200 f i c_gameserver.obj
 0002:0003b230       ?AddBuyBacks@CGameStats@@QAEXI@Z 210be230 f i c_gameserver.obj
 0002:0003b270       ?AddActionCount@CGameStats@@QAEXI@Z 210be270 f i c_gameserver.obj
 0002:0003b2b0       ?AddWardsPurchased@CGameStats@@QAEXI@Z 210be2b0 f i c_gameserver.obj
 0002:0003b2f0       ?AddConsumablesPurchased@CGameStats@@QAEXI@Z 210be2f0 f i c_gameserver.obj
 0002:0003b330       ?AddWardsPlaced@CGameStats@@QAEXI@Z 210be330 f i c_gameserver.obj
 0002:0003b370       ?AddConcedeCalls@CGameStats@@QAEXI@Z 210be370 f i c_gameserver.obj
 0002:0003b3b0       ?GetKillStreak@CGameStats@@QBEIXZ 210be3b0 f i c_gameserver.obj
 0002:0003b3e0       ?SetKillStreak@CGameStats@@QAEXI@Z 210be3e0 f i c_gameserver.obj
 0002:0003b410       ?AddMultiKillX2@CGameStats@@QAEXI@Z 210be410 f i c_gameserver.obj
 0002:0003b450       ?AddMultiKillX3@CGameStats@@QAEXI@Z 210be450 f i c_gameserver.obj
 0002:0003b490       ?AddMultiKillX4@CGameStats@@QAEXI@Z 210be490 f i c_gameserver.obj
 0002:0003b4d0       ?AddMultiKillX5@CGameStats@@QAEXI@Z 210be4d0 f i c_gameserver.obj
 0002:0003b510       ??0SSmackdownEntry@CGameStats@@QAE@IEH@Z 210be510 f i c_gameserver.obj
 0002:0003b550       ??0SHumiliationEntry@CGameStats@@QAE@IEH@Z 210be550 f i c_gameserver.obj
 0002:0003b590       ??0SRivalEntry@CGameStats@@QAE@IEHE@Z 210be590 f i c_gameserver.obj
 0002:0003b5e0       ??0SPaybackEntry@CGameStats@@QAE@IEH@Z 210be5e0 f i c_gameserver.obj
 0002:0003b620       ??0SFirstBloodEntry@CGameStats@@QAE@IEH_N@Z 210be620 f i c_gameserver.obj
 0002:0003b670       ??0SAbilityUpgradeEntry@CGameStats@@QAE@IGEE@Z 210be670 f i c_gameserver.obj
 0002:0003b6c0       ??0SItemHistoryEntry@CGameStats@@QAE@IGE@Z 210be6c0 f i c_gameserver.obj
 0002:0003b710       ??0SHeroKillHistoryEvent@CGameStats@@QAE@IHABV?$vector@HV?$K2VectorAllocator@H@@@@@Z 210be710 f i c_gameserver.obj
 0002:0003b760       ?LogAbilityUpgrade@CGameStats@@QAEXAAUSAbilityUpgradeEntry@1@@Z 210be760 f i c_gameserver.obj
 0002:0003b790       ?LogSmackdown@CGameStats@@QAEXAAUSSmackdownEntry@1@@Z 210be790 f i c_gameserver.obj
 0002:0003b7c0       ?LogHumiliation@CGameStats@@QAEXAAUSHumiliationEntry@1@@Z 210be7c0 f i c_gameserver.obj
 0002:0003b7f0       ?LogRival@CGameStats@@QAEXAAUSRivalEntry@1@@Z 210be7f0 f i c_gameserver.obj
 0002:0003b820       ?LogPayback@CGameStats@@QAEXAAUSPaybackEntry@1@@Z 210be820 f i c_gameserver.obj
 0002:0003b850       ?LogKill@CGameStats@@QAEXABUSHeroKillHistoryEvent@1@@Z 210be850 f i c_gameserver.obj
 0002:0003b880       ?LogDeath@CGameStats@@QAEXU?$pair@IH@std@@@Z 210be880 f i c_gameserver.obj
 0002:0003b8b0       ?LogAssist@CGameStats@@QAEXU?$pair@IH@std@@@Z 210be8b0 f i c_gameserver.obj
 0002:0003b8e0       ?LogItemHistory@CGameStats@@QAEXAAUSItemHistoryEntry@1@@Z 210be8e0 f i c_gameserver.obj
 0002:0003b910       ?LogFirstBlood@CGameStats@@QAEXAAUSFirstBloodEntry@1@@Z 210be910 f i c_gameserver.obj
 0002:0003b950       ??1CGameLogEvent@@QAE@XZ   210be950 f i c_gameserver.obj
 0002:0003b980       ??0CGameLogEvent@@QAE@ABV?$basic_string@_WU?$char_traits@_W@std@@V?$K2StringAllocator@_W@@@std@@@Z 210be980 f i c_gameserver.obj
 0002:0003bdd0       ?GetEventType@CGameLogEvent@@QBE?AW4EGameLogEvent@@XZ 210bedd0 f i c_gameserver.obj
 0002:0003bdf0       ?GetProperty@CGameLogEvent@@QBEABV?$basic_string@_WU?$char_traits@_W@std@@V?$K2StringAllocator@_W@@@std@@ABV23@0@Z 210bedf0 f i c_gameserver.obj
 0002:0003bf00       ?GetPropertyInt@CGameLogEvent@@QBEHABV?$basic_string@_WU?$char_traits@_W@std@@V?$K2StringAllocator@_W@@@std@@H@Z 210bef00 f i c_gameserver.obj
 0002:0003c020       ?GetPropertyFloat@CGameLogEvent@@QBEMABV?$basic_string@_WU?$char_traits@_W@std@@V?$K2StringAllocator@_W@@@std@@M@Z 210bf020 f i c_gameserver.obj
 0002:0003c140       ??1?$vector@V?$basic_string@_WU?$char_traits@_W@std@@V?$K2StringAllocator@_W@@@std@@V?$K2VectorAllocator@V?$basic_string@_WU?$char_traits@_W@std@@V?$K2StringAllocator@_W@@@std@@@@@@QAE@XZ 210bf140 f i c_gameserver.obj
 0002:0003c170       ??1?$_Vector_iterator@V?$basic_string@_WU?$char_traits@_W@std@@V?$K2StringAllocator@_W@@@std@@V?$K2VectorAllocator@V?$basic_string@_WU?$char_traits@_W@std@@V?$K2StringAllocator@_W@@@std@@@@@std@@QAE@XZ 210bf170 f i c_gameserver.obj
 0002:0003c1a0       ??1?$_Vector_const_iterator@V?$basic_string@_WU?$char_traits@_W@std@@V?$K2StringAllocator@_W@@@std@@V?$K2VectorAllocator@V?$basic_string@_WU?$char_traits@_W@std@@V?$K2StringAllocator@_W@@@std@@@@@std@@QAE@XZ 210bf1a0 f i c_gameserver.obj
 0002:0003c1d0       ??1?$_Ranit@V?$basic_string@_WU?$char_traits@_W@std@@V?$K2StringAllocator@_W@@@std@@HPBV12@ABV12@@std@@QAE@XZ 210bf1d0 f i c_gameserver.obj
 0002:0003c200       ?AtoF@@YAMABV?$basic_string@_WU?$char_traits@_W@std@@V?$K2StringAllocator@_W@@@std@@@Z 210bf200 f i c_gameserver.obj
 0002:0003c230       ??1?$map@V?$basic_string@_WU?$char_traits@_W@std@@V?$K2StringAllocator@_W@@@std@@V12@U?$less@V?$basic_string@_WU?$char_traits@_W@std@@V?$K2StringAllocator@_W@@@std@@@2@V?$K2MapAllocator@U?$pair@$$CBV?$basic_string@_WU?$char_traits@_W@std@@V?$K2StringAllocator@_W@@@std@@V12@@std@@@@@@QAE@XZ 210bf230 f i c_gameserver.obj
 0002:0003c260       ??1?$map@V?$basic_string@_WU?$char_traits@_W@std@@V?$K2StringAllocator@_W@@@std@@V12@U?$less@V?$basic_string@_WU?$char_traits@_W@std@@V?$K2StringAllocator@_W@@@std@@@2@V?$K2MapAllocator@U?$pair@$$CBV?$basic_string@_WU?$char_traits@_W@std@@V?$K2StringAllocator@_W@@@std@@V12@@std@@@@@std@@QAE@XZ 210bf260 f i c_gameserver.obj
 0002:0003c290       ?GetGameLogEventFromString@@YA?AW4EGameLogEvent@@ABV?$basic_string@_WU?$char_traits@_W@std@@V?$K2StringAllocator@_W@@@std@@@Z 210bf290 f i c_gameserver.obj
 0002:0003ce60       ?GetVoteTypeFromString@@YA?AW4EVoteType@@ABV?$basic_string@_WU?$char_traits@_W@std@@V?$K2StringAllocator@_W@@@std@@@Z 210bfe60 f i c_gameserver.obj
 0002:0003d100       ?GetBaseType@CEntityRegistry@@QAEIABV?$basic_string@_WU?$char_traits@_W@std@@V?$K2StringAllocator@_W@@@std@@@Z 210c0100 f i c_gameserver.obj
 0002:0003d140       ??1?$vector@V?$basic_string@_WU?$char_traits@_W@std@@V?$K2StringAllocator@_W@@@std@@V?$K2VectorAllocator@V?$basic_string@_WU?$char_traits@_W@std@@V?$K2StringAllocator@_W@@@std@@@@@std@@QAE@XZ 210c0140 f i c_gameserver.obj
 0002:0003d1c0       ?begin@?$vector@V?$basic_string@_WU?$char_traits@_W@std@@V?$K2StringAllocator@_W@@@std@@V?$K2VectorAllocator@V?$basic_string@_WU?$char_traits@_W@std@@V?$K2StringAllocator@_W@@@std@@@@@std@@QAE?AV?$_Vector_iterator@V?$basic_string@_WU?$char_traits@_W@std@@V?$K2StringAllocator@_W@@@std@@V?$K2VectorAllocator@V?$basic_string@_WU?$char_traits@_W@std@@V?$K2StringAllocator@_W@@@std@@@@@2@XZ 210c01c0 f i c_gameserver.obj
 0002:0003d210       ?end@?$vector@V?$basic_string@_WU?$char_traits@_W@std@@V?$K2StringAllocator@_W@@@std@@V?$K2VectorAllocator@V?$basic_string@_WU?$char_traits@_W@std@@V?$K2StringAllocator@_W@@@std@@@@@std@@QAE?AV?$_Vector_iterator@V?$basic_string@_WU?$char_traits@_W@std@@V?$K2StringAllocator@_W@@@std@@V?$K2VectorAllocator@V?$basic_string@_WU?$char_traits@_W@std@@V?$K2StringAllocator@_W@@@std@@@@@2@XZ 210c0210 f i c_gameserver.obj
 0002:0003d260       ??A?$basic_string@_WU?$char_traits@_W@std@@V?$K2StringAllocator@_W@@@std@@QBEAB_WI@Z 210c0260 f i c_gameserver.obj
 0002:0003d320       ?length@?$basic_string@_WU?$char_traits@_W@std@@V?$K2StringAllocator@_W@@@std@@QBEIXZ 210c0320 f i c_gameserver.obj
 0002:0003d340       ?compare@?$basic_string@_WU?$char_traits@_W@std@@V?$K2StringAllocator@_W@@@std@@QBEHIIPB_WI@Z 210c0340 f i c_gameserver.obj
 0002:0003d440       ??0?$map@V?$basic_string@_WU?$char_traits@_W@std@@V?$K2StringAllocator@_W@@@std@@V12@U?$less@V?$basic_string@_WU?$char_traits@_W@std@@V?$K2StringAllocator@_W@@@std@@@2@V?$K2MapAllocator@U?$pair@$$CBV?$basic_string@_WU?$char_traits@_W@std@@V?$K2StringAllocator@_W@@@std@@V12@@std@@@@@@QAE@XZ 210c0440 f i c_gameserver.obj
 0002:0003d470       ??A?$map@V?$basic_string@_WU?$char_traits@_W@std@@V?$K2StringAllocator@_W@@@std@@V12@U?$less@V?$basic_string@_WU?$char_traits@_W@std@@V?$K2StringAllocator@_W@@@std@@@2@V?$K2MapAllocator@U?$pair@$$CBV?$basic_string@_WU?$char_traits@_W@std@@V?$K2StringAllocator@_W@@@std@@V12@@std@@@@@std@@QAEAAV?$basic_string@_WU?$char_traits@_W@std@@V?$K2StringAllocator@_W@@@1@ABV21@@Z 210c0470 f i c_gameserver.obj
 0002:0003d710       ??1iterator@?$_Tree@V?$_Tmap_traits@V?$basic_string@_WU?$char_traits@_W@std@@V?$K2StringAllocator@_W@@@std@@V12@U?$less@V?$basic_string@_WU?$char_traits@_W@std@@V?$K2StringAllocator@_W@@@std@@@2@V?$K2MapAllocator@U?$pair@$$CBV?$basic_string@_WU?$char_traits@_W@std@@V?$K2StringAllocator@_W@@@std@@V12@@std@@@@$0A@@std@@@std@@QAE@XZ 210c0710 f i c_gameserver.obj
 0002:0003d740       ??1?$_Tree@V?$_Tmap_traits@V?$basic_string@_WU?$char_traits@_W@std@@V?$K2StringAllocator@_W@@@std@@V12@U?$less@V?$basic_string@_WU?$char_traits@_W@std@@V?$K2StringAllocator@_W@@@std@@@2@V?$K2MapAllocator@U?$pair@$$CBV?$basic_string@_WU?$char_traits@_W@std@@V?$K2StringAllocator@_W@@@std@@V12@@std@@@@$0A@@std@@@std@@QAE@XZ 210c0740 f i c_gameserver.obj
 0002:0003d7c0       ?end@?$_Tree@V?$_Tmap_traits@V?$basic_string@_WU?$char_traits@_W@std@@V?$K2StringAllocator@_W@@@std@@V12@U?$less@V?$basic_string@_WU?$char_traits@_W@std@@V?$K2StringAllocator@_W@@@std@@@2@V?$K2MapAllocator@U?$pair@$$CBV?$basic_string@_WU?$char_traits@_W@std@@V?$K2StringAllocator@_W@@@std@@V12@@std@@@@$0A@@std@@@std@@QAE?AViterator@12@XZ 210c07c0 f i c_gameserver.obj
 0002:0003d810       ??1?$_Vector_val@V?$basic_string@_WU?$char_traits@_W@std@@V?$K2StringAllocator@_W@@@std@@V?$K2VectorAllocator@V?$basic_string@_WU?$char_traits@_W@std@@V?$K2StringAllocator@_W@@@std@@@@@std@@QAE@XZ 210c0810 f i c_gameserver.obj
 0002:0003d890       ??1?$pair@$$CBV?$basic_string@_WU?$char_traits@_W@std@@V?$K2StringAllocator@_W@@@std@@V12@@std@@QAE@XZ 210c0890 f i c_gameserver.obj
 0002:0003d910       ??0iterator@?$_Tree@V?$_Tmap_traits@V?$basic_string@_WU?$char_traits@_W@std@@V?$K2StringAllocator@_W@@@std@@V12@U?$less@V?$basic_string@_WU?$char_traits@_W@std@@V?$K2StringAllocator@_W@@@std@@@2@V?$K2MapAllocator@U?$pair@$$CBV?$basic_string@_WU?$char_traits@_W@std@@V?$K2StringAllocator@_W@@@std@@V12@@std@@@@$0A@@std@@@std@@QAE@ABV012@@Z 210c0910 f i c_gameserver.obj
 0002:0003d940       ??4iterator@?$_Tree@V?$_Tmap_traits@V?$basic_string@_WU?$char_traits@_W@std@@V?$K2StringAllocator@_W@@@std@@V12@U?$less@V?$basic_string@_WU?$char_traits@_W@std@@V?$K2StringAllocator@_W@@@std@@@2@V?$K2MapAllocator@U?$pair@$$CBV?$basic_string@_WU?$char_traits@_W@std@@V?$K2StringAllocator@_W@@@std@@V12@@std@@@@$0A@@std@@@std@@QAEAAV012@ABV012@@Z 210c0940 f i c_gameserver.obj
 0002:0003d970       ??1?$_Tree_val@V?$_Tmap_traits@V?$basic_string@_WU?$char_traits@_W@std@@V?$K2StringAllocator@_W@@@std@@V12@U?$less@V?$basic_string@_WU?$char_traits@_W@std@@V?$K2StringAllocator@_W@@@std@@@2@V?$K2MapAllocator@U?$pair@$$CBV?$basic_string@_WU?$char_traits@_W@std@@V?$K2StringAllocator@_W@@@std@@V12@@std@@@@$0A@@std@@@std@@QAE@XZ 210c0970 f i c_gameserver.obj
 0002:0003d9f0       ??4const_iterator@?$_Tree@V?$_Tmap_traits@V?$basic_string@_WU?$char_traits@_W@std@@V?$K2StringAllocator@_W@@@std@@V12@U?$less@V?$basic_string@_WU?$char_traits@_W@std@@V?$K2StringAllocator@_W@@@std@@@2@V?$K2MapAllocator@U?$pair@$$CBV?$basic_string@_WU?$char_traits@_W@std@@V?$K2StringAllocator@_W@@@std@@V12@@std@@@@$0A@@std@@@std@@QAEAAV012@ABV012@@Z 210c09f0 f i c_gameserver.obj
 0002:0003da30       ??1?$_Tree_ptr@V?$_Tmap_traits@V?$basic_string@_WU?$char_traits@_W@std@@V?$K2StringAllocator@_W@@@std@@V12@U?$less@V?$basic_string@_WU?$char_traits@_W@std@@V?$K2StringAllocator@_W@@@std@@@2@V?$K2MapAllocator@U?$pair@$$CBV?$basic_string@_WU?$char_traits@_W@std@@V?$K2StringAllocator@_W@@@std@@V12@@std@@@@$0A@@std@@@std@@QAE@XZ 210c0a30 f i c_gameserver.obj
 0002:0003dab0       ??4?$_Bidit@U?$pair@$$CBV?$basic_string@_WU?$char_traits@_W@std@@V?$K2StringAllocator@_W@@@std@@V12@@std@@HPBU12@ABU12@@std@@QAEAAU01@ABU01@@Z 210c0ab0 f i c_gameserver.obj
 0002:0003dae0       ??1?$_Tree_nod@V?$_Tmap_traits@V?$basic_string@_WU?$char_traits@_W@std@@V?$K2StringAllocator@_W@@@std@@V12@U?$less@V?$basic_string@_WU?$char_traits@_W@std@@V?$K2StringAllocator@_W@@@std@@@2@V?$K2MapAllocator@U?$pair@$$CBV?$basic_string@_WU?$char_traits@_W@std@@V?$K2StringAllocator@_W@@@std@@V12@@std@@@@$0A@@std@@@std@@QAE@XZ 210c0ae0 f i c_gameserver.obj
 0002:0003db60       ??1?$_Tmap_traits@V?$basic_string@_WU?$char_traits@_W@std@@V?$K2StringAllocator@_W@@@std@@V12@U?$less@V?$basic_string@_WU?$char_traits@_W@std@@V?$K2StringAllocator@_W@@@std@@@2@V?$K2MapAllocator@U?$pair@$$CBV?$basic_string@_WU?$char_traits@_W@std@@V?$K2StringAllocator@_W@@@std@@V12@@std@@@@$0A@@std@@QAE@XZ 210c0b60 f i c_gameserver.obj
 0002:0003db90       ?_Tidy@?$vector@V?$basic_string@_WU?$char_traits@_W@std@@V?$K2StringAllocator@_W@@@std@@V?$K2VectorAllocator@V?$basic_string@_WU?$char_traits@_W@std@@V?$K2StringAllocator@_W@@@std@@@@@std@@IAEXXZ 210c0b90 f i c_gameserver.obj
 0002:0003dc30       ?_Destroy@?$vector@V?$basic_string@_WU?$char_traits@_W@std@@V?$K2StringAllocator@_W@@@std@@V?$K2VectorAllocator@V?$basic_string@_WU?$char_traits@_W@std@@V?$K2StringAllocator@_W@@@std@@@@@std@@IAEXPAV?$basic_string@_WU?$char_traits@_W@std@@V?$K2StringAllocator@_W@@@2@0@Z 210c0c30 f i c_gameserver.obj
 0002:0003dc70       ??1?$K2VectorAllocator@V?$basic_string@_WU?$char_traits@_W@std@@V?$K2StringAllocator@_W@@@std@@@@QAE@XZ 210c0c70 f i c_gameserver.obj
 0002:0003dc90       ?deallocate@?$K2VectorAllocator@V?$basic_string@_WU?$char_traits@_W@std@@V?$K2StringAllocator@_W@@@std@@@@QAEXPAV?$basic_string@_WU?$char_traits@_W@std@@V?$K2StringAllocator@_W@@@std@@I@Z 210c0c90 f i c_gameserver.obj
 0002:0003dcd0       ??0?$map@V?$basic_string@_WU?$char_traits@_W@std@@V?$K2StringAllocator@_W@@@std@@V12@U?$less@V?$basic_string@_WU?$char_traits@_W@std@@V?$K2StringAllocator@_W@@@std@@@2@V?$K2MapAllocator@U?$pair@$$CBV?$basic_string@_WU?$char_traits@_W@std@@V?$K2StringAllocator@_W@@@std@@V12@@std@@@@@std@@QAE@XZ 210c0cd0 f i c_gameserver.obj
 0002:0003dd70       ?insert@?$_Tree@V?$_Tmap_traits@V?$basic_string@_WU?$char_traits@_W@std@@V?$K2StringAllocator@_W@@@std@@V12@U?$less@V?$basic_string@_WU?$char_traits@_W@std@@V?$K2StringAllocator@_W@@@std@@@2@V?$K2MapAllocator@U?$pair@$$CBV?$basic_string@_WU?$char_traits@_W@std@@V?$K2StringAllocator@_W@@@std@@V12@@std@@@@$0A@@std@@@std@@QAE?AViterator@12@V312@ABU?$pair@$$CBV?$basic_string@_WU?$char_traits@_W@std@@V?$K2StringAllocator@_W@@@std@@V12@@2@@Z 210c0d70 f i c_gameserver.obj
 0002:0003eb30       ?begin@?$_Tree@V?$_Tmap_traits@V?$basic_string@_WU?$char_traits@_W@std@@V?$K2StringAllocator@_W@@@std@@V12@U?$less@V?$basic_string@_WU?$char_traits@_W@std@@V?$K2StringAllocator@_W@@@std@@@2@V?$K2MapAllocator@U?$pair@$$CBV?$basic_string@_WU?$char_traits@_W@std@@V?$K2StringAllocator@_W@@@std@@V12@@std@@@@$0A@@std@@@std@@QAE?AViterator@12@XZ 210c1b30 f i c_gameserver.obj
 0002:0003eb80       ?lower_bound@?$_Tree@V?$_Tmap_traits@V?$basic_string@_WU?$char_traits@_W@std@@V?$K2StringAllocator@_W@@@std@@V12@U?$less@V?$basic_string@_WU?$char_traits@_W@std@@V?$K2StringAllocator@_W@@@std@@@2@V?$K2MapAllocator@U?$pair@$$CBV?$basic_string@_WU?$char_traits@_W@std@@V?$K2StringAllocator@_W@@@std@@V12@@std@@@@$0A@@std@@@std@@QAE?AViterator@12@ABV?$basic_string@_WU?$char_traits@_W@std@@V?$K2StringAllocator@_W@@@2@@Z 210c1b80 f i c_gameserver.obj
 0002:0003ebe0       ?_Tidy@?$_Tree@V?$_Tmap_traits@V?$basic_string@_WU?$char_traits@_W@std@@V?$K2StringAllocator@_W@@@std@@V12@U?$less@V?$basic_string@_WU?$char_traits@_W@std@@V?$K2StringAllocator@_W@@@std@@@2@V?$K2MapAllocator@U?$pair@$$CBV?$basic_string@_WU?$char_traits@_W@std@@V?$K2StringAllocator@_W@@@std@@V12@@std@@@@$0A@@std@@@std@@IAEXXZ 210c1be0 f i c_gameserver.obj
 0002:0003ed30       ?erase@?$_Tree@V?$_Tmap_traits@V?$basic_string@_WU?$char_traits@_W@std@@V?$K2StringAllocator@_W@@@std@@V12@U?$less@V?$basic_string@_WU?$char_traits@_W@std@@V?$K2StringAllocator@_W@@@std@@@2@V?$K2MapAllocator@U?$pair@$$CBV?$basic_string@_WU?$char_traits@_W@std@@V?$K2StringAllocator@_W@@@std@@V12@@std@@@@$0A@@std@@@std@@QAE?AViterator@12@V312@0@Z 210c1d30 f i c_gameserver.obj
 0002:0003efc0       ??1?$K2MapAllocator@U?$pair@$$CBV?$basic_string@_WU?$char_traits@_W@std@@V?$K2StringAllocator@_W@@@std@@V12@@std@@@@QAE@XZ 210c1fc0 f i c_gameserver.obj
 0002:0003efe0       ??1?$K2MapAllocator@U_Node@?$_Tree_nod@V?$_Tmap_traits@V?$basic_string@_WU?$char_traits@_W@std@@V?$K2StringAllocator@_W@@@std@@V12@U?$less@V?$basic_string@_WU?$char_traits@_W@std@@V?$K2StringAllocator@_W@@@std@@@2@V?$K2MapAllocator@U?$pair@$$CBV?$basic_string@_WU?$char_traits@_W@std@@V?$K2StringAllocator@_W@@@std@@V12@@std@@@@$0A@@std@@@std@@@@QAE@XZ 210c1fe0 f i c_gameserver.obj
 0002:0003f000       ??1?$K2MapAllocator@PAU_Node@?$_Tree_nod@V?$_Tmap_traits@V?$basic_string@_WU?$char_traits@_W@std@@V?$K2StringAllocator@_W@@@std@@V12@U?$less@V?$basic_string@_WU?$char_traits@_W@std@@V?$K2StringAllocator@_W@@@std@@@2@V?$K2MapAllocator@U?$pair@$$CBV?$basic_string@_WU?$char_traits@_W@std@@V?$K2StringAllocator@_W@@@std@@V12@@std@@@@$0A@@std@@@std@@@@QAE@XZ 210c2000 f i c_gameserver.obj
 0002:0003f020       ??0?$pair@$$CBV?$basic_string@_WU?$char_traits@_W@std@@V?$K2StringAllocator@_W@@@std@@V12@@std@@QAE@ABV?$basic_string@_WU?$char_traits@_W@std@@V?$K2StringAllocator@_W@@@1@0@Z 210c2020 f i c_gameserver.obj
 0002:0003f0b0       ??0?$_Vector_iterator@V?$basic_string@_WU?$char_traits@_W@std@@V?$K2StringAllocator@_W@@@std@@V?$K2VectorAllocator@V?$basic_string@_WU?$char_traits@_W@std@@V?$K2StringAllocator@_W@@@std@@@@@std@@QAE@PAV?$basic_string@_WU?$char_traits@_W@std@@V?$K2StringAllocator@_W@@@1@PBV_Container_base@1@@Z 210c20b0 f i c_gameserver.obj
 0002:0003f0f0       ??0iterator@?$_Tree@V?$_Tmap_traits@V?$basic_string@_WU?$char_traits@_W@std@@V?$K2StringAllocator@_W@@@std@@V12@U?$less@V?$basic_string@_WU?$char_traits@_W@std@@V?$K2StringAllocator@_W@@@std@@@2@V?$K2MapAllocator@U?$pair@$$CBV?$basic_string@_WU?$char_traits@_W@std@@V?$K2StringAllocator@_W@@@std@@V12@@std@@@@$0A@@std@@@std@@QAE@PAU_Node@?$_Tree_nod@V?$_Tmap_traits@V?$basic_string@_WU?$char_traits@_W@std@@V?$K2StringAllocator@_W@@@std@@V12@U?$less@V?$basic_string@_WU?$char_traits@_W@std@@V?$K2StringAllocator@_W@@@std@@@2@V?$K2MapAllocator@U?$pair@$$CBV?$basic_string@_WU?$char_traits@_W@std@@V?$K2StringAllocator@_W@@@std@@V12@@std@@@@$0A@@std@@@2@PBV12@@Z 210c20f0 f i c_gameserver.obj
 0002:0003f130       ??Diterator@?$_Tree@V?$_Tmap_traits@V?$basic_string@_WU?$char_traits@_W@std@@V?$K2StringAllocator@_W@@@std@@V12@U?$less@V?$basic_string@_WU?$char_traits@_W@std@@V?$K2StringAllocator@_W@@@std@@@2@V?$K2MapAllocator@U?$pair@$$CBV?$basic_string@_WU?$char_traits@_W@std@@V?$K2StringAllocator@_W@@@std@@V12@@std@@@@$0A@@std@@@std@@QBEAAU?$pair@$$CBV?$basic_string@_WU?$char_traits@_W@std@@V?$K2StringAllocator@_W@@@std@@V12@@2@XZ 210c2130 f i c_gameserver.obj
 0002:0003f160       ??1?$pair@Viterator@?$_Tree@V?$_Tmap_traits@V?$basic_string@_WU?$char_traits@_W@std@@V?$K2StringAllocator@_W@@@std@@V12@U?$less@V?$basic_string@_WU?$char_traits@_W@std@@V?$K2StringAllocator@_W@@@std@@@2@V?$K2MapAllocator@U?$pair@$$CBV?$basic_string@_WU?$char_traits@_W@std@@V?$K2StringAllocator@_W@@@std@@V12@@std@@@@$0A@@std@@@std@@_N@std@@QAE@XZ 210c2160 f i c_gameserver.obj
 0002:0003f190       ??0?$_Tree@V?$_Tmap_traits@V?$basic_string@_WU?$char_traits@_W@std@@V?$K2StringAllocator@_W@@@std@@V12@U?$less@V?$basic_string@_WU?$char_traits@_W@std@@V?$K2StringAllocator@_W@@@std@@@2@V?$K2MapAllocator@U?$pair@$$CBV?$basic_string@_WU?$char_traits@_W@std@@V?$K2StringAllocator@_W@@@std@@V12@@std@@@@$0A@@std@@@std@@QAE@ABU?$less@V?$basic_string@_WU?$char_traits@_W@std@@V?$K2StringAllocator@_W@@@std@@@1@ABV?$K2MapAllocator@U?$pair@$$CBV?$basic_string@_WU?$char_traits@_W@std@@V?$K2StringAllocator@_W@@@std@@V12@@std@@@@@Z 210c2190 f i c_gameserver.obj
 0002:0003f230       ?size@?$_Tree@V?$_Tmap_traits@V?$basic_string@_WU?$char_traits@_W@std@@V?$K2StringAllocator@_W@@@std@@V12@U?$less@V?$basic_string@_WU?$char_traits@_W@std@@V?$K2StringAllocator@_W@@@std@@@2@V?$K2MapAllocator@U?$pair@$$CBV?$basic_string@_WU?$char_traits@_W@std@@V?$K2StringAllocator@_W@@@std@@V12@@std@@@@$0A@@std@@@std@@QBEIXZ 210c2230 f i c_gameserver.obj
 0002:0003f250       ?insert@?$_Tree@V?$_Tmap_traits@V?$basic_string@_WU?$char_traits@_W@std@@V?$K2StringAllocator@_W@@@std@@V12@U?$less@V?$basic_string@_WU?$char_traits@_W@std@@V?$K2StringAllocator@_W@@@std@@@2@V?$K2MapAllocator@U?$pair@$$CBV?$basic_string@_WU?$char_traits@_W@std@@V?$K2StringAllocator@_W@@@std@@V12@@std@@@@$0A@@std@@@std@@QAE?AU?$pair@Viterator@?$_Tree@V?$_Tmap_traits@V?$basic_string@_WU?$char_traits@_W@std@@V?$K2StringAllocator@_W@@@std@@V12@U?$less@V?$basic_string@_WU?$char_traits@_W@std@@V?$K2StringAllocator@_W@@@std@@@2@V?$K2MapAllocator@U?$pair@$$CBV?$basic_string@_WU?$char_traits@_W@std@@V?$K2StringAllocator@_W@@@std@@V12@@std@@@@$0A@@std@@@std@@_N@2@ABU?$pair@$$CBV?$basic_string@_WU?$char_traits@_W@std@@V?$K2StringAllocator@_W@@@std@@V12@@2@@Z 210c2250 f i c_gameserver.obj
 0002:0003f670       ?erase@?$_Tree@V?$_Tmap_traits@V?$basic_string@_WU?$char_traits@_W@std@@V?$K2StringAllocator@_W@@@std@@V12@U?$less@V?$basic_string@_WU?$char_traits@_W@std@@V?$K2StringAllocator@_W@@@std@@@2@V?$K2MapAllocator@U?$pair@$$CBV?$basic_string@_WU?$char_traits@_W@std@@V?$K2StringAllocator@_W@@@std@@V12@@std@@@@$0A@@std@@@std@@QAE?AViterator@12@V312@@Z 210c2670 f i c_gameserver.obj
 0002:00040050       ?clear@?$_Tree@V?$_Tmap_traits@V?$basic_string@_WU?$char_traits@_W@std@@V?$K2StringAllocator@_W@@@std@@V12@U?$less@V?$basic_string@_WU?$char_traits@_W@std@@V?$K2StringAllocator@_W@@@std@@@2@V?$K2MapAllocator@U?$pair@$$CBV?$basic_string@_WU?$char_traits@_W@std@@V?$K2StringAllocator@_W@@@std@@V12@@std@@@@$0A@@std@@@std@@QAEXXZ 210c3050 f i c_gameserver.obj
 0002:000400e0       ?_Insert@?$_Tree@V?$_Tmap_traits@V?$basic_string@_WU?$char_traits@_W@std@@V?$K2StringAllocator@_W@@@std@@V12@U?$less@V?$basic_string@_WU?$char_traits@_W@std@@V?$K2StringAllocator@_W@@@std@@@2@V?$K2MapAllocator@U?$pair@$$CBV?$basic_string@_WU?$char_traits@_W@std@@V?$K2StringAllocator@_W@@@std@@V12@@std@@@@$0A@@std@@@std@@IAE?AViterator@12@_NPAU_Node@?$_Tree_nod@V?$_Tmap_traits@V?$basic_string@_WU?$char_traits@_W@std@@V?$K2StringAllocator@_W@@@std@@V12@U?$less@V?$basic_string@_WU?$char_traits@_W@std@@V?$K2StringAllocator@_W@@@std@@@2@V?$K2MapAllocator@U?$pair@$$CBV?$basic_string@_WU?$char_traits@_W@std@@V?$K2StringAllocator@_W@@@std@@V12@@std@@@@$0A@@std@@@2@ABU?$pair@$$CBV?$basic_string@_WU?$char_traits@_W@std@@V?$K2StringAllocator@_W@@@std@@V12@@2@@Z 210c30e0 f i c_gameserver.obj
 0002:000406a0       ?_Lmost@?$_Tree@V?$_Tmap_traits@V?$basic_string@_WU?$char_traits@_W@std@@V?$K2StringAllocator@_W@@@std@@V12@U?$less@V?$basic_string@_WU?$char_traits@_W@std@@V?$K2StringAllocator@_W@@@std@@@2@V?$K2MapAllocator@U?$pair@$$CBV?$basic_string@_WU?$char_traits@_W@std@@V?$K2StringAllocator@_W@@@std@@V12@@std@@@@$0A@@std@@@std@@IBEAAPAU_Node@?$_Tree_nod@V?$_Tmap_traits@V?$basic_string@_WU?$char_traits@_W@std@@V?$K2StringAllocator@_W@@@std@@V12@U?$less@V?$basic_string@_WU?$char_traits@_W@std@@V?$K2StringAllocator@_W@@@std@@@2@V?$K2MapAllocator@U?$pair@$$CBV?$basic_string@_WU?$char_traits@_W@std@@V?$K2StringAllocator@_W@@@std@@V12@@std@@@@$0A@@std@@@2@XZ 210c36a0 f i c_gameserver.obj
 0002:000406d0       ?_Max@?$_Tree@V?$_Tmap_traits@V?$basic_string@_WU?$char_traits@_W@std@@V?$K2StringAllocator@_W@@@std@@V12@U?$less@V?$basic_string@_WU?$char_traits@_W@std@@V?$K2StringAllocator@_W@@@std@@@2@V?$K2MapAllocator@U?$pair@$$CBV?$basic_string@_WU?$char_traits@_W@std@@V?$K2StringAllocator@_W@@@std@@V12@@std@@@@$0A@@std@@@std@@KAPAU_Node@?$_Tree_nod@V?$_Tmap_traits@V?$basic_string@_WU?$char_traits@_W@std@@V?$K2StringAllocator@_W@@@std@@V12@U?$less@V?$basic_string@_WU?$char_traits@_W@std@@V?$K2StringAllocator@_W@@@std@@@2@V?$K2MapAllocator@U?$pair@$$CBV?$basic_string@_WU?$char_traits@_W@std@@V?$K2StringAllocator@_W@@@std@@V12@@std@@@@$0A@@std@@@2@PAU342@@Z 210c36d0 f i c_gameserver.obj
 0002:00040730       ?_Min@?$_Tree@V?$_Tmap_traits@V?$basic_string@_WU?$char_traits@_W@std@@V?$K2StringAllocator@_W@@@std@@V12@U?$less@V?$basic_string@_WU?$char_traits@_W@std@@V?$K2StringAllocator@_W@@@std@@@2@V?$K2MapAllocator@U?$pair@$$CBV?$basic_string@_WU?$char_traits@_W@std@@V?$K2StringAllocator@_W@@@std@@V12@@std@@@@$0A@@std@@@std@@KAPAU_Node@?$_Tree_nod@V?$_Tmap_traits@V?$basic_string@_WU?$char_traits@_W@std@@V?$K2StringAllocator@_W@@@std@@V12@U?$less@V?$basic_string@_WU?$char_traits@_W@std@@V?$K2StringAllocator@_W@@@std@@@2@V?$K2MapAllocator@U?$pair@$$CBV?$basic_string@_WU?$char_traits@_W@std@@V?$K2StringAllocator@_W@@@std@@V12@@std@@@@$0A@@std@@@2@PAU342@@Z 210c3730 f i c_gameserver.obj
 0002:00040790       ?_Rmost@?$_Tree@V?$_Tmap_traits@V?$basic_string@_WU?$char_traits@_W@std@@V?$K2StringAllocator@_W@@@std@@V12@U?$less@V?$basic_string@_WU?$char_traits@_W@std@@V?$K2StringAllocator@_W@@@std@@@2@V?$K2MapAllocator@U?$pair@$$CBV?$basic_string@_WU?$char_traits@_W@std@@V?$K2StringAllocator@_W@@@std@@V12@@std@@@@$0A@@std@@@std@@IBEAAPAU_Node@?$_Tree_nod@V?$_Tmap_traits@V?$basic_string@_WU?$char_traits@_W@std@@V?$K2StringAllocator@_W@@@std@@V12@U?$less@V?$basic_string@_WU?$char_traits@_W@std@@V?$K2StringAllocator@_W@@@std@@@2@V?$K2MapAllocator@U?$pair@$$CBV?$basic_string@_WU?$char_traits@_W@std@@V?$K2StringAllocator@_W@@@std@@V12@@std@@@@$0A@@std@@@2@XZ 210c3790 f i c_gameserver.obj
 0002:000407c0       ??0?$K2MapAllocator@U?$pair@$$CBV?$basic_string@_WU?$char_traits@_W@std@@V?$K2StringAllocator@_W@@@std@@V12@@std@@@@QAE@XZ 210c37c0 f i c_gameserver.obj
 0002:000407f0       ?deallocate@?$K2MapAllocator@U_Node@?$_Tree_nod@V?$_Tmap_traits@V?$basic_string@_WU?$char_traits@_W@std@@V?$K2StringAllocator@_W@@@std@@V12@U?$less@V?$basic_string@_WU?$char_traits@_W@std@@V?$K2StringAllocator@_W@@@std@@@2@V?$K2MapAllocator@U?$pair@$$CBV?$basic_string@_WU?$char_traits@_W@std@@V?$K2StringAllocator@_W@@@std@@V12@@std@@@@$0A@@std@@@std@@@@QAEXPAU_Node@?$_Tree_nod@V?$_Tmap_traits@V?$basic_string@_WU?$char_traits@_W@std@@V?$K2StringAllocator@_W@@@std@@V12@U?$less@V?$basic_string@_WU?$char_traits@_W@std@@V?$K2StringAllocator@_W@@@std@@@2@V?$K2MapAllocator@U?$pair@$$CBV?$basic_string@_WU?$char_traits@_W@std@@V?$K2StringAllocator@_W@@@std@@V12@@std@@@@$0A@@std@@@std@@I@Z 210c37f0 f i c_gameserver.obj
 0002:00040830       ?destroy@?$allocator@PAU_Node@?$_Tree_nod@V?$_Tmap_traits@V?$basic_string@_WU?$char_traits@_W@std@@V?$K2StringAllocator@_W@@@std@@V12@U?$less@V?$basic_string@_WU?$char_traits@_W@std@@V?$K2StringAllocator@_W@@@std@@@2@V?$K2MapAllocator@U?$pair@$$CBV?$basic_string@_WU?$char_traits@_W@std@@V?$K2StringAllocator@_W@@@std@@V12@@std@@@@$0A@@std@@@std@@@std@@QAEXPAPAU_Node@?$_Tree_nod@V?$_Tmap_traits@V?$basic_string@_WU?$char_traits@_W@std@@V?$K2StringAllocator@_W@@@std@@V12@U?$less@V?$basic_string@_WU?$char_traits@_W@std@@V?$K2StringAllocator@_W@@@std@@@2@V?$K2MapAllocator@U?$pair@$$CBV?$basic_string@_WU?$char_traits@_W@std@@V?$K2StringAllocator@_W@@@std@@V12@@std@@@@$0A@@std@@@2@@Z 210c3830 f i c_gameserver.obj
 0002:00040860       ??0?$_Vector_const_iterator@V?$basic_string@_WU?$char_traits@_W@std@@V?$K2StringAllocator@_W@@@std@@V?$K2VectorAllocator@V?$basic_string@_WU?$char_traits@_W@std@@V?$K2StringAllocator@_W@@@std@@@@@std@@QAE@PAV?$basic_string@_WU?$char_traits@_W@std@@V?$K2StringAllocator@_W@@@1@PBV_Container_base@1@@Z 210c3860 f i c_gameserver.obj
 0002:00040960       ??9?$_Vector_const_iterator@V?$basic_string@_WU?$char_traits@_W@std@@V?$K2StringAllocator@_W@@@std@@V?$K2VectorAllocator@V?$basic_string@_WU?$char_traits@_W@std@@V?$K2StringAllocator@_W@@@std@@@@@std@@QBE_NABV01@@Z 210c3960 f i c_gameserver.obj
 0002:000409a0       ??0iterator@?$_Tree@V?$_Tmap_traits@V?$basic_string@_WU?$char_traits@_W@std@@V?$K2StringAllocator@_W@@@std@@V12@U?$less@V?$basic_string@_WU?$char_traits@_W@std@@V?$K2StringAllocator@_W@@@std@@@2@V?$K2MapAllocator@U?$pair@$$CBV?$basic_string@_WU?$char_traits@_W@std@@V?$K2StringAllocator@_W@@@std@@V12@@std@@@@$0A@@std@@@std@@QAE@XZ 210c39a0 f i c_gameserver.obj
 0002:000409d0       ??Eiterator@?$_Tree@V?$_Tmap_traits@V?$basic_string@_WU?$char_traits@_W@std@@V?$K2StringAllocator@_W@@@std@@V12@U?$less@V?$basic_string@_WU?$char_traits@_W@std@@V?$K2StringAllocator@_W@@@std@@@2@V?$K2MapAllocator@U?$pair@$$CBV?$basic_string@_WU?$char_traits@_W@std@@V?$K2StringAllocator@_W@@@std@@V12@@std@@@@$0A@@std@@@std@@QAEAAV012@XZ 210c39d0 f i c_gameserver.obj
 0002:00040a00       ??Eiterator@?$_Tree@V?$_Tmap_traits@V?$basic_string@_WU?$char_traits@_W@std@@V?$K2StringAllocator@_W@@@std@@V12@U?$less@V?$basic_string@_WU?$char_traits@_W@std@@V?$K2StringAllocator@_W@@@std@@@2@V?$K2MapAllocator@U?$pair@$$CBV?$basic_string@_WU?$char_traits@_W@std@@V?$K2StringAllocator@_W@@@std@@V12@@std@@@@$0A@@std@@@std@@QAE?AV012@H@Z 210c3a00 f i c_gameserver.obj
 0002:00040ab0       ??Fiterator@?$_Tree@V?$_Tmap_traits@V?$basic_string@_WU?$char_traits@_W@std@@V?$K2StringAllocator@_W@@@std@@V12@U?$less@V?$basic_string@_WU?$char_traits@_W@std@@V?$K2StringAllocator@_W@@@std@@@2@V?$K2MapAllocator@U?$pair@$$CBV?$basic_string@_WU?$char_traits@_W@std@@V?$K2StringAllocator@_W@@@std@@V12@@std@@@@$0A@@std@@@std@@QAEAAV012@XZ 210c3ab0 f i c_gameserver.obj
 0002:00040ae0       ??0?$_Ranit@V?$basic_string@_WU?$char_traits@_W@std@@V?$K2StringAllocator@_W@@@std@@HPBV12@ABV12@@std@@QAE@XZ 210c3ae0 f i c_gameserver.obj
 0002:00040b10       ?_Color@?$_Tree@V?$_Tmap_traits@V?$basic_string@_WU?$char_traits@_W@std@@V?$K2StringAllocator@_W@@@std@@V12@U?$less@V?$basic_string@_WU?$char_traits@_W@std@@V?$K2StringAllocator@_W@@@std@@@2@V?$K2MapAllocator@U?$pair@$$CBV?$basic_string@_WU?$char_traits@_W@std@@V?$K2StringAllocator@_W@@@std@@V12@@std@@@@$0A@@std@@@std@@KAAADPAU_Node@?$_Tree_nod@V?$_Tmap_traits@V?$basic_string@_WU?$char_traits@_W@std@@V?$K2StringAllocator@_W@@@std@@V12@U?$less@V?$basic_string@_WU?$char_traits@_W@std@@V?$K2StringAllocator@_W@@@std@@@2@V?$K2MapAllocator@U?$pair@$$CBV?$basic_string@_WU?$char_traits@_W@std@@V?$K2StringAllocator@_W@@@std@@V12@@std@@@@$0A@@std@@@2@@Z 210c3b10 f i c_gameserver.obj
 0002:00040b30       ?max_size@?$_Tree@V?$_Tmap_traits@V?$basic_string@_WU?$char_traits@_W@std@@V?$K2StringAllocator@_W@@@std@@V12@U?$less@V?$basic_string@_WU?$char_traits@_W@std@@V?$K2StringAllocator@_W@@@std@@@2@V?$K2MapAllocator@U?$pair@$$CBV?$basic_string@_WU?$char_traits@_W@std@@V?$K2StringAllocator@_W@@@std@@V12@@std@@@@$0A@@std@@@std@@QBEIXZ 210c3b30 f i c_gameserver.obj
 0002:00040b60       ?_Erase@?$_Tree@V?$_Tmap_traits@V?$basic_string@_WU?$char_traits@_W@std@@V?$K2StringAllocator@_W@@@std@@V12@U?$less@V?$basic_string@_WU?$char_traits@_W@std@@V?$K2StringAllocator@_W@@@std@@@2@V?$K2MapAllocator@U?$pair@$$CBV?$basic_string@_WU?$char_traits@_W@std@@V?$K2StringAllocator@_W@@@std@@V12@@std@@@@$0A@@std@@@std@@IAEXPAU_Node@?$_Tree_nod@V?$_Tmap_traits@V?$basic_string@_WU?$char_traits@_W@std@@V?$K2StringAllocator@_W@@@std@@V12@U?$less@V?$basic_string@_WU?$char_traits@_W@std@@V?$K2StringAllocator@_W@@@std@@@2@V?$K2MapAllocator@U?$pair@$$CBV?$basic_string@_WU?$char_traits@_W@std@@V?$K2StringAllocator@_W@@@std@@V12@@std@@@@$0A@@std@@@2@@Z 210c3b60 f i c_gameserver.obj
 0002:00040c00       ?_Init@?$_Tree@V?$_Tmap_traits@V?$basic_string@_WU?$char_traits@_W@std@@V?$K2StringAllocator@_W@@@std@@V12@U?$less@V?$basic_string@_WU?$char_traits@_W@std@@V?$K2StringAllocator@_W@@@std@@@2@V?$K2MapAllocator@U?$pair@$$CBV?$basic_string@_WU?$char_traits@_W@std@@V?$K2StringAllocator@_W@@@std@@V12@@std@@@@$0A@@std@@@std@@IAEXXZ 210c3c00 f i c_gameserver.obj
 0002:00040c90       ?_Lrotate@?$_Tree@V?$_Tmap_traits@V?$basic_string@_WU?$char_traits@_W@std@@V?$K2StringAllocator@_W@@@std@@V12@U?$less@V?$basic_string@_WU?$char_traits@_W@std@@V?$K2StringAllocator@_W@@@std@@@2@V?$K2MapAllocator@U?$pair@$$CBV?$basic_string@_WU?$char_traits@_W@std@@V?$K2StringAllocator@_W@@@std@@V12@@std@@@@$0A@@std@@@std@@IAEXPAU_Node@?$_Tree_nod@V?$_Tmap_traits@V?$basic_string@_WU?$char_traits@_W@std@@V?$K2StringAllocator@_W@@@std@@V12@U?$less@V?$basic_string@_WU?$char_traits@_W@std@@V?$K2StringAllocator@_W@@@std@@@2@V?$K2MapAllocator@U?$pair@$$CBV?$basic_string@_WU?$char_traits@_W@std@@V?$K2StringAllocator@_W@@@std@@V12@@std@@@@$0A@@std@@@2@@Z 210c3c90 f i c_gameserver.obj
 0002:00040e20       ?_Rrotate@?$_Tree@V?$_Tmap_traits@V?$basic_string@_WU?$char_traits@_W@std@@V?$K2StringAllocator@_W@@@std@@V12@U?$less@V?$basic_string@_WU?$char_traits@_W@std@@V?$K2StringAllocator@_W@@@std@@@2@V?$K2MapAllocator@U?$pair@$$CBV?$basic_string@_WU?$char_traits@_W@std@@V?$K2StringAllocator@_W@@@std@@V12@@std@@@@$0A@@std@@@std@@IAEXPAU_Node@?$_Tree_nod@V?$_Tmap_traits@V?$basic_string@_WU?$char_traits@_W@std@@V?$K2StringAllocator@_W@@@std@@V12@U?$less@V?$basic_string@_WU?$char_traits@_W@std@@V?$K2StringAllocator@_W@@@std@@@2@V?$K2MapAllocator@U?$pair@$$CBV?$basic_string@_WU?$char_traits@_W@std@@V?$K2StringAllocator@_W@@@std@@V12@@std@@@@$0A@@std@@@2@@Z 210c3e20 f i c_gameserver.obj
 0002:00040fb0       ?_Orphan_ptr@?$_Tree@V?$_Tmap_traits@V?$basic_string@_WU?$char_traits@_W@std@@V?$K2StringAllocator@_W@@@std@@V12@U?$less@V?$basic_string@_WU?$char_traits@_W@std@@V?$K2StringAllocator@_W@@@std@@@2@V?$K2MapAllocator@U?$pair@$$CBV?$basic_string@_WU?$char_traits@_W@std@@V?$K2StringAllocator@_W@@@std@@V12@@std@@@@$0A@@std@@@std@@IBEXAAV12@PAU_Node@?$_Tree_nod@V?$_Tmap_traits@V?$basic_string@_WU?$char_traits@_W@std@@V?$K2StringAllocator@_W@@@std@@V12@U?$less@V?$basic_string@_WU?$char_traits@_W@std@@V?$K2StringAllocator@_W@@@std@@@2@V?$K2MapAllocator@U?$pair@$$CBV?$basic_string@_WU?$char_traits@_W@std@@V?$K2StringAllocator@_W@@@std@@V12@@std@@@@$0A@@std@@@2@@Z 210c3fb0 f i c_gameserver.obj
 0002:00041060       ?_Buynode@?$_Tree@V?$_Tmap_traits@V?$basic_string@_WU?$char_traits@_W@std@@V?$K2StringAllocator@_W@@@std@@V12@U?$less@V?$basic_string@_WU?$char_traits@_W@std@@V?$K2StringAllocator@_W@@@std@@@2@V?$K2MapAllocator@U?$pair@$$CBV?$basic_string@_WU?$char_traits@_W@std@@V?$K2StringAllocator@_W@@@std@@V12@@std@@@@$0A@@std@@@std@@IAEPAU_Node@?$_Tree_nod@V?$_Tmap_traits@V?$basic_string@_WU?$char_traits@_W@std@@V?$K2StringAllocator@_W@@@std@@V12@U?$less@V?$basic_string@_WU?$char_traits@_W@std@@V?$K2StringAllocator@_W@@@std@@@2@V?$K2MapAllocator@U?$pair@$$CBV?$basic_string@_WU?$char_traits@_W@std@@V?$K2StringAllocator@_W@@@std@@V12@@std@@@@$0A@@std@@@2@PAU342@00ABU?$pair@$$CBV?$basic_string@_WU?$char_traits@_W@std@@V?$K2StringAllocator@_W@@@std@@V12@@2@D@Z 210c4060 f i c_gameserver.obj
 0002:00041180       ??3@YAXPAX0@Z              210c4180 f i c_gameserver.obj
 0002:000411a0       ??0?$_Tree_val@V?$_Tmap_traits@V?$basic_string@_WU?$char_traits@_W@std@@V?$K2StringAllocator@_W@@@std@@V12@U?$less@V?$basic_string@_WU?$char_traits@_W@std@@V?$K2StringAllocator@_W@@@std@@@2@V?$K2MapAllocator@U?$pair@$$CBV?$basic_string@_WU?$char_traits@_W@std@@V?$K2StringAllocator@_W@@@std@@V12@@std@@@@$0A@@std@@@std@@IAE@ABU?$less@V?$basic_string@_WU?$char_traits@_W@std@@V?$K2StringAllocator@_W@@@std@@@1@V?$K2MapAllocator@U?$pair@$$CBV?$basic_string@_WU?$char_traits@_W@std@@V?$K2StringAllocator@_W@@@std@@V12@@std@@@@@Z 210c41a0 f i c_gameserver.obj
 0002:00041250       ??0?$K2MapAllocator@U?$pair@$$CBV?$basic_string@_WU?$char_traits@_W@std@@V?$K2StringAllocator@_W@@@std@@V12@@std@@@@QAE@ABV0@@Z 210c4250 f i c_gameserver.obj
 0002:00041280       ??0?$allocator@U?$pair@$$CBV?$basic_string@_WU?$char_traits@_W@std@@V?$K2StringAllocator@_W@@@std@@V12@@std@@@std@@QAE@XZ 210c4280 f i c_gameserver.obj
 0002:000412a0       ?destroy@?$allocator@U_Node@?$_Tree_nod@V?$_Tmap_traits@V?$basic_string@_WU?$char_traits@_W@std@@V?$K2StringAllocator@_W@@@std@@V12@U?$less@V?$basic_string@_WU?$char_traits@_W@std@@V?$K2StringAllocator@_W@@@std@@@2@V?$K2MapAllocator@U?$pair@$$CBV?$basic_string@_WU?$char_traits@_W@std@@V?$K2StringAllocator@_W@@@std@@V12@@std@@@@$0A@@std@@@std@@@std@@QAEXPAU_Node@?$_Tree_nod@V?$_Tmap_traits@V?$basic_string@_WU?$char_traits@_W@std@@V?$K2StringAllocator@_W@@@std@@V12@U?$less@V?$basic_string@_WU?$char_traits@_W@std@@V?$K2StringAllocator@_W@@@std@@@2@V?$K2MapAllocator@U?$pair@$$CBV?$basic_string@_WU?$char_traits@_W@std@@V?$K2StringAllocator@_W@@@std@@V12@@std@@@@$0A@@std@@@2@@Z 210c42a0 f i c_gameserver.obj
 0002:000412d0       ??8?$_Vector_const_iterator@V?$basic_string@_WU?$char_traits@_W@std@@V?$K2StringAllocator@_W@@@std@@V?$K2VectorAllocator@V?$basic_string@_WU?$char_traits@_W@std@@V?$K2StringAllocator@_W@@@std@@@@@std@@QBE_NABV01@@Z 210c42d0 f i c_gameserver.obj
 0002:00041310       ?_Compat@?$_Vector_const_iterator@V?$basic_string@_WU?$char_traits@_W@std@@V?$K2StringAllocator@_W@@@std@@V?$K2VectorAllocator@V?$basic_string@_WU?$char_traits@_W@std@@V?$K2StringAllocator@_W@@@std@@@@@std@@QBEXABV12@@Z 210c4310 f i c_gameserver.obj
 0002:000413c0       ??0const_iterator@?$_Tree@V?$_Tmap_traits@V?$basic_string@_WU?$char_traits@_W@std@@V?$K2StringAllocator@_W@@@std@@V12@U?$less@V?$basic_string@_WU?$char_traits@_W@std@@V?$K2StringAllocator@_W@@@std@@@2@V?$K2MapAllocator@U?$pair@$$CBV?$basic_string@_WU?$char_traits@_W@std@@V?$K2StringAllocator@_W@@@std@@V12@@std@@@@$0A@@std@@@std@@QAE@XZ 210c43c0 f i c_gameserver.obj
 0002:00041400       ??Econst_iterator@?$_Tree@V?$_Tmap_traits@V?$basic_string@_WU?$char_traits@_W@std@@V?$K2StringAllocator@_W@@@std@@V12@U?$less@V?$basic_string@_WU?$char_traits@_W@std@@V?$K2StringAllocator@_W@@@std@@@2@V?$K2MapAllocator@U?$pair@$$CBV?$basic_string@_WU?$char_traits@_W@std@@V?$K2StringAllocator@_W@@@std@@V12@@std@@@@$0A@@std@@@std@@QAEAAV012@XZ 210c4400 f i c_gameserver.obj
 0002:00041430       ??Fconst_iterator@?$_Tree@V?$_Tmap_traits@V?$basic_string@_WU?$char_traits@_W@std@@V?$K2StringAllocator@_W@@@std@@V12@U?$less@V?$basic_string@_WU?$char_traits@_W@std@@V?$K2StringAllocator@_W@@@std@@@2@V?$K2MapAllocator@U?$pair@$$CBV?$basic_string@_WU?$char_traits@_W@std@@V?$K2StringAllocator@_W@@@std@@V12@@std@@@@$0A@@std@@@std@@QAEAAV012@XZ 210c4430 f i c_gameserver.obj
 0002:00041460       ??0?$pair@Viterator@?$_Tree@V?$_Tmap_traits@V?$basic_string@_WU?$char_traits@_W@std@@V?$K2StringAllocator@_W@@@std@@V12@U?$less@V?$basic_string@_WU?$char_traits@_W@std@@V?$K2StringAllocator@_W@@@std@@@2@V?$K2MapAllocator@U?$pair@$$CBV?$basic_string@_WU?$char_traits@_W@std@@V?$K2StringAllocator@_W@@@std@@V12@@std@@@@$0A@@std@@@std@@_N@std@@QAE@ABViterator@?$_Tree@V?$_Tmap_traits@V?$basic_string@_WU?$char_traits@_W@std@@V?$K2StringAllocator@_W@@@std@@V12@U?$less@V?$basic_string@_WU?$char_traits@_W@std@@V?$K2StringAllocator@_W@@@std@@@2@V?$K2MapAllocator@U?$pair@$$CBV?$basic_string@_WU?$char_traits@_W@std@@V?$K2StringAllocator@_W@@@std@@V12@@std@@@@$0A@@std@@@1@AB_N@Z 210c4460 f i c_gameserver.obj
 0002:000414a0       ?_Buynode@?$_Tree@V?$_Tmap_traits@V?$basic_string@_WU?$char_traits@_W@std@@V?$K2StringAllocator@_W@@@std@@V12@U?$less@V?$basic_string@_WU?$char_traits@_W@std@@V?$K2StringAllocator@_W@@@std@@@2@V?$K2MapAllocator@U?$pair@$$CBV?$basic_string@_WU?$char_traits@_W@std@@V?$K2StringAllocator@_W@@@std@@V12@@std@@@@$0A@@std@@@std@@IAEPAU_Node@?$_Tree_nod@V?$_Tmap_traits@V?$basic_string@_WU?$char_traits@_W@std@@V?$K2StringAllocator@_W@@@std@@V12@U?$less@V?$basic_string@_WU?$char_traits@_W@std@@V?$K2StringAllocator@_W@@@std@@@2@V?$K2MapAllocator@U?$pair@$$CBV?$basic_string@_WU?$char_traits@_W@std@@V?$K2StringAllocator@_W@@@std@@V12@@std@@@@$0A@@std@@@2@XZ 210c44a0 f i c_gameserver.obj
 0002:00041680       ??0?$_Tree_ptr@V?$_Tmap_traits@V?$basic_string@_WU?$char_traits@_W@std@@V?$K2StringAllocator@_W@@@std@@V12@U?$less@V?$basic_string@_WU?$char_traits@_W@std@@V?$K2StringAllocator@_W@@@std@@@2@V?$K2MapAllocator@U?$pair@$$CBV?$basic_string@_WU?$char_traits@_W@std@@V?$K2StringAllocator@_W@@@std@@V12@@std@@@@$0A@@std@@@std@@QAE@ABU?$less@V?$basic_string@_WU?$char_traits@_W@std@@V?$K2StringAllocator@_W@@@std@@@1@V?$K2MapAllocator@U?$pair@$$CBV?$basic_string@_WU?$char_traits@_W@std@@V?$K2StringAllocator@_W@@@std@@V12@@std@@@@@Z 210c4680 f i c_gameserver.obj
 0002:00041730       ??0?$allocator@U?$pair@$$CBV?$basic_string@_WU?$char_traits@_W@std@@V?$K2StringAllocator@_W@@@std@@V12@@std@@@std@@QAE@ABV01@@Z 210c4730 f i c_gameserver.obj
 0002:00041750       ?max_size@?$allocator@U?$pair@$$CBV?$basic_string@_WU?$char_traits@_W@std@@V?$K2StringAllocator@_W@@@std@@V12@@std@@@std@@QBEIXZ 210c4750 f i c_gameserver.obj
 0002:00041790       ?allocate@?$K2MapAllocator@U_Node@?$_Tree_nod@V?$_Tmap_traits@V?$basic_string@_WU?$char_traits@_W@std@@V?$K2StringAllocator@_W@@@std@@V12@U?$less@V?$basic_string@_WU?$char_traits@_W@std@@V?$K2StringAllocator@_W@@@std@@@2@V?$K2MapAllocator@U?$pair@$$CBV?$basic_string@_WU?$char_traits@_W@std@@V?$K2StringAllocator@_W@@@std@@V12@@std@@@@$0A@@std@@@std@@@@QAEPAU_Node@?$_Tree_nod@V?$_Tmap_traits@V?$basic_string@_WU?$char_traits@_W@std@@V?$K2StringAllocator@_W@@@std@@V12@U?$less@V?$basic_string@_WU?$char_traits@_W@std@@V?$K2StringAllocator@_W@@@std@@@2@V?$K2MapAllocator@U?$pair@$$CBV?$basic_string@_WU?$char_traits@_W@std@@V?$K2StringAllocator@_W@@@std@@V12@@std@@@@$0A@@std@@@std@@I@Z 210c4790 f i c_gameserver.obj
 0002:000417e0       ?_Dec@const_iterator@?$_Tree@V?$_Tmap_traits@V?$basic_string@_WU?$char_traits@_W@std@@V?$K2StringAllocator@_W@@@std@@V12@U?$less@V?$basic_string@_WU?$char_traits@_W@std@@V?$K2StringAllocator@_W@@@std@@@2@V?$K2MapAllocator@U?$pair@$$CBV?$basic_string@_WU?$char_traits@_W@std@@V?$K2StringAllocator@_W@@@std@@V12@@std@@@@$0A@@std@@@std@@QAEXXZ 210c47e0 f i c_gameserver.obj
 0002:00041aa0       ?_Inc@const_iterator@?$_Tree@V?$_Tmap_traits@V?$basic_string@_WU?$char_traits@_W@std@@V?$K2StringAllocator@_W@@@std@@V12@U?$less@V?$basic_string@_WU?$char_traits@_W@std@@V?$K2StringAllocator@_W@@@std@@@2@V?$K2MapAllocator@U?$pair@$$CBV?$basic_string@_WU?$char_traits@_W@std@@V?$K2StringAllocator@_W@@@std@@V12@@std@@@@$0A@@std@@@std@@QAEXXZ 210c4aa0 f i c_gameserver.obj
 0002:00041c10       ??0_Node@?$_Tree_nod@V?$_Tmap_traits@V?$basic_string@_WU?$char_traits@_W@std@@V?$K2StringAllocator@_W@@@std@@V12@U?$less@V?$basic_string@_WU?$char_traits@_W@std@@V?$K2StringAllocator@_W@@@std@@@2@V?$K2MapAllocator@U?$pair@$$CBV?$basic_string@_WU?$char_traits@_W@std@@V?$K2StringAllocator@_W@@@std@@V12@@std@@@@$0A@@std@@@std@@QAE@PAU012@00ABU?$pair@$$CBV?$basic_string@_WU?$char_traits@_W@std@@V?$K2StringAllocator@_W@@@std@@V12@@2@D@Z 210c4c10 f i c_gameserver.obj
 0002:00041c80       ??0?$pair@$$CBV?$basic_string@_WU?$char_traits@_W@std@@V?$K2StringAllocator@_W@@@std@@V12@@std@@QAE@ABU01@@Z 210c4c80 f i c_gameserver.obj
 0002:00041d10       ??0?$_Tree_nod@V?$_Tmap_traits@V?$basic_string@_WU?$char_traits@_W@std@@V?$K2StringAllocator@_W@@@std@@V12@U?$less@V?$basic_string@_WU?$char_traits@_W@std@@V?$K2StringAllocator@_W@@@std@@@2@V?$K2MapAllocator@U?$pair@$$CBV?$basic_string@_WU?$char_traits@_W@std@@V?$K2StringAllocator@_W@@@std@@V12@@std@@@@$0A@@std@@@std@@IAE@ABU?$less@V?$basic_string@_WU?$char_traits@_W@std@@V?$K2StringAllocator@_W@@@std@@@1@V?$K2MapAllocator@U?$pair@$$CBV?$basic_string@_WU?$char_traits@_W@std@@V?$K2StringAllocator@_W@@@std@@V12@@std@@@@@Z 210c4d10 f i c_gameserver.obj
 0002:00041db0       ?construct@?$allocator@PAU_Node@?$_Tree_nod@V?$_Tmap_traits@V?$basic_string@_WU?$char_traits@_W@std@@V?$K2StringAllocator@_W@@@std@@V12@U?$less@V?$basic_string@_WU?$char_traits@_W@std@@V?$K2StringAllocator@_W@@@std@@@2@V?$K2MapAllocator@U?$pair@$$CBV?$basic_string@_WU?$char_traits@_W@std@@V?$K2StringAllocator@_W@@@std@@V12@@std@@@@$0A@@std@@@std@@@std@@QAEXPAPAU_Node@?$_Tree_nod@V?$_Tmap_traits@V?$basic_string@_WU?$char_traits@_W@std@@V?$K2StringAllocator@_W@@@std@@V12@U?$less@V?$basic_string@_WU?$char_traits@_W@std@@V?$K2StringAllocator@_W@@@std@@@2@V?$K2MapAllocator@U?$pair@$$CBV?$basic_string@_WU?$char_traits@_W@std@@V?$K2StringAllocator@_W@@@std@@V12@@std@@@@$0A@@std@@@2@ABQAU342@@Z 210c4db0 f i c_gameserver.obj
 0002:00041de0       ??0?$_Tmap_traits@V?$basic_string@_WU?$char_traits@_W@std@@V?$K2StringAllocator@_W@@@std@@V12@U?$less@V?$basic_string@_WU?$char_traits@_W@std@@V?$K2StringAllocator@_W@@@std@@@2@V?$K2MapAllocator@U?$pair@$$CBV?$basic_string@_WU?$char_traits@_W@std@@V?$K2StringAllocator@_W@@@std@@V12@@std@@@@$0A@@std@@QAE@U?$less@V?$basic_string@_WU?$char_traits@_W@std@@V?$K2StringAllocator@_W@@@std@@@1@@Z 210c4de0 f i c_gameserver.obj
 0002:00041e10       ??$_Destroy_range@V?$basic_string@_WU?$char_traits@_W@std@@V?$K2StringAllocator@_W@@@std@@V?$K2VectorAllocator@V?$basic_string@_WU?$char_traits@_W@std@@V?$K2StringAllocator@_W@@@std@@@@@std@@YAXPAV?$basic_string@_WU?$char_traits@_W@std@@V?$K2StringAllocator@_W@@@0@0AAV?$K2VectorAllocator@V?$basic_string@_WU?$char_traits@_W@std@@V?$K2StringAllocator@_W@@@std@@@@@Z 210c4e10 f i c_gameserver.obj
 0002:00041e60       ??$_Destroy@PAU_Node@?$_Tree_nod@V?$_Tmap_traits@V?$basic_string@_WU?$char_traits@_W@std@@V?$K2StringAllocator@_W@@@std@@V12@U?$less@V?$basic_string@_WU?$char_traits@_W@std@@V?$K2StringAllocator@_W@@@std@@@2@V?$K2MapAllocator@U?$pair@$$CBV?$basic_string@_WU?$char_traits@_W@std@@V?$K2StringAllocator@_W@@@std@@V12@@std@@@@$0A@@std@@@std@@@std@@YAXPAPAU_Node@?$_Tree_nod@V?$_Tmap_traits@V?$basic_string@_WU?$char_traits@_W@std@@V?$K2StringAllocator@_W@@@std@@V12@U?$less@V?$basic_string@_WU?$char_traits@_W@std@@V?$K2StringAllocator@_W@@@std@@@2@V?$K2MapAllocator@U?$pair@$$CBV?$basic_string@_WU?$char_traits@_W@std@@V?$K2StringAllocator@_W@@@std@@V12@@std@@@@$0A@@std@@@0@@Z 210c4e60 f i c_gameserver.obj
 0002:00041e80       ??$_Destroy@U_Node@?$_Tree_nod@V?$_Tmap_traits@V?$basic_string@_WU?$char_traits@_W@std@@V?$K2StringAllocator@_W@@@std@@V12@U?$less@V?$basic_string@_WU?$char_traits@_W@std@@V?$K2StringAllocator@_W@@@std@@@2@V?$K2MapAllocator@U?$pair@$$CBV?$basic_string@_WU?$char_traits@_W@std@@V?$K2StringAllocator@_W@@@std@@V12@@std@@@@$0A@@std@@@std@@@std@@YAXPAU_Node@?$_Tree_nod@V?$_Tmap_traits@V?$basic_string@_WU?$char_traits@_W@std@@V?$K2StringAllocator@_W@@@std@@V12@U?$less@V?$basic_string@_WU?$char_traits@_W@std@@V?$K2StringAllocator@_W@@@std@@@2@V?$K2MapAllocator@U?$pair@$$CBV?$basic_string@_WU?$char_traits@_W@std@@V?$K2StringAllocator@_W@@@std@@V12@@std@@@@$0A@@std@@@0@@Z 210c4e80 f i c_gameserver.obj
 0002:00041ea0       ??$?0U?$pair@$$CBV?$basic_string@_WU?$char_traits@_W@std@@V?$K2StringAllocator@_W@@@std@@V12@@std@@@?$K2MapAllocator@PAU_Node@?$_Tree_nod@V?$_Tmap_traits@V?$basic_string@_WU?$char_traits@_W@std@@V?$K2StringAllocator@_W@@@std@@V12@U?$less@V?$basic_string@_WU?$char_traits@_W@std@@V?$K2StringAllocator@_W@@@std@@@2@V?$K2MapAllocator@U?$pair@$$CBV?$basic_string@_WU?$char_traits@_W@std@@V?$K2StringAllocator@_W@@@std@@V12@@std@@@@$0A@@std@@@std@@@@QAE@ABV?$K2MapAllocator@U?$pair@$$CBV?$basic_string@_WU?$char_traits@_W@std@@V?$K2StringAllocator@_W@@@std@@V12@@std@@@@@Z 210c4ea0 f i c_gameserver.obj
 0002:00041ed0       ??$?0U?$pair@$$CBV?$basic_string@_WU?$char_traits@_W@std@@V?$K2StringAllocator@_W@@@std@@V12@@std@@@?$K2MapAllocator@U_Node@?$_Tree_nod@V?$_Tmap_traits@V?$basic_string@_WU?$char_traits@_W@std@@V?$K2StringAllocator@_W@@@std@@V12@U?$less@V?$basic_string@_WU?$char_traits@_W@std@@V?$K2StringAllocator@_W@@@std@@@2@V?$K2MapAllocator@U?$pair@$$CBV?$basic_string@_WU?$char_traits@_W@std@@V?$K2StringAllocator@_W@@@std@@V12@@std@@@@$0A@@std@@@std@@@@QAE@ABV?$K2MapAllocator@U?$pair@$$CBV?$basic_string@_WU?$char_traits@_W@std@@V?$K2StringAllocator@_W@@@std@@V12@@std@@@@@Z 210c4ed0 f i c_gameserver.obj
 0002:00041f00       ??$_Construct@PAU_Node@?$_Tree_nod@V?$_Tmap_traits@V?$basic_string@_WU?$char_traits@_W@std@@V?$K2StringAllocator@_W@@@std@@V12@U?$less@V?$basic_string@_WU?$char_traits@_W@std@@V?$K2StringAllocator@_W@@@std@@@2@V?$K2MapAllocator@U?$pair@$$CBV?$basic_string@_WU?$char_traits@_W@std@@V?$K2StringAllocator@_W@@@std@@V12@@std@@@@$0A@@std@@@std@@PAU123@@std@@YAXPAPAU_Node@?$_Tree_nod@V?$_Tmap_traits@V?$basic_string@_WU?$char_traits@_W@std@@V?$K2StringAllocator@_W@@@std@@V12@U?$less@V?$basic_string@_WU?$char_traits@_W@std@@V?$K2StringAllocator@_W@@@std@@@2@V?$K2MapAllocator@U?$pair@$$CBV?$basic_string@_WU?$char_traits@_W@std@@V?$K2StringAllocator@_W@@@std@@V12@@std@@@@$0A@@std@@@0@ABQAU120@@Z 210c4f00 f i c_gameserver.obj
 0002:00041f60       ??_G_Node@?$_Tree_nod@V?$_Tmap_traits@V?$basic_string@_WU?$char_traits@_W@std@@V?$K2StringAllocator@_W@@@std@@V12@U?$less@V?$basic_string@_WU?$char_traits@_W@std@@V?$K2StringAllocator@_W@@@std@@@2@V?$K2MapAllocator@U?$pair@$$CBV?$basic_string@_WU?$char_traits@_W@std@@V?$K2StringAllocator@_W@@@std@@V12@@std@@@@$0A@@std@@@std@@QAEPAXI@Z 210c4f60 f i c_gameserver.obj
 0002:00041fb0       ??1_Node@?$_Tree_nod@V?$_Tmap_traits@V?$basic_string@_WU?$char_traits@_W@std@@V?$K2StringAllocator@_W@@@std@@V12@U?$less@V?$basic_string@_WU?$char_traits@_W@std@@V?$K2StringAllocator@_W@@@std@@@2@V?$K2MapAllocator@U?$pair@$$CBV?$basic_string@_WU?$char_traits@_W@std@@V?$K2StringAllocator@_W@@@std@@V12@@std@@@@$0A@@std@@@std@@QAE@XZ 210c4fb0 f i c_gameserver.obj
 0002:00041fe0       ?GetCategory@CItemDefinition@@QBEABV?$basic_string@_WU?$char_traits@_W@std@@V?$K2StringAllocator@_W@@@std@@XZ 210c4fe0 f i c_gameserver.obj
 0002:00042010       ??1?$vector@PAVIGameEntity@@V?$K2VectorAllocator@PAVIGameEntity@@@@@@QAE@XZ 210c5010 f i c_gameserver.obj
 0002:00042040       ??1?$_Vector_iterator@PAVIGameEntity@@V?$K2VectorAllocator@PAVIGameEntity@@@@@std@@QAE@XZ 210c5040 f i c_gameserver.obj
 0002:00042070       ??1?$map@HPAVCGameStats@@U?$less@H@std@@V?$K2MapAllocator@U?$pair@$$CBHPAVCGameStats@@@std@@@@@@QAE@XZ 210c5070 f i c_gameserver.obj
 0002:000420a0       ??1iterator@?$_Tree@V?$_Tmap_traits@HPAVCGameStats@@U?$less@H@std@@V?$K2MapAllocator@U?$pair@$$CBHPAVCGameStats@@@std@@@@$0A@@std@@@std@@QAE@XZ 210c50a0 f i c_gameserver.obj
 0002:000420d0       ??4iterator@?$_Tree@V?$_Tmap_traits@HPAVCGameStats@@U?$less@H@std@@V?$K2MapAllocator@U?$pair@$$CBHPAVCGameStats@@@std@@@@$0A@@std@@@std@@QAEAAV012@ABV012@@Z 210c50d0 f i c_gameserver.obj
 0002:00042100       ??1SHeroKillHistoryEvent@CGameStats@@QAE@XZ 210c5100 f i c_gameserver.obj
 0002:00042130       ??0SMatchKillEntry@@QAE@XZ 210c5130 f i c_gameserver.obj
 0002:00042160       ??1SMatchKillEntry@@QAE@XZ 210c5160 f i c_gameserver.obj
 0002:00042190       ??4?$vector@HV?$K2VectorAllocator@H@@@@QAEAAV0@ABV0@@Z 210c5190 f i c_gameserver.obj
 0002:000421c0       ??1?$_Vector_const_iterator@PAVIGameEntity@@V?$K2VectorAllocator@PAVIGameEntity@@@@@std@@QAE@XZ 210c51c0 f i c_gameserver.obj
 0002:000421f0       ??1?$map@HPAVCGameStats@@U?$less@H@std@@V?$K2MapAllocator@U?$pair@$$CBHPAVCGameStats@@@std@@@@@std@@QAE@XZ 210c51f0 f i c_gameserver.obj
 0002:00042220       ??1const_iterator@?$_Tree@V?$_Tmap_traits@HPAVCGameStats@@U?$less@H@std@@V?$K2MapAllocator@U?$pair@$$CBHPAVCGameStats@@@std@@@@$0A@@std@@@std@@QAE@XZ 210c5220 f i c_gameserver.obj
 0002:00042250       ??4const_iterator@?$_Tree@V?$_Tmap_traits@HPAVCGameStats@@U?$less@H@std@@V?$K2MapAllocator@U?$pair@$$CBHPAVCGameStats@@@std@@@@$0A@@std@@@std@@QAEAAV012@ABV012@@Z 210c5250 f i c_gameserver.obj
 0002:00042290       ??1?$_Ranit@PAVIGameEntity@@HPBQAV1@ABQAV1@@std@@QAE@XZ 210c5290 f i c_gameserver.obj
 0002:000422c0       ??1?$_Bidit@U?$pair@$$CBHPAVCGameStats@@@std@@HPBU12@ABU12@@std@@QAE@XZ 210c52c0 f i c_gameserver.obj
 0002:000422f0       ??4?$_Bidit@U?$pair@$$CBHPAVCGameStats@@@std@@HPBU12@ABU12@@std@@QAEAAU01@ABU01@@Z 210c52f0 f i c_gameserver.obj
 0002:00042320       ?cmdParseLogFn@@YA_NPAVCConsoleElement@@ABV?$vector@V?$basic_string@_WU?$char_traits@_W@std@@V?$K2StringAllocator@_W@@@std@@V?$K2VectorAllocator@V?$basic_string@_WU?$char_traits@_W@std@@V?$K2StringAllocator@_W@@@std@@@@@@@Z 210c5320 f   c_gameserver.obj
 0002:00042390       ?GetInstance@CGameServer@@SAPAV1@XZ 210c5390 f i c_gameserver.obj
 0002:000424f0       ?empty@?$vector@V?$basic_string@_WU?$char_traits@_W@std@@V?$K2StringAllocator@_W@@@std@@V?$K2VectorAllocator@V?$basic_string@_WU?$char_traits@_W@std@@V?$K2StringAllocator@_W@@@std@@@@@std@@QBE_NXZ 210c54f0 f i c_gameserver.obj
 0002:00042520       ?size@?$vector@V?$basic_string@_WU?$char_traits@_W@std@@V?$K2StringAllocator@_W@@@std@@V?$K2VectorAllocator@V?$basic_string@_WU?$char_traits@_W@std@@V?$K2StringAllocator@_W@@@std@@@@@std@@QBEIXZ 210c5520 f i c_gameserver.obj
 0002:00042570       ??A?$vector@V?$basic_string@_WU?$char_traits@_W@std@@V?$K2StringAllocator@_W@@@std@@V?$K2VectorAllocator@V?$basic_string@_WU?$char_traits@_W@std@@V?$K2StringAllocator@_W@@@std@@@@@std@@QBEABV?$basic_string@_WU?$char_traits@_W@std@@V?$K2StringAllocator@_W@@@1@I@Z 210c5570 f i c_gameserver.obj
 0002:00042690       ?GetMatchIDFromMasterServer@CGameServer@@QAEXXZ 210c5690 f   c_gameserver.obj
 0002:00042d00       ?GetString@CPHPData@@QBE?AV?$basic_string@_WU?$char_traits@_W@std@@V?$K2StringAllocator@_W@@@std@@ABV23@0@Z 210c5d00 f i c_gameserver.obj
 0002:00042d80       ?GetInteger@CPHPData@@QBEHABV?$basic_string@_WU?$char_traits@_W@std@@V?$K2StringAllocator@_W@@@std@@H@Z 210c5d80 f i c_gameserver.obj
 0002:00042dd0       ?GetInteger@CPHPData@@QBEHXZ 210c5dd0 f i c_gameserver.obj
 0002:00042e80       ?GetVersionString@CSystem@@QBEABV?$basic_string@_WU?$char_traits@_W@std@@V?$K2StringAllocator@_W@@@std@@XZ 210c5e80 f i c_gameserver.obj
 0002:00042ea0       ??B?$CCvar@V?$basic_string@_WU?$char_traits@_W@std@@V?$K2StringAllocator@_W@@@std@@V12@@@QBE?AV?$basic_string@_WU?$char_traits@_W@std@@V?$K2StringAllocator@_W@@@std@@XZ 210c5ea0 f i c_gameserver.obj
 0002:00042ef0       ?GetName@CWorld@@QBEABV?$basic_string@_WU?$char_traits@_W@std@@V?$K2StringAllocator@_W@@@std@@XZ 210c5ef0 f i c_gameserver.obj
 0002:00042f10       ?SetMatchID@CGameInfo@@QAEXI@Z 210c5f10 f i c_gameserver.obj
 0002:00042f40       ?cmdGetMatchIDFn@@YA_NPAVCConsoleElement@@ABV?$vector@V?$basic_string@_WU?$char_traits@_W@std@@V?$K2StringAllocator@_W@@@std@@V?$K2VectorAllocator@V?$basic_string@_WU?$char_traits@_W@std@@V?$K2StringAllocator@_W@@@std@@@@@@@Z 210c5f40 f   c_gameserver.obj
 0002:00042fe0       ?SendTrialGameIncrease@CGameServer@@QAEXXZ 210c5fe0 f   c_gameserver.obj
 0002:000435c0       ?GetAccountType@CPlayerAccountStats@@QBEIXZ 210c65c0 f i c_gameserver.obj
 0002:000435e0       ?GetTrialStatus@CPlayerAccountStats@@QBEIXZ 210c65e0 f i c_gameserver.obj
 0002:00043600       ?GetTrialGamesPlayed@CPlayerAccountStats@@QBEIXZ 210c6600 f i c_gameserver.obj
 0002:00043620       ?IncTrialGamesPlayed@CPlayerAccountStats@@QAEXXZ 210c6620 f i c_gameserver.obj
 0002:00043650       ??4iterator@?$_Tree@V?$_Tmap_traits@HVCPlayerAccountStats@@U?$less@H@std@@V?$K2MapAllocator@U?$pair@$$CBHVCPlayerAccountStats@@@std@@@@$0A@@std@@@std@@QAEAAV012@ABV012@@Z 210c6650 f i c_gameserver.obj
 0002:00043680       ??4const_iterator@?$_Tree@V?$_Tmap_traits@HVCPlayerAccountStats@@U?$less@H@std@@V?$K2MapAllocator@U?$pair@$$CBHVCPlayerAccountStats@@@std@@@@$0A@@std@@@std@@QAEAAV012@ABV012@@Z 210c6680 f i c_gameserver.obj
 0002:000436c0       ??4?$_Bidit@U?$pair@$$CBHVCPlayerAccountStats@@@std@@HPBU12@ABU12@@std@@QAEAAU01@ABU01@@Z 210c66c0 f i c_gameserver.obj
 0002:000436f0       ?SendReconnectData@CGameServer@@QAEXPAVCPlayer@@@Z 210c66f0 f   c_gameserver.obj
 0002:00043b80       ?ClearVariables@CHTTPRequest@@QAEXXZ 210c6b80 f i c_gameserver.obj
 0002:00043bb0       ?XtoW@@YA?AV?$basic_string@_WU?$char_traits@_W@std@@V?$K2StringAllocator@_W@@@std@@GHHH@Z 210c6bb0 f i c_gameserver.obj
 0002:00043c00       ??4?$basic_string@_WU?$char_traits@_W@std@@V?$K2StringAllocator@_W@@@std@@QAEAAV01@PB_W@Z 210c6c00 f i c_gameserver.obj
 0002:00043c30       ??$_UItoW@G@@YA?AV?$basic_string@_WU?$char_traits@_W@std@@V?$K2StringAllocator@_W@@@std@@GHHH@Z 210c6c30 f i c_gameserver.obj
 0002:00043d10       ?GetAddress@CHostServer@@QBEABV?$basic_string@_WU?$char_traits@_W@std@@V?$K2StringAllocator@_W@@@std@@XZ 210c6d10 f i c_gameserver.obj
 0002:00043d40       ?GetValue@?$CCvar@V?$basic_string@_WU?$char_traits@_W@std@@V?$K2StringAllocator@_W@@@std@@V12@@@QBEABV?$basic_string@_WU?$char_traits@_W@std@@V?$K2StringAllocator@_W@@@std@@XZ 210c6d40 f i c_gameserver.obj
 0002:00043d70       ?GetPort@CHostServer@@QBE?BGXZ 210c6d70 f i c_gameserver.obj
 0002:00043da0       ??B?$CCvar@HH@@QBEHXZ      210c6da0 f i c_gameserver.obj
 0002:00043dd0       ?SendStats@CGameServer@@QAEXXZ 210c6dd0 f   c_gameserver.obj
 0002:00048170       ?AddVariable@CHTTPRequest@@QAEXABV?$basic_string@_WU?$char_traits@_W@std@@V?$K2StringAllocator@_W@@@std@@I@Z 210cb170 f i c_gameserver.obj
 0002:00048310       ?AddVariable@CHTTPRequest@@QAEXABV?$basic_string@_WU?$char_traits@_W@std@@V?$K2StringAllocator@_W@@@std@@H@Z 210cb310 f i c_gameserver.obj
 0002:000484b0       ?AddVariable@CHTTPRequest@@QAEXABV?$basic_string@_WU?$char_traits@_W@std@@V?$K2StringAllocator@_W@@@std@@M@Z 210cb4b0 f i c_gameserver.obj
 0002:00048660       ?GetStats@CPlayer@@QBEPAVCGameStats@@XZ 210cb660 f i c_gameserver.obj
 0002:000486a0       ?GetStatsIndex@CPlayer@@QBEIXZ 210cb6a0 f i c_gameserver.obj
 0002:000486d0       ?GetClanID@CPlayer@@QBEHXZ 210cb6d0 f i c_gameserver.obj
 0002:00048700       ?GetStoredMatchWinValue@CPlayer@@QAEMXZ 210cb700 f i c_gameserver.obj
 0002:00048730       ?GetStoredMatchLossValue@CPlayer@@QAEMXZ 210cb730 f i c_gameserver.obj
 0002:00048760       ?GetMatchComment@CPlayer@@QBEABV?$basic_string@_WU?$char_traits@_W@std@@V?$K2StringAllocator@_W@@@std@@XZ 210cb760 f i c_gameserver.obj
 0002:00048790       ?GetTeamIndex@CPlayer@@QBEHXZ 210cb790 f i c_gameserver.obj
 0002:000487c0       ?GetHeroDamage@CGameStats@@QBEIXZ 210cb7c0 f i c_gameserver.obj
 0002:000487e0       ?GetHeroKills@CGameStats@@QBEIXZ 210cb7e0 f i c_gameserver.obj
 0002:00048810       ?GetHeroAssists@CGameStats@@QBEIXZ 210cb810 f i c_gameserver.obj
 0002:00048840       ?GetHeroExperience@CGameStats@@QBEIXZ 210cb840 f i c_gameserver.obj
 0002:00048870       ?GetCreepDamage@CGameStats@@QBEIXZ 210cb870 f i c_gameserver.obj
 0002:000488a0       ?GetCreepKills@CGameStats@@QBEIXZ 210cb8a0 f i c_gameserver.obj
 0002:000488d0       ?GetCreepExperience@CGameStats@@QBEIXZ 210cb8d0 f i c_gameserver.obj
 0002:00048900       ?GetNeutralDamage@CGameStats@@QBEIXZ 210cb900 f i c_gameserver.obj
 0002:00048930       ?GetNeutralKills@CGameStats@@QBEIXZ 210cb930 f i c_gameserver.obj
 0002:00048960       ?GetNeutralExperience@CGameStats@@QBEIXZ 210cb960 f i c_gameserver.obj
 0002:00048990       ?GetBuildingDamage@CGameStats@@QBEIXZ 210cb990 f i c_gameserver.obj
 0002:000489c0       ?GetBuildingKills@CGameStats@@QBEIXZ 210cb9c0 f i c_gameserver.obj
 0002:000489f0       ?GetBuildingExperience@CGameStats@@QBEIXZ 210cb9f0 f i c_gameserver.obj
 0002:00048a20       ?GetDenies@CGameStats@@QBEIXZ 210cba20 f i c_gameserver.obj
 0002:00048a50       ?GetDeniedExperience@CGameStats@@QBEIXZ 210cba50 f i c_gameserver.obj
 0002:00048a80       ?GetExperience@CGameStats@@QBEIXZ 210cba80 f i c_gameserver.obj
 0002:00048ab0       ?GetHeroBounty@CGameStats@@QBEIXZ 210cbab0 f i c_gameserver.obj
 0002:00048ae0       ?GetCreepBounty@CGameStats@@QBEIXZ 210cbae0 f i c_gameserver.obj
 0002:00048b10       ?GetNeutralBounty@CGameStats@@QBEIXZ 210cbb10 f i c_gameserver.obj
 0002:00048b40       ?GetBuildingBounty@CGameStats@@QBEIXZ 210cbb40 f i c_gameserver.obj
 0002:00048b70       ?GetGoldEarned@CGameStats@@QBEIXZ 210cbb70 f i c_gameserver.obj
 0002:00048ba0       ?GetGoldSpent@CGameStats@@QBEIXZ 210cbba0 f i c_gameserver.obj
 0002:00048bd0       ?GetGoldLost@CGameStats@@QBEIXZ 210cbbd0 f i c_gameserver.obj
 0002:00048c00       ?GetDeaths@CGameStats@@QBEIXZ 210cbc00 f i c_gameserver.obj
 0002:00048c30       ?GetTimeDead@CGameStats@@QBEIXZ 210cbc30 f i c_gameserver.obj
 0002:00048c60       ?GetBuyBacks@CGameStats@@QBEIXZ 210cbc60 f i c_gameserver.obj
 0002:00048c90       ?GetActionCount@CGameStats@@QBEIXZ 210cbc90 f i c_gameserver.obj
 0002:00048cc0       ?GetConsumablesPurchased@CGameStats@@QBEIXZ 210cbcc0 f i c_gameserver.obj
 0002:00048cf0       ?GetWardsPlaced@CGameStats@@QBEIXZ 210cbcf0 f i c_gameserver.obj
 0002:00048d20       ?GetConcedeCalls@CGameStats@@QBEIXZ 210cbd20 f i c_gameserver.obj
 0002:00048d50       ?GetMultiKillX2@CGameStats@@QBEIXZ 210cbd50 f i c_gameserver.obj
 0002:00048d80       ?GetMultiKillX3@CGameStats@@QBEIXZ 210cbd80 f i c_gameserver.obj
 0002:00048db0       ?GetMultiKillX4@CGameStats@@QBEIXZ 210cbdb0 f i c_gameserver.obj
 0002:00048de0       ?GetMultiKillX5@CGameStats@@QBEIXZ 210cbde0 f i c_gameserver.obj
 0002:00048e10       ?GetAbilityUpgradeLog@CGameStats@@QBEABV?$vector@USAbilityUpgradeEntry@CGameStats@@V?$K2VectorAllocator@USAbilityUpgradeEntry@CGameStats@@@@@@XZ 210cbe10 f i c_gameserver.obj
 0002:00048e40       ?GetSmackdownLog@CGameStats@@QBEABV?$vector@USSmackdownEntry@CGameStats@@V?$K2VectorAllocator@USSmackdownEntry@CGameStats@@@@@@XZ 210cbe40 f i c_gameserver.obj
 0002:00048e70       ?GetHumiliationLog@CGameStats@@QBEABV?$vector@USHumiliationEntry@CGameStats@@V?$K2VectorAllocator@USHumiliationEntry@CGameStats@@@@@@XZ 210cbe70 f i c_gameserver.obj
 0002:00048ea0       ?GetPaybackLog@CGameStats@@QBEABV?$vector@USPaybackEntry@CGameStats@@V?$K2VectorAllocator@USPaybackEntry@CGameStats@@@@@@XZ 210cbea0 f i c_gameserver.obj
 0002:00048ed0       ?GetItemHistoryLog@CGameStats@@QBEABV?$vector@USItemHistoryEntry@CGameStats@@V?$K2VectorAllocator@USItemHistoryEntry@CGameStats@@@@@@XZ 210cbed0 f i c_gameserver.obj
 0002:00048f00       ?GetFirstBloodEntry@CGameStats@@QBEABUSFirstBloodEntry@1@XZ 210cbf00 f i c_gameserver.obj
 0002:00048f30       ?MsToSec@@YAMI@Z           210cbf30 f i c_gameserver.obj
 0002:00048f70       ?GetMasterServerAddress@CSystem@@QBEABV?$basic_string@DU?$char_traits@D@std@@V?$K2StringAllocator@D@@@std@@XZ 210cbf70 f i c_gameserver.obj
 0002:00048fa0       ?XtoS@@YA?AV?$basic_string@DU?$char_traits@D@std@@V?$K2StringAllocator@D@@@std@@HHHH@Z 210cbfa0 f i c_gameserver.obj
 0002:00048ff0       ?XtoS@@YA?AV?$basic_string@DU?$char_traits@D@std@@V?$K2StringAllocator@D@@@std@@IHHH@Z 210cbff0 f i c_gameserver.obj
 0002:00049040       ?XtoS@@YA?AV?$basic_string@DU?$char_traits@D@std@@V?$K2StringAllocator@D@@@std@@MHHH@Z 210cc040 f i c_gameserver.obj
 0002:00049120       ?GetVersionString@CWorld@@QBE?AV?$basic_string@_WU?$char_traits@_W@std@@V?$K2StringAllocator@_W@@@std@@XZ 210cc120 f i c_gameserver.obj
 0002:000493a0       ?GetMatchLength@CGameInfo@@QBEIXZ 210cc3a0 f i c_gameserver.obj
 0002:000493d0       ?GetStatsEntity@IGame@@QAEPAVCGameStats@@I@Z 210cc3d0 f i c_gameserver.obj
 0002:00049430       ??0?$basic_string@DU?$char_traits@D@std@@V?$K2StringAllocator@D@@@std@@QAE@U_Has_debug_it@01@@Z 210cc430 f i c_gameserver.obj
 0002:000494e0       ??0_Has_debug_it@?$basic_string@DU?$char_traits@D@std@@V?$K2StringAllocator@D@@@std@@QAE@_N@Z 210cc4e0 f i c_gameserver.obj
 0002:00049510       ?GetItem@IUnitEntity@@QBEPAVIEntityItem@@H@Z 210cc510 f i c_gameserver.obj
 0002:00049580       ?GetFinalExpEarnedTime@IHeroEntity@@QBEIXZ 210cc580 f i c_gameserver.obj
 0002:000495b0       ??$_ItoS@H@@YA?AV?$basic_string@DU?$char_traits@D@std@@V?$K2StringAllocator@D@@@std@@HHHH@Z 210cc5b0 f i c_gameserver.obj
 0002:000496b0       ??$_UItoS@I@@YA?AV?$basic_string@DU?$char_traits@D@std@@V?$K2StringAllocator@D@@@std@@IHHH@Z 210cc6b0 f i c_gameserver.obj
 0002:00049790       ?HasFlag@IEntityTool@@QBE_NG@Z 210cc790 f i c_gameserver.obj
 0002:000497d0       ??1?$_Vector_const_iterator@USItemHistoryEntry@CGameStats@@V?$K2VectorAllocator@USItemHistoryEntry@CGameStats@@@@@std@@QAE@XZ 210cc7d0 f i c_gameserver.obj
 0002:00049800       ??1?$_Vector_const_iterator@USAbilityUpgradeEntry@CGameStats@@V?$K2VectorAllocator@USAbilityUpgradeEntry@CGameStats@@@@@std@@QAE@XZ 210cc800 f i c_gameserver.obj
 0002:00049830       ??1?$_Vector_iterator@USMatchKillEntry@@V?$K2VectorAllocator@USMatchKillEntry@@@@@std@@QAE@XZ 210cc830 f i c_gameserver.obj
 0002:00049860       ??0?$_Vector_const_iterator@HV?$K2VectorAllocator@H@@@std@@QAE@ABV01@@Z 210cc860 f i c_gameserver.obj
 0002:000498a0       ??1?$_Ranit@USItemHistoryEntry@CGameStats@@HPBU12@ABU12@@std@@QAE@XZ 210cc8a0 f i c_gameserver.obj
 0002:000498d0       ??1?$_Ranit@USAbilityUpgradeEntry@CGameStats@@HPBU12@ABU12@@std@@QAE@XZ 210cc8d0 f i c_gameserver.obj
 0002:00049900       ??1?$_Vector_const_iterator@USMatchKillEntry@@V?$K2VectorAllocator@USMatchKillEntry@@@@@std@@QAE@XZ 210cc900 f i c_gameserver.obj
 0002:00049930       ??0?$_Ranit@HHPBHABH@std@@QAE@ABU01@@Z 210cc930 f i c_gameserver.obj
 0002:00049960       ??1?$_Ranit@USMatchKillEntry@@HPBU1@ABU1@@std@@QAE@XZ 210cc960 f i c_gameserver.obj
 0002:00049990       ?SendAdditionalStats@CGameServer@@QAEXXZ 210cc990 f   c_gameserver.obj
 0002:0004a060       ?UpdateSubmitStatsRequest@CGameServer@@AAEXXZ 210cd060 f   c_gameserver.obj
 0002:0004a380       ?GetStatsStatus@CGameInfo@@QBE?AW4EStatsStatus@@XZ 210cd380 f i c_gameserver.obj
 0002:0004a3b0       ?SetStatsStatus@CGameInfo@@QAEXW4EStatsStatus@@@Z 210cd3b0 f i c_gameserver.obj
 0002:0004a3e0       ?TryAddClient@CGameServer@@AAEPAVCPlayer@@PAVCClientConnection@@@Z 210cd3e0 f   c_gameserver.obj
 0002:0004ac80       ?GetChatSymbol@CPlayer@@QBEIXZ 210cdc80 f i c_gameserver.obj
 0002:0004acb0       ?GetChatNameColor@CPlayer@@QBEIXZ 210cdcb0 f i c_gameserver.obj
 0002:0004ace0       ?GetAccountIcon@CPlayer@@QBEIXZ 210cdce0 f i c_gameserver.obj
 0002:0004ad10       ?GetFlags@CPlayer@@QBEGXZ  210cdd10 f i c_gameserver.obj
 0002:0004ad40       ?GetAccountID@CClientConnection@@QBEHXZ 210cdd40 f i c_gameserver.obj
 0002:0004ad60       ?HasFlags@CClientConnection@@QBE_NI@Z 210cdd60 f i c_gameserver.obj
 0002:0004ada0       ?GetNoStats@CHostServer@@QBE_NXZ 210cdda0 f i c_gameserver.obj
 0002:0004add0       ?GetTeamFromRoster@CHostServer@@QBEIII@Z 210cddd0 f i c_gameserver.obj
 0002:0004aed0       ?GetSlotFromRoster@CHostServer@@QBEII@Z 210cded0 f i c_gameserver.obj
 0002:0004afd0       ??1const_iterator@?$_Tree@V?$_Tmap_traits@IUSRosterEntty@CHostServer@@U?$less@I@std@@V?$K2MapAllocator@U?$pair@$$CBIUSRosterEntty@CHostServer@@@std@@@@$0A@@std@@@std@@QAE@XZ 210cdfd0 f i c_gameserver.obj
 0002:0004b000       ??1?$_Bidit@U?$pair@$$CBIUSRosterEntty@CHostServer@@@std@@HPBU12@ABU12@@std@@QAE@XZ 210ce000 f i c_gameserver.obj
 0002:0004b030       ?AddFakePlayer@CGameServer@@QAEPAVCPlayer@@H@Z 210ce030 f   c_gameserver.obj
 0002:0004b400       ?IsPlayerReconnecting@CGameServer@@QAE_NH@Z 210ce400 f   c_gameserver.obj
 0002:0004b560       ?IsDuplicateAccountInGame@CGameServer@@QAE_NH@Z 210ce560 f   c_gameserver.obj
 0002:0004b6c0       ?RemoveDuplicateAccountsInGame@CGameServer@@QAE_NH@Z 210ce6c0 f   c_gameserver.obj
 0002:0004b890       ?AddClient@CGameServer@@QAE_NPAVCClientConnection@@@Z 210ce890 f   c_gameserver.obj
 0002:0004bb00       ?GetFinalMatchTime@IGame@@QBEIXZ 210ceb00 f i c_gameserver.obj
 0002:0004bb20       ?SetFlags@CClientConnection@@QAEXI@Z 210ceb20 f i c_gameserver.obj
 0002:0004bb60       ?ReauthClient@CGameServer@@QAEXPAVCClientConnection@@@Z 210ceb60 f   c_gameserver.obj
 0002:0004bdf0       ?RemoveClient@CGameServer@@QAEXHABV?$basic_string@_WU?$char_traits@_W@std@@V?$K2StringAllocator@_W@@@std@@@Z 210cedf0 f   c_gameserver.obj
 0002:0004cb50       ?GetAnnouncerVoice@CPlayer@@QBEIXZ 210cfb50 f i c_gameserver.obj
 0002:0004cb80       ?ShouldMoveUnitsOnDisconnect@CPlayer@@QBE_NXZ 210cfb80 f i c_gameserver.obj
 0002:0004cbb0       ?HasFlags@CTeamInfo@@QBE_NE@Z 210cfbb0 f i c_gameserver.obj
 0002:0004cbf0       ?GetHostServer@CGameServer@@QBEPAVCHostServer@@XZ 210cfbf0 f i c_gameserver.obj
 0002:0004cc20       ?RemoveFlags@CClientConnection@@QAEII@Z 210cfc20 f i c_gameserver.obj
 0002:0004cc70       ?ClientTimingOut@CGameServer@@QAEXH@Z 210cfc70 f   c_gameserver.obj
 0002:0004cea0       ?GetMaxClients@CGameServer@@QBEIXZ 210cfea0 f   c_gameserver.obj
 0002:0004cee0       ?GetMaxSpectators@IGame@@QBEIXZ 210cfee0 f i c_gameserver.obj
 0002:0004cf30       ?GetMaxSpectators@CGameInfo@@QBEIXZ 210cff30 f i c_gameserver.obj
 0002:0004cf60       ?GetMaxReferees@IGame@@QBEIXZ 210cff60 f i c_gameserver.obj
 0002:0004cfb0       ?GetMaxReferees@CGameInfo@@QBEIXZ 210cffb0 f i c_gameserver.obj
 0002:0004cfe0       ?ProcessClientSnapshot@CGameServer@@QAE_NHAAVCClientSnapshot@@@Z 210cffe0 f   c_gameserver.obj
 0002:0004d2d0       ?SetLastInputTime@CPlayer@@QAEXI@Z 210d02d0 f i c_gameserver.obj
 0002:0004d300       ?GetTimeStamp@CClientSnapshot@@QBEIXZ 210d0300 f i c_gameserver.obj
 0002:0004d320       ?GetFrameLength@CClientSnapshot@@QBEIXZ 210d0320 f i c_gameserver.obj
 0002:0004d340       ?SellItem@CGameServer@@UAEXHIH@Z 210d0340 f   c_gameserver.obj
 0002:0004d620       ?AdjustStat@CPlayer@@QAEXW4EPlayerStat@@H@Z 210d0620 f i c_gameserver.obj
 0002:0004d660       ?GetStatus@IVisualEntity@@QBEEXZ 210d0660 f i c_gameserver.obj
 0002:0004d690       ?GetUnitEntity@IGame@@QAEPAVIUnitEntity@@I@Z 210d0690 f i c_gameserver.obj
 0002:0004d6f0       ?GetPlayerFromClientNumber@IGame@@QAEPAVCPlayer@@H@Z 210d06f0 f i c_gameserver.obj
 0002:0004d800       ?GetPurchaserClientNumber@IEntityItem@@QBEHXZ 210d0800 f i c_gameserver.obj
 0002:0004d830       ?MoveItem@CGameServer@@UAEXHIHH@Z 210d0830 f   c_gameserver.obj
 0002:0004db00       ?HasUnitFlags@IUnitEntity@@QBE_NG@Z 210d0b00 f i c_gameserver.obj
 0002:0004db40       ?CanActOnOrdersFrom@IUnitEntity@@QAE_NH@Z 210d0b40 f i c_gameserver.obj
 0002:0004dbc0       ?IsIllusion@IUnitEntity@@QBE_NXZ 210d0bc0 f i c_gameserver.obj
 0002:0004dbf0       ?PurchaseItem@CGameServer@@UAE_NHIGH@Z 210d0bf0 f   c_gameserver.obj
 0002:0004f0a0       ?GetGold@CPlayer@@QBEGXZ   210d20a0 f i c_gameserver.obj
 0002:0004f0d0       ??6CConsoleStream@@QAEAAV0@_W@Z 210d20d0 f i c_gameserver.obj
 0002:0004f120       ?GetName@IEntityDefinition@@QBEABV?$basic_string@_WU?$char_traits@_W@std@@V?$K2StringAllocator@_W@@@std@@XZ 210d2120 f i c_gameserver.obj
 0002:0004f140       ?GetCost@CItemDefinition@@QBEHXZ 210d2140 f i c_gameserver.obj
 0002:0004f170       ?GetAutoAssemble@CItemDefinition@@QBE_NXZ 210d2170 f i c_gameserver.obj
 0002:0004f1a0       ?SetPurchaseTime@IEntityItem@@QAEXI@Z 210d21a0 f i c_gameserver.obj
 0002:0004f1d0       ?SetPurchaserClientNumber@IEntityItem@@QAEXH@Z 210d21d0 f i c_gameserver.obj
 0002:0004f200       ?GetRecommendedItems@CShopDefinition@@QBE_NXZ 210d2200 f i c_gameserver.obj
 0002:0004f230       ?GetItems@CShopDefinition@@QBEABV?$vector@V?$basic_string@_WU?$char_traits@_W@std@@V?$K2StringAllocator@_W@@@std@@V?$K2VectorAllocator@V?$basic_string@_WU?$char_traits@_W@std@@V?$K2StringAllocator@_W@@@std@@@@@@XZ 210d2230 f i c_gameserver.obj
 0002:0004f260       ?RequestChangeTeam@CGameServer@@QAEXHII_N@Z 210d2260 f   c_gameserver.obj
 0002:0004f4d0       ?GetCurrentSpectatorCount@IGame@@QBEIXZ 210d24d0 f i c_gameserver.obj
 0002:0004f520       ?GetCurrentRefereeCount@IGame@@QBEIXZ 210d2520 f i c_gameserver.obj
 0002:0004f570       ?ChangeTeam@CGameServer@@UAEXHII@Z 210d2570 f   c_gameserver.obj
 0002:0004f8c0       ?RequestAssignFirstBanTeam@CGameServer@@QAEXHI@Z 210d28c0 f   c_gameserver.obj
 0002:0004fa20       ?AssignFirstBanTeam@CGameServer@@QAEXI@Z 210d2a20 f   c_gameserver.obj
 0002:0004fb10       ?SetFirstBanTeam@CGameInfo@@QAEXI@Z 210d2b10 f i c_gameserver.obj
 0002:0004fb40       ?BuyBackHero@CGameServer@@UAE_NHI@Z 210d2b40 f   c_gameserver.obj
 0002:00050310       ?GetBuyBackCost@IHeroEntity@@QBEIXZ 210d3310 f i c_gameserver.obj
 0002:000504d0       ?GetHeroBuyBackCost@IGame@@QBEIXZ 210d34d0 f i c_gameserver.obj
 0002:00050540       ?GetHeroBuyBackCostScale@IGame@@QBEMXZ 210d3540 f i c_gameserver.obj
 0002:000505b0       ?CalcRespawnTime@IHeroEntity@@QBEIXZ 210d35b0 f i c_gameserver.obj
 0002:00050610       ?GetRespawnDuration@IHeroEntity@@QBEIXZ 210d3610 f i c_gameserver.obj
 0002:00050660       ?GetHeroRespawnTimePerLevel@IGame@@QBEIXZ 210d3660 f i c_gameserver.obj
 0002:000506d0       ?SetSelection@CGameServer@@UAEXHABV?$set@IU?$less@I@std@@V?$K2SetAllocator@I@@@@@Z 210d36d0 f   c_gameserver.obj
 0002:00050890       ?SetSelection@CPlayer@@QAEXABV?$set@IU?$less@I@std@@V?$K2SetAllocator@I@@@@@Z 210d3890 f i c_gameserver.obj
 0002:000508c0       ??4?$set@IU?$less@I@std@@V?$K2SetAllocator@I@@@@QAEAAV0@ABV0@@Z 210d38c0 f i c_gameserver.obj
 0002:000508f0       ??4?$set@IU?$less@I@std@@V?$K2SetAllocator@I@@@std@@QAEAAV01@ABV01@@Z 210d38f0 f i c_gameserver.obj
 0002:00050920       ?ProcessCallVoteRequest@CGameServer@@QAEXPAVCPlayer@@AAVCPacket@@@Z 210d3920 f   c_gameserver.obj
 0002:00050ec0       ?SetLastVoteCallTime@CPlayer@@QAEXI@Z 210d3ec0 f i c_gameserver.obj
 0002:00050ef0       ?GetLastVoteCallTime@CPlayer@@QBEIXZ 210d3ef0 f i c_gameserver.obj
 0002:00050f20       ?SetLastVoteKickTime@CPlayer@@QAEXI@Z 210d3f20 f i c_gameserver.obj
 0002:00050f50       ?GetVoteTypeName@@YA?AV?$basic_string@_WU?$char_traits@_W@std@@V?$K2StringAllocator@_W@@@std@@I@Z 210d3f50 f i c_gameserver.obj
 0002:00051090       ?StartUnpause@CGameServer@@AAEXPAVCPlayer@@@Z 210d4090 f   c_gameserver.obj
 0002:000513a0       ?GetNumReferees@CGameServer@@AAEIXZ 210d43a0 f   c_gameserver.obj
 0002:000514b0       ?SendGeneralMessage@CGameServer@@AAEXABV?$basic_string@_WU?$char_traits@_W@std@@V?$K2StringAllocator@_W@@@std@@HPAH@Z 210d44b0 f   c_gameserver.obj
 0002:00051640       ?ProcessGameData@CGameServer@@QAE_NHAAVCPacket@@@Z 210d4640 f   c_gameserver.obj
 0002:0005a7f0       ?HasFaults@CPacket@@QBE_NXZ 210dd7f0 f i c_gameserver.obj
 0002:0005a820       ??6CPacket@@QAEAAV0@E@Z    210dd820 f i c_gameserver.obj
 0002:0005a900       ?GetLastMapPingTime@CPlayer@@QBEIXZ 210dd900 f i c_gameserver.obj
 0002:0005a930       ?SetLastMapPingTime@CPlayer@@QAEXI@Z 210dd930 f i c_gameserver.obj
 0002:0005a960       ?GetLastUnitPingTime@CPlayer@@QBEIXZ 210dd960 f i c_gameserver.obj
 0002:0005a990       ?SetLastUnitPingTime@CPlayer@@QAEXI@Z 210dd990 f i c_gameserver.obj
 0002:0005a9c0       ?SetMatchComment@CPlayer@@QAEXABV?$basic_string@_WU?$char_traits@_W@std@@V?$K2StringAllocator@_W@@@std@@@Z 210dd9c0 f i c_gameserver.obj
 0002:0005a9f0       ?CanBeKicked@CPlayer@@QBE_NXZ 210dd9f0 f i c_gameserver.obj
 0002:0005aa80       ?CanKick@CPlayer@@QBE_NXZ  210dda80 f i c_gameserver.obj
 0002:0005aab0       ?SetSwapRequest@CPlayer@@QAEXH@Z 210ddab0 f i c_gameserver.obj
 0002:0005ab00       ?HasSwapRequest@CPlayer@@QBE_NH@Z 210ddb00 f i c_gameserver.obj
 0002:0005ab40       ?ClearAllSwapRequests@CPlayer@@QAEXXZ 210ddb40 f i c_gameserver.obj
 0002:0005ab70       ?GetTeamInfo@CPlayer@@QBEPAVCTeamInfo@@XZ 210ddb70 f i c_gameserver.obj
 0002:0005abb0       ?GetPing@CPlayer@@QBEGXZ   210ddbb0 f i c_gameserver.obj
 0002:0005abe0       ?IncrementActionCount@CPlayer@@QAEXXZ 210ddbe0 f i c_gameserver.obj
 0002:0005ac20       ?GetSelection@CPlayer@@QBEABV?$set@IU?$less@I@std@@V?$K2SetAllocator@I@@@@XZ 210ddc20 f i c_gameserver.obj
 0002:0005ac50       ?IncrementChatCounter@CPlayer@@QAEXXZ 210ddc50 f i c_gameserver.obj
 0002:0005ac90       ?GetChatCounter@CPlayer@@QBEIXZ 210ddc90 f i c_gameserver.obj
 0002:0005acc0       ?GetAllowChat@CPlayer@@QBE_NXZ 210ddcc0 f i c_gameserver.obj
 0002:0005acf0       ?SetNotificationFlags@CPlayer@@QAEXI@Z 210ddcf0 f i c_gameserver.obj
 0002:0005ad30       ?ClearNotificationFlags@CPlayer@@QAEXI@Z 210ddd30 f i c_gameserver.obj
 0002:0005ad70       ?SetSelectedAvatarBits@CPlayer@@QAEXG@Z 210ddd70 f i c_gameserver.obj
 0002:0005ada0       ?SetSelectedAvatarKey@CPlayer@@QAEXI@Z 210ddda0 f i c_gameserver.obj
 0002:0005add0       ?SendGeneralMessage@CGameServer@@AAEXABV?$basic_string@_WU?$char_traits@_W@std@@V?$K2StringAllocator@_W@@@std@@H@Z 210dddd0 f i c_gameserver.obj
 0002:0005ae00       ??0SUnitCommand@@QAE@XZ    210dde00 f i c_gameserver.obj
 0002:0005af10       ?GetFaults@IBuffer@@QBEHXZ 210ddf10 f i c_gameserver.obj
 0002:0005af30       ??6@YAAAVIBuffer@@AAV0@ABV?$basic_string@_WU?$char_traits@_W@std@@V?$K2StringAllocator@_W@@@std@@@Z 210ddf30 f i c_gameserver.obj
 0002:0005af80       ?GetVoteName@@YA?AV?$basic_string@_WU?$char_traits@_W@std@@V?$K2StringAllocator@_W@@@std@@I@Z 210ddf80 f i c_gameserver.obj
 0002:0005b050       ??1?$pair@Viterator@?$_Tree@V?$_Tset_traits@IU?$less@I@std@@V?$K2SetAllocator@I@@$0A@@std@@@std@@_N@std@@QAE@XZ 210de050 f i c_gameserver.obj
 0002:0005b080       ??1iterator@?$_Tree@V?$_Tset_traits@IU?$less@I@std@@V?$K2SetAllocator@I@@$0A@@std@@@std@@QAE@XZ 210de080 f i c_gameserver.obj
 0002:0005b0b0       ??1const_iterator@?$_Tree@V?$_Tset_traits@IU?$less@I@std@@V?$K2SetAllocator@I@@$0A@@std@@@std@@QAE@XZ 210de0b0 f i c_gameserver.obj
 0002:0005b0e0       ??1?$_Bidit@IHPBIABI@std@@QAE@XZ 210de0e0 f i c_gameserver.obj
 0002:0005b110       ?GetUniqueID@IGameEntity@@QBEIXZ 210de110 f i c_gameserver.obj
 0002:0005b130       ?SetScriptValue@CGameInfo@@QAEXABV?$basic_string@_WU?$char_traits@_W@std@@V?$K2StringAllocator@_W@@@std@@0@Z 210de130 f i c_gameserver.obj
 0002:0005b170       ?GetPing@IGame@@QAEPBVCPing@@W4EPing@@@Z 210de170 f i c_gameserver.obj
 0002:0005b1d0       ?GetPing@CGameMechanics@@QBEPBVCPing@@W4EPing@@@Z 210de1d0 f i c_gameserver.obj
 0002:0005b200       ?GetEntityItem@IGame@@QAEPAVIEntityItem@@I@Z 210de200 f i c_gameserver.obj
 0002:0005b260       ?insert@?$_Tree@V?$_Tset_traits@IU?$less@I@std@@V?$K2SetAllocator@I@@$0A@@std@@@std@@QAE?AU?$pair@Viterator@?$_Tree@V?$_Tset_traits@IU?$less@I@std@@V?$K2SetAllocator@I@@$0A@@std@@@std@@_N@2@ABI@Z 210de260 f i c_gameserver.obj
 0002:0005b680       ?_Isnil@?$_Tree@V?$_Tset_traits@IU?$less@I@std@@V?$K2SetAllocator@I@@$0A@@std@@@std@@KAAADPAU_Node@?$_Tree_nod@V?$_Tset_traits@IU?$less@I@std@@V?$K2SetAllocator@I@@$0A@@std@@@2@@Z 210de680 f i c_gameserver.obj
 0002:0005b6a0       ?_Key@?$_Tree@V?$_Tset_traits@IU?$less@I@std@@V?$K2SetAllocator@I@@$0A@@std@@@std@@KAABIPAU_Node@?$_Tree_nod@V?$_Tset_traits@IU?$less@I@std@@V?$K2SetAllocator@I@@$0A@@std@@@2@@Z 210de6a0 f i c_gameserver.obj
 0002:0005b6d0       ?_Left@?$_Tree@V?$_Tset_traits@IU?$less@I@std@@V?$K2SetAllocator@I@@$0A@@std@@@std@@KAAAPAU_Node@?$_Tree_nod@V?$_Tset_traits@IU?$less@I@std@@V?$K2SetAllocator@I@@$0A@@std@@@2@PAU342@@Z 210de6d0 f i c_gameserver.obj
 0002:0005b6f0       ?_Right@?$_Tree@V?$_Tset_traits@IU?$less@I@std@@V?$K2SetAllocator@I@@$0A@@std@@@std@@KAAAPAU_Node@?$_Tree_nod@V?$_Tset_traits@IU?$less@I@std@@V?$K2SetAllocator@I@@$0A@@std@@@2@PAU342@@Z 210de6f0 f i c_gameserver.obj
 0002:0005b710       ?begin@?$_Tree@V?$_Tset_traits@IU?$less@I@std@@V?$K2SetAllocator@I@@$0A@@std@@@std@@QAE?AViterator@12@XZ 210de710 f i c_gameserver.obj
 0002:0005b760       ?_Insert@?$_Tree@V?$_Tset_traits@IU?$less@I@std@@V?$K2SetAllocator@I@@$0A@@std@@@std@@IAE?AViterator@12@_NPAU_Node@?$_Tree_nod@V?$_Tset_traits@IU?$less@I@std@@V?$K2SetAllocator@I@@$0A@@std@@@2@ABI@Z 210de760 f i c_gameserver.obj
 0002:0005bd20       ?_Lmost@?$_Tree@V?$_Tset_traits@IU?$less@I@std@@V?$K2SetAllocator@I@@$0A@@std@@@std@@IBEAAPAU_Node@?$_Tree_nod@V?$_Tset_traits@IU?$less@I@std@@V?$K2SetAllocator@I@@$0A@@std@@@2@XZ 210ded20 f i c_gameserver.obj
 0002:0005bd50       ?_Rmost@?$_Tree@V?$_Tset_traits@IU?$less@I@std@@V?$K2SetAllocator@I@@$0A@@std@@@std@@IBEAAPAU_Node@?$_Tree_nod@V?$_Tset_traits@IU?$less@I@std@@V?$K2SetAllocator@I@@$0A@@std@@@2@XZ 210ded50 f i c_gameserver.obj
 0002:0005bd80       ?_Root@?$_Tree@V?$_Tset_traits@IU?$less@I@std@@V?$K2SetAllocator@I@@$0A@@std@@@std@@IBEAAPAU_Node@?$_Tree_nod@V?$_Tset_traits@IU?$less@I@std@@V?$K2SetAllocator@I@@$0A@@std@@@2@XZ 210ded80 f i c_gameserver.obj
 0002:0005bdb0       ?_Kfn@?$_Tset_traits@IU?$less@I@std@@V?$K2SetAllocator@I@@$0A@@std@@SAABIABI@Z 210dedb0 f i c_gameserver.obj
 0002:0005bdd0       ??0?$pair@Viterator@?$_Tree@V?$_Tset_traits@IU?$less@I@std@@V?$K2SetAllocator@I@@$0A@@std@@@std@@_N@std@@QAE@ABViterator@?$_Tree@V?$_Tset_traits@IU?$less@I@std@@V?$K2SetAllocator@I@@$0A@@std@@@1@AB_N@Z 210dedd0 f i c_gameserver.obj
 0002:0005be10       ??0iterator@?$_Tree@V?$_Tset_traits@IU?$less@I@std@@V?$K2SetAllocator@I@@$0A@@std@@@std@@QAE@PAU_Node@?$_Tree_nod@V?$_Tset_traits@IU?$less@I@std@@V?$K2SetAllocator@I@@$0A@@std@@@2@PBV12@@Z 210dee10 f i c_gameserver.obj
 0002:0005be50       ??Fiterator@?$_Tree@V?$_Tset_traits@IU?$less@I@std@@V?$K2SetAllocator@I@@$0A@@std@@@std@@QAEAAV012@XZ 210dee50 f i c_gameserver.obj
 0002:0005be80       ??8const_iterator@?$_Tree@V?$_Tset_traits@IU?$less@I@std@@V?$K2SetAllocator@I@@$0A@@std@@@std@@QBE_NABV012@@Z 210dee80 f i c_gameserver.obj
 0002:0005bf40       ?_Mynode@const_iterator@?$_Tree@V?$_Tset_traits@IU?$less@I@std@@V?$K2SetAllocator@I@@$0A@@std@@@std@@QBEPAU_Node@?$_Tree_nod@V?$_Tset_traits@IU?$less@I@std@@V?$K2SetAllocator@I@@$0A@@std@@@3@XZ 210def40 f i c_gameserver.obj
 0002:0005bf60       ??0iterator@?$_Tree@V?$_Tset_traits@IU?$less@I@std@@V?$K2SetAllocator@I@@$0A@@std@@@std@@QAE@ABV012@@Z 210def60 f i c_gameserver.obj
 0002:0005bf90       ??0const_iterator@?$_Tree@V?$_Tset_traits@IU?$less@I@std@@V?$K2SetAllocator@I@@$0A@@std@@@std@@QAE@ABV012@@Z 210def90 f i c_gameserver.obj
 0002:0005bfd0       ??0?$_Bidit@IHPBIABI@std@@QAE@ABU01@@Z 210defd0 f i c_gameserver.obj
 0002:0005c000       ?_Color@?$_Tree@V?$_Tset_traits@IU?$less@I@std@@V?$K2SetAllocator@I@@$0A@@std@@@std@@KAAADPAU_Node@?$_Tree_nod@V?$_Tset_traits@IU?$less@I@std@@V?$K2SetAllocator@I@@$0A@@std@@@2@@Z 210df000 f i c_gameserver.obj
 0002:0005c020       ?_Parent@?$_Tree@V?$_Tset_traits@IU?$less@I@std@@V?$K2SetAllocator@I@@$0A@@std@@@std@@KAAAPAU_Node@?$_Tree_nod@V?$_Tset_traits@IU?$less@I@std@@V?$K2SetAllocator@I@@$0A@@std@@@2@PAU342@@Z 210df020 f i c_gameserver.obj
 0002:0005c040       ?_Myval@?$_Tree@V?$_Tset_traits@IU?$less@I@std@@V?$K2SetAllocator@I@@$0A@@std@@@std@@KAAAIPAU_Node@?$_Tree_nod@V?$_Tset_traits@IU?$less@I@std@@V?$K2SetAllocator@I@@$0A@@std@@@2@@Z 210df040 f i c_gameserver.obj
 0002:0005c060       ?max_size@?$_Tree@V?$_Tset_traits@IU?$less@I@std@@V?$K2SetAllocator@I@@$0A@@std@@@std@@QBEIXZ 210df060 f i c_gameserver.obj
 0002:0005c090       ?_Lrotate@?$_Tree@V?$_Tset_traits@IU?$less@I@std@@V?$K2SetAllocator@I@@$0A@@std@@@std@@IAEXPAU_Node@?$_Tree_nod@V?$_Tset_traits@IU?$less@I@std@@V?$K2SetAllocator@I@@$0A@@std@@@2@@Z 210df090 f i c_gameserver.obj
 0002:0005c220       ?_Rrotate@?$_Tree@V?$_Tset_traits@IU?$less@I@std@@V?$K2SetAllocator@I@@$0A@@std@@@std@@IAEXPAU_Node@?$_Tree_nod@V?$_Tset_traits@IU?$less@I@std@@V?$K2SetAllocator@I@@$0A@@std@@@2@@Z 210df220 f i c_gameserver.obj
 0002:0005c3b0       ?_Buynode@?$_Tree@V?$_Tset_traits@IU?$less@I@std@@V?$K2SetAllocator@I@@$0A@@std@@@std@@IAEPAU_Node@?$_Tree_nod@V?$_Tset_traits@IU?$less@I@std@@V?$K2SetAllocator@I@@$0A@@std@@@2@PAU342@00ABID@Z 210df3b0 f i c_gameserver.obj
 0002:0005c4d0       ?deallocate@?$K2SetAllocator@U_Node@?$_Tree_nod@V?$_Tset_traits@IU?$less@I@std@@V?$K2SetAllocator@I@@$0A@@std@@@std@@@@QAEXPAU_Node@?$_Tree_nod@V?$_Tset_traits@IU?$less@I@std@@V?$K2SetAllocator@I@@$0A@@std@@@std@@I@Z 210df4d0 f i c_gameserver.obj
 0002:0005c510       ?GetTool@IUnitEntity@@QBEPAVIEntityTool@@H@Z 210df510 f i c_gameserver.obj
 0002:0005c580       ?GetAbility@IUnitEntity@@QBEPAVIEntityAbility@@H@Z 210df580 f i c_gameserver.obj
 0002:0005c5f0       ?SetExclusiveAttackModSlot@IUnitEntity@@QAEXH@Z 210df5f0 f i c_gameserver.obj
 0002:0005c620       ??0const_iterator@?$_Tree@V?$_Tset_traits@IU?$less@I@std@@V?$K2SetAllocator@I@@$0A@@std@@@std@@QAE@PAU_Node@?$_Tree_nod@V?$_Tset_traits@IU?$less@I@std@@V?$K2SetAllocator@I@@$0A@@std@@@2@PBV12@@Z 210df620 f i c_gameserver.obj
 0002:0005c6b0       ??Fconst_iterator@?$_Tree@V?$_Tset_traits@IU?$less@I@std@@V?$K2SetAllocator@I@@$0A@@std@@@std@@QAEAAV012@XZ 210df6b0 f i c_gameserver.obj
 0002:0005c6e0       ??0?$_Bidit@IHPBIABI@std@@QAE@XZ 210df6e0 f i c_gameserver.obj
 0002:0005c710       ?allocate@?$K2SetAllocator@U_Node@?$_Tree_nod@V?$_Tset_traits@IU?$less@I@std@@V?$K2SetAllocator@I@@$0A@@std@@@std@@@@QAEPAU_Node@?$_Tree_nod@V?$_Tset_traits@IU?$less@I@std@@V?$K2SetAllocator@I@@$0A@@std@@@std@@I@Z 210df710 f i c_gameserver.obj
 0002:0005c760       ?_Dec@const_iterator@?$_Tree@V?$_Tset_traits@IU?$less@I@std@@V?$K2SetAllocator@I@@$0A@@std@@@std@@QAEXXZ 210df760 f i c_gameserver.obj
 0002:0005ca20       ??0_Node@?$_Tree_nod@V?$_Tset_traits@IU?$less@I@std@@V?$K2SetAllocator@I@@$0A@@std@@@std@@QAE@PAU012@00ABID@Z 210dfa20 f i c_gameserver.obj
 0002:0005ca80       ?_Max@?$_Tree@V?$_Tset_traits@IU?$less@I@std@@V?$K2SetAllocator@I@@$0A@@std@@@std@@KAPAU_Node@?$_Tree_nod@V?$_Tset_traits@IU?$less@I@std@@V?$K2SetAllocator@I@@$0A@@std@@@2@PAU342@@Z 210dfa80 f i c_gameserver.obj
 0002:0005cae0       ??1?$set@IU?$less@I@std@@V?$K2SetAllocator@I@@@@QAE@XZ 210dfae0 f i c_gameserver.obj
 0002:0005cb10       ??1?$set@IU?$less@I@std@@V?$K2SetAllocator@I@@@std@@QAE@XZ 210dfb10 f i c_gameserver.obj
 0002:0005cb40       ?SetClientNumber@CClientConnection@@QAEXH@Z 210dfb40 f i c_gameserver.obj
 0002:0005cb70       ?GetConnectionState@CClientConnection@@QAE?AW4EClientConnectionState@@XZ 210dfb70 f i c_gameserver.obj
 0002:0005cba0       ?GetPractice@CHostServer@@QBE_NXZ 210dfba0 f i c_gameserver.obj
 0002:0005cbd0       ??0iterator@?$_Tree@V?$_Tmap_traits@HPAVCClientConnection@@U?$less@H@std@@V?$K2MapAllocator@U?$pair@$$CBHPAVCClientConnection@@@std@@@@$0A@@std@@@std@@QAE@ABV012@@Z 210dfbd0 f i c_gameserver.obj
 0002:0005cc00       ??0const_iterator@?$_Tree@V?$_Tmap_traits@HPAVCClientConnection@@U?$less@H@std@@V?$K2MapAllocator@U?$pair@$$CBHPAVCClientConnection@@@std@@@@$0A@@std@@@std@@QAE@ABV012@@Z 210dfc00 f i c_gameserver.obj
 0002:0005cc40       ??0?$_Bidit@U?$pair@$$CBHPAVCClientConnection@@@std@@HPBU12@ABU12@@std@@QAE@ABU01@@Z 210dfc40 f i c_gameserver.obj
 0002:0005cc70       ?GetSnapshot@CGameServer@@QAEXAAVCSnapshot@@@Z 210dfc70 f   c_gameserver.obj
 0002:0005cd70       ??0CProfileSample@@QAE@PB_WW4eProfileType@@@Z 210dfd70 f i c_gameserver.obj
 0002:0005cde0       ??1CProfileSample@@QAE@XZ  210dfde0 f i c_gameserver.obj
 0002:0005ce30       ?GetEventSnapshot@IGame@@QAEXAAVCSnapshot@@@Z 210dfe30 f i c_gameserver.obj
 0002:0005ce60       ?EndFrame@CGameServer@@QAEXI@Z 210dfe60 f   c_gameserver.obj
 0002:0005cf00       ?Shutdown@CGameServer@@QAEXXZ 210dff00 f   c_gameserver.obj
 0002:0005d1f0       ??0?$vector@V?$basic_string@_WU?$char_traits@_W@std@@V?$K2StringAllocator@_W@@@std@@V?$K2VectorAllocator@V?$basic_string@_WU?$char_traits@_W@std@@V?$K2StringAllocator@_W@@@std@@@@@@QAE@XZ 210e01f0 f i c_gameserver.obj
 0002:0005d220       ??0?$vector@V?$basic_string@_WU?$char_traits@_W@std@@V?$K2StringAllocator@_W@@@std@@V?$K2VectorAllocator@V?$basic_string@_WU?$char_traits@_W@std@@V?$K2StringAllocator@_W@@@std@@@@@std@@QAE@XZ 210e0220 f i c_gameserver.obj
 0002:0005d2b0       ?_Buy@?$vector@V?$basic_string@_WU?$char_traits@_W@std@@V?$K2StringAllocator@_W@@@std@@V?$K2VectorAllocator@V?$basic_string@_WU?$char_traits@_W@std@@V?$K2StringAllocator@_W@@@std@@@@@std@@IAE_NI@Z 210e02b0 f i c_gameserver.obj
 0002:0005d360       ?max_size@?$vector@V?$basic_string@_WU?$char_traits@_W@std@@V?$K2StringAllocator@_W@@@std@@V?$K2VectorAllocator@V?$basic_string@_WU?$char_traits@_W@std@@V?$K2StringAllocator@_W@@@std@@@@@std@@QBEIXZ 210e0360 f i c_gameserver.obj
 0002:0005d390       ?_Xlen@?$vector@V?$basic_string@_WU?$char_traits@_W@std@@V?$K2StringAllocator@_W@@@std@@V?$K2VectorAllocator@V?$basic_string@_WU?$char_traits@_W@std@@V?$K2StringAllocator@_W@@@std@@@@@std@@KAXXZ 210e0390 f i c_gameserver.obj
 0002:0005d440       ??0?$_Vector_val@V?$basic_string@_WU?$char_traits@_W@std@@V?$K2StringAllocator@_W@@@std@@V?$K2VectorAllocator@V?$basic_string@_WU?$char_traits@_W@std@@V?$K2StringAllocator@_W@@@std@@@@@std@@IAE@V?$K2VectorAllocator@V?$basic_string@_WU?$char_traits@_W@std@@V?$K2StringAllocator@_W@@@std@@@@@Z 210e0440 f i c_gameserver.obj
 0002:0005d4e0       ??0?$K2VectorAllocator@V?$basic_string@_WU?$char_traits@_W@std@@V?$K2StringAllocator@_W@@@std@@@@QAE@XZ 210e04e0 f i c_gameserver.obj
 0002:0005d510       ??0?$K2VectorAllocator@V?$basic_string@_WU?$char_traits@_W@std@@V?$K2StringAllocator@_W@@@std@@@@QAE@ABV0@@Z 210e0510 f i c_gameserver.obj
 0002:0005d540       ?allocate@?$K2VectorAllocator@V?$basic_string@_WU?$char_traits@_W@std@@V?$K2StringAllocator@_W@@@std@@@@QAEPAV?$basic_string@_WU?$char_traits@_W@std@@V?$K2StringAllocator@_W@@@std@@I@Z 210e0540 f i c_gameserver.obj
 0002:0005d590       ??0?$allocator@V?$basic_string@_WU?$char_traits@_W@std@@V?$K2StringAllocator@_W@@@std@@@std@@QAE@XZ 210e0590 f i c_gameserver.obj
 0002:0005d5b0       ??0?$allocator@V?$basic_string@_WU?$char_traits@_W@std@@V?$K2StringAllocator@_W@@@std@@@std@@QAE@ABV01@@Z 210e05b0 f i c_gameserver.obj
 0002:0005d5d0       ?max_size@?$allocator@V?$basic_string@_WU?$char_traits@_W@std@@V?$K2StringAllocator@_W@@@std@@@std@@QBEIXZ 210e05d0 f i c_gameserver.obj
 0002:0005d610       ?BuildHeroLists@CGameServer@@AAEXXZ 210e0610 f   c_gameserver.obj
 0002:0005f380       ??$MIN@I@@YAABIABI0@Z      210e2380 f i c_gameserver.obj
 0002:0005f3c0       ??1?$_Vector_iterator@GV?$K2VectorAllocator@G@@@std@@QAE@XZ 210e23c0 f i c_gameserver.obj
 0002:0005f3f0       ??1?$_Vector_const_iterator@GV?$K2VectorAllocator@G@@@std@@QAE@XZ 210e23f0 f i c_gameserver.obj
 0002:0005f420       ??1?$_Ranit@GHPBGABG@std@@QAE@XZ 210e2420 f i c_gameserver.obj
 0002:0005f450       ?LoadWorld@CGameServer@@QAE_NABV?$basic_string@_WU?$char_traits@_W@std@@V?$K2StringAllocator@_W@@@std@@0@Z 210e2450 f   c_gameserver.obj
 0002:00063580       ?IsValid@CTeamInfo@@QBE_NXZ 210e6580 f i c_gameserver.obj
 0002:000635a0       ?AnalyzeTerrain@CGameServer@@AAEXXZ 210e65a0 f i c_gameserver.obj
 0002:000635d0       ?GetGameName@CGameServer@@QBEABV?$basic_string@_WU?$char_traits@_W@std@@V?$K2StringAllocator@_W@@@std@@XZ 210e65d0 f i c_gameserver.obj
 0002:00063600       ?GetGameName@CSystem@@QBEABV?$basic_string@_WU?$char_traits@_W@std@@V?$K2StringAllocator@_W@@@std@@XZ 210e6600 f i c_gameserver.obj
 0002:00063620       ?IsLoading@CWorld@@QBE_NXZ 210e6620 f i c_gameserver.obj
 0002:00063680       ?SetVisibilitySize@CWorld@@QAEXH@Z 210e6680 f i c_gameserver.obj
 0002:000636b0       ?GetMaxPlayers@CWorld@@QBEHXZ 210e66b0 f i c_gameserver.obj
 0002:000636e0       ?GetDev@CWorld@@QBE_NXZ    210e66e0 f i c_gameserver.obj
 0002:00063710       ?GetModifiers@CWorld@@QBEABV?$basic_string@_WU?$char_traits@_W@std@@V?$K2StringAllocator@_W@@@std@@XZ 210e6710 f i c_gameserver.obj
 0002:00063740       ?SetModifierBits@IGameEntity@@QAEXG@Z 210e6740 f i c_gameserver.obj
 0002:00063780       ?SetServerDate@CGameInfo@@QAEXABV?$basic_string@_WU?$char_traits@_W@std@@V?$K2StringAllocator@_W@@@std@@@Z 210e6780 f i c_gameserver.obj
 0002:000637c0       ?SetServerTime@CGameInfo@@QAEXABV?$basic_string@_WU?$char_traits@_W@std@@V?$K2StringAllocator@_W@@@std@@@Z 210e67c0 f i c_gameserver.obj
 0002:00063800       ?SetServerName@CGameInfo@@QAEXABV?$basic_string@_WU?$char_traits@_W@std@@V?$K2StringAllocator@_W@@@std@@@Z 210e6800 f i c_gameserver.obj
 0002:00063840       ?SetGameName@CGameInfo@@QAEXABV?$basic_string@_WU?$char_traits@_W@std@@V?$K2StringAllocator@_W@@@std@@@Z 210e6840 f i c_gameserver.obj
 0002:00063880       ?SetMinPSR@CGameInfo@@QAEXG@Z 210e6880 f i c_gameserver.obj
 0002:000638b0       ?SetMaxPSR@CGameInfo@@QAEXG@Z 210e68b0 f i c_gameserver.obj
 0002:000638e0       ?AddGlobalModifier@IGame@@QAEXI@Z 210e68e0 f i c_gameserver.obj
 0002:00063910       ?GetGlobalModifiers@IGame@@QBEABV?$vector@IV?$K2VectorAllocator@I@@@@XZ 210e6910 f i c_gameserver.obj
 0002:00063930       ?SetGameMode@IGame@@QAEXI@Z 210e6930 f i c_gameserver.obj
 0002:00063970       ?SetGameMode@CGameInfo@@QAEXI@Z 210e6970 f i c_gameserver.obj
 0002:000639a0       ?SetGameOptions@IGame@@QAEXI@Z 210e69a0 f i c_gameserver.obj
 0002:000639e0       ?SetGameOptions@CGameInfo@@QAEXI@Z 210e69e0 f i c_gameserver.obj
 0002:00063a20       ?ClearGameOptions@IGame@@QAEXI@Z 210e6a20 f i c_gameserver.obj
 0002:00063a60       ?ClearGameOptions@CGameInfo@@QAEXI@Z 210e6a60 f i c_gameserver.obj
 0002:00063aa0       ?SetTeamSize@IGame@@QAEXI@Z 210e6aa0 f i c_gameserver.obj
 0002:00063ae0       ?SetTeamSize@CGameInfo@@QAEXI@Z 210e6ae0 f i c_gameserver.obj
 0002:00063b10       ?SetMaxSpectators@IGame@@QAEXI@Z 210e6b10 f i c_gameserver.obj
 0002:00063b50       ?SetMaxSpectators@CGameInfo@@QAEXI@Z 210e6b50 f i c_gameserver.obj
 0002:00063b80       ?SetMaxReferees@IGame@@QAEXI@Z 210e6b80 f i c_gameserver.obj
 0002:00063bc0       ?SetMaxReferees@CGameInfo@@QAEXI@Z 210e6bc0 f i c_gameserver.obj
 0002:00063bf0       ?GetPhaseDuration@IGame@@QBEIXZ 210e6bf0 f i c_gameserver.obj
 0002:00063c40       ?GetPhaseDuration@CGameInfo@@QBEIXZ 210e6c40 f i c_gameserver.obj
 0002:00063c70       ?push_back@?$vector@IV?$K2VectorAllocator@I@@@std@@QAEXABI@Z 210e6c70 f i c_gameserver.obj
 0002:00063d20       ?size@?$vector@IV?$K2VectorAllocator@I@@@std@@QBEIXZ 210e6d20 f i c_gameserver.obj
 0002:00063d70       ?find@?$_Tree@V?$_Tmap_traits@V?$basic_string@_WU?$char_traits@_W@std@@V?$K2StringAllocator@_W@@@std@@V12@U?$less@V?$basic_string@_WU?$char_traits@_W@std@@V?$K2StringAllocator@_W@@@std@@@2@V?$K2MapAllocator@U?$pair@$$CBV?$basic_string@_WU?$char_traits@_W@std@@V?$K2StringAllocator@_W@@@std@@V12@@std@@@@$0A@@std@@@std@@QAE?AViterator@12@ABV?$basic_string@_WU?$char_traits@_W@std@@V?$K2StringAllocator@_W@@@2@@Z 210e6d70 f i c_gameserver.obj
 0002:00063f50       ?empty@?$deque@PAVIWorldComponent@@V?$K2DequeAllocator@PAVIWorldComponent@@@@@std@@QBE_NXZ 210e6f50 f i c_gameserver.obj
 0002:00063f80       ?capacity@?$vector@IV?$K2VectorAllocator@I@@@std@@QBEIXZ 210e6f80 f i c_gameserver.obj
 0002:00063fd0       ?insert@?$vector@IV?$K2VectorAllocator@I@@@std@@QAE?AV?$_Vector_iterator@IV?$K2VectorAllocator@I@@@2@V32@ABI@Z 210e6fd0 f i c_gameserver.obj
 0002:00064140       ?_Ufill@?$vector@IV?$K2VectorAllocator@I@@@std@@IAEPAIPAIIABI@Z 210e7140 f i c_gameserver.obj
 0002:00064190       ??0?$_Vector_iterator@IV?$K2VectorAllocator@I@@@std@@QAE@ABV01@@Z 210e7190 f i c_gameserver.obj
 0002:000641c0       ??0?$_Vector_const_iterator@IV?$K2VectorAllocator@I@@@std@@QAE@ABV01@@Z 210e71c0 f i c_gameserver.obj
 0002:00064200       ??0?$_Ranit@IHPBIABI@std@@QAE@ABU01@@Z 210e7200 f i c_gameserver.obj
 0002:00064230       ?_Insert_n@?$vector@IV?$K2VectorAllocator@I@@@std@@IAEXV?$_Vector_iterator@IV?$K2VectorAllocator@I@@@2@IABI@Z 210e7230 f i c_gameserver.obj
 0002:000646e0       ??H?$_Vector_iterator@IV?$K2VectorAllocator@I@@@std@@QBE?AV01@H@Z 210e76e0 f i c_gameserver.obj
 0002:00064790       ??G?$_Vector_iterator@IV?$K2VectorAllocator@I@@@std@@QBEHABV?$_Vector_const_iterator@IV?$K2VectorAllocator@I@@@1@@Z 210e7790 f i c_gameserver.obj
 0002:000647c0       ??Y?$_Vector_iterator@IV?$K2VectorAllocator@I@@@std@@QAEAAV01@H@Z 210e77c0 f i c_gameserver.obj
 0002:000647f0       ??G?$_Vector_const_iterator@IV?$K2VectorAllocator@I@@@std@@QBEHABV01@@Z 210e77f0 f i c_gameserver.obj
 0002:00064830       ??Y?$_Vector_const_iterator@IV?$K2VectorAllocator@I@@@std@@QAEAAV01@H@Z 210e7830 f i c_gameserver.obj
 0002:00064960       ??$unchecked_uninitialized_fill_n@PAIIIV?$K2VectorAllocator@I@@@stdext@@YAXPAIIABIAAV?$K2VectorAllocator@I@@@Z 210e7960 f i c_gameserver.obj
 0002:000649c0       ??$_Umove@PAI@?$vector@IV?$K2VectorAllocator@I@@@std@@IAEPAIPAI00@Z 210e79c0 f i c_gameserver.obj
 0002:00064a00       ??$fill@PAII@std@@YAXPAI0ABI@Z 210e7a00 f i c_gameserver.obj
 0002:00064a50       ??$_Unchecked_move_backward@PAIPAI@stdext@@YAPAIPAI00@Z 210e7a50 f i c_gameserver.obj
 0002:00064ae0       ?SetTier@CHostServer@@QAEXH@Z 210e7ae0 f i c_gameserver.obj
 0002:00064b10       ?GetMinPSR@CHostServer@@QBEGXZ 210e7b10 f i c_gameserver.obj
 0002:00064b40       ?SetMinPSR@CHostServer@@QAEXG@Z 210e7b40 f i c_gameserver.obj
 0002:00064b90       ?GetMaxPSR@CHostServer@@QBEGXZ 210e7b90 f i c_gameserver.obj
 0002:00064bc0       ?SetMaxPSR@CHostServer@@QAEXG@Z 210e7bc0 f i c_gameserver.obj
 0002:00064c10       ?SetNoLeaver@CHostServer@@QAEX_N@Z 210e7c10 f i c_gameserver.obj
 0002:00064c70       ?SetNoStats@CHostServer@@QAEX_N@Z 210e7c70 f i c_gameserver.obj
 0002:00064cd0       ?UnloadWorld@CGameServer@@QAEXXZ 210e7cd0 f   c_gameserver.obj
 0002:00064d30       ?StartReplay@CGameServer@@QAE_NABV?$basic_string@_WU?$char_traits@_W@std@@V?$K2StringAllocator@_W@@@std@@@Z 210e7d30 f   c_gameserver.obj
 0002:00064e70       ?StopReplay@CGameServer@@QAEXXZ 210e7e70 f   c_gameserver.obj
 0002:00064ea0       ?RegisterModel@CGameServer@@UAEIABV?$basic_string@_WU?$char_traits@_W@std@@V?$K2StringAllocator@_W@@@std@@@Z 210e7ea0 f   c_gameserver.obj
 0002:00065000       ??0CResourceScope@@QAE@ABV?$basic_string@_WU?$char_traits@_W@std@@V?$K2StringAllocator@_W@@@std@@@Z 210e8000 f i c_gameserver.obj
 0002:00065290       ??1CResourceScope@@QAE@XZ  210e8290 f i c_gameserver.obj
 0002:00065430       ??BCResourceScope@@QBE_NXZ 210e8430 f i c_gameserver.obj
 0002:00065450       ??1iterator@?$_Tree@V?$_Tmap_traits@V?$basic_string@_WU?$char_traits@_W@std@@V?$K2StringAllocator@_W@@@std@@USResContext@CResourceInfo@@U?$less@V?$basic_string@_WU?$char_traits@_W@std@@V?$K2StringAllocator@_W@@@std@@@2@V?$K2MapAllocator@U?$pair@$$CBV?$basic_string@_WU?$char_traits@_W@std@@V?$K2StringAllocator@_W@@@std@@USResContext@CResourceInfo@@@std@@@@$0A@@std@@@std@@QAE@XZ 210e8450 f i c_gameserver.obj
 0002:00065480       ??4iterator@?$_Tree@V?$_Tmap_traits@V?$basic_string@_WU?$char_traits@_W@std@@V?$K2StringAllocator@_W@@@std@@USResContext@CResourceInfo@@U?$less@V?$basic_string@_WU?$char_traits@_W@std@@V?$K2StringAllocator@_W@@@std@@@2@V?$K2MapAllocator@U?$pair@$$CBV?$basic_string@_WU?$char_traits@_W@std@@V?$K2StringAllocator@_W@@@std@@USResContext@CResourceInfo@@@std@@@@$0A@@std@@@std@@QAEAAV012@ABV012@@Z 210e8480 f i c_gameserver.obj
 0002:000654b0       ??1const_iterator@?$_Tree@V?$_Tmap_traits@V?$basic_string@_WU?$char_traits@_W@std@@V?$K2StringAllocator@_W@@@std@@USResContext@CResourceInfo@@U?$less@V?$basic_string@_WU?$char_traits@_W@std@@V?$K2StringAllocator@_W@@@std@@@2@V?$K2MapAllocator@U?$pair@$$CBV?$basic_string@_WU?$char_traits@_W@std@@V?$K2StringAllocator@_W@@@std@@USResContext@CResourceInfo@@@std@@@@$0A@@std@@@std@@QAE@XZ 210e84b0 f i c_gameserver.obj
 0002:000654e0       ??4const_iterator@?$_Tree@V?$_Tmap_traits@V?$basic_string@_WU?$char_traits@_W@std@@V?$K2StringAllocator@_W@@@std@@USResContext@CResourceInfo@@U?$less@V?$basic_string@_WU?$char_traits@_W@std@@V?$K2StringAllocator@_W@@@std@@@2@V?$K2MapAllocator@U?$pair@$$CBV?$basic_string@_WU?$char_traits@_W@std@@V?$K2StringAllocator@_W@@@std@@USResContext@CResourceInfo@@@std@@@@$0A@@std@@@std@@QAEAAV012@ABV012@@Z 210e84e0 f i c_gameserver.obj
 0002:00065520       ??1?$_Bidit@U?$pair@$$CBV?$basic_string@_WU?$char_traits@_W@std@@V?$K2StringAllocator@_W@@@std@@USResContext@CResourceInfo@@@std@@HPBU12@ABU12@@std@@QAE@XZ 210e8520 f i c_gameserver.obj
 0002:00065550       ??4?$_Bidit@U?$pair@$$CBV?$basic_string@_WU?$char_traits@_W@std@@V?$K2StringAllocator@_W@@@std@@USResContext@CResourceInfo@@@std@@HPBU12@ABU12@@std@@QAEAAU01@ABU01@@Z 210e8550 f i c_gameserver.obj
 0002:00065580       ?RegisterEffect@CGameServer@@UAEIABV?$basic_string@_WU?$char_traits@_W@std@@V?$K2StringAllocator@_W@@@std@@@Z 210e8580 f   c_gameserver.obj
 0002:000656f0       ?RegisterIcon@CGameServer@@UAEIABV?$basic_string@_WU?$char_traits@_W@std@@V?$K2StringAllocator@_W@@@std@@@Z 210e86f0 f   c_gameserver.obj
 0002:000658a0       ?GetClientNumFromAccountID@CGameServer@@QAEHH@Z 210e88a0 f   c_gameserver.obj
 0002:000658e0       ?GetClientNumFromName@CGameServer@@QAEHABV?$basic_string@_WU?$char_traits@_W@std@@V?$K2StringAllocator@_W@@@std@@@Z 210e88e0 f   c_gameserver.obj
 0002:00065a50       ?SendMessage@CGameServer@@UAEXABV?$basic_string@_WU?$char_traits@_W@std@@V?$K2StringAllocator@_W@@@std@@H@Z 210e8a50 f   c_gameserver.obj
 0002:00065bd0       ?BroadcastGameData@CGameServer@@UAEXABVIBuffer@@_NHI@Z 210e8bd0 f   c_gameserver.obj
 0002:00065ea0       ??0SDelayedMessage@CGameServer@@QAE@XZ 210e8ea0 f i c_gameserver.obj
 0002:00065ed0       ??1SDelayedMessage@CGameServer@@QAE@XZ 210e8ed0 f i c_gameserver.obj
 0002:00065f00       ?BroadcastGameDataToTeam@CGameServer@@UAEXHABVIBuffer@@_NH@Z 210e8f00 f   c_gameserver.obj
 0002:00066100       ?SendGameData@CGameServer@@UAEXHABVIBuffer@@_N@Z 210e9100 f   c_gameserver.obj
 0002:00066190       ?SendGameData@CGameServer@@UAEXHABVIBuffer@@_NI@Z 210e9190 f   c_gameserver.obj
 0002:00066310       ?SendReliablePacket@CGameServer@@UAEXHABVIBuffer@@@Z 210e9310 f   c_gameserver.obj
 0002:000664a0       ?PrecacheEntity@CGameServer@@AAEXABV?$basic_string@_WU?$char_traits@_W@std@@V?$K2StringAllocator@_W@@@std@@@Z 210e94a0 f   c_gameserver.obj
 0002:00066550       ?PrecacheEntities@CGameServer@@AAEX_N@Z 210e9550 f   c_gameserver.obj
 0002:000673e0       ?GetSize@?$CArrayCvar@V?$basic_string@_WU?$char_traits@_W@std@@V?$K2StringAllocator@_W@@@std@@@@QBEIXZ 210ea3e0 f i c_gameserver.obj
 0002:00067410       ??A?$CArrayCvar@V?$basic_string@_WU?$char_traits@_W@std@@V?$K2StringAllocator@_W@@@std@@@@QAEABV?$basic_string@_WU?$char_traits@_W@std@@V?$K2StringAllocator@_W@@@std@@H@Z 210ea410 f i c_gameserver.obj
 0002:00067440       ??A?$vector@V?$basic_string@_WU?$char_traits@_W@std@@V?$K2StringAllocator@_W@@@std@@V?$K2VectorAllocator@V?$basic_string@_WU?$char_traits@_W@std@@V?$K2StringAllocator@_W@@@std@@@@@std@@QAEAAV?$basic_string@_WU?$char_traits@_W@std@@V?$K2StringAllocator@_W@@@1@I@Z 210ea440 f i c_gameserver.obj
 0002:00067560       ?push_back@?$vector@V?$basic_string@_WU?$char_traits@_W@std@@V?$K2StringAllocator@_W@@@std@@V?$K2VectorAllocator@V?$basic_string@_WU?$char_traits@_W@std@@V?$K2StringAllocator@_W@@@std@@@@@std@@QAEXABV?$basic_string@_WU?$char_traits@_W@std@@V?$K2StringAllocator@_W@@@2@@Z 210ea560 f i c_gameserver.obj
 0002:00067610       ?capacity@?$vector@V?$basic_string@_WU?$char_traits@_W@std@@V?$K2StringAllocator@_W@@@std@@V?$K2VectorAllocator@V?$basic_string@_WU?$char_traits@_W@std@@V?$K2StringAllocator@_W@@@std@@@@@std@@QBEIXZ 210ea610 f i c_gameserver.obj
 0002:00067660       ?end@?$vector@V?$basic_string@_WU?$char_traits@_W@std@@V?$K2StringAllocator@_W@@@std@@V?$K2VectorAllocator@V?$basic_string@_WU?$char_traits@_W@std@@V?$K2StringAllocator@_W@@@std@@@@@std@@QBE?AV?$_Vector_const_iterator@V?$basic_string@_WU?$char_traits@_W@std@@V?$K2StringAllocator@_W@@@std@@V?$K2VectorAllocator@V?$basic_string@_WU?$char_traits@_W@std@@V?$K2StringAllocator@_W@@@std@@@@@2@XZ 210ea660 f i c_gameserver.obj
 0002:000676b0       ?insert@?$vector@V?$basic_string@_WU?$char_traits@_W@std@@V?$K2StringAllocator@_W@@@std@@V?$K2VectorAllocator@V?$basic_string@_WU?$char_traits@_W@std@@V?$K2StringAllocator@_W@@@std@@@@@std@@QAE?AV?$_Vector_iterator@V?$basic_string@_WU?$char_traits@_W@std@@V?$K2StringAllocator@_W@@@std@@V?$K2VectorAllocator@V?$basic_string@_WU?$char_traits@_W@std@@V?$K2StringAllocator@_W@@@std@@@@@2@V32@ABV?$basic_string@_WU?$char_traits@_W@std@@V?$K2StringAllocator@_W@@@2@@Z 210ea6b0 f i c_gameserver.obj
 0002:00067820       ??H?$_Vector_iterator@V?$basic_string@_WU?$char_traits@_W@std@@V?$K2StringAllocator@_W@@@std@@V?$K2VectorAllocator@V?$basic_string@_WU?$char_traits@_W@std@@V?$K2StringAllocator@_W@@@std@@@@@std@@QBE?AV01@H@Z 210ea820 f i c_gameserver.obj
 0002:000678d0       ??0?$_Vector_iterator@V?$basic_string@_WU?$char_traits@_W@std@@V?$K2StringAllocator@_W@@@std@@V?$K2VectorAllocator@V?$basic_string@_WU?$char_traits@_W@std@@V?$K2StringAllocator@_W@@@std@@@@@std@@QAE@ABV01@@Z 210ea8d0 f i c_gameserver.obj
 0002:00067900       ??0?$_Vector_const_iterator@V?$basic_string@_WU?$char_traits@_W@std@@V?$K2StringAllocator@_W@@@std@@V?$K2VectorAllocator@V?$basic_string@_WU?$char_traits@_W@std@@V?$K2StringAllocator@_W@@@std@@@@@std@@QAE@ABV01@@Z 210ea900 f i c_gameserver.obj
 0002:00067940       ??0?$_Ranit@V?$basic_string@_WU?$char_traits@_W@std@@V?$K2StringAllocator@_W@@@std@@HPBV12@ABV12@@std@@QAE@ABU01@@Z 210ea940 f i c_gameserver.obj
 0002:00067970       ?_Ufill@?$vector@V?$basic_string@_WU?$char_traits@_W@std@@V?$K2StringAllocator@_W@@@std@@V?$K2VectorAllocator@V?$basic_string@_WU?$char_traits@_W@std@@V?$K2StringAllocator@_W@@@std@@@@@std@@IAEPAV?$basic_string@_WU?$char_traits@_W@std@@V?$K2StringAllocator@_W@@@2@PAV32@IABV32@@Z 210ea970 f i c_gameserver.obj
 0002:000679c0       ?_Orphan_range@?$vector@V?$basic_string@_WU?$char_traits@_W@std@@V?$K2StringAllocator@_W@@@std@@V?$K2VectorAllocator@V?$basic_string@_WU?$char_traits@_W@std@@V?$K2StringAllocator@_W@@@std@@@@@std@@IBEXPAV?$basic_string@_WU?$char_traits@_W@std@@V?$K2StringAllocator@_W@@@2@0@Z 210ea9c0 f i c_gameserver.obj
 0002:00067a60       ??Y?$_Vector_iterator@V?$basic_string@_WU?$char_traits@_W@std@@V?$K2StringAllocator@_W@@@std@@V?$K2VectorAllocator@V?$basic_string@_WU?$char_traits@_W@std@@V?$K2StringAllocator@_W@@@std@@@@@std@@QAEAAV01@H@Z 210eaa60 f i c_gameserver.obj
 0002:00067a90       ??D?$_Vector_const_iterator@V?$basic_string@_WU?$char_traits@_W@std@@V?$K2StringAllocator@_W@@@std@@V?$K2VectorAllocator@V?$basic_string@_WU?$char_traits@_W@std@@V?$K2StringAllocator@_W@@@std@@@@@std@@QBEABV?$basic_string@_WU?$char_traits@_W@std@@V?$K2StringAllocator@_W@@@1@XZ 210eaa90 f i c_gameserver.obj
 0002:00067b50       ?begin@?$vector@V?$basic_string@_WU?$char_traits@_W@std@@V?$K2StringAllocator@_W@@@std@@V?$K2VectorAllocator@V?$basic_string@_WU?$char_traits@_W@std@@V?$K2StringAllocator@_W@@@std@@@@@std@@QBE?AV?$_Vector_const_iterator@V?$basic_string@_WU?$char_traits@_W@std@@V?$K2StringAllocator@_W@@@std@@V?$K2VectorAllocator@V?$basic_string@_WU?$char_traits@_W@std@@V?$K2StringAllocator@_W@@@std@@@@@2@XZ 210eab50 f i c_gameserver.obj
 0002:00067ba0       ?_Insert_n@?$vector@V?$basic_string@_WU?$char_traits@_W@std@@V?$K2StringAllocator@_W@@@std@@V?$K2VectorAllocator@V?$basic_string@_WU?$char_traits@_W@std@@V?$K2StringAllocator@_W@@@std@@@@@std@@IAEXV?$_Vector_iterator@V?$basic_string@_WU?$char_traits@_W@std@@V?$K2StringAllocator@_W@@@std@@V?$K2VectorAllocator@V?$basic_string@_WU?$char_traits@_W@std@@V?$K2StringAllocator@_W@@@std@@@@@2@IABV?$basic_string@_WU?$char_traits@_W@std@@V?$K2StringAllocator@_W@@@2@@Z 210eaba0 f i c_gameserver.obj
 0002:00068090       ??G?$_Vector_iterator@V?$basic_string@_WU?$char_traits@_W@std@@V?$K2StringAllocator@_W@@@std@@V?$K2VectorAllocator@V?$basic_string@_WU?$char_traits@_W@std@@V?$K2StringAllocator@_W@@@std@@@@@std@@QBEHABV?$_Vector_const_iterator@V?$basic_string@_WU?$char_traits@_W@std@@V?$K2StringAllocator@_W@@@std@@V?$K2VectorAllocator@V?$basic_string@_WU?$char_traits@_W@std@@V?$K2StringAllocator@_W@@@std@@@@@1@@Z 210eb090 f i c_gameserver.obj
 0002:000680c0       ??Y?$_Vector_const_iterator@V?$basic_string@_WU?$char_traits@_W@std@@V?$K2StringAllocator@_W@@@std@@V?$K2VectorAllocator@V?$basic_string@_WU?$char_traits@_W@std@@V?$K2StringAllocator@_W@@@std@@@@@std@@QAEAAV01@H@Z 210eb0c0 f i c_gameserver.obj
 0002:000681f0       ??G?$_Vector_const_iterator@V?$basic_string@_WU?$char_traits@_W@std@@V?$K2StringAllocator@_W@@@std@@V?$K2VectorAllocator@V?$basic_string@_WU?$char_traits@_W@std@@V?$K2StringAllocator@_W@@@std@@@@@std@@QBEHABV01@@Z 210eb1f0 f i c_gameserver.obj
 0002:00068230       ??$unchecked_uninitialized_fill_n@PAV?$basic_string@_WU?$char_traits@_W@std@@V?$K2StringAllocator@_W@@@std@@IV12@V?$K2VectorAllocator@V?$basic_string@_WU?$char_traits@_W@std@@V?$K2StringAllocator@_W@@@std@@@@@stdext@@YAXPAV?$basic_string@_WU?$char_traits@_W@std@@V?$K2StringAllocator@_W@@@std@@IABV12@AAV?$K2VectorAllocator@V?$basic_string@_WU?$char_traits@_W@std@@V?$K2StringAllocator@_W@@@std@@@@@Z 210eb230 f i c_gameserver.obj
 0002:00068290       ??$_Umove@PAV?$basic_string@_WU?$char_traits@_W@std@@V?$K2StringAllocator@_W@@@std@@@?$vector@V?$basic_string@_WU?$char_traits@_W@std@@V?$K2StringAllocator@_W@@@std@@V?$K2VectorAllocator@V?$basic_string@_WU?$char_traits@_W@std@@V?$K2StringAllocator@_W@@@std@@@@@std@@IAEPAV?$basic_string@_WU?$char_traits@_W@std@@V?$K2StringAllocator@_W@@@1@PAV21@00@Z 210eb290 f i c_gameserver.obj
 0002:000682d0       ??$fill@PAV?$basic_string@_WU?$char_traits@_W@std@@V?$K2StringAllocator@_W@@@std@@V12@@std@@YAXPAV?$basic_string@_WU?$char_traits@_W@std@@V?$K2StringAllocator@_W@@@0@0ABV10@@Z 210eb2d0 f i c_gameserver.obj
 0002:00068320       ??$_Unchecked_move_backward@PAV?$basic_string@_WU?$char_traits@_W@std@@V?$K2StringAllocator@_W@@@std@@PAV12@@stdext@@YAPAV?$basic_string@_WU?$char_traits@_W@std@@V?$K2StringAllocator@_W@@@std@@PAV12@00@Z 210eb320 f i c_gameserver.obj
 0002:000683b0       ?StateStringChanged@CGameServer@@QAEXIABVCStateString@@@Z 210eb3b0 f   c_gameserver.obj
 0002:00068430       ?StateBlockChanged@CGameServer@@QAEXIABVIBuffer@@@Z 210eb430 f   c_gameserver.obj
 0002:00068470       ?GetStateString@CGameServer@@UAEAAVCStateString@@I@Z 210eb470 f   c_gameserver.obj
 0002:000684b0       ?GetStateBlock@CGameServer@@UAEAAVCStateBlock@@I@Z 210eb4b0 f   c_gameserver.obj
 0002:000684f0       ?GetServerFrame@CGameServer@@UAEIXZ 210eb4f0 f   c_gameserver.obj
 0002:00068520       ?GetServerTime@CGameServer@@UBEIXZ 210eb520 f   c_gameserver.obj
 0002:00068550       ?GetPrevServerTime@CGameServer@@UAEIXZ 210eb550 f   c_gameserver.obj
 0002:000685a0       ?GetServerFrameLength@CGameServer@@UAEIXZ 210eb5a0 f   c_gameserver.obj
 0002:000685d0       ?AddTeam@CGameServer@@QAEPAVCTeamInfo@@ABV?$basic_string@_WU?$char_traits@_W@std@@V?$K2StringAllocator@_W@@@std@@ABV?$CVec4@M@@I@Z 210eb5d0 f   c_gameserver.obj
 0002:000686c0       ?SetTeamID@CTeamInfo@@QAEXI@Z 210eb6c0 f i c_gameserver.obj
 0002:000686f0       ?SetName@CTeamInfo@@QAEXABV?$basic_string@_WU?$char_traits@_W@std@@V?$K2StringAllocator@_W@@@std@@@Z 210eb6f0 f i c_gameserver.obj
 0002:00068730       ?SetColor@CTeamInfo@@QAEXABV?$CVec4@M@@@Z 210eb730 f i c_gameserver.obj
 0002:00068780       ?GetServerStatus@CGameServer@@QAE?AV?$basic_string@_WU?$char_traits@_W@std@@V?$K2StringAllocator@_W@@@std@@XZ 210eb780 f   c_gameserver.obj
 0002:00069280       ?GetNumEntities@CServerEntityDirectory@@QBEIXZ 210ec280 f i c_gameserver.obj
 0002:000692b0       ?GetEntitySnapshotPool@CEntitySnapshot@@SAPAV?$CRecyclePool@VCEntitySnapshot@@@@XZ 210ec2b0 f i c_gameserver.obj
 0002:000692d0       ?UpdateHeroList@CGameServer@@UAEXXZ 210ec2d0 f   c_gameserver.obj
 0002:000695e0       ??1?$_Vector_iterator@U?$pair@GE@std@@V?$K2VectorAllocator@U?$pair@GE@std@@@@@std@@QAE@XZ 210ec5e0 f i c_gameserver.obj
 0002:00069610       ??1?$_Vector_const_iterator@U?$pair@GE@std@@V?$K2VectorAllocator@U?$pair@GE@std@@@@@std@@QAE@XZ 210ec610 f i c_gameserver.obj
 0002:00069640       ??1?$_Ranit@U?$pair@GE@std@@HPBU12@ABU12@@std@@QAE@XZ 210ec640 f i c_gameserver.obj
 0002:00069670       ?GetAvailableHeroList@CGameServer@@QAEXPAVCPlayer@@AAV?$vector@GV?$K2VectorAllocator@G@@@@@Z 210ec670 f   c_gameserver.obj
 0002:00069a90       ?SelectHero@CGameServer@@QAE_NHG_N0@Z 210eca90 f   c_gameserver.obj
 0002:0006a170       ?SelectPotentialHero@CPlayer@@QAEXG@Z 210ed170 f i c_gameserver.obj
 0002:0006a1a0       ?SelectAvatar@CGameServer@@QAE_NHABV?$basic_string@_WU?$char_traits@_W@std@@V?$K2StringAllocator@_W@@@std@@@Z 210ed1a0 f   c_gameserver.obj
 0002:0006a250       ?SelectRandomHero@CGameServer@@QAEXH@Z 210ed250 f   c_gameserver.obj
 0002:0006a6f0       ?SelectPotentialHeroOrRandomHero@CGameServer@@QAEXH@Z 210ed6f0 f   c_gameserver.obj
 0002:0006a790       ?GetPotentialHero@CPlayer@@QBEGXZ 210ed790 f i c_gameserver.obj
 0002:0006a7c0       ?HasPotentialHero@CPlayer@@QBE_NXZ 210ed7c0 f i c_gameserver.obj
 0002:0006a800       ?ClearPotentialHero@CGameServer@@QAEXPAVCPlayer@@G@Z 210ed800 f   c_gameserver.obj
 0002:0006a970       ?SetHeroStatus@CGameServer@@QAEXGE@Z 210ed970 f   c_gameserver.obj
 0002:0006aaf0       ?GetHeroStatus@CGameServer@@QAEEG@Z 210edaf0 f   c_gameserver.obj
 0002:0006ac50       ?GetBannedHeroes@CGameServer@@QAEXAAV?$vector@GV?$K2VectorAllocator@G@@@@@Z 210edc50 f   c_gameserver.obj
 0002:0006ada0       ?GetBannedHeroesStr@CGameServer@@QAE?AV?$basic_string@_WU?$char_traits@_W@std@@V?$K2StringAllocator@_W@@@std@@XZ 210edda0 f   c_gameserver.obj
 0002:0006af90       ?RemoveHero@CGameServer@@QAE_NH@Z 210edf90 f   c_gameserver.obj
 0002:0006b0c0       ?ResetPicks@CGameServer@@QAEXH@Z 210ee0c0 f   c_gameserver.obj
 0002:0006b1a0       ?GetRandomHeroFromPool@CGameServer@@QAEGXZ 210ee1a0 f   c_gameserver.obj
 0002:0006b390       ?HasMegaCreeps@CGameServer@@UAE_NI@Z 210ee390 f   c_gameserver.obj
 0002:0006b610       ?GetUnitFromUniqueID@IGame@@QAEPAVIUnitEntity@@I@Z 210ee610 f i c_gameserver.obj
 0002:0006b680       ?GetTargetUID@CEntityCreepSpawner@@QBEII@Z 210ee680 f i c_gameserver.obj
 0002:0006b6c0       ?SpawnCreeps@CGameServer@@QAEXXZ 210ee6c0 f   c_gameserver.obj
 0002:0006c1b0       ?GetEntityFromUniqueID@IGame@@QAEPAVIGameEntity@@I@Z 210ef1b0 f i c_gameserver.obj
 0002:0006c1f0       ?SpawnPowerup@CGameServer@@QAEXXZ 210ef1f0 f   c_gameserver.obj
 0002:0006c510       ?SetPosition@IVisualEntity@@QAEXABV?$CVec3@M@@@Z 210ef510 f i c_gameserver.obj
 0002:0006c550       ?GetAngles@IVisualEntity@@QBEABV?$CVec3@M@@XZ 210ef550 f i c_gameserver.obj
 0002:0006c580       ?SetAngles@IVisualEntity@@QAEXABV?$CVec3@M@@@Z 210ef580 f i c_gameserver.obj
 0002:0006c5c0       ??A?$vector@IV?$K2VectorAllocator@I@@@std@@QAEAAII@Z 210ef5c0 f i c_gameserver.obj
 0002:0006c6e0       ?SpawnCritters@CGameServer@@QAEXXZ 210ef6e0 f   c_gameserver.obj
 0002:0006cca0       ?SetName@IVisualEntity@@QAEXABV?$basic_string@_WU?$char_traits@_W@std@@V?$K2StringAllocator@_W@@@std@@@Z 210efca0 f i c_gameserver.obj
 0002:0006ccd0       ?GetEntitiesInRadius@IGame@@QAEXAAV?$vector@IV?$K2VectorAllocator@I@@@@ABV?$CVec2@M@@MI@Z 210efcd0 f i c_gameserver.obj
 0002:0006cd10       ?GetEntitiesInRadius@CWorld@@QAEXAAV?$vector@IV?$K2VectorAllocator@I@@@@ABV?$CVec2@M@@MI@Z 210efd10 f i c_gameserver.obj
 0002:0006cd60       ?GetGameIndexFromWorldIndex@IGame@@QAEII@Z 210efd60 f i c_gameserver.obj
 0002:0006cdb0       ?GetGameIndex@CWorldEntity@@QBEIXZ 210efdb0 f i c_gameserver.obj
 0002:0006cdd0       ?GetWorldEntity@IGame@@QAEPAVCWorldEntity@@I_N@Z 210efdd0 f i c_gameserver.obj
 0002:0006ce20       ?GetEntity@CWorld@@QBEPAVCWorldEntity@@I_N@Z 210efe20 f i c_gameserver.obj
 0002:0006ce60       ?GetEntityFromName@IGame@@QAEPAVIVisualEntity@@ABV?$basic_string@_WU?$char_traits@_W@std@@V?$K2StringAllocator@_W@@@std@@@Z 210efe60 f i c_gameserver.obj
 0002:0006cea0       ?GetNextEntityFromName@IGame@@QAEPAVIVisualEntity@@PAV2@@Z 210efea0 f i c_gameserver.obj
 0002:0006cee0       ?UpdateNavigation@CGameServer@@AAEXXZ 210efee0 f   c_gameserver.obj
 0002:0006cf70       ?GetVision@CGameServer@@UBEGMM@Z 210eff70 f   c_gameserver.obj
 0002:0006d090       ?GetVision@CVisibilityMap@@QBEEII@Z 210f0090 f i c_gameserver.obj
 0002:0006d0d0       ?UpdateUnitVisibility@CGameServer@@UAEXPAVIUnitEntity@@@Z 210f00d0 f   c_gameserver.obj
 0002:0006d370       ?SetVisibilityFlags@IVisualEntity@@QAEXG@Z 210f0370 f i c_gameserver.obj
 0002:0006d3b0       ?HasVisibilityFlags@IVisualEntity@@QBE_NG@Z 210f03b0 f i c_gameserver.obj
 0002:0006d3f0       ?UpdateVisibility@CGameServer@@AAEXXZ 210f03f0 f   c_gameserver.obj
 0002:0006f100       ?GetBuffer@CRasterBuffer@@QAEPAEXZ 210f2100 f i c_gameserver.obj
 0002:0006f120       ?RemoveVisibilityFlags@IVisualEntity@@QAEXG@Z 210f2120 f i c_gameserver.obj
 0002:0006f160       ?GetOcclusion@CWorld@@QAE_NABV?$CRect@H@@PAEM@Z 210f2160 f i c_gameserver.obj
 0002:0006f1a0       ?IsRevealed@IGame@@QBE_NII@Z 210f21a0 f i c_gameserver.obj
 0002:0006f1d0       ?GetEntitiesInRegion@IGame@@QAEXAAV?$vector@IV?$K2VectorAllocator@I@@@@ABV?$CBoundingBox@M@@I@Z 210f21d0 f i c_gameserver.obj
 0002:0006f210       ?GetEntitiesInRegion@CWorld@@QAEXAAV?$vector@IV?$K2VectorAllocator@I@@@@ABV?$CBoundingBox@M@@I@Z 210f2210 f i c_gameserver.obj
 0002:0006f250       ?GetEntityFromWorldIndex@IGame@@QAEPAVIVisualEntity@@I@Z 210f2250 f i c_gameserver.obj
 0002:0006f2b0       ?GetVisualEntity@IGame@@QAEPAVIVisualEntity@@I@Z 210f22b0 f i c_gameserver.obj
 0002:0006f310       ?GetInflictor@IEntityState@@QBEPAVIUnitEntity@@XZ 210f2310 f i c_gameserver.obj
 0002:0006f350       ?RemoveUnitFlags@IUnitEntity@@QAEXG@Z 210f2350 f i c_gameserver.obj
 0002:0006f390       ?SetUnitFlags@IUnitEntity@@QAEXG@Z 210f2390 f i c_gameserver.obj
 0002:0006f3d0       ?GetSlave@IUnitEntity@@QBEPAVISlaveEntity@@H@Z 210f23d0 f i c_gameserver.obj
 0002:0006f410       ??$DistanceSq@M@@YAMABV?$CVec2@M@@0@Z 210f2410 f i c_gameserver.obj
 0002:0006f460       ?GetActive@CEntityNeutralCampController@@QAE_NXZ 210f2460 f i c_gameserver.obj
 0002:0006f490       ?GetActive@CEntityBossController@@QAE_NXZ 210f2490 f i c_gameserver.obj
 0002:0006f4d0       ??1?$_Const_iterator@$00@?$list@PAVIUnitEntity@@V?$K2ListAllocator@PAVIUnitEntity@@@@@std@@QAE@XZ 210f24d0 f i c_gameserver.obj
 0002:0006f500       ??1?$_Bidit@PAVIUnitEntity@@HPBQAV1@ABQAV1@@std@@QAE@XZ 210f2500 f i c_gameserver.obj
 0002:0006f530       ?KillTrees@CGameServer@@QAEXXZ 210f2530 f   c_gameserver.obj
 0002:0006f570       ?SpawnTrees@CGameServer@@QAEXXZ 210f2570 f   c_gameserver.obj
 0002:0006f5b0       ?Precache@CGameServer@@UAEXABV?$basic_string@_WU?$char_traits@_W@std@@V?$K2StringAllocator@_W@@@std@@W4EPrecacheScheme@@0@Z 210f25b0 f   c_gameserver.obj
 0002:0006f600       ?Precache@CGameServer@@UAEXGW4EPrecacheScheme@@ABV?$basic_string@_WU?$char_traits@_W@std@@V?$K2StringAllocator@_W@@@std@@@Z 210f2600 f   c_gameserver.obj
 0002:0006f640       ?SendPopup@CGameServer@@QAEXPBVCPopup@@PAVIUnitEntity@@1G@Z 210f2640 f   c_gameserver.obj
 0002:0006fa40       ?GetType@CPopup@@QBEEXZ    210f2a40 f i c_gameserver.obj
 0002:0006fa60       ?GetShowValue@CPopup@@QBE_NXZ 210f2a60 f i c_gameserver.obj
 0002:0006fa80       ?GetSelfOnly@CPopup@@QBE_NXZ 210f2a80 f i c_gameserver.obj
 0002:0006faa0       ?GetTeamOnly@CPopup@@QBE_NXZ 210f2aa0 f i c_gameserver.obj
 0002:0006fac0       ?GetSpectatorOnly@CPopup@@QBE_NXZ 210f2ac0 f i c_gameserver.obj
 0002:0006fae0       ?SendPopup@CGameServer@@UAEXEPAVIUnitEntity@@0G@Z 210f2ae0 f   c_gameserver.obj
 0002:0006fb30       ?GetPopup@IGame@@QAEPBVCPopup@@E@Z 210f2b30 f i c_gameserver.obj
 0002:0006fb90       ?GetPopup@CGameMechanics@@QBEPBVCPopup@@E@Z 210f2b90 f i c_gameserver.obj
 0002:0006fbf0       ?size@?$vector@VCPopup@@V?$K2VectorAllocator@VCPopup@@@@@std@@QBEIXZ 210f2bf0 f i c_gameserver.obj
 0002:0006fc40       ??A?$vector@VCPopup@@V?$K2VectorAllocator@VCPopup@@@@@std@@QBEABVCPopup@@I@Z 210f2c40 f i c_gameserver.obj
 0002:0006fd60       ?SendPopup@CGameServer@@UAEXW4EPopup@@PAVIUnitEntity@@1G@Z 210f2d60 f   c_gameserver.obj
 0002:0006fdb0       ?GetPopup@IGame@@QAEPBVCPopup@@W4EPopup@@@Z 210f2db0 f i c_gameserver.obj
 0002:0006fe10       ?GetPopup@CGameMechanics@@QBEPBVCPopup@@W4EPopup@@@Z 210f2e10 f i c_gameserver.obj
 0002:0006fe40       ?SendPing@CGameServer@@QAEXPBVCPing@@PAVIUnitEntity@@1EE@Z 210f2e40 f   c_gameserver.obj
 0002:00070230       ?GetType@CPing@@QBEEXZ     210f3230 f i c_gameserver.obj
 0002:00070250       ?GetSelfOnly@CPing@@QBE_NXZ 210f3250 f i c_gameserver.obj
 0002:00070270       ?GetTargetOnly@CPing@@QBE_NXZ 210f3270 f i c_gameserver.obj
 0002:00070290       ?GetTeamOnly@CPing@@QBE_NXZ 210f3290 f i c_gameserver.obj
 0002:000702b0       ?SendPing@CGameServer@@QAEXPBVCPing@@PAVIUnitEntity@@1ABV?$CVec2@M@@@Z 210f32b0 f   c_gameserver.obj
 0002:00070370       ?GetWorldWidth@IGame@@QBEMXZ 210f3370 f i c_gameserver.obj
 0002:000703a0       ?GetWorldWidth@CWorld@@QBEMXZ 210f33a0 f i c_gameserver.obj
 0002:000703e0       ?GetWorldHeight@IGame@@QBEMXZ 210f33e0 f i c_gameserver.obj
 0002:00070410       ?GetWorldHeight@CWorld@@QBEMXZ 210f3410 f i c_gameserver.obj
 0002:00070450       ?SendPing@CGameServer@@UAEXEPAVIUnitEntity@@0ABV?$CVec2@M@@@Z 210f3450 f   c_gameserver.obj
 0002:000704a0       ?GetPing@IGame@@QAEPBVCPing@@E@Z 210f34a0 f i c_gameserver.obj
 0002:00070500       ?GetPing@CGameMechanics@@QBEPBVCPing@@E@Z 210f3500 f i c_gameserver.obj
 0002:00070560       ?size@?$vector@VCPing@@V?$K2VectorAllocator@VCPing@@@@@std@@QBEIXZ 210f3560 f i c_gameserver.obj
 0002:000705b0       ??A?$vector@VCPing@@V?$K2VectorAllocator@VCPing@@@@@std@@QBEABVCPing@@I@Z 210f35b0 f i c_gameserver.obj
 0002:000706d0       ?SendPing@CGameServer@@UAEXW4EPing@@PAVIUnitEntity@@1ABV?$CVec2@M@@@Z 210f36d0 f   c_gameserver.obj
 0002:00070720       ?SendUnitPing@CGameServer@@QAEXPBVCPing@@PAVIUnitEntity@@1@Z 210f3720 f   c_gameserver.obj
 0002:000709e0       ?SendUnitPing@CGameServer@@QAEXEPAVIUnitEntity@@0@Z 210f39e0 f   c_gameserver.obj
 0002:00070a30       ?SendUnitPing@CGameServer@@QAEXW4EPing@@PAVIUnitEntity@@1@Z 210f3a30 f   c_gameserver.obj
 0002:00070a80       ?UnitRespawned@CGameServer@@UAEXI@Z 210f3a80 f   c_gameserver.obj
 0002:00070bd0       ?GetOwnerIndex@IUnitEntity@@QBEIXZ 210f3bd0 f i c_gameserver.obj
 0002:00070c00       ?UnitKilled@CGameServer@@UAEXI@Z 210f3c00 f   c_gameserver.obj
 0002:00070d50       ?GetServerInfo@CGameServer@@QAEXAAVCPacket@@@Z 210f3d50 f   c_gameserver.obj
 0002:00070e60       ?GetReconnectInfo@CGameServer@@QAEXAAVCPacket@@IIG@Z 210f3e60 f   c_gameserver.obj
 0002:000710c0       ?GetGameStatus@CGameServer@@QAEXAAVCPacket@@@Z 210f40c0 f   c_gameserver.obj
 0002:000710f0       ?GetHeartbeatInfo@CGameServer@@QAEXPAVCHTTPRequest@@@Z 210f40f0 f   c_gameserver.obj
 0002:000720b0       ?IsLeagueMatch@CHostServer@@QBE_NXZ 210f50b0 f i c_gameserver.obj
 0002:000720e0       ?ProcessAuthData@CGameServer@@QAEXHPBVCPHPData@@@Z 210f50e0 f   c_gameserver.obj
 0002:000721b0       ??1CPlayerAccountStats@@QAE@XZ 210f51b0 f i c_gameserver.obj
 0002:00072270       ??1CStats@CPlayerAccountStats@@QAE@XZ 210f5270 f i c_gameserver.obj
 0002:00072290       ??4CPlayerAccountStats@@QAEAAV0@ABV0@@Z 210f5290 f i c_gameserver.obj
 0002:000723b0       ?ProcessAuxData@CGameServer@@QAEXHPBVCPHPData@@@Z 210f53b0 f   c_gameserver.obj
 0002:00072460       ??1CPlayerAccountHistory@@QAE@XZ 210f5460 f i c_gameserver.obj
 0002:00072500       ??1?$vector@VCLastGameInfo@CPlayerAccountHistory@@V?$K2VectorAllocator@VCLastGameInfo@CPlayerAccountHistory@@@@@@QAE@XZ 210f5500 f i c_gameserver.obj
 0002:00072530       ??1?$_Vector_iterator@VCLastGameInfo@CPlayerAccountHistory@@V?$K2VectorAllocator@VCLastGameInfo@CPlayerAccountHistory@@@@@std@@QAE@XZ 210f5530 f i c_gameserver.obj
 0002:00072560       ??1?$vector@VCFavHeroes@CPlayerAccountHistory@@V?$K2VectorAllocator@VCFavHeroes@CPlayerAccountHistory@@@@@@QAE@XZ 210f5560 f i c_gameserver.obj
 0002:00072590       ??1?$_Vector_iterator@VCFavHeroes@CPlayerAccountHistory@@V?$K2VectorAllocator@VCFavHeroes@CPlayerAccountHistory@@@@@std@@QAE@XZ 210f5590 f i c_gameserver.obj
 0002:000725c0       ??1?$_Vector_const_iterator@VCLastGameInfo@CPlayerAccountHistory@@V?$K2VectorAllocator@VCLastGameInfo@CPlayerAccountHistory@@@@@std@@QAE@XZ 210f55c0 f i c_gameserver.obj
 0002:000725f0       ??1?$_Vector_const_iterator@VCFavHeroes@CPlayerAccountHistory@@V?$K2VectorAllocator@VCFavHeroes@CPlayerAccountHistory@@@@@std@@QAE@XZ 210f55f0 f i c_gameserver.obj
 0002:00072620       ??1?$_Ranit@VCLastGameInfo@CPlayerAccountHistory@@HPBV12@ABV12@@std@@QAE@XZ 210f5620 f i c_gameserver.obj
 0002:00072650       ??1?$_Ranit@VCFavHeroes@CPlayerAccountHistory@@HPBV12@ABV12@@std@@QAE@XZ 210f5650 f i c_gameserver.obj
 0002:00072680       ?RegisterShopInfo@CGameServer@@QAEXXZ 210f5680 f   c_gameserver.obj
 0002:00072a00       ?GetTypeID@IEntityDefinition@@QBEGXZ 210f5a00 f i c_gameserver.obj
 0002:00072a20       ?GetInitialStock@CItemDefinition@@QBEIXZ 210f5a20 f i c_gameserver.obj
 0002:00072a50       ?GetMaxStock@CItemDefinition@@QBEIXZ 210f5a50 f i c_gameserver.obj
 0002:00072a80       ?GetRestockDelay@CItemDefinition@@QBEIXZ 210f5a80 f i c_gameserver.obj
 0002:00072ab0       ?SetItemName@CShopItemInfo@@QAEXABV?$basic_string@_WU?$char_traits@_W@std@@V?$K2StringAllocator@_W@@@std@@@Z 210f5ab0 f i c_gameserver.obj
 0002:00072ae0       ?SetItemType@CShopItemInfo@@QAEXG@Z 210f5ae0 f i c_gameserver.obj
 0002:00072b10       ?SetRestockTime@CShopItemInfo@@QAEXI@Z 210f5b10 f i c_gameserver.obj
 0002:00072b40       ?SetMaxStock@CShopItemInfo@@QAEXI@Z 210f5b40 f i c_gameserver.obj
 0002:00072ba0       ?SetRemainingStock@CShopItemInfo@@QAEXI@Z 210f5ba0 f i c_gameserver.obj
 0002:00072be0       ?SetTeam@CShopItemInfo@@QAEXE@Z 210f5be0 f i c_gameserver.obj
 0002:00072c10       ??1?$map@GV?$basic_string@_WU?$char_traits@_W@std@@V?$K2StringAllocator@_W@@@std@@U?$less@G@2@V?$K2MapAllocator@U?$pair@$$CBGV?$basic_string@_WU?$char_traits@_W@std@@V?$K2StringAllocator@_W@@@std@@@std@@@@@@QAE@XZ 210f5c10 f i c_gameserver.obj
 0002:00072c40       ??1iterator@?$_Tree@V?$_Tmap_traits@GV?$basic_string@_WU?$char_traits@_W@std@@V?$K2StringAllocator@_W@@@std@@U?$less@G@2@V?$K2MapAllocator@U?$pair@$$CBGV?$basic_string@_WU?$char_traits@_W@std@@V?$K2StringAllocator@_W@@@std@@@std@@@@$0A@@std@@@std@@QAE@XZ 210f5c40 f i c_gameserver.obj
 0002:00072c70       ??1?$map@GV?$basic_string@_WU?$char_traits@_W@std@@V?$K2StringAllocator@_W@@@std@@U?$less@G@2@V?$K2MapAllocator@U?$pair@$$CBGV?$basic_string@_WU?$char_traits@_W@std@@V?$K2StringAllocator@_W@@@std@@@std@@@@@std@@QAE@XZ 210f5c70 f i c_gameserver.obj
 0002:00072ca0       ??1const_iterator@?$_Tree@V?$_Tmap_traits@GV?$basic_string@_WU?$char_traits@_W@std@@V?$K2StringAllocator@_W@@@std@@U?$less@G@2@V?$K2MapAllocator@U?$pair@$$CBGV?$basic_string@_WU?$char_traits@_W@std@@V?$K2StringAllocator@_W@@@std@@@std@@@@$0A@@std@@@std@@QAE@XZ 210f5ca0 f i c_gameserver.obj
 0002:00072cd0       ??1?$_Bidit@U?$pair@$$CBGV?$basic_string@_WU?$char_traits@_W@std@@V?$K2StringAllocator@_W@@@std@@@std@@HPBU12@ABU12@@std@@QAE@XZ 210f5cd0 f i c_gameserver.obj
 0002:00072d00       ?LongServerFrame@CGameServer@@QAEXI@Z 210f5d00 f   c_gameserver.obj
 0002:00072d30       ?ClientStateChange@CGameServer@@QAEXHW4EClientConnectionState@@@Z 210f5d30 f   c_gameserver.obj
 0002:00072e00       ?UpdateUpgrades@CGameServer@@QAEXH@Z 210f5e00 f   c_gameserver.obj
 0002:00072e70       ?SelectBaseAvatar@CGameServer@@QAEXH@Z 210f5e70 f   c_gameserver.obj
 0002:00072ec0       ??0?$vector@HV?$K2VectorAllocator@H@@@@QAE@XZ 210f5ec0 f i c_gameserver.obj
 0002:00072ef0       ??0?$vector@HV?$K2VectorAllocator@H@@@@QAE@ABV0@@Z 210f5ef0 f i c_gameserver.obj
 0002:00072f20       ??4?$vector@HV?$K2VectorAllocator@H@@@std@@QAEAAV01@ABV01@@Z 210f5f20 f i c_gameserver.obj
 0002:00073110       ?size@?$vector@HV?$K2VectorAllocator@H@@@std@@QBEIXZ 210f6110 f i c_gameserver.obj
 0002:00073160       ?begin@?$vector@HV?$K2VectorAllocator@H@@@std@@QBE?AV?$_Vector_const_iterator@HV?$K2VectorAllocator@H@@@2@XZ 210f6160 f i c_gameserver.obj
 0002:000731b0       ?end@?$vector@HV?$K2VectorAllocator@H@@@std@@QBE?AV?$_Vector_const_iterator@HV?$K2VectorAllocator@H@@@2@XZ 210f61b0 f i c_gameserver.obj
 0002:00073200       ?push_back@?$vector@HV?$K2VectorAllocator@H@@@std@@QAEXABH@Z 210f6200 f i c_gameserver.obj
 0002:000732b0       ?clear@?$vector@HV?$K2VectorAllocator@H@@@std@@QAEXXZ 210f62b0 f i c_gameserver.obj
 0002:00073370       ??0?$set@IU?$less@I@std@@V?$K2SetAllocator@I@@@@QAE@XZ 210f6370 f i c_gameserver.obj
 0002:000733a0       ??1?$_Tree@V?$_Tset_traits@IU?$less@I@std@@V?$K2SetAllocator@I@@$0A@@std@@@std@@QAE@XZ 210f63a0 f i c_gameserver.obj
 0002:00073420       ??4?$_Tree@V?$_Tset_traits@IU?$less@I@std@@V?$K2SetAllocator@I@@$0A@@std@@@std@@QAEAAV01@ABV01@@Z 210f6420 f i c_gameserver.obj
 0002:00073500       ?begin@?$_Tree@V?$_Tset_traits@IU?$less@I@std@@V?$K2SetAllocator@I@@$0A@@std@@@std@@QBE?AVconst_iterator@12@XZ 210f6500 f i c_gameserver.obj
 0002:00073550       ?end@?$_Tree@V?$_Tset_traits@IU?$less@I@std@@V?$K2SetAllocator@I@@$0A@@std@@@std@@QBE?AVconst_iterator@12@XZ 210f6550 f i c_gameserver.obj
 0002:000735a0       ?size@?$_Tree@V?$_Tset_traits@IU?$less@I@std@@V?$K2SetAllocator@I@@$0A@@std@@@std@@QBEIXZ 210f65a0 f i c_gameserver.obj
 0002:000735c0       ?empty@?$_Tree@V?$_Tset_traits@IU?$less@I@std@@V?$K2SetAllocator@I@@$0A@@std@@@std@@QBE_NXZ 210f65c0 f i c_gameserver.obj
 0002:000735f0       ??R?$less@I@std@@QBE_NABI0@Z 210f65f0 f i c_gameserver.obj
 0002:00073620       ?begin@?$basic_string@_WU?$char_traits@_W@std@@V?$K2StringAllocator@_W@@@std@@QBE?AV?$_String_const_iterator@_WU?$char_traits@_W@std@@V?$K2StringAllocator@_W@@@2@XZ 210f6620 f i c_gameserver.obj
 0002:00073670       ?end@?$basic_string@_WU?$char_traits@_W@std@@V?$K2StringAllocator@_W@@@std@@QBE?AV?$_String_const_iterator@_WU?$char_traits@_W@std@@V?$K2StringAllocator@_W@@@2@XZ 210f6670 f i c_gameserver.obj
 0002:000736d0       ?find@?$basic_string@_WU?$char_traits@_W@std@@V?$K2StringAllocator@_W@@@std@@QBEIPB_WI@Z 210f66d0 f i c_gameserver.obj
 0002:00073710       ?find@?$basic_string@_WU?$char_traits@_W@std@@V?$K2StringAllocator@_W@@@std@@QBEI_WI@Z 210f6710 f i c_gameserver.obj
 0002:00073740       ?find_first_of@?$basic_string@_WU?$char_traits@_W@std@@V?$K2StringAllocator@_W@@@std@@QBEIPB_WI@Z 210f6740 f i c_gameserver.obj
 0002:00073780       ?find_first_not_of@?$basic_string@_WU?$char_traits@_W@std@@V?$K2StringAllocator@_W@@@std@@QBEIPB_WI@Z 210f6780 f i c_gameserver.obj
 0002:000737c0       ?substr@?$basic_string@_WU?$char_traits@_W@std@@V?$K2StringAllocator@_W@@@std@@QBE?AV12@II@Z 210f67c0 f i c_gameserver.obj
 0002:00073810       ?compare@?$basic_string@_WU?$char_traits@_W@std@@V?$K2StringAllocator@_W@@@std@@QBEHABV12@@Z 210f6810 f i c_gameserver.obj
 0002:00073860       ?compare@?$basic_string@_WU?$char_traits@_W@std@@V?$K2StringAllocator@_W@@@std@@QBEHPB_W@Z 210f6860 f i c_gameserver.obj
 0002:000738b0       ??0?$allocator@U_Node@?$_Tree_nod@V?$_Tmap_traits@V?$basic_string@_WU?$char_traits@_W@std@@V?$K2StringAllocator@_W@@@std@@V12@U?$less@V?$basic_string@_WU?$char_traits@_W@std@@V?$K2StringAllocator@_W@@@std@@@2@V?$K2MapAllocator@U?$pair@$$CBV?$basic_string@_WU?$char_traits@_W@std@@V?$K2StringAllocator@_W@@@std@@V12@@std@@@@$0A@@std@@@std@@@std@@QAE@XZ 210f68b0 f i c_gameserver.obj
 0002:000738d0       ??0?$allocator@PAU_Node@?$_Tree_nod@V?$_Tmap_traits@V?$basic_string@_WU?$char_traits@_W@std@@V?$K2StringAllocator@_W@@@std@@V12@U?$less@V?$basic_string@_WU?$char_traits@_W@std@@V?$K2StringAllocator@_W@@@std@@@2@V?$K2MapAllocator@U?$pair@$$CBV?$basic_string@_WU?$char_traits@_W@std@@V?$K2StringAllocator@_W@@@std@@V12@@std@@@@$0A@@std@@@std@@@std@@QAE@XZ 210f68d0 f i c_gameserver.obj
 0002:000738f0       ??0?$map@GV?$basic_string@_WU?$char_traits@_W@std@@V?$K2StringAllocator@_W@@@std@@U?$less@G@2@V?$K2MapAllocator@U?$pair@$$CBGV?$basic_string@_WU?$char_traits@_W@std@@V?$K2StringAllocator@_W@@@std@@@std@@@@@@QAE@XZ 210f68f0 f i c_gameserver.obj
 0002:00073920       ??1?$_Tree@V?$_Tmap_traits@GV?$basic_string@_WU?$char_traits@_W@std@@V?$K2StringAllocator@_W@@@std@@U?$less@G@2@V?$K2MapAllocator@U?$pair@$$CBGV?$basic_string@_WU?$char_traits@_W@std@@V?$K2StringAllocator@_W@@@std@@@std@@@@$0A@@std@@@std@@QAE@XZ 210f6920 f i c_gameserver.obj
 0002:000739a0       ?begin@?$_Tree@V?$_Tmap_traits@GV?$basic_string@_WU?$char_traits@_W@std@@V?$K2StringAllocator@_W@@@std@@U?$less@G@2@V?$K2MapAllocator@U?$pair@$$CBGV?$basic_string@_WU?$char_traits@_W@std@@V?$K2StringAllocator@_W@@@std@@@std@@@@$0A@@std@@@std@@QAE?AViterator@12@XZ 210f69a0 f i c_gameserver.obj
 0002:000739f0       ?end@?$_Tree@V?$_Tmap_traits@GV?$basic_string@_WU?$char_traits@_W@std@@V?$K2StringAllocator@_W@@@std@@U?$less@G@2@V?$K2MapAllocator@U?$pair@$$CBGV?$basic_string@_WU?$char_traits@_W@std@@V?$K2StringAllocator@_W@@@std@@@std@@@@$0A@@std@@@std@@QAE?AViterator@12@XZ 210f69f0 f i c_gameserver.obj
 0002:00073a40       ??Y?$basic_string@DU?$char_traits@D@std@@V?$K2StringAllocator@D@@@std@@QAEAAV01@ABV01@@Z 210f6a40 f i c_gameserver.obj
 0002:00073a70       ??D?$_Vector_iterator@V?$basic_string@_WU?$char_traits@_W@std@@V?$K2StringAllocator@_W@@@std@@V?$K2VectorAllocator@V?$basic_string@_WU?$char_traits@_W@std@@V?$K2StringAllocator@_W@@@std@@@@@std@@QBEAAV?$basic_string@_WU?$char_traits@_W@std@@V?$K2StringAllocator@_W@@@1@XZ 210f6a70 f i c_gameserver.obj
 0002:00073aa0       ??C?$_Vector_iterator@V?$basic_string@_WU?$char_traits@_W@std@@V?$K2StringAllocator@_W@@@std@@V?$K2VectorAllocator@V?$basic_string@_WU?$char_traits@_W@std@@V?$K2StringAllocator@_W@@@std@@@@@std@@QBEPAV?$basic_string@_WU?$char_traits@_W@std@@V?$K2StringAllocator@_W@@@1@XZ 210f6aa0 f i c_gameserver.obj
 0002:00073ad0       ??E?$_Vector_iterator@V?$basic_string@_WU?$char_traits@_W@std@@V?$K2StringAllocator@_W@@@std@@V?$K2VectorAllocator@V?$basic_string@_WU?$char_traits@_W@std@@V?$K2StringAllocator@_W@@@std@@@@@std@@QAEAAV01@XZ 210f6ad0 f i c_gameserver.obj
 0002:00073b00       ??E?$_Vector_const_iterator@V?$basic_string@_WU?$char_traits@_W@std@@V?$K2StringAllocator@_W@@@std@@V?$K2VectorAllocator@V?$basic_string@_WU?$char_traits@_W@std@@V?$K2StringAllocator@_W@@@std@@@@@std@@QAEAAV01@XZ 210f6b00 f i c_gameserver.obj
 0002:00073bf0       ??1?$CRect@H@@QAE@XZ       210f6bf0 f i c_gameserver.obj
 0002:00073c10       ??0?$CRect@H@@QAE@HHHH@Z   210f6c10 f i c_gameserver.obj
 0002:00073c60       ?GetWidth@?$CRect@H@@QBEHXZ 210f6c60 f i c_gameserver.obj
 0002:00073c90       ??B?$CRect@H@@QAE?AV?$CRect@I@@XZ 210f6c90 f i c_gameserver.obj
 0002:00073cf0       ??D?$_String_const_iterator@_WU?$char_traits@_W@std@@V?$K2StringAllocator@_W@@@std@@QBEAB_WXZ 210f6cf0 f i c_gameserver.obj
 0002:00073dd0       ??E?$_String_const_iterator@_WU?$char_traits@_W@std@@V?$K2StringAllocator@_W@@@std@@QAEAAV01@XZ 210f6dd0 f i c_gameserver.obj
 0002:00073ef0       ??8?$_String_const_iterator@_WU?$char_traits@_W@std@@V?$K2StringAllocator@_W@@@std@@QBE_NABV01@@Z 210f6ef0 f i c_gameserver.obj
 0002:00073f30       ??9?$_String_const_iterator@_WU?$char_traits@_W@std@@V?$K2StringAllocator@_W@@@std@@QBE_NABV01@@Z 210f6f30 f i c_gameserver.obj
 0002:00073f70       ?GetValue@?$CCvar@II@@QBEIXZ 210f6f70 f i c_gameserver.obj
 0002:00073fa0       ??A?$map@HPAVCPlayer@@U?$less@H@std@@V?$K2MapAllocator@U?$pair@$$CBHPAVCPlayer@@@std@@@@@std@@QAEAAPAVCPlayer@@ABH@Z 210f6fa0 f i c_gameserver.obj
 0002:000741b0       ?begin@?$_Tree@V?$_Tmap_traits@HPAVCPlayer@@U?$less@H@std@@V?$K2MapAllocator@U?$pair@$$CBHPAVCPlayer@@@std@@@@$0A@@std@@@std@@QBE?AVconst_iterator@12@XZ 210f71b0 f i c_gameserver.obj
 0002:00074200       ?end@?$_Tree@V?$_Tmap_traits@HPAVCPlayer@@U?$less@H@std@@V?$K2MapAllocator@U?$pair@$$CBHPAVCPlayer@@@std@@@@$0A@@std@@@std@@QBE?AVconst_iterator@12@XZ 210f7200 f i c_gameserver.obj
 0002:00074250       ?size@?$_Tree@V?$_Tmap_traits@HPAVCPlayer@@U?$less@H@std@@V?$K2MapAllocator@U?$pair@$$CBHPAVCPlayer@@@std@@@@$0A@@std@@@std@@QBEIXZ 210f7250 f i c_gameserver.obj
 0002:00074270       ??0?$allocator@U_Node@?$_Tree_nod@V?$_Tmap_traits@HPAVCPlayer@@U?$less@H@std@@V?$K2MapAllocator@U?$pair@$$CBHPAVCPlayer@@@std@@@@$0A@@std@@@std@@@std@@QAE@XZ 210f7270 f i c_gameserver.obj
 0002:00074290       ??0?$allocator@PAU_Node@?$_Tree_nod@V?$_Tmap_traits@HPAVCPlayer@@U?$less@H@std@@V?$K2MapAllocator@U?$pair@$$CBHPAVCPlayer@@@std@@@@$0A@@std@@@std@@@std@@QAE@XZ 210f7290 f i c_gameserver.obj
 0002:000742b0       ??0?$vector@U?$pair@GE@std@@V?$K2VectorAllocator@U?$pair@GE@std@@@@@@QAE@XZ 210f72b0 f i c_gameserver.obj
 0002:000742e0       ??1?$vector@U?$pair@GE@std@@V?$K2VectorAllocator@U?$pair@GE@std@@@@@std@@QAE@XZ 210f72e0 f i c_gameserver.obj
 0002:00074360       ?begin@?$vector@U?$pair@GE@std@@V?$K2VectorAllocator@U?$pair@GE@std@@@@@std@@QAE?AV?$_Vector_iterator@U?$pair@GE@std@@V?$K2VectorAllocator@U?$pair@GE@std@@@@@2@XZ 210f7360 f i c_gameserver.obj
 0002:000743b0       ?end@?$vector@U?$pair@GE@std@@V?$K2VectorAllocator@U?$pair@GE@std@@@@@std@@QAE?AV?$_Vector_iterator@U?$pair@GE@std@@V?$K2VectorAllocator@U?$pair@GE@std@@@@@2@XZ 210f73b0 f i c_gameserver.obj
 0002:00074400       ?push_back@?$vector@U?$pair@GE@std@@V?$K2VectorAllocator@U?$pair@GE@std@@@@@std@@QAEXABU?$pair@GE@2@@Z 210f7400 f i c_gameserver.obj
 0002:000744b0       ?clear@?$vector@U?$pair@GE@std@@V?$K2VectorAllocator@U?$pair@GE@std@@@@@std@@QAEXXZ 210f74b0 f i c_gameserver.obj
 0002:00074570       ?begin@?$_Tree@V?$_Tmap_traits@IPAVCWorldLight@@U?$less@I@std@@V?$K2MapAllocator@U?$pair@$$CBIPAVCWorldLight@@@std@@@@$0A@@std@@@std@@QAE?AViterator@12@XZ 210f7570 f i c_gameserver.obj
 0002:000745c0       ?end@?$_Tree@V?$_Tmap_traits@IPAVCWorldLight@@U?$less@I@std@@V?$K2MapAllocator@U?$pair@$$CBIPAVCWorldLight@@@std@@@@$0A@@std@@@std@@QAE?AViterator@12@XZ 210f75c0 f i c_gameserver.obj
 0002:00074610       ??Citerator@?$_Tree@V?$_Tmap_traits@V?$basic_string@_WU?$char_traits@_W@std@@V?$K2StringAllocator@_W@@@std@@V12@U?$less@V?$basic_string@_WU?$char_traits@_W@std@@V?$K2StringAllocator@_W@@@std@@@2@V?$K2MapAllocator@U?$pair@$$CBV?$basic_string@_WU?$char_traits@_W@std@@V?$K2StringAllocator@_W@@@std@@V12@@std@@@@$0A@@std@@@std@@QBEPAU?$pair@$$CBV?$basic_string@_WU?$char_traits@_W@std@@V?$K2StringAllocator@_W@@@std@@V12@@2@XZ 210f7610 f i c_gameserver.obj
 0002:00074640       ?size@?$_Tree@V?$_Tmap_traits@IPAVIGameEntity@@U?$less@I@std@@V?$K2MapAllocator@U?$pair@$$CBIPAVIGameEntity@@@std@@@@$0A@@std@@@std@@QBEIXZ 210f7640 f i c_gameserver.obj
 0002:00074660       ?begin@?$list@PAVIUnitEntity@@V?$K2ListAllocator@PAVIUnitEntity@@@@@std@@QBE?AV?$_Const_iterator@$00@12@XZ 210f7660 f i c_gameserver.obj
 0002:000746c0       ?end@?$list@PAVIUnitEntity@@V?$K2ListAllocator@PAVIUnitEntity@@@@@std@@QBE?AV?$_Const_iterator@$00@12@XZ 210f76c0 f i c_gameserver.obj
 0002:00074710       ??Dconst_iterator@?$_Tree@V?$_Tset_traits@IU?$less@I@std@@V?$K2SetAllocator@I@@$0A@@std@@@std@@QBEABIXZ 210f7710 f i c_gameserver.obj
 0002:000747d0       ??Econst_iterator@?$_Tree@V?$_Tset_traits@IU?$less@I@std@@V?$K2SetAllocator@I@@$0A@@std@@@std@@QAEAAV012@XZ 210f77d0 f i c_gameserver.obj
 0002:00074800       ??9const_iterator@?$_Tree@V?$_Tset_traits@IU?$less@I@std@@V?$K2SetAllocator@I@@$0A@@std@@@std@@QBE_NABV012@@Z 210f7800 f i c_gameserver.obj
 0002:00074840       ?GetNumAllocated@?$CRecyclePool@VCEntitySnapshot@@@@QAEIXZ 210f7840 f i c_gameserver.obj
 0002:00074880       ?size@?$deque@IV?$K2DequeAllocator@I@@@std@@QBEIXZ 210f7880 f i c_gameserver.obj
 0002:000748a0       ??0?$_Tree@V?$_Tmap_traits@IPAVCTeamInfo@@U?$less@I@std@@V?$K2MapAllocator@U?$pair@$$CBIPAVCTeamInfo@@@std@@@@$0A@@std@@@std@@QAE@ABV01@@Z 210f78a0 f i c_gameserver.obj
 0002:000749b0       ?begin@?$_Tree@V?$_Tmap_traits@IPAVCTeamInfo@@U?$less@I@std@@V?$K2MapAllocator@U?$pair@$$CBIPAVCTeamInfo@@@std@@@@$0A@@std@@@std@@QBE?AVconst_iterator@12@XZ 210f79b0 f i c_gameserver.obj
 0002:00074a00       ??0?$allocator@U_Node@?$_Tree_nod@V?$_Tmap_traits@IPAVCTeamInfo@@U?$less@I@std@@V?$K2MapAllocator@U?$pair@$$CBIPAVCTeamInfo@@@std@@@@$0A@@std@@@std@@@std@@QAE@XZ 210f7a00 f i c_gameserver.obj
 0002:00074a20       ??0?$allocator@PAU_Node@?$_Tree_nod@V?$_Tmap_traits@IPAVCTeamInfo@@U?$less@I@std@@V?$K2MapAllocator@U?$pair@$$CBIPAVCTeamInfo@@@std@@@@$0A@@std@@@std@@@std@@QAE@XZ 210f7a20 f i c_gameserver.obj
 0002:00074a40       ?begin@?$vector@GV?$K2VectorAllocator@G@@@std@@QAE?AV?$_Vector_iterator@GV?$K2VectorAllocator@G@@@2@XZ 210f7a40 f i c_gameserver.obj
 0002:00074a90       ?end@?$vector@GV?$K2VectorAllocator@G@@@std@@QAE?AV?$_Vector_iterator@GV?$K2VectorAllocator@G@@@2@XZ 210f7a90 f i c_gameserver.obj
 0002:00074ae0       ?resize@?$vector@GV?$K2VectorAllocator@G@@@std@@QAEXI@Z 210f7ae0 f i c_gameserver.obj
 0002:00074b10       ?size@?$vector@GV?$K2VectorAllocator@G@@@std@@QBEIXZ 210f7b10 f i c_gameserver.obj
 0002:00074b60       ?empty@?$vector@GV?$K2VectorAllocator@G@@@std@@QBE_NXZ 210f7b60 f i c_gameserver.obj
 0002:00074b90       ??A?$vector@GV?$K2VectorAllocator@G@@@std@@QAEAAGI@Z 210f7b90 f i c_gameserver.obj
 0002:00074cb0       ?push_back@?$vector@GV?$K2VectorAllocator@G@@@std@@QAEXABG@Z 210f7cb0 f i c_gameserver.obj
 0002:00074d60       ?clear@?$vector@GV?$K2VectorAllocator@G@@@std@@QAEXXZ 210f7d60 f i c_gameserver.obj
 0002:00074e20       ??Econst_iterator@?$_Tree@V?$_Tmap_traits@IPAVCTeamInfo@@U?$less@I@std@@V?$K2MapAllocator@U?$pair@$$CBIPAVCTeamInfo@@@std@@@@$0A@@std@@@std@@QAE?AV012@H@Z 210f7e20 f i c_gameserver.obj
 0002:00074ed0       ??Cconst_iterator@?$_Tree@V?$_Tmap_traits@HPAVCPlayer@@U?$less@H@std@@V?$K2MapAllocator@U?$pair@$$CBHPAVCPlayer@@@std@@@@$0A@@std@@@std@@QBEPBU?$pair@$$CBHPAVCPlayer@@@2@XZ 210f7ed0 f i c_gameserver.obj
 0002:00074f00       ??D?$_Vector_iterator@IV?$K2VectorAllocator@I@@@std@@QBEAAIXZ 210f7f00 f i c_gameserver.obj
 0002:00074f30       ??E?$_Vector_iterator@IV?$K2VectorAllocator@I@@@std@@QAEAAV01@XZ 210f7f30 f i c_gameserver.obj
 0002:00074f60       ??1?$vector@VCPHPData@@V?$K2VectorAllocator@VCPHPData@@@@@std@@QAE@XZ 210f7f60 f i c_gameserver.obj
 0002:00074fe0       ?begin@?$vector@VCPHPData@@V?$K2VectorAllocator@VCPHPData@@@@@std@@QBE?AV?$_Vector_const_iterator@VCPHPData@@V?$K2VectorAllocator@VCPHPData@@@@@2@XZ 210f7fe0 f i c_gameserver.obj
 0002:00075030       ?end@?$vector@VCPHPData@@V?$K2VectorAllocator@VCPHPData@@@@@std@@QBE?AV?$_Vector_const_iterator@VCPHPData@@V?$K2VectorAllocator@VCPHPData@@@@@2@XZ 210f8030 f i c_gameserver.obj
 0002:00075080       ?size@?$vector@VCPHPData@@V?$K2VectorAllocator@VCPHPData@@@@@std@@QBEIXZ 210f8080 f i c_gameserver.obj
 0002:000750d0       ??A?$vector@VCPHPData@@V?$K2VectorAllocator@VCPHPData@@@@@std@@QBEABVCPHPData@@I@Z 210f80d0 f i c_gameserver.obj
 0002:000751f0       ??D?$_Vector_const_iterator@VCPHPData@@V?$K2VectorAllocator@VCPHPData@@@@@std@@QBEABVCPHPData@@XZ 210f81f0 f i c_gameserver.obj
 0002:000752b0       ??C?$_Vector_const_iterator@VCPHPData@@V?$K2VectorAllocator@VCPHPData@@@@@std@@QBEPBVCPHPData@@XZ 210f82b0 f i c_gameserver.obj
 0002:000752e0       ??E?$_Vector_const_iterator@VCPHPData@@V?$K2VectorAllocator@VCPHPData@@@@@std@@QAEAAV01@XZ 210f82e0 f i c_gameserver.obj
 0002:000753d0       ??9?$_Vector_const_iterator@VCPHPData@@V?$K2VectorAllocator@VCPHPData@@@@@std@@QBE_NABV01@@Z 210f83d0 f i c_gameserver.obj
 0002:00075410       ??1?$vector@VCLastGameInfo@CPlayerAccountHistory@@V?$K2VectorAllocator@VCLastGameInfo@CPlayerAccountHistory@@@@@std@@QAE@XZ 210f8410 f i c_gameserver.obj
 0002:00075490       ??1?$vector@VCFavHeroes@CPlayerAccountHistory@@V?$K2VectorAllocator@VCFavHeroes@CPlayerAccountHistory@@@@@std@@QAE@XZ 210f8490 f i c_gameserver.obj
 0002:00075510       ?push_back@?$vector@U?$pair@V?$basic_string@DU?$char_traits@D@std@@V?$K2StringAllocator@D@@@std@@V12@@std@@V?$K2VectorAllocator@U?$pair@V?$basic_string@DU?$char_traits@D@std@@V?$K2StringAllocator@D@@@std@@V12@@std@@@@@std@@QAEXABU?$pair@V?$basic_string@DU?$char_traits@D@std@@V?$K2StringAllocator@D@@@std@@V12@@2@@Z 210f8510 f i c_gameserver.obj
 0002:000755c0       ?size@?$vector@U?$pair@V?$basic_string@DU?$char_traits@D@std@@V?$K2StringAllocator@D@@@std@@V12@@std@@V?$K2VectorAllocator@U?$pair@V?$basic_string@DU?$char_traits@D@std@@V?$K2StringAllocator@D@@@std@@V12@@std@@@@@std@@QBEIXZ 210f85c0 f i c_gameserver.obj
 0002:00075610       ?clear@?$vector@U?$pair@V?$basic_string@DU?$char_traits@D@std@@V?$K2StringAllocator@D@@@std@@V12@@std@@V?$K2VectorAllocator@U?$pair@V?$basic_string@DU?$char_traits@D@std@@V?$K2StringAllocator@D@@@std@@V12@@std@@@@@std@@QAEXXZ 210f8610 f i c_gameserver.obj
 0002:000756d0       ??0?$pair@V?$basic_string@DU?$char_traits@D@std@@V?$K2StringAllocator@D@@@std@@V12@@std@@QAE@ABV?$basic_string@DU?$char_traits@D@std@@V?$K2StringAllocator@D@@@1@0@Z 210f86d0 f i c_gameserver.obj
 0002:00075760       ?size@?$vector@USSmackdownEntry@CGameStats@@V?$K2VectorAllocator@USSmackdownEntry@CGameStats@@@@@std@@QBEIXZ 210f8760 f i c_gameserver.obj
 0002:000757b0       ?push_back@?$vector@USSmackdownEntry@CGameStats@@V?$K2VectorAllocator@USSmackdownEntry@CGameStats@@@@@std@@QAEXABUSSmackdownEntry@CGameStats@@@Z 210f87b0 f i c_gameserver.obj
 0002:00075860       ?size@?$vector@USHumiliationEntry@CGameStats@@V?$K2VectorAllocator@USHumiliationEntry@CGameStats@@@@@std@@QBEIXZ 210f8860 f i c_gameserver.obj
 0002:000758b0       ?push_back@?$vector@USHumiliationEntry@CGameStats@@V?$K2VectorAllocator@USHumiliationEntry@CGameStats@@@@@std@@QAEXABUSHumiliationEntry@CGameStats@@@Z 210f88b0 f i c_gameserver.obj
 0002:00075960       ?push_back@?$vector@USRivalEntry@CGameStats@@V?$K2VectorAllocator@USRivalEntry@CGameStats@@@@@std@@QAEXABUSRivalEntry@CGameStats@@@Z 210f8960 f i c_gameserver.obj
 0002:00075a10       ?size@?$vector@USPaybackEntry@CGameStats@@V?$K2VectorAllocator@USPaybackEntry@CGameStats@@@@@std@@QBEIXZ 210f8a10 f i c_gameserver.obj
 0002:00075a60       ?push_back@?$vector@USPaybackEntry@CGameStats@@V?$K2VectorAllocator@USPaybackEntry@CGameStats@@@@@std@@QAEXABUSPaybackEntry@CGameStats@@@Z 210f8a60 f i c_gameserver.obj
 0002:00075b10       ?begin@?$vector@USAbilityUpgradeEntry@CGameStats@@V?$K2VectorAllocator@USAbilityUpgradeEntry@CGameStats@@@@@std@@QBE?AV?$_Vector_const_iterator@USAbilityUpgradeEntry@CGameStats@@V?$K2VectorAllocator@USAbilityUpgradeEntry@CGameStats@@@@@2@XZ 210f8b10 f i c_gameserver.obj
 0002:00075b60       ?end@?$vector@USAbilityUpgradeEntry@CGameStats@@V?$K2VectorAllocator@USAbilityUpgradeEntry@CGameStats@@@@@std@@QBE?AV?$_Vector_const_iterator@USAbilityUpgradeEntry@CGameStats@@V?$K2VectorAllocator@USAbilityUpgradeEntry@CGameStats@@@@@2@XZ 210f8b60 f i c_gameserver.obj
 0002:00075bb0       ?push_back@?$vector@USAbilityUpgradeEntry@CGameStats@@V?$K2VectorAllocator@USAbilityUpgradeEntry@CGameStats@@@@@std@@QAEXABUSAbilityUpgradeEntry@CGameStats@@@Z 210f8bb0 f i c_gameserver.obj
 0002:00075c60       ?begin@?$vector@USItemHistoryEntry@CGameStats@@V?$K2VectorAllocator@USItemHistoryEntry@CGameStats@@@@@std@@QBE?AV?$_Vector_const_iterator@USItemHistoryEntry@CGameStats@@V?$K2VectorAllocator@USItemHistoryEntry@CGameStats@@@@@2@XZ 210f8c60 f i c_gameserver.obj
 0002:00075cb0       ?end@?$vector@USItemHistoryEntry@CGameStats@@V?$K2VectorAllocator@USItemHistoryEntry@CGameStats@@@@@std@@QBE?AV?$_Vector_const_iterator@USItemHistoryEntry@CGameStats@@V?$K2VectorAllocator@USItemHistoryEntry@CGameStats@@@@@2@XZ 210f8cb0 f i c_gameserver.obj
 0002:00075d00       ?push_back@?$vector@USItemHistoryEntry@CGameStats@@V?$K2VectorAllocator@USItemHistoryEntry@CGameStats@@@@@std@@QAEXABUSItemHistoryEntry@CGameStats@@@Z 210f8d00 f i c_gameserver.obj
 0002:00075db0       ?push_back@?$vector@USHeroKillHistoryEvent@CGameStats@@V?$K2VectorAllocator@USHeroKillHistoryEvent@CGameStats@@@@@std@@QAEXABUSHeroKillHistoryEvent@CGameStats@@@Z 210f8db0 f i c_gameserver.obj
 0002:00075e60       ?push_back@?$vector@U?$pair@IH@std@@V?$K2VectorAllocator@U?$pair@IH@std@@@@@std@@QAEXABU?$pair@IH@2@@Z 210f8e60 f i c_gameserver.obj
 0002:00075f10       ??0?$pair@IH@std@@QAE@ABIABH@Z 210f8f10 f i c_gameserver.obj
 0002:00075f50       ??0?$vector@USGuestEntry@@V?$K2VectorAllocator@USGuestEntry@@@@@@QAE@XZ 210f8f50 f i c_gameserver.obj
 0002:00075f80       ??1?$vector@USGuestEntry@@V?$K2VectorAllocator@USGuestEntry@@@@@std@@QAE@XZ 210f8f80 f i c_gameserver.obj
 0002:00076000       ?clear@?$vector@USGuestEntry@@V?$K2VectorAllocator@USGuestEntry@@@@@std@@QAEXXZ 210f9000 f i c_gameserver.obj
 0002:000760c0       ??0?$map@HVCPlayerAccountStats@@U?$less@H@std@@V?$K2MapAllocator@U?$pair@$$CBHVCPlayerAccountStats@@@std@@@@@@QAE@XZ 210f90c0 f i c_gameserver.obj
 0002:000760f0       ??A?$map@HVCPlayerAccountStats@@U?$less@H@std@@V?$K2MapAllocator@U?$pair@$$CBHVCPlayerAccountStats@@@std@@@@@std@@QAEAAVCPlayerAccountStats@@ABH@Z 210f90f0 f i c_gameserver.obj
 0002:00076380       ??0CPlayerAccountStats@@QAE@XZ 210f9380 f i c_gameserver.obj
 0002:000764c0       ??0CStats@CPlayerAccountStats@@QAE@XZ 210f94c0 f i c_gameserver.obj
 0002:000765c0       ??1?$_Tree@V?$_Tmap_traits@HVCPlayerAccountStats@@U?$less@H@std@@V?$K2MapAllocator@U?$pair@$$CBHVCPlayerAccountStats@@@std@@@@$0A@@std@@@std@@QAE@XZ 210f95c0 f i c_gameserver.obj
 0002:00076640       ?end@?$_Tree@V?$_Tmap_traits@HVCPlayerAccountStats@@U?$less@H@std@@V?$K2MapAllocator@U?$pair@$$CBHVCPlayerAccountStats@@@std@@@@$0A@@std@@@std@@QAE?AViterator@12@XZ 210f9640 f i c_gameserver.obj
 0002:00076690       ?find@?$_Tree@V?$_Tmap_traits@HVCPlayerAccountStats@@U?$less@H@std@@V?$K2MapAllocator@U?$pair@$$CBHVCPlayerAccountStats@@@std@@@@$0A@@std@@@std@@QAE?AViterator@12@ABH@Z 210f9690 f i c_gameserver.obj
 0002:00076870       ??0iterator@?$_Tree@V?$_Tmap_traits@HVCPlayerAccountStats@@U?$less@H@std@@V?$K2MapAllocator@U?$pair@$$CBHVCPlayerAccountStats@@@std@@@@$0A@@std@@@std@@QAE@XZ 210f9870 f i c_gameserver.obj
 0002:000768a0       ??Citerator@?$_Tree@V?$_Tmap_traits@HVCPlayerAccountStats@@U?$less@H@std@@V?$K2MapAllocator@U?$pair@$$CBHVCPlayerAccountStats@@@std@@@@$0A@@std@@@std@@QBEPAU?$pair@$$CBHVCPlayerAccountStats@@@2@XZ 210f98a0 f i c_gameserver.obj
 0002:000768d0       ??8const_iterator@?$_Tree@V?$_Tmap_traits@HVCPlayerAccountStats@@U?$less@H@std@@V?$K2MapAllocator@U?$pair@$$CBHVCPlayerAccountStats@@@std@@@@$0A@@std@@@std@@QBE_NABV012@@Z 210f98d0 f i c_gameserver.obj
 0002:00076990       ??9const_iterator@?$_Tree@V?$_Tmap_traits@HVCPlayerAccountStats@@U?$less@H@std@@V?$K2MapAllocator@U?$pair@$$CBHVCPlayerAccountStats@@@std@@@@$0A@@std@@@std@@QBE_NABV012@@Z 210f9990 f i c_gameserver.obj
 0002:000769d0       ??0?$vector@USMatchKillEntry@@V?$K2VectorAllocator@USMatchKillEntry@@@@@@QAE@XZ 210f99d0 f i c_gameserver.obj
 0002:00076a00       ??1?$vector@USMatchKillEntry@@V?$K2VectorAllocator@USMatchKillEntry@@@@@std@@QAE@XZ 210f9a00 f i c_gameserver.obj
 0002:00076a80       ?begin@?$vector@USMatchKillEntry@@V?$K2VectorAllocator@USMatchKillEntry@@@@@std@@QAE?AV?$_Vector_iterator@USMatchKillEntry@@V?$K2VectorAllocator@USMatchKillEntry@@@@@2@XZ 210f9a80 f i c_gameserver.obj
 0002:00076ad0       ?end@?$vector@USMatchKillEntry@@V?$K2VectorAllocator@USMatchKillEntry@@@@@std@@QAE?AV?$_Vector_iterator@USMatchKillEntry@@V?$K2VectorAllocator@USMatchKillEntry@@@@@2@XZ 210f9ad0 f i c_gameserver.obj
 0002:00076b20       ?push_back@?$vector@USMatchKillEntry@@V?$K2VectorAllocator@USMatchKillEntry@@@@@std@@QAEXABUSMatchKillEntry@@@Z 210f9b20 f i c_gameserver.obj
 0002:00076bd0       ?clear@?$vector@USMatchKillEntry@@V?$K2VectorAllocator@USMatchKillEntry@@@@@std@@QAEXXZ 210f9bd0 f i c_gameserver.obj
 0002:00076c90       ??0?$vector@USDelayedMessage@CGameServer@@V?$K2VectorAllocator@USDelayedMessage@CGameServer@@@@@@QAE@XZ 210f9c90 f i c_gameserver.obj
 0002:00076cc0       ??1?$vector@USDelayedMessage@CGameServer@@V?$K2VectorAllocator@USDelayedMessage@CGameServer@@@@@std@@QAE@XZ 210f9cc0 f i c_gameserver.obj
 0002:00076d40       ?begin@?$vector@USDelayedMessage@CGameServer@@V?$K2VectorAllocator@USDelayedMessage@CGameServer@@@@@std@@QAE?AV?$_Vector_iterator@USDelayedMessage@CGameServer@@V?$K2VectorAllocator@USDelayedMessage@CGameServer@@@@@2@XZ 210f9d40 f i c_gameserver.obj
 0002:00076d90       ?end@?$vector@USDelayedMessage@CGameServer@@V?$K2VectorAllocator@USDelayedMessage@CGameServer@@@@@std@@QAE?AV?$_Vector_iterator@USDelayedMessage@CGameServer@@V?$K2VectorAllocator@USDelayedMessage@CGameServer@@@@@2@XZ 210f9d90 f i c_gameserver.obj
 0002:00076de0       ?push_back@?$vector@USDelayedMessage@CGameServer@@V?$K2VectorAllocator@USDelayedMessage@CGameServer@@@@@std@@QAEXABUSDelayedMessage@CGameServer@@@Z 210f9de0 f i c_gameserver.obj
 0002:00076e90       ?erase@?$vector@USDelayedMessage@CGameServer@@V?$K2VectorAllocator@USDelayedMessage@CGameServer@@@@@std@@QAE?AV?$_Vector_iterator@USDelayedMessage@CGameServer@@V?$K2VectorAllocator@USDelayedMessage@CGameServer@@@@@2@V32@@Z 210f9e90 f i c_gameserver.obj
 0002:00076fd0       ?begin@?$_Tree@V?$_Tmap_traits@IVCBufferDynamic@@U?$less@I@std@@V?$K2MapAllocator@U?$pair@$$CBIVCBufferDynamic@@@std@@@@$0A@@std@@@std@@QAE?AViterator@12@XZ 210f9fd0 f i c_gameserver.obj
 0002:00077020       ?end@?$_Tree@V?$_Tmap_traits@IVCBufferDynamic@@U?$less@I@std@@V?$K2MapAllocator@U?$pair@$$CBIVCBufferDynamic@@@std@@@@$0A@@std@@@std@@QAE?AViterator@12@XZ 210fa020 f i c_gameserver.obj
 0002:00077070       ?begin@?$_Tree@V?$_Tmap_traits@IV?$basic_string@DU?$char_traits@D@std@@V?$K2StringAllocator@D@@@std@@U?$less@I@2@V?$K2MapAllocator@U?$pair@$$CBIV?$basic_string@DU?$char_traits@D@std@@V?$K2StringAllocator@D@@@std@@@std@@@@$0A@@std@@@std@@QAE?AViterator@12@XZ 210fa070 f i c_gameserver.obj
 0002:000770c0       ?end@?$_Tree@V?$_Tmap_traits@IV?$basic_string@DU?$char_traits@D@std@@V?$K2StringAllocator@D@@@std@@U?$less@I@2@V?$K2MapAllocator@U?$pair@$$CBIV?$basic_string@DU?$char_traits@D@std@@V?$K2StringAllocator@D@@@std@@@std@@@@$0A@@std@@@std@@QAE?AViterator@12@XZ 210fa0c0 f i c_gameserver.obj
 0002:00077110       ??1?$const_string@_WU?$char_traits@_W@std@@V?$K2StringAllocator@_W@@@@QAE@XZ 210fa110 f i c_gameserver.obj
 0002:00077140       ??0?$const_string@_WU?$char_traits@_W@std@@V?$K2StringAllocator@_W@@@@QAE@QB_WI@Z 210fa140 f i c_gameserver.obj
 0002:000771a0       ??A?$map@HPAVCClientConnection@@U?$less@H@std@@V?$K2MapAllocator@U?$pair@$$CBHPAVCClientConnection@@@std@@@@@std@@QAEAAPAVCClientConnection@@ABH@Z 210fa1a0 f i c_gameserver.obj
 0002:000773b0       ?begin@?$_Tree@V?$_Tmap_traits@HPAVCClientConnection@@U?$less@H@std@@V?$K2MapAllocator@U?$pair@$$CBHPAVCClientConnection@@@std@@@@$0A@@std@@@std@@QAE?AViterator@12@XZ 210fa3b0 f i c_gameserver.obj
 0002:00077400       ?end@?$_Tree@V?$_Tmap_traits@HPAVCClientConnection@@U?$less@H@std@@V?$K2MapAllocator@U?$pair@$$CBHPAVCClientConnection@@@std@@@@$0A@@std@@@std@@QAE?AViterator@12@XZ 210fa400 f i c_gameserver.obj
 0002:00077450       ?erase@?$_Tree@V?$_Tmap_traits@HPAVCClientConnection@@U?$less@H@std@@V?$K2MapAllocator@U?$pair@$$CBHPAVCClientConnection@@@std@@@@$0A@@std@@@std@@QAE?AViterator@12@V312@@Z 210fa450 f i c_gameserver.obj
 0002:00077e30       ?find@?$_Tree@V?$_Tmap_traits@HPAVCClientConnection@@U?$less@H@std@@V?$K2MapAllocator@U?$pair@$$CBHPAVCClientConnection@@@std@@@@$0A@@std@@@std@@QAE?AViterator@12@ABH@Z 210fae30 f i c_gameserver.obj
 0002:00078010       ?end@?$_Tree@V?$_Tmap_traits@IUSRosterEntty@CHostServer@@U?$less@I@std@@V?$K2MapAllocator@U?$pair@$$CBIUSRosterEntty@CHostServer@@@std@@@@$0A@@std@@@std@@QBE?AVconst_iterator@12@XZ 210fb010 f i c_gameserver.obj
 0002:00078060       ?find@?$_Tree@V?$_Tmap_traits@IUSRosterEntty@CHostServer@@U?$less@I@std@@V?$K2MapAllocator@U?$pair@$$CBIUSRosterEntty@CHostServer@@@std@@@@$0A@@std@@@std@@QBE?AVconst_iterator@12@ABI@Z 210fb060 f i c_gameserver.obj
 0002:00078240       ??Cconst_iterator@?$_Tree@V?$_Tmap_traits@IUSRosterEntty@CHostServer@@U?$less@I@std@@V?$K2MapAllocator@U?$pair@$$CBIUSRosterEntty@CHostServer@@@std@@@@$0A@@std@@@std@@QBEPBU?$pair@$$CBIUSRosterEntty@CHostServer@@@2@XZ 210fb240 f i c_gameserver.obj
 0002:00078270       ??8const_iterator@?$_Tree@V?$_Tmap_traits@IUSRosterEntty@CHostServer@@U?$less@I@std@@V?$K2MapAllocator@U?$pair@$$CBIUSRosterEntty@CHostServer@@@std@@@@$0A@@std@@@std@@QBE_NABV012@@Z 210fb270 f i c_gameserver.obj
 0002:00078330       ?GetValue@?$CArrayCvar@I@@QBEII@Z 210fb330 f i c_gameserver.obj
 0002:00078470       ?AtoX@@YAAAIABV?$basic_string@DU?$char_traits@D@std@@V?$K2StringAllocator@D@@@std@@AAI@Z 210fb470 f i c_gameserver.obj
 0002:000784b0       ?empty@?$vector@IV?$K2VectorAllocator@I@@@std@@QBE_NXZ 210fb4b0 f i c_gameserver.obj
 0002:000784e0       ??A?$vector@IV?$K2VectorAllocator@I@@@std@@QBEABII@Z 210fb4e0 f i c_gameserver.obj
 0002:00078600       ?GetSize@?$CArrayCvar@I@@QBEIXZ 210fb600 f i c_gameserver.obj
 0002:00078630       ?end@?$_Tree@V?$_Tmap_traits@V?$basic_string@_WU?$char_traits@_W@std@@V?$K2StringAllocator@_W@@@std@@USResContext@CResourceInfo@@U?$less@V?$basic_string@_WU?$char_traits@_W@std@@V?$K2StringAllocator@_W@@@std@@@2@V?$K2MapAllocator@U?$pair@$$CBV?$basic_string@_WU?$char_traits@_W@std@@V?$K2StringAllocator@_W@@@std@@USResContext@CResourceInfo@@@std@@@@$0A@@std@@@std@@QAE?AViterator@12@XZ 210fb630 f i c_gameserver.obj
 0002:00078680       ?find@?$_Tree@V?$_Tmap_traits@V?$basic_string@_WU?$char_traits@_W@std@@V?$K2StringAllocator@_W@@@std@@USResContext@CResourceInfo@@U?$less@V?$basic_string@_WU?$char_traits@_W@std@@V?$K2StringAllocator@_W@@@std@@@2@V?$K2MapAllocator@U?$pair@$$CBV?$basic_string@_WU?$char_traits@_W@std@@V?$K2StringAllocator@_W@@@std@@USResContext@CResourceInfo@@@std@@@@$0A@@std@@@std@@QAE?AViterator@12@ABV?$basic_string@_WU?$char_traits@_W@std@@V?$K2StringAllocator@_W@@@2@@Z 210fb680 f i c_gameserver.obj
 0002:00078860       ??0iterator@?$_Tree@V?$_Tmap_traits@V?$basic_string@_WU?$char_traits@_W@std@@V?$K2StringAllocator@_W@@@std@@USResContext@CResourceInfo@@U?$less@V?$basic_string@_WU?$char_traits@_W@std@@V?$K2StringAllocator@_W@@@std@@@2@V?$K2MapAllocator@U?$pair@$$CBV?$basic_string@_WU?$char_traits@_W@std@@V?$K2StringAllocator@_W@@@std@@USResContext@CResourceInfo@@@std@@@@$0A@@std@@@std@@QAE@XZ 210fb860 f i c_gameserver.obj
 0002:00078890       ??Citerator@?$_Tree@V?$_Tmap_traits@V?$basic_string@_WU?$char_traits@_W@std@@V?$K2StringAllocator@_W@@@std@@USResContext@CResourceInfo@@U?$less@V?$basic_string@_WU?$char_traits@_W@std@@V?$K2StringAllocator@_W@@@std@@@2@V?$K2MapAllocator@U?$pair@$$CBV?$basic_string@_WU?$char_traits@_W@std@@V?$K2StringAllocator@_W@@@std@@USResContext@CResourceInfo@@@std@@@@$0A@@std@@@std@@QBEPAU?$pair@$$CBV?$basic_string@_WU?$char_traits@_W@std@@V?$K2StringAllocator@_W@@@std@@USResContext@CResourceInfo@@@2@XZ 210fb890 f i c_gameserver.obj
 0002:000788c0       ??8const_iterator@?$_Tree@V?$_Tmap_traits@V?$basic_string@_WU?$char_traits@_W@std@@V?$K2StringAllocator@_W@@@std@@USResContext@CResourceInfo@@U?$less@V?$basic_string@_WU?$char_traits@_W@std@@V?$K2StringAllocator@_W@@@std@@@2@V?$K2MapAllocator@U?$pair@$$CBV?$basic_string@_WU?$char_traits@_W@std@@V?$K2StringAllocator@_W@@@std@@USResContext@CResourceInfo@@@std@@@@$0A@@std@@@std@@QBE_NABV012@@Z 210fb8c0 f i c_gameserver.obj
 0002:00078980       ??9const_iterator@?$_Tree@V?$_Tmap_traits@V?$basic_string@_WU?$char_traits@_W@std@@V?$K2StringAllocator@_W@@@std@@USResContext@CResourceInfo@@U?$less@V?$basic_string@_WU?$char_traits@_W@std@@V?$K2StringAllocator@_W@@@std@@@2@V?$K2MapAllocator@U?$pair@$$CBV?$basic_string@_WU?$char_traits@_W@std@@V?$K2StringAllocator@_W@@@std@@USResContext@CResourceInfo@@@std@@@@$0A@@std@@@std@@QBE_NABV012@@Z 210fb980 f i c_gameserver.obj
 0002:000789c0       ??Citerator@?$_Tree@V?$_Tmap_traits@IV?$basic_string@DU?$char_traits@D@std@@V?$K2StringAllocator@D@@@std@@U?$less@I@2@V?$K2MapAllocator@U?$pair@$$CBIV?$basic_string@DU?$char_traits@D@std@@V?$K2StringAllocator@D@@@std@@@std@@@@$0A@@std@@@std@@QBEPAU?$pair@$$CBIV?$basic_string@DU?$char_traits@D@std@@V?$K2StringAllocator@D@@@std@@@2@XZ 210fb9c0 f i c_gameserver.obj
 0002:000789f0       ??Eiterator@?$_Tree@V?$_Tmap_traits@IV?$basic_string@DU?$char_traits@D@std@@V?$K2StringAllocator@D@@@std@@U?$less@I@2@V?$K2MapAllocator@U?$pair@$$CBIV?$basic_string@DU?$char_traits@D@std@@V?$K2StringAllocator@D@@@std@@@std@@@@$0A@@std@@@std@@QAEAAV012@XZ 210fb9f0 f i c_gameserver.obj
 0002:00078a20       ??9const_iterator@?$_Tree@V?$_Tmap_traits@IV?$basic_string@DU?$char_traits@D@std@@V?$K2StringAllocator@D@@@std@@U?$less@I@2@V?$K2MapAllocator@U?$pair@$$CBIV?$basic_string@DU?$char_traits@D@std@@V?$K2StringAllocator@D@@@std@@@std@@@@$0A@@std@@@std@@QBE_NABV012@@Z 210fba20 f i c_gameserver.obj
 0002:00078a60       ??Citerator@?$_Tree@V?$_Tmap_traits@IVCBufferDynamic@@U?$less@I@std@@V?$K2MapAllocator@U?$pair@$$CBIVCBufferDynamic@@@std@@@@$0A@@std@@@std@@QBEPAU?$pair@$$CBIVCBufferDynamic@@@2@XZ 210fba60 f i c_gameserver.obj
 0002:00078a90       ??Eiterator@?$_Tree@V?$_Tmap_traits@IVCBufferDynamic@@U?$less@I@std@@V?$K2MapAllocator@U?$pair@$$CBIVCBufferDynamic@@@std@@@@$0A@@std@@@std@@QAEAAV012@XZ 210fba90 f i c_gameserver.obj
 0002:00078ac0       ??9const_iterator@?$_Tree@V?$_Tmap_traits@IVCBufferDynamic@@U?$less@I@std@@V?$K2MapAllocator@U?$pair@$$CBIVCBufferDynamic@@@std@@@@$0A@@std@@@std@@QBE_NABV012@@Z 210fbac0 f i c_gameserver.obj
 0002:00078b00       ??Citerator@?$_Tree@V?$_Tmap_traits@HPAVCClientConnection@@U?$less@H@std@@V?$K2MapAllocator@U?$pair@$$CBHPAVCClientConnection@@@std@@@@$0A@@std@@@std@@QBEPAU?$pair@$$CBHPAVCClientConnection@@@2@XZ 210fbb00 f i c_gameserver.obj
 0002:00078b30       ??Eiterator@?$_Tree@V?$_Tmap_traits@HPAVCClientConnection@@U?$less@H@std@@V?$K2MapAllocator@U?$pair@$$CBHPAVCClientConnection@@@std@@@@$0A@@std@@@std@@QAEAAV012@XZ 210fbb30 f i c_gameserver.obj
 0002:00078b60       ??8const_iterator@?$_Tree@V?$_Tmap_traits@HPAVCClientConnection@@U?$less@H@std@@V?$K2MapAllocator@U?$pair@$$CBHPAVCClientConnection@@@std@@@@$0A@@std@@@std@@QBE_NABV012@@Z 210fbb60 f i c_gameserver.obj
 0002:00078c20       ??9const_iterator@?$_Tree@V?$_Tmap_traits@HPAVCClientConnection@@U?$less@H@std@@V?$K2MapAllocator@U?$pair@$$CBHPAVCClientConnection@@@std@@@@$0A@@std@@@std@@QBE_NABV012@@Z 210fbc20 f i c_gameserver.obj
 0002:00078c60       ??0?$CBufferFixed@$02@@QAE@XZ 210fbc60 f i c_gameserver.obj
 0002:00078d10       ?WriteBytes@IBuffer@@UAE_NEI@Z 210fbd10 f i c_gameserver.obj
 0002:00078d30       ??1?$CBufferFixed@$02@@UAE@XZ 210fbd30 f i c_gameserver.obj
 0002:00078d70       ??0?$CBufferFixed@$00@@QAE@XZ 210fbd70 f i c_gameserver.obj
 0002:00078e20       ??1?$CBufferFixed@$00@@UAE@XZ 210fbe20 f i c_gameserver.obj
 0002:00078e60       ??C?$_Vector_iterator@USDelayedMessage@CGameServer@@V?$K2VectorAllocator@USDelayedMessage@CGameServer@@@@@std@@QBEPAUSDelayedMessage@CGameServer@@XZ 210fbe60 f i c_gameserver.obj
 0002:00078e90       ??E?$_Vector_iterator@USDelayedMessage@CGameServer@@V?$K2VectorAllocator@USDelayedMessage@CGameServer@@@@@std@@QAEAAV01@XZ 210fbe90 f i c_gameserver.obj
 0002:00078ec0       ??9?$_Vector_const_iterator@USDelayedMessage@CGameServer@@V?$K2VectorAllocator@USDelayedMessage@CGameServer@@@@@std@@QBE_NABV01@@Z 210fbec0 f i c_gameserver.obj
 0002:00078f00       ??0?$vector@PAVCPlayer@@V?$K2VectorAllocator@PAVCPlayer@@@@@@QAE@XZ 210fbf00 f i c_gameserver.obj
 0002:00078f30       ??1?$vector@PAVCPlayer@@V?$K2VectorAllocator@PAVCPlayer@@@@@std@@QAE@XZ 210fbf30 f i c_gameserver.obj
 0002:00078fb0       ?begin@?$vector@PAVCPlayer@@V?$K2VectorAllocator@PAVCPlayer@@@@@std@@QAE?AV?$_Vector_iterator@PAVCPlayer@@V?$K2VectorAllocator@PAVCPlayer@@@@@2@XZ 210fbfb0 f i c_gameserver.obj
 0002:00079000       ?end@?$vector@PAVCPlayer@@V?$K2VectorAllocator@PAVCPlayer@@@@@std@@QAE?AV?$_Vector_iterator@PAVCPlayer@@V?$K2VectorAllocator@PAVCPlayer@@@@@2@XZ 210fc000 f i c_gameserver.obj
 0002:00079050       ?push_back@?$vector@PAVCPlayer@@V?$K2VectorAllocator@PAVCPlayer@@@@@std@@QAEXABQAVCPlayer@@@Z 210fc050 f i c_gameserver.obj
 0002:00079100       ??D?$_Vector_iterator@PAVCPlayer@@V?$K2VectorAllocator@PAVCPlayer@@@@@std@@QBEAAPAVCPlayer@@XZ 210fc100 f i c_gameserver.obj
 0002:00079130       ??E?$_Vector_iterator@PAVCPlayer@@V?$K2VectorAllocator@PAVCPlayer@@@@@std@@QAEAAV01@XZ 210fc130 f i c_gameserver.obj
 0002:00079160       ??9?$_Vector_const_iterator@PAVCPlayer@@V?$K2VectorAllocator@PAVCPlayer@@@@@std@@QBE_NABV01@@Z 210fc160 f i c_gameserver.obj
 0002:000791a0       ??0?$CBufferFixed@$08@@QAE@XZ 210fc1a0 f i c_gameserver.obj
 0002:00079250       ??1?$CBufferFixed@$08@@UAE@XZ 210fc250 f i c_gameserver.obj
 0002:00079290       ??Citerator@?$_Tree@V?$_Tmap_traits@IPAVCWorldLight@@U?$less@I@std@@V?$K2MapAllocator@U?$pair@$$CBIPAVCWorldLight@@@std@@@@$0A@@std@@@std@@QBEPAU?$pair@$$CBIPAVCWorldLight@@@2@XZ 210fc290 f i c_gameserver.obj
 0002:000792c0       ??Eiterator@?$_Tree@V?$_Tmap_traits@IPAVCWorldLight@@U?$less@I@std@@V?$K2MapAllocator@U?$pair@$$CBIPAVCWorldLight@@@std@@@@$0A@@std@@@std@@QAEAAV012@XZ 210fc2c0 f i c_gameserver.obj
 0002:000792f0       ??9const_iterator@?$_Tree@V?$_Tmap_traits@IPAVCWorldLight@@U?$less@I@std@@V?$K2MapAllocator@U?$pair@$$CBIPAVCWorldLight@@@std@@@@$0A@@std@@@std@@QBE_NABV012@@Z 210fc2f0 f i c_gameserver.obj
 0002:00079330       ??0?$CBufferFixed@$04@@QAE@XZ 210fc330 f i c_gameserver.obj
 0002:000793e0       ??1?$CBufferFixed@$04@@UAE@XZ 210fc3e0 f i c_gameserver.obj
 0002:00079420       ??E?$_Vector_iterator@HV?$K2VectorAllocator@H@@@std@@QAE?AV01@H@Z 210fc420 f i c_gameserver.obj
 0002:000794d0       ??0?$deque@PAVCPlayer@@V?$K2DequeAllocator@PAVCPlayer@@@@@@QAE@XZ 210fc4d0 f i c_gameserver.obj
 0002:00079500       ??1?$deque@PAVCPlayer@@V?$K2DequeAllocator@PAVCPlayer@@@@@std@@QAE@XZ 210fc500 f i c_gameserver.obj
 0002:00079580       ?begin@?$deque@PAVCPlayer@@V?$K2DequeAllocator@PAVCPlayer@@@@@std@@QAE?AV?$_Deque_iterator@PAVCPlayer@@V?$K2DequeAllocator@PAVCPlayer@@@@$00@2@XZ 210fc580 f i c_gameserver.obj
 0002:000795d0       ?end@?$deque@PAVCPlayer@@V?$K2DequeAllocator@PAVCPlayer@@@@@std@@QAE?AV?$_Deque_iterator@PAVCPlayer@@V?$K2DequeAllocator@PAVCPlayer@@@@$00@2@XZ 210fc5d0 f i c_gameserver.obj
 0002:00079630       ?empty@?$deque@PAVCPlayer@@V?$K2DequeAllocator@PAVCPlayer@@@@@std@@QBE_NXZ 210fc630 f i c_gameserver.obj
 0002:00079660       ?front@?$deque@PAVCPlayer@@V?$K2DequeAllocator@PAVCPlayer@@@@@std@@QAEAAPAVCPlayer@@XZ 210fc660 f i c_gameserver.obj
 0002:00079700       ?pop_front@?$deque@PAVCPlayer@@V?$K2DequeAllocator@PAVCPlayer@@@@@std@@QAEXXZ 210fc700 f i c_gameserver.obj
 0002:00079810       ?push_back@?$deque@PAVCPlayer@@V?$K2DequeAllocator@PAVCPlayer@@@@@std@@QAEXABQAVCPlayer@@@Z 210fc810 f i c_gameserver.obj
 0002:00079930       ??D?$_Deque_iterator@PAVCPlayer@@V?$K2DequeAllocator@PAVCPlayer@@@@$00@std@@QBEAAPAVCPlayer@@XZ 210fc930 f i c_gameserver.obj
 0002:00079960       ??E?$_Deque_iterator@PAVCPlayer@@V?$K2DequeAllocator@PAVCPlayer@@@@$00@std@@QAEAAV01@XZ 210fc960 f i c_gameserver.obj
 0002:00079990       ??9?$_Deque_const_iterator@PAVCPlayer@@V?$K2DequeAllocator@PAVCPlayer@@@@$00@std@@QBE_NABV01@@Z 210fc990 f i c_gameserver.obj
 0002:000799d0       ??0?$CBufferFixed@$0BB@@@QAE@XZ 210fc9d0 f i c_gameserver.obj
 0002:00079a80       ??1?$CBufferFixed@$0BB@@@UAE@XZ 210fca80 f i c_gameserver.obj
 0002:00079ac0       ??0?$CBufferFixed@$06@@QAE@XZ 210fcac0 f i c_gameserver.obj
 0002:00079b70       ??1?$CBufferFixed@$06@@UAE@XZ 210fcb70 f i c_gameserver.obj
 0002:00079bb0       ??0?$map@HPAVIHeroEntity@@U?$less@H@std@@V?$K2MapAllocator@U?$pair@$$CBHPAVIHeroEntity@@@std@@@@@@QAE@XZ 210fcbb0 f i c_gameserver.obj
 0002:00079be0       ??1?$_Tree@V?$_Tmap_traits@HPAVIHeroEntity@@U?$less@H@std@@V?$K2MapAllocator@U?$pair@$$CBHPAVIHeroEntity@@@std@@@@$0A@@std@@@std@@QAE@XZ 210fcbe0 f i c_gameserver.obj
 0002:00079c60       ?begin@?$_Tree@V?$_Tmap_traits@HPAVIHeroEntity@@U?$less@H@std@@V?$K2MapAllocator@U?$pair@$$CBHPAVIHeroEntity@@@std@@@@$0A@@std@@@std@@QAE?AViterator@12@XZ 210fcc60 f i c_gameserver.obj
 0002:00079cb0       ?end@?$_Tree@V?$_Tmap_traits@HPAVIHeroEntity@@U?$less@H@std@@V?$K2MapAllocator@U?$pair@$$CBHPAVIHeroEntity@@@std@@@@$0A@@std@@@std@@QAE?AViterator@12@XZ 210fccb0 f i c_gameserver.obj
 0002:00079d00       ?insert@?$_Tree@V?$_Tmap_traits@HPAVIHeroEntity@@U?$less@H@std@@V?$K2MapAllocator@U?$pair@$$CBHPAVIHeroEntity@@@std@@@@$0A@@std@@@std@@QAE?AU?$pair@Viterator@?$_Tree@V?$_Tmap_traits@HPAVIHeroEntity@@U?$less@H@std@@V?$K2MapAllocator@U?$pair@$$CBHPAVIHeroEntity@@@std@@@@$0A@@std@@@std@@_N@2@ABU?$pair@$$CBHPAVIHeroEntity@@@2@@Z 210fcd00 f i c_gameserver.obj
 0002:0007a120       ??0?$pair@HPAVIHeroEntity@@@std@@QAE@ABHABQAVIHeroEntity@@@Z 210fd120 f i c_gameserver.obj
 0002:0007a160       ??Citerator@?$_Tree@V?$_Tmap_traits@HPAVIHeroEntity@@U?$less@H@std@@V?$K2MapAllocator@U?$pair@$$CBHPAVIHeroEntity@@@std@@@@$0A@@std@@@std@@QBEPAU?$pair@$$CBHPAVIHeroEntity@@@2@XZ 210fd160 f i c_gameserver.obj
 0002:0007a190       ??Eiterator@?$_Tree@V?$_Tmap_traits@HPAVIHeroEntity@@U?$less@H@std@@V?$K2MapAllocator@U?$pair@$$CBHPAVIHeroEntity@@@std@@@@$0A@@std@@@std@@QAEAAV012@XZ 210fd190 f i c_gameserver.obj
 0002:0007a1c0       ??Eiterator@?$_Tree@V?$_Tmap_traits@HPAVIHeroEntity@@U?$less@H@std@@V?$K2MapAllocator@U?$pair@$$CBHPAVIHeroEntity@@@std@@@@$0A@@std@@@std@@QAE?AV012@H@Z 210fd1c0 f i c_gameserver.obj
 0002:0007a270       ??9const_iterator@?$_Tree@V?$_Tmap_traits@HPAVIHeroEntity@@U?$less@H@std@@V?$K2MapAllocator@U?$pair@$$CBHPAVIHeroEntity@@@std@@@@$0A@@std@@@std@@QBE_NABV012@@Z 210fd270 f i c_gameserver.obj
 0002:0007a2b0       ??0?$map@HV?$vector@HV?$K2VectorAllocator@H@@@@U?$less@H@std@@V?$K2MapAllocator@U?$pair@$$CBHV?$vector@HV?$K2VectorAllocator@H@@@@@std@@@@@@QAE@XZ 210fd2b0 f i c_gameserver.obj
 0002:0007a2e0       ??A?$map@HV?$vector@HV?$K2VectorAllocator@H@@@@U?$less@H@std@@V?$K2MapAllocator@U?$pair@$$CBHV?$vector@HV?$K2VectorAllocator@H@@@@@std@@@@@std@@QAEAAV?$vector@HV?$K2VectorAllocator@H@@@@ABH@Z 210fd2e0 f i c_gameserver.obj
 0002:0007a570       ??1?$_Tree@V?$_Tmap_traits@HV?$vector@HV?$K2VectorAllocator@H@@@@U?$less@H@std@@V?$K2MapAllocator@U?$pair@$$CBHV?$vector@HV?$K2VectorAllocator@H@@@@@std@@@@$0A@@std@@@std@@QAE@XZ 210fd570 f i c_gameserver.obj
 0002:0007a5f0       ?begin@?$_Tree@V?$_Tmap_traits@HV?$vector@HV?$K2VectorAllocator@H@@@@U?$less@H@std@@V?$K2MapAllocator@U?$pair@$$CBHV?$vector@HV?$K2VectorAllocator@H@@@@@std@@@@$0A@@std@@@std@@QAE?AViterator@12@XZ 210fd5f0 f i c_gameserver.obj
 0002:0007a640       ?end@?$_Tree@V?$_Tmap_traits@HV?$vector@HV?$K2VectorAllocator@H@@@@U?$less@H@std@@V?$K2MapAllocator@U?$pair@$$CBHV?$vector@HV?$K2VectorAllocator@H@@@@@std@@@@$0A@@std@@@std@@QAE?AViterator@12@XZ 210fd640 f i c_gameserver.obj
 0002:0007a690       ??Citerator@?$_Tree@V?$_Tmap_traits@HV?$vector@HV?$K2VectorAllocator@H@@@@U?$less@H@std@@V?$K2MapAllocator@U?$pair@$$CBHV?$vector@HV?$K2VectorAllocator@H@@@@@std@@@@$0A@@std@@@std@@QBEPAU?$pair@$$CBHV?$vector@HV?$K2VectorAllocator@H@@@@@2@XZ 210fd690 f i c_gameserver.obj
 0002:0007a6c0       ??Eiterator@?$_Tree@V?$_Tmap_traits@HV?$vector@HV?$K2VectorAllocator@H@@@@U?$less@H@std@@V?$K2MapAllocator@U?$pair@$$CBHV?$vector@HV?$K2VectorAllocator@H@@@@@std@@@@$0A@@std@@@std@@QAE?AV012@H@Z 210fd6c0 f i c_gameserver.obj
 0002:0007a770       ??9const_iterator@?$_Tree@V?$_Tmap_traits@HV?$vector@HV?$K2VectorAllocator@H@@@@U?$less@H@std@@V?$K2MapAllocator@U?$pair@$$CBHV?$vector@HV?$K2VectorAllocator@H@@@@@std@@@@$0A@@std@@@std@@QBE_NABV012@@Z 210fd770 f i c_gameserver.obj
 0002:0007a7b0       ??0?$vector@PAVIGameEntity@@V?$K2VectorAllocator@PAVIGameEntity@@@@@@QAE@XZ 210fd7b0 f i c_gameserver.obj
 0002:0007a7e0       ??1?$vector@PAVIGameEntity@@V?$K2VectorAllocator@PAVIGameEntity@@@@@std@@QAE@XZ 210fd7e0 f i c_gameserver.obj
 0002:0007a860       ?begin@?$vector@PAVIGameEntity@@V?$K2VectorAllocator@PAVIGameEntity@@@@@std@@QAE?AV?$_Vector_iterator@PAVIGameEntity@@V?$K2VectorAllocator@PAVIGameEntity@@@@@2@XZ 210fd860 f i c_gameserver.obj
 0002:0007a8b0       ?end@?$vector@PAVIGameEntity@@V?$K2VectorAllocator@PAVIGameEntity@@@@@std@@QAE?AV?$_Vector_iterator@PAVIGameEntity@@V?$K2VectorAllocator@PAVIGameEntity@@@@@2@XZ 210fd8b0 f i c_gameserver.obj
 0002:0007a900       ?push_back@?$vector@PAVIGameEntity@@V?$K2VectorAllocator@PAVIGameEntity@@@@@std@@QAEXABQAVIGameEntity@@@Z 210fd900 f i c_gameserver.obj
 0002:0007a9b0       ??D?$_Vector_iterator@PAVIGameEntity@@V?$K2VectorAllocator@PAVIGameEntity@@@@@std@@QBEAAPAVIGameEntity@@XZ 210fd9b0 f i c_gameserver.obj
 0002:0007a9e0       ??E?$_Vector_iterator@PAVIGameEntity@@V?$K2VectorAllocator@PAVIGameEntity@@@@@std@@QAEAAV01@XZ 210fd9e0 f i c_gameserver.obj
 0002:0007aa10       ??9?$_Vector_const_iterator@PAVIGameEntity@@V?$K2VectorAllocator@PAVIGameEntity@@@@@std@@QBE_NABV01@@Z 210fda10 f i c_gameserver.obj
 0002:0007aa50       ??0?$map@HPAVCGameStats@@U?$less@H@std@@V?$K2MapAllocator@U?$pair@$$CBHPAVCGameStats@@@std@@@@@@QAE@XZ 210fda50 f i c_gameserver.obj
 0002:0007aa80       ??A?$map@HPAVCGameStats@@U?$less@H@std@@V?$K2MapAllocator@U?$pair@$$CBHPAVCGameStats@@@std@@@@@std@@QAEAAPAVCGameStats@@ABH@Z 210fda80 f i c_gameserver.obj
 0002:0007ac90       ??1?$_Tree@V?$_Tmap_traits@HPAVCGameStats@@U?$less@H@std@@V?$K2MapAllocator@U?$pair@$$CBHPAVCGameStats@@@std@@@@$0A@@std@@@std@@QAE@XZ 210fdc90 f i c_gameserver.obj
 0002:0007ad10       ?begin@?$_Tree@V?$_Tmap_traits@HPAVCGameStats@@U?$less@H@std@@V?$K2MapAllocator@U?$pair@$$CBHPAVCGameStats@@@std@@@@$0A@@std@@@std@@QAE?AViterator@12@XZ 210fdd10 f i c_gameserver.obj
 0002:0007ad60       ?end@?$_Tree@V?$_Tmap_traits@HPAVCGameStats@@U?$less@H@std@@V?$K2MapAllocator@U?$pair@$$CBHPAVCGameStats@@@std@@@@$0A@@std@@@std@@QAE?AViterator@12@XZ 210fdd60 f i c_gameserver.obj
 0002:0007adb0       ?find@?$_Tree@V?$_Tmap_traits@HPAVCGameStats@@U?$less@H@std@@V?$K2MapAllocator@U?$pair@$$CBHPAVCGameStats@@@std@@@@$0A@@std@@@std@@QAE?AViterator@12@ABH@Z 210fddb0 f i c_gameserver.obj
 0002:0007af90       ??0iterator@?$_Tree@V?$_Tmap_traits@HPAVCGameStats@@U?$less@H@std@@V?$K2MapAllocator@U?$pair@$$CBHPAVCGameStats@@@std@@@@$0A@@std@@@std@@QAE@XZ 210fdf90 f i c_gameserver.obj
 0002:0007afc0       ??Citerator@?$_Tree@V?$_Tmap_traits@HPAVCGameStats@@U?$less@H@std@@V?$K2MapAllocator@U?$pair@$$CBHPAVCGameStats@@@std@@@@$0A@@std@@@std@@QBEPAU?$pair@$$CBHPAVCGameStats@@@2@XZ 210fdfc0 f i c_gameserver.obj
 0002:0007aff0       ??Eiterator@?$_Tree@V?$_Tmap_traits@HPAVCGameStats@@U?$less@H@std@@V?$K2MapAllocator@U?$pair@$$CBHPAVCGameStats@@@std@@@@$0A@@std@@@std@@QAEAAV012@XZ 210fdff0 f i c_gameserver.obj
 0002:0007b020       ??8const_iterator@?$_Tree@V?$_Tmap_traits@HPAVCGameStats@@U?$less@H@std@@V?$K2MapAllocator@U?$pair@$$CBHPAVCGameStats@@@std@@@@$0A@@std@@@std@@QBE_NABV012@@Z 210fe020 f i c_gameserver.obj
 0002:0007b0e0       ??9const_iterator@?$_Tree@V?$_Tmap_traits@HPAVCGameStats@@U?$less@H@std@@V?$K2MapAllocator@U?$pair@$$CBHPAVCGameStats@@@std@@@@$0A@@std@@@std@@QBE_NABV012@@Z 210fe0e0 f i c_gameserver.obj
 0002:0007b120       ??C?$_Vector_const_iterator@USItemHistoryEntry@CGameStats@@V?$K2VectorAllocator@USItemHistoryEntry@CGameStats@@@@@std@@QBEPBUSItemHistoryEntry@CGameStats@@XZ 210fe120 f i c_gameserver.obj
 0002:0007b150       ??E?$_Vector_const_iterator@USItemHistoryEntry@CGameStats@@V?$K2VectorAllocator@USItemHistoryEntry@CGameStats@@@@@std@@QAEAAV01@XZ 210fe150 f i c_gameserver.obj
 0002:0007b240       ??9?$_Vector_const_iterator@USItemHistoryEntry@CGameStats@@V?$K2VectorAllocator@USItemHistoryEntry@CGameStats@@@@@std@@QBE_NABV01@@Z 210fe240 f i c_gameserver.obj
 0002:0007b280       ??C?$_Vector_const_iterator@USAbilityUpgradeEntry@CGameStats@@V?$K2VectorAllocator@USAbilityUpgradeEntry@CGameStats@@@@@std@@QBEPBUSAbilityUpgradeEntry@CGameStats@@XZ 210fe280 f i c_gameserver.obj
 0002:0007b2b0       ??E?$_Vector_const_iterator@USAbilityUpgradeEntry@CGameStats@@V?$K2VectorAllocator@USAbilityUpgradeEntry@CGameStats@@@@@std@@QAEAAV01@XZ 210fe2b0 f i c_gameserver.obj
 0002:0007b3a0       ??G?$_Vector_const_iterator@USAbilityUpgradeEntry@CGameStats@@V?$K2VectorAllocator@USAbilityUpgradeEntry@CGameStats@@@@@std@@QBEHABV01@@Z 210fe3a0 f i c_gameserver.obj
 0002:0007b3e0       ??9?$_Vector_const_iterator@USAbilityUpgradeEntry@CGameStats@@V?$K2VectorAllocator@USAbilityUpgradeEntry@CGameStats@@@@@std@@QBE_NABV01@@Z 210fe3e0 f i c_gameserver.obj
 0002:0007b420       ??C?$_Vector_iterator@USMatchKillEntry@@V?$K2VectorAllocator@USMatchKillEntry@@@@@std@@QBEPAUSMatchKillEntry@@XZ 210fe420 f i c_gameserver.obj
 0002:0007b450       ??E?$_Vector_iterator@USMatchKillEntry@@V?$K2VectorAllocator@USMatchKillEntry@@@@@std@@QAEAAV01@XZ 210fe450 f i c_gameserver.obj
 0002:0007b480       ??9?$_Vector_const_iterator@USMatchKillEntry@@V?$K2VectorAllocator@USMatchKillEntry@@@@@std@@QBE_NABV01@@Z 210fe480 f i c_gameserver.obj
 0002:0007b4c0       ??0?$CBufferFixed@$01@@QAE@XZ 210fe4c0 f i c_gameserver.obj
 0002:0007b570       ??1?$CBufferFixed@$01@@UAE@XZ 210fe570 f i c_gameserver.obj
 0002:0007b5b0       ??0?$CBufferFixed@$05@@QAE@XZ 210fe5b0 f i c_gameserver.obj
 0002:0007b660       ??1?$CBufferFixed@$05@@UAE@XZ 210fe660 f i c_gameserver.obj
 0002:0007b6a0       ??0?$CBufferFixed@$09@@QAE@XZ 210fe6a0 f i c_gameserver.obj
 0002:0007b750       ??1?$CBufferFixed@$09@@UAE@XZ 210fe750 f i c_gameserver.obj
 0002:0007b790       ??D?$_Vector_iterator@GV?$K2VectorAllocator@G@@@std@@QBEAAGXZ 210fe790 f i c_gameserver.obj
 0002:0007b7c0       ??E?$_Vector_iterator@GV?$K2VectorAllocator@G@@@std@@QAEAAV01@XZ 210fe7c0 f i c_gameserver.obj
 0002:0007b7f0       ??8?$_Vector_const_iterator@GV?$K2VectorAllocator@G@@@std@@QBE_NABV01@@Z 210fe7f0 f i c_gameserver.obj
 0002:0007b830       ??9?$_Vector_const_iterator@GV?$K2VectorAllocator@G@@@std@@QBE_NABV01@@Z 210fe830 f i c_gameserver.obj
 0002:0007b870       ??0?$pair@GE@std@@QAE@ABGABE@Z 210fe870 f i c_gameserver.obj
 0002:0007b8b0       ??C?$_Vector_iterator@U?$pair@GE@std@@V?$K2VectorAllocator@U?$pair@GE@std@@@@@std@@QBEPAU?$pair@GE@1@XZ 210fe8b0 f i c_gameserver.obj
 0002:0007b8e0       ??E?$_Vector_iterator@U?$pair@GE@std@@V?$K2VectorAllocator@U?$pair@GE@std@@@@@std@@QAEAAV01@XZ 210fe8e0 f i c_gameserver.obj
 0002:0007b910       ??G?$_Vector_iterator@U?$pair@GE@std@@V?$K2VectorAllocator@U?$pair@GE@std@@@@@std@@QBEHABV?$_Vector_const_iterator@U?$pair@GE@std@@V?$K2VectorAllocator@U?$pair@GE@std@@@@@1@@Z 210fe910 f i c_gameserver.obj
 0002:0007b940       ??9?$_Vector_const_iterator@U?$pair@GE@std@@V?$K2VectorAllocator@U?$pair@GE@std@@@@@std@@QBE_NABV01@@Z 210fe940 f i c_gameserver.obj
 0002:0007b980       ??D?$_Const_iterator@$00@?$list@PAVIUnitEntity@@V?$K2ListAllocator@PAVIUnitEntity@@@@@std@@QBEABQAVIUnitEntity@@XZ 210fe980 f i c_gameserver.obj
 0002:0007ba50       ??E?$_Const_iterator@$00@?$list@PAVIUnitEntity@@V?$K2ListAllocator@PAVIUnitEntity@@@@@std@@QAEAAV012@XZ 210fea50 f i c_gameserver.obj
 0002:0007bb30       ??9?$_Const_iterator@$00@?$list@PAVIUnitEntity@@V?$K2ListAllocator@PAVIUnitEntity@@@@@std@@QBE_NABV012@@Z 210feb30 f i c_gameserver.obj
 0002:0007bb70       ??1?$CRect@I@@QAE@XZ       210feb70 f i c_gameserver.obj
 0002:0007bb90       ??0?$CBufferFixed@$0L@@@QAE@XZ 210feb90 f i c_gameserver.obj
 0002:0007bc40       ??Citerator@?$_Tree@V?$_Tmap_traits@GV?$basic_string@_WU?$char_traits@_W@std@@V?$K2StringAllocator@_W@@@std@@U?$less@G@2@V?$K2MapAllocator@U?$pair@$$CBGV?$basic_string@_WU?$char_traits@_W@std@@V?$K2StringAllocator@_W@@@std@@@std@@@@$0A@@std@@@std@@QBEPAU?$pair@$$CBGV?$basic_string@_WU?$char_traits@_W@std@@V?$K2StringAllocator@_W@@@std@@@2@XZ 210fec40 f i c_gameserver.obj
 0002:0007bc70       ??Eiterator@?$_Tree@V?$_Tmap_traits@GV?$basic_string@_WU?$char_traits@_W@std@@V?$K2StringAllocator@_W@@@std@@U?$less@G@2@V?$K2MapAllocator@U?$pair@$$CBGV?$basic_string@_WU?$char_traits@_W@std@@V?$K2StringAllocator@_W@@@std@@@std@@@@$0A@@std@@@std@@QAEAAV012@XZ 210fec70 f i c_gameserver.obj
 0002:0007bca0       ??9const_iterator@?$_Tree@V?$_Tmap_traits@GV?$basic_string@_WU?$char_traits@_W@std@@V?$K2StringAllocator@_W@@@std@@U?$less@G@2@V?$K2MapAllocator@U?$pair@$$CBGV?$basic_string@_WU?$char_traits@_W@std@@V?$K2StringAllocator@_W@@@std@@@std@@@@$0A@@std@@@std@@QBE_NABV012@@Z 210feca0 f i c_gameserver.obj
 0002:0007bce0       ??1?$_Tree_val@V?$_Tset_traits@IU?$less@I@std@@V?$K2SetAllocator@I@@$0A@@std@@@std@@QAE@XZ 210fece0 f i c_gameserver.obj
 0002:0007bd60       ??1?$_Tree_val@V?$_Tmap_traits@GV?$basic_string@_WU?$char_traits@_W@std@@V?$K2StringAllocator@_W@@@std@@U?$less@G@2@V?$K2MapAllocator@U?$pair@$$CBGV?$basic_string@_WU?$char_traits@_W@std@@V?$K2StringAllocator@_W@@@std@@@std@@@@$0A@@std@@@std@@QAE@XZ 210fed60 f i c_gameserver.obj
 0002:0007bde0       ??1?$_Vector_val@U?$pair@GE@std@@V?$K2VectorAllocator@U?$pair@GE@std@@@@@std@@QAE@XZ 210fede0 f i c_gameserver.obj
 0002:0007be60       ??1?$_Vector_val@VCPHPData@@V?$K2VectorAllocator@VCPHPData@@@@@std@@QAE@XZ 210fee60 f i c_gameserver.obj
 0002:0007bee0       ??1?$_Vector_val@VCLastGameInfo@CPlayerAccountHistory@@V?$K2VectorAllocator@VCLastGameInfo@CPlayerAccountHistory@@@@@std@@QAE@XZ 210feee0 f i c_gameserver.obj
 0002:0007bf60       ??1?$_Vector_val@VCFavHeroes@CPlayerAccountHistory@@V?$K2VectorAllocator@VCFavHeroes@CPlayerAccountHistory@@@@@std@@QAE@XZ 210fef60 f i c_gameserver.obj
 0002:0007bfe0       ??1?$_Vector_iterator@U?$pair@V?$basic_string@DU?$char_traits@D@std@@V?$K2StringAllocator@D@@@std@@V12@@std@@V?$K2VectorAllocator@U?$pair@V?$basic_string@DU?$char_traits@D@std@@V?$K2StringAllocator@D@@@std@@V12@@std@@@@@std@@QAE@XZ 210fefe0 f i c_gameserver.obj
 0002:0007c010       ??1?$_Vector_iterator@USSmackdownEntry@CGameStats@@V?$K2VectorAllocator@USSmackdownEntry@CGameStats@@@@@std@@QAE@XZ 210ff010 f i c_gameserver.obj
 0002:0007c040       ??1?$_Vector_iterator@USHumiliationEntry@CGameStats@@V?$K2VectorAllocator@USHumiliationEntry@CGameStats@@@@@std@@QAE@XZ 210ff040 f i c_gameserver.obj
 0002:0007c070       ??1?$_Vector_iterator@USRivalEntry@CGameStats@@V?$K2VectorAllocator@USRivalEntry@CGameStats@@@@@std@@QAE@XZ 210ff070 f i c_gameserver.obj
 0002:0007c0a0       ??1?$_Vector_iterator@USPaybackEntry@CGameStats@@V?$K2VectorAllocator@USPaybackEntry@CGameStats@@@@@std@@QAE@XZ 210ff0a0 f i c_gameserver.obj
 0002:0007c0d0       ??1?$_Vector_iterator@USAbilityUpgradeEntry@CGameStats@@V?$K2VectorAllocator@USAbilityUpgradeEntry@CGameStats@@@@@std@@QAE@XZ 210ff0d0 f i c_gameserver.obj
 0002:0007c100       ??1?$_Vector_iterator@USItemHistoryEntry@CGameStats@@V?$K2VectorAllocator@USItemHistoryEntry@CGameStats@@@@@std@@QAE@XZ 210ff100 f i c_gameserver.obj
 0002:0007c130       ??1?$_Vector_iterator@USHeroKillHistoryEvent@CGameStats@@V?$K2VectorAllocator@USHeroKillHistoryEvent@CGameStats@@@@@std@@QAE@XZ 210ff130 f i c_gameserver.obj
 0002:0007c160       ??1?$_Vector_iterator@U?$pair@IH@std@@V?$K2VectorAllocator@U?$pair@IH@std@@@@@std@@QAE@XZ 210ff160 f i c_gameserver.obj
 0002:0007c190       ??1?$_Vector_val@USGuestEntry@@V?$K2VectorAllocator@USGuestEntry@@@@@std@@QAE@XZ 210ff190 f i c_gameserver.obj
 0002:0007c210       ??1?$_Vector_iterator@USGuestEntry@@V?$K2VectorAllocator@USGuestEntry@@@@@std@@QAE@XZ 210ff210 f i c_gameserver.obj
 0002:0007c240       ??1?$pair@$$CBHVCPlayerAccountStats@@@std@@QAE@XZ 210ff240 f i c_gameserver.obj
 0002:0007c270       ??0iterator@?$_Tree@V?$_Tmap_traits@HVCPlayerAccountStats@@U?$less@H@std@@V?$K2MapAllocator@U?$pair@$$CBHVCPlayerAccountStats@@@std@@@@$0A@@std@@@std@@QAE@ABV012@@Z 210ff270 f i c_gameserver.obj
 0002:0007c2a0       ??1?$_Tree_val@V?$_Tmap_traits@HVCPlayerAccountStats@@U?$less@H@std@@V?$K2MapAllocator@U?$pair@$$CBHVCPlayerAccountStats@@@std@@@@$0A@@std@@@std@@QAE@XZ 210ff2a0 f i c_gameserver.obj
 0002:0007c320       ??1?$_Vector_val@USMatchKillEntry@@V?$K2VectorAllocator@USMatchKillEntry@@@@@std@@QAE@XZ 210ff320 f i c_gameserver.obj
 0002:0007c3a0       ??1?$_Vector_val@USDelayedMessage@CGameServer@@V?$K2VectorAllocator@USDelayedMessage@CGameServer@@@@@std@@QAE@XZ 210ff3a0 f i c_gameserver.obj
 0002:0007c420       ??4iterator@?$_Tree@V?$_Tmap_traits@HPAVCClientConnection@@U?$less@H@std@@V?$K2MapAllocator@U?$pair@$$CBHPAVCClientConnection@@@std@@@@$0A@@std@@@std@@QAEAAV012@ABV012@@Z 210ff420 f i c_gameserver.obj
 0002:0007c450       ??0const_iterator@?$_Tree@V?$_Tmap_traits@IUSRosterEntty@CHostServer@@U?$less@I@std@@V?$K2MapAllocator@U?$pair@$$CBIUSRosterEntty@CHostServer@@@std@@@@$0A@@std@@@std@@QAE@ABV012@@Z 210ff450 f i c_gameserver.obj
 0002:0007c490       ??0iterator@?$_Tree@V?$_Tmap_traits@V?$basic_string@_WU?$char_traits@_W@std@@V?$K2StringAllocator@_W@@@std@@USResContext@CResourceInfo@@U?$less@V?$basic_string@_WU?$char_traits@_W@std@@V?$K2StringAllocator@_W@@@std@@@2@V?$K2MapAllocator@U?$pair@$$CBV?$basic_string@_WU?$char_traits@_W@std@@V?$K2StringAllocator@_W@@@std@@USResContext@CResourceInfo@@@std@@@@$0A@@std@@@std@@QAE@ABV012@@Z 210ff490 f i c_gameserver.obj
 0002:0007c4c0       ??_E?$CBufferFixed@$02@@UAEPAXI@Z 210ff4c0 f i c_gameserver.obj
 0002:0007c4c0       ??_G?$CBufferFixed@$02@@UAEPAXI@Z 210ff4c0 f i c_gameserver.obj
 0002:0007c510       ??_E?$CBufferFixed@$00@@UAEPAXI@Z 210ff510 f i c_gameserver.obj
 0002:0007c510       ??_G?$CBufferFixed@$00@@UAEPAXI@Z 210ff510 f i c_gameserver.obj
 0002:0007c560       ??1?$_Vector_val@PAVCPlayer@@V?$K2VectorAllocator@PAVCPlayer@@@@@std@@QAE@XZ 210ff560 f i c_gameserver.obj
 0002:0007c5e0       ??_G?$CBufferFixed@$08@@UAEPAXI@Z 210ff5e0 f i c_gameserver.obj
 0002:0007c5e0       ??_E?$CBufferFixed@$08@@UAEPAXI@Z 210ff5e0 f i c_gameserver.obj
 0002:0007c630       ??_E?$CBufferFixed@$04@@UAEPAXI@Z 210ff630 f i c_gameserver.obj
 0002:0007c630       ??_G?$CBufferFixed@$04@@UAEPAXI@Z 210ff630 f i c_gameserver.obj
 0002:0007c680       ??0?$_Vector_iterator@HV?$K2VectorAllocator@H@@@std@@QAE@ABV01@@Z 210ff680 f i c_gameserver.obj
 0002:0007c6b0       ??1?$_Deque_val@PAVCPlayer@@V?$K2DequeAllocator@PAVCPlayer@@@@@std@@QAE@XZ 210ff6b0 f i c_gameserver.obj
 0002:0007c730       ??_G?$CBufferFixed@$0BB@@@UAEPAXI@Z 210ff730 f i c_gameserver.obj
 0002:0007c730       ??_E?$CBufferFixed@$0BB@@@UAEPAXI@Z 210ff730 f i c_gameserver.obj
 0002:0007c780       ??_G?$CBufferFixed@$06@@UAEPAXI@Z 210ff780 f i c_gameserver.obj
 0002:0007c780       ??_E?$CBufferFixed@$06@@UAEPAXI@Z 210ff780 f i c_gameserver.obj
 0002:0007c7d0       ??1?$_Tree_val@V?$_Tmap_traits@HPAVIHeroEntity@@U?$less@H@std@@V?$K2MapAllocator@U?$pair@$$CBHPAVIHeroEntity@@@std@@@@$0A@@std@@@std@@QAE@XZ 210ff7d0 f i c_gameserver.obj
 0002:0007c850       ??1?$pair@$$CBHV?$vector@HV?$K2VectorAllocator@H@@@@@std@@QAE@XZ 210ff850 f i c_gameserver.obj
 0002:0007c880       ??0iterator@?$_Tree@V?$_Tmap_traits@HV?$vector@HV?$K2VectorAllocator@H@@@@U?$less@H@std@@V?$K2MapAllocator@U?$pair@$$CBHV?$vector@HV?$K2VectorAllocator@H@@@@@std@@@@$0A@@std@@@std@@QAE@ABV012@@Z 210ff880 f i c_gameserver.obj
 0002:0007c8b0       ??4iterator@?$_Tree@V?$_Tmap_traits@HV?$vector@HV?$K2VectorAllocator@H@@@@U?$less@H@std@@V?$K2MapAllocator@U?$pair@$$CBHV?$vector@HV?$K2VectorAllocator@H@@@@@std@@@@$0A@@std@@@std@@QAEAAV012@ABV012@@Z 210ff8b0 f i c_gameserver.obj
 0002:0007c8e0       ??1?$_Tree_val@V?$_Tmap_traits@HV?$vector@HV?$K2VectorAllocator@H@@@@U?$less@H@std@@V?$K2MapAllocator@U?$pair@$$CBHV?$vector@HV?$K2VectorAllocator@H@@@@@std@@@@$0A@@std@@@std@@QAE@XZ 210ff8e0 f i c_gameserver.obj
 0002:0007c960       ??1?$_Vector_val@PAVIGameEntity@@V?$K2VectorAllocator@PAVIGameEntity@@@@@std@@QAE@XZ 210ff960 f i c_gameserver.obj
 0002:0007c9e0       ??0iterator@?$_Tree@V?$_Tmap_traits@HPAVCGameStats@@U?$less@H@std@@V?$K2MapAllocator@U?$pair@$$CBHPAVCGameStats@@@std@@@@$0A@@std@@@std@@QAE@ABV012@@Z 210ff9e0 f i c_gameserver.obj
 0002:0007ca10       ??1?$_Tree_val@V?$_Tmap_traits@HPAVCGameStats@@U?$less@H@std@@V?$K2MapAllocator@U?$pair@$$CBHPAVCGameStats@@@std@@@@$0A@@std@@@std@@QAE@XZ 210ffa10 f i c_gameserver.obj
 0002:0007ca90       ??_G?$CBufferFixed@$01@@UAEPAXI@Z 210ffa90 f i c_gameserver.obj
 0002:0007ca90       ??_E?$CBufferFixed@$01@@UAEPAXI@Z 210ffa90 f i c_gameserver.obj
 0002:0007cae0       ??_E?$CBufferFixed@$05@@UAEPAXI@Z 210ffae0 f i c_gameserver.obj
 0002:0007cae0       ??_G?$CBufferFixed@$05@@UAEPAXI@Z 210ffae0 f i c_gameserver.obj
 0002:0007cb30       ??_G?$CBufferFixed@$09@@UAEPAXI@Z 210ffb30 f i c_gameserver.obj
 0002:0007cb30       ??_E?$CBufferFixed@$09@@UAEPAXI@Z 210ffb30 f i c_gameserver.obj
 0002:0007cb80       ??_G?$CBufferFixed@$0L@@@UAEPAXI@Z 210ffb80 f i c_gameserver.obj
 0002:0007cb80       ??_E?$CBufferFixed@$0L@@@UAEPAXI@Z 210ffb80 f i c_gameserver.obj
 0002:0007cbd0       ??1?$CBufferFixed@$0L@@@UAE@XZ 210ffbd0 f i c_gameserver.obj
 0002:0007cc10       ??1?$_Tree_ptr@V?$_Tset_traits@IU?$less@I@std@@V?$K2SetAllocator@I@@$0A@@std@@@std@@QAE@XZ 210ffc10 f i c_gameserver.obj
 0002:0007cc90       ??1?$_Tree_ptr@V?$_Tmap_traits@GV?$basic_string@_WU?$char_traits@_W@std@@V?$K2StringAllocator@_W@@@std@@U?$less@G@2@V?$K2MapAllocator@U?$pair@$$CBGV?$basic_string@_WU?$char_traits@_W@std@@V?$K2StringAllocator@_W@@@std@@@std@@@@$0A@@std@@@std@@QAE@XZ 210ffc90 f i c_gameserver.obj
 0002:0007cd10       ??1?$_Vector_const_iterator@U?$pair@V?$basic_string@DU?$char_traits@D@std@@V?$K2StringAllocator@D@@@std@@V12@@std@@V?$K2VectorAllocator@U?$pair@V?$basic_string@DU?$char_traits@D@std@@V?$K2StringAllocator@D@@@std@@V12@@std@@@@@std@@QAE@XZ 210ffd10 f i c_gameserver.obj
 0002:0007cd40       ??1?$_Vector_const_iterator@USSmackdownEntry@CGameStats@@V?$K2VectorAllocator@USSmackdownEntry@CGameStats@@@@@std@@QAE@XZ 210ffd40 f i c_gameserver.obj
 0002:0007cd70       ??1?$_Vector_const_iterator@USHumiliationEntry@CGameStats@@V?$K2VectorAllocator@USHumiliationEntry@CGameStats@@@@@std@@QAE@XZ 210ffd70 f i c_gameserver.obj
 0002:0007cda0       ??1?$_Vector_const_iterator@USRivalEntry@CGameStats@@V?$K2VectorAllocator@USRivalEntry@CGameStats@@@@@std@@QAE@XZ 210ffda0 f i c_gameserver.obj
 0002:0007cdd0       ??1?$_Vector_const_iterator@USPaybackEntry@CGameStats@@V?$K2VectorAllocator@USPaybackEntry@CGameStats@@@@@std@@QAE@XZ 210ffdd0 f i c_gameserver.obj
 0002:0007ce00       ??1?$_Vector_const_iterator@USHeroKillHistoryEvent@CGameStats@@V?$K2VectorAllocator@USHeroKillHistoryEvent@CGameStats@@@@@std@@QAE@XZ 210ffe00 f i c_gameserver.obj
 0002:0007ce30       ??1?$_Vector_const_iterator@U?$pair@IH@std@@V?$K2VectorAllocator@U?$pair@IH@std@@@@@std@@QAE@XZ 210ffe30 f i c_gameserver.obj
 0002:0007ce60       ??1?$_Vector_const_iterator@USGuestEntry@@V?$K2VectorAllocator@USGuestEntry@@@@@std@@QAE@XZ 210ffe60 f i c_gameserver.obj
 0002:0007ce90       ??0const_iterator@?$_Tree@V?$_Tmap_traits@HVCPlayerAccountStats@@U?$less@H@std@@V?$K2MapAllocator@U?$pair@$$CBHVCPlayerAccountStats@@@std@@@@$0A@@std@@@std@@QAE@ABV012@@Z 210ffe90 f i c_gameserver.obj
 0002:0007ced0       ??1?$_Tree_ptr@V?$_Tmap_traits@HVCPlayerAccountStats@@U?$less@H@std@@V?$K2MapAllocator@U?$pair@$$CBHVCPlayerAccountStats@@@std@@@@$0A@@std@@@std@@QAE@XZ 210ffed0 f i c_gameserver.obj
 0002:0007cf50       ??4const_iterator@?$_Tree@V?$_Tmap_traits@HPAVCClientConnection@@U?$less@H@std@@V?$K2MapAllocator@U?$pair@$$CBHPAVCClientConnection@@@std@@@@$0A@@std@@@std@@QAEAAV012@ABV012@@Z 210fff50 f i c_gameserver.obj
 0002:0007cf90       ??0?$_Bidit@U?$pair@$$CBIUSRosterEntty@CHostServer@@@std@@HPBU12@ABU12@@std@@QAE@ABU01@@Z 210fff90 f i c_gameserver.obj
 0002:0007cfc0       ??0const_iterator@?$_Tree@V?$_Tmap_traits@V?$basic_string@_WU?$char_traits@_W@std@@V?$K2StringAllocator@_W@@@std@@USResContext@CResourceInfo@@U?$less@V?$basic_string@_WU?$char_traits@_W@std@@V?$K2StringAllocator@_W@@@std@@@2@V?$K2MapAllocator@U?$pair@$$CBV?$basic_string@_WU?$char_traits@_W@std@@V?$K2StringAllocator@_W@@@std@@USResContext@CResourceInfo@@@std@@@@$0A@@std@@@std@@QAE@ABV012@@Z 210fffc0 f i c_gameserver.obj
 0002:0007d000       ??1?$_Deque_map@PAVCPlayer@@V?$K2DequeAllocator@PAVCPlayer@@@@@std@@QAE@XZ 21100000 f i c_gameserver.obj
 0002:0007d080       ??1?$_Tree_ptr@V?$_Tmap_traits@HPAVIHeroEntity@@U?$less@H@std@@V?$K2MapAllocator@U?$pair@$$CBHPAVIHeroEntity@@@std@@@@$0A@@std@@@std@@QAE@XZ 21100080 f i c_gameserver.obj
 0002:0007d100       ??0const_iterator@?$_Tree@V?$_Tmap_traits@HV?$vector@HV?$K2VectorAllocator@H@@@@U?$less@H@std@@V?$K2MapAllocator@U?$pair@$$CBHV?$vector@HV?$K2VectorAllocator@H@@@@@std@@@@$0A@@std@@@std@@QAE@ABV012@@Z 21100100 f i c_gameserver.obj
 0002:0007d140       ??4const_iterator@?$_Tree@V?$_Tmap_traits@HV?$vector@HV?$K2VectorAllocator@H@@@@U?$less@H@std@@V?$K2MapAllocator@U?$pair@$$CBHV?$vector@HV?$K2VectorAllocator@H@@@@@std@@@@$0A@@std@@@std@@QAEAAV012@ABV012@@Z 21100140 f i c_gameserver.obj
 0002:0007d180       ??1?$_Tree_ptr@V?$_Tmap_traits@HV?$vector@HV?$K2VectorAllocator@H@@@@U?$less@H@std@@V?$K2MapAllocator@U?$pair@$$CBHV?$vector@HV?$K2VectorAllocator@H@@@@@std@@@@$0A@@std@@@std@@QAE@XZ 21100180 f i c_gameserver.obj
 0002:0007d200       ??0const_iterator@?$_Tree@V?$_Tmap_traits@HPAVCGameStats@@U?$less@H@std@@V?$K2MapAllocator@U?$pair@$$CBHPAVCGameStats@@@std@@@@$0A@@std@@@std@@QAE@ABV012@@Z 21100200 f i c_gameserver.obj
 0002:0007d240       ??1?$_Tree_ptr@V?$_Tmap_traits@HPAVCGameStats@@U?$less@H@std@@V?$K2MapAllocator@U?$pair@$$CBHPAVCGameStats@@@std@@@@$0A@@std@@@std@@QAE@XZ 21100240 f i c_gameserver.obj
 0002:0007d2c0       ??1?$_Tree_nod@V?$_Tset_traits@IU?$less@I@std@@V?$K2SetAllocator@I@@$0A@@std@@@std@@QAE@XZ 211002c0 f i c_gameserver.obj
 0002:0007d340       ??1?$_Tree_nod@V?$_Tmap_traits@GV?$basic_string@_WU?$char_traits@_W@std@@V?$K2StringAllocator@_W@@@std@@U?$less@G@2@V?$K2MapAllocator@U?$pair@$$CBGV?$basic_string@_WU?$char_traits@_W@std@@V?$K2StringAllocator@_W@@@std@@@std@@@@$0A@@std@@@std@@QAE@XZ 21100340 f i c_gameserver.obj
 0002:0007d3c0       ??1?$_Ranit@U?$pair@V?$basic_string@DU?$char_traits@D@std@@V?$K2StringAllocator@D@@@std@@V12@@std@@HPBU12@ABU12@@std@@QAE@XZ 211003c0 f i c_gameserver.obj
 0002:0007d3f0       ??1?$_Ranit@USSmackdownEntry@CGameStats@@HPBU12@ABU12@@std@@QAE@XZ 211003f0 f i c_gameserver.obj
 0002:0007d420       ??1?$_Ranit@USHumiliationEntry@CGameStats@@HPBU12@ABU12@@std@@QAE@XZ 21100420 f i c_gameserver.obj
 0002:0007d450       ??1?$_Ranit@USRivalEntry@CGameStats@@HPBU12@ABU12@@std@@QAE@XZ 21100450 f i c_gameserver.obj
 0002:0007d480       ??1?$_Ranit@USPaybackEntry@CGameStats@@HPBU12@ABU12@@std@@QAE@XZ 21100480 f i c_gameserver.obj
 0002:0007d4b0       ??1?$_Ranit@USHeroKillHistoryEvent@CGameStats@@HPBU12@ABU12@@std@@QAE@XZ 211004b0 f i c_gameserver.obj
 0002:0007d4e0       ??1?$_Ranit@U?$pair@IH@std@@HPBU12@ABU12@@std@@QAE@XZ 211004e0 f i c_gameserver.obj
 0002:0007d510       ??1?$_Ranit@USGuestEntry@@HPBU1@ABU1@@std@@QAE@XZ 21100510 f i c_gameserver.obj
 0002:0007d540       ??0?$_Bidit@U?$pair@$$CBHVCPlayerAccountStats@@@std@@HPBU12@ABU12@@std@@QAE@ABU01@@Z 21100540 f i c_gameserver.obj
 0002:0007d570       ??1?$_Tree_nod@V?$_Tmap_traits@HVCPlayerAccountStats@@U?$less@H@std@@V?$K2MapAllocator@U?$pair@$$CBHVCPlayerAccountStats@@@std@@@@$0A@@std@@@std@@QAE@XZ 21100570 f i c_gameserver.obj
 0002:0007d5f0       ??4?$_Bidit@U?$pair@$$CBHPAVCClientConnection@@@std@@HPBU12@ABU12@@std@@QAEAAU01@ABU01@@Z 211005f0 f i c_gameserver.obj
 0002:0007d620       ??0?$_Bidit@U?$pair@$$CBV?$basic_string@_WU?$char_traits@_W@std@@V?$K2StringAllocator@_W@@@std@@USResContext@CResourceInfo@@@std@@HPBU12@ABU12@@std@@QAE@ABU01@@Z 21100620 f i c_gameserver.obj
 0002:0007d650       ??1?$_Tree_nod@V?$_Tmap_traits@HPAVIHeroEntity@@U?$less@H@std@@V?$K2MapAllocator@U?$pair@$$CBHPAVIHeroEntity@@@std@@@@$0A@@std@@@std@@QAE@XZ 21100650 f i c_gameserver.obj
 0002:0007d6d0       ??0?$_Bidit@U?$pair@$$CBHV?$vector@HV?$K2VectorAllocator@H@@@@@std@@HPBU12@ABU12@@std@@QAE@ABU01@@Z 211006d0 f i c_gameserver.obj
 0002:0007d700       ??4?$_Bidit@U?$pair@$$CBHV?$vector@HV?$K2VectorAllocator@H@@@@@std@@HPBU12@ABU12@@std@@QAEAAU01@ABU01@@Z 21100700 f i c_gameserver.obj
 0002:0007d730       ??1?$_Tree_nod@V?$_Tmap_traits@HV?$vector@HV?$K2VectorAllocator@H@@@@U?$less@H@std@@V?$K2MapAllocator@U?$pair@$$CBHV?$vector@HV?$K2VectorAllocator@H@@@@@std@@@@$0A@@std@@@std@@QAE@XZ 21100730 f i c_gameserver.obj
 0002:0007d7b0       ??0?$_Bidit@U?$pair@$$CBHPAVCGameStats@@@std@@HPBU12@ABU12@@std@@QAE@ABU01@@Z 211007b0 f i c_gameserver.obj
 0002:0007d7e0       ??1?$_Tree_nod@V?$_Tmap_traits@HPAVCGameStats@@U?$less@H@std@@V?$K2MapAllocator@U?$pair@$$CBHPAVCGameStats@@@std@@@@$0A@@std@@@std@@QAE@XZ 211007e0 f i c_gameserver.obj
 0002:0007d860       ??1?$_Tset_traits@IU?$less@I@std@@V?$K2SetAllocator@I@@$0A@@std@@QAE@XZ 21100860 f i c_gameserver.obj
 0002:0007d890       ??1?$_Tmap_traits@GV?$basic_string@_WU?$char_traits@_W@std@@V?$K2StringAllocator@_W@@@std@@U?$less@G@2@V?$K2MapAllocator@U?$pair@$$CBGV?$basic_string@_WU?$char_traits@_W@std@@V?$K2StringAllocator@_W@@@std@@@std@@@@$0A@@std@@QAE@XZ 21100890 f i c_gameserver.obj
 0002:0007d8c0       ??1?$_Tmap_traits@HVCPlayerAccountStats@@U?$less@H@std@@V?$K2MapAllocator@U?$pair@$$CBHVCPlayerAccountStats@@@std@@@@$0A@@std@@QAE@XZ 211008c0 f i c_gameserver.obj
 0002:0007d8f0       ??1?$_Tmap_traits@HPAVIHeroEntity@@U?$less@H@std@@V?$K2MapAllocator@U?$pair@$$CBHPAVIHeroEntity@@@std@@@@$0A@@std@@QAE@XZ 211008f0 f i c_gameserver.obj
 0002:0007d920       ??1?$_Tmap_traits@HV?$vector@HV?$K2VectorAllocator@H@@@@U?$less@H@std@@V?$K2MapAllocator@U?$pair@$$CBHV?$vector@HV?$K2VectorAllocator@H@@@@@std@@@@$0A@@std@@QAE@XZ 21100920 f i c_gameserver.obj
 0002:0007d950       ??1?$_Tmap_traits@HPAVCGameStats@@U?$less@H@std@@V?$K2MapAllocator@U?$pair@$$CBHPAVCGameStats@@@std@@@@$0A@@std@@QAE@XZ 21100950 f i c_gameserver.obj
 0002:0007d980       ??0?$vector@HV?$K2VectorAllocator@H@@@std@@QAE@XZ 21100980 f i c_gameserver.obj
 0002:0007da10       ??0?$vector@HV?$K2VectorAllocator@H@@@std@@QAE@ABV01@@Z 21100a10 f i c_gameserver.obj
 0002:0007db60       ?capacity@?$vector@HV?$K2VectorAllocator@H@@@std@@QBEIXZ 21100b60 f i c_gameserver.obj
 0002:0007dbb0       ?insert@?$vector@HV?$K2VectorAllocator@H@@@std@@QAE?AV?$_Vector_iterator@HV?$K2VectorAllocator@H@@@2@V32@ABH@Z 21100bb0 f i c_gameserver.obj
 0002:0007dd20       ?erase@?$vector@HV?$K2VectorAllocator@H@@@std@@QAE?AV?$_Vector_iterator@HV?$K2VectorAllocator@H@@@2@V32@0@Z 21100d20 f i c_gameserver.obj
 0002:0007dea0       ?_Buy@?$vector@HV?$K2VectorAllocator@H@@@std@@IAE_NI@Z 21100ea0 f i c_gameserver.obj
 0002:0007df50       ?_Ufill@?$vector@HV?$K2VectorAllocator@H@@@std@@IAEPAHPAHIABH@Z 21100f50 f i c_gameserver.obj
 0002:0007dfa0       ?_Orphan_range@?$vector@HV?$K2VectorAllocator@H@@@std@@IBEXPAH0@Z 21100fa0 f i c_gameserver.obj
 0002:0007e040       ?back@?$vector@IV?$K2VectorAllocator@I@@@std@@QBEABIXZ 21101040 f i c_gameserver.obj
 0002:0007e110       ?end@?$vector@IV?$K2VectorAllocator@I@@@std@@QBE?AV?$_Vector_const_iterator@IV?$K2VectorAllocator@I@@@2@XZ 21101110 f i c_gameserver.obj
 0002:0007e160       ??0?$set@IU?$less@I@std@@V?$K2SetAllocator@I@@@std@@QAE@XZ 21101160 f i c_gameserver.obj
 0002:0007e200       ?end@?$_Tree@V?$_Tset_traits@IU?$less@I@std@@V?$K2SetAllocator@I@@$0A@@std@@@std@@QAE?AViterator@12@XZ 21101200 f i c_gameserver.obj
 0002:0007e250       ?erase@?$_Tree@V?$_Tset_traits@IU?$less@I@std@@V?$K2SetAllocator@I@@$0A@@std@@@std@@QAE?AViterator@12@V312@0@Z 21101250 f i c_gameserver.obj
 0002:0007e4e0       ?clear@?$_Tree@V?$_Tset_traits@IU?$less@I@std@@V?$K2SetAllocator@I@@$0A@@std@@@std@@QAEXXZ 211014e0 f i c_gameserver.obj
 0002:0007e570       ?_Erase@?$_Tree@V?$_Tset_traits@IU?$less@I@std@@V?$K2SetAllocator@I@@$0A@@std@@@std@@IAEXPAU_Node@?$_Tree_nod@V?$_Tset_traits@IU?$less@I@std@@V?$K2SetAllocator@I@@$0A@@std@@@2@@Z 21101570 f i c_gameserver.obj
 0002:0007e610       ?_Orphan_ptr@?$_Tree@V?$_Tset_traits@IU?$less@I@std@@V?$K2SetAllocator@I@@$0A@@std@@@std@@IBEXAAV12@PAU_Node@?$_Tree_nod@V?$_Tset_traits@IU?$less@I@std@@V?$K2SetAllocator@I@@$0A@@std@@@2@@Z 21101610 f i c_gameserver.obj
 0002:0007e6c0       ?destroy@?$allocator@U_Node@?$_Tree_nod@V?$_Tset_traits@IU?$less@I@std@@V?$K2SetAllocator@I@@$0A@@std@@@std@@@std@@QAEXPAU_Node@?$_Tree_nod@V?$_Tset_traits@IU?$less@I@std@@V?$K2SetAllocator@I@@$0A@@std@@@2@@Z 211016c0 f i c_gameserver.obj
 0002:0007e6f0       ??$_Destroy@U_Node@?$_Tree_nod@V?$_Tset_traits@IU?$less@I@std@@V?$K2SetAllocator@I@@$0A@@std@@@std@@@std@@YAXPAU_Node@?$_Tree_nod@V?$_Tset_traits@IU?$less@I@std@@V?$K2SetAllocator@I@@$0A@@std@@@0@@Z 211016f0 f i c_gameserver.obj
 0002:0007e710       ?_Copy@?$_Tree@V?$_Tset_traits@IU?$less@I@std@@V?$K2SetAllocator@I@@$0A@@std@@@std@@IAEXABV12@@Z 21101710 f i c_gameserver.obj
 0002:0007e810       ?_Tidy@?$_Tree@V?$_Tset_traits@IU?$less@I@std@@V?$K2SetAllocator@I@@$0A@@std@@@std@@IAEXXZ 21101810 f i c_gameserver.obj
 0002:0007e960       ??1?$K2SetAllocator@I@@QAE@XZ 21101960 f i c_gameserver.obj
 0002:0007e980       ??1?$K2SetAllocator@U_Node@?$_Tree_nod@V?$_Tset_traits@IU?$less@I@std@@V?$K2SetAllocator@I@@$0A@@std@@@std@@@@QAE@XZ 21101980 f i c_gameserver.obj
 0002:0007e9a0       ??1?$K2SetAllocator@PAU_Node@?$_Tree_nod@V?$_Tset_traits@IU?$less@I@std@@V?$K2SetAllocator@I@@$0A@@std@@@std@@@@QAE@XZ 211019a0 f i c_gameserver.obj
 0002:0007e9c0       ??0?$basic_string@_WU?$char_traits@_W@std@@V?$K2StringAllocator@_W@@@std@@QAE@ABV01@II@Z 211019c0 f i c_gameserver.obj
 0002:0007ea80       ?find@?$basic_string@_WU?$char_traits@_W@std@@V?$K2StringAllocator@_W@@@std@@QBEIPB_WII@Z 21101a80 f i c_gameserver.obj
 0002:0007ebc0       ?find_first_of@?$basic_string@_WU?$char_traits@_W@std@@V?$K2StringAllocator@_W@@@std@@QBEIPB_WII@Z 21101bc0 f i c_gameserver.obj
 0002:0007ec90       ?find_first_not_of@?$basic_string@_WU?$char_traits@_W@std@@V?$K2StringAllocator@_W@@@std@@QBEIPB_WII@Z 21101c90 f i c_gameserver.obj
 0002:0007ed60       ??0?$map@GV?$basic_string@_WU?$char_traits@_W@std@@V?$K2StringAllocator@_W@@@std@@U?$less@G@2@V?$K2MapAllocator@U?$pair@$$CBGV?$basic_string@_WU?$char_traits@_W@std@@V?$K2StringAllocator@_W@@@std@@@std@@@@@std@@QAE@XZ 21101d60 f i c_gameserver.obj
 0002:0007ee00       ?_Lmost@?$_Tree@V?$_Tmap_traits@GV?$basic_string@_WU?$char_traits@_W@std@@V?$K2StringAllocator@_W@@@std@@U?$less@G@2@V?$K2MapAllocator@U?$pair@$$CBGV?$basic_string@_WU?$char_traits@_W@std@@V?$K2StringAllocator@_W@@@std@@@std@@@@$0A@@std@@@std@@IBEAAPAU_Node@?$_Tree_nod@V?$_Tmap_traits@GV?$basic_string@_WU?$char_traits@_W@std@@V?$K2StringAllocator@_W@@@std@@U?$less@G@2@V?$K2MapAllocator@U?$pair@$$CBGV?$basic_string@_WU?$char_traits@_W@std@@V?$K2StringAllocator@_W@@@std@@@std@@@@$0A@@std@@@2@XZ 21101e00 f i c_gameserver.obj
 0002:0007ee30       ?_Tidy@?$_Tree@V?$_Tmap_traits@GV?$basic_string@_WU?$char_traits@_W@std@@V?$K2StringAllocator@_W@@@std@@U?$less@G@2@V?$K2MapAllocator@U?$pair@$$CBGV?$basic_string@_WU?$char_traits@_W@std@@V?$K2StringAllocator@_W@@@std@@@std@@@@$0A@@std@@@std@@IAEXXZ 21101e30 f i c_gameserver.obj
 0002:0007ef80       ??1?$K2MapAllocator@U?$pair@$$CBGV?$basic_string@_WU?$char_traits@_W@std@@V?$K2StringAllocator@_W@@@std@@@std@@@@QAE@XZ 21101f80 f i c_gameserver.obj
 0002:0007efa0       ??1?$K2MapAllocator@U_Node@?$_Tree_nod@V?$_Tmap_traits@GV?$basic_string@_WU?$char_traits@_W@std@@V?$K2StringAllocator@_W@@@std@@U?$less@G@2@V?$K2MapAllocator@U?$pair@$$CBGV?$basic_string@_WU?$char_traits@_W@std@@V?$K2StringAllocator@_W@@@std@@@std@@@@$0A@@std@@@std@@@@QAE@XZ 21101fa0 f i c_gameserver.obj
 0002:0007efc0       ??1?$K2MapAllocator@PAU_Node@?$_Tree_nod@V?$_Tmap_traits@GV?$basic_string@_WU?$char_traits@_W@std@@V?$K2StringAllocator@_W@@@std@@U?$less@G@2@V?$K2MapAllocator@U?$pair@$$CBGV?$basic_string@_WU?$char_traits@_W@std@@V?$K2StringAllocator@_W@@@std@@@std@@@@$0A@@std@@@std@@@@QAE@XZ 21101fc0 f i c_gameserver.obj
 0002:0007efe0       ?append@?$basic_string@DU?$char_traits@D@std@@V?$K2StringAllocator@D@@@std@@QAEAAV12@ABV12@@Z 21101fe0 f i c_gameserver.obj
 0002:0007f010       ?insert@?$_Tree@V?$_Tmap_traits@HPAVCPlayer@@U?$less@H@std@@V?$K2MapAllocator@U?$pair@$$CBHPAVCPlayer@@@std@@@@$0A@@std@@@std@@QAE?AViterator@12@V312@ABU?$pair@$$CBHPAVCPlayer@@@2@@Z 21102010 f i c_gameserver.obj
 0002:0007fdd0       ??0?$vector@U?$pair@GE@std@@V?$K2VectorAllocator@U?$pair@GE@std@@@@@std@@QAE@XZ 21102dd0 f i c_gameserver.obj
 0002:0007fe60       ?capacity@?$vector@U?$pair@GE@std@@V?$K2VectorAllocator@U?$pair@GE@std@@@@@std@@QBEIXZ 21102e60 f i c_gameserver.obj
 0002:0007feb0       ?size@?$vector@U?$pair@GE@std@@V?$K2VectorAllocator@U?$pair@GE@std@@@@@std@@QBEIXZ 21102eb0 f i c_gameserver.obj
 0002:0007ff00       ?insert@?$vector@U?$pair@GE@std@@V?$K2VectorAllocator@U?$pair@GE@std@@@@@std@@QAE?AV?$_Vector_iterator@U?$pair@GE@std@@V?$K2VectorAllocator@U?$pair@GE@std@@@@@2@V32@ABU?$pair@GE@2@@Z 21102f00 f i c_gameserver.obj
 0002:00080070       ?erase@?$vector@U?$pair@GE@std@@V?$K2VectorAllocator@U?$pair@GE@std@@@@@std@@QAE?AV?$_Vector_iterator@U?$pair@GE@std@@V?$K2VectorAllocator@U?$pair@GE@std@@@@@2@V32@0@Z 21103070 f i c_gameserver.obj
 0002:000801f0       ?_Tidy@?$vector@U?$pair@GE@std@@V?$K2VectorAllocator@U?$pair@GE@std@@@@@std@@IAEXXZ 211031f0 f i c_gameserver.obj
 0002:00080290       ?_Ufill@?$vector@U?$pair@GE@std@@V?$K2VectorAllocator@U?$pair@GE@std@@@@@std@@IAEPAU?$pair@GE@2@PAU32@IABU32@@Z 21103290 f i c_gameserver.obj
 0002:000802e0       ?_Orphan_range@?$vector@U?$pair@GE@std@@V?$K2VectorAllocator@U?$pair@GE@std@@@@@std@@IBEXPAU?$pair@GE@2@0@Z 211032e0 f i c_gameserver.obj
 0002:00080380       ??1?$K2VectorAllocator@U?$pair@GE@std@@@@QAE@XZ 21103380 f i c_gameserver.obj
 0002:000803a0       ?_Lmost@?$_Tree@V?$_Tmap_traits@IPAVCWorldLight@@U?$less@I@std@@V?$K2MapAllocator@U?$pair@$$CBIPAVCWorldLight@@@std@@@@$0A@@std@@@std@@IBEAAPAU_Node@?$_Tree_nod@V?$_Tmap_traits@IPAVCWorldLight@@U?$less@I@std@@V?$K2MapAllocator@U?$pair@$$CBIPAVCWorldLight@@@std@@@@$0A@@std@@@2@XZ 211033a0 f i c_gameserver.obj
 0002:000803d0       ?_Nextnode@?$list@PAVIUnitEntity@@V?$K2ListAllocator@PAVIUnitEntity@@@@@std@@KAAAPAU_Node@?$_List_nod@PAVIUnitEntity@@V?$K2ListAllocator@PAVIUnitEntity@@@@@2@PAU342@@Z 211033d0 f i c_gameserver.obj
 0002:000803f0       ?_Myval@?$list@PAVIUnitEntity@@V?$K2ListAllocator@PAVIUnitEntity@@@@@std@@KAAAPAVIUnitEntity@@PAU_Node@?$_List_nod@PAVIUnitEntity@@V?$K2ListAllocator@PAVIUnitEntity@@@@@2@@Z 211033f0 f i c_gameserver.obj
 0002:00080410       ?_Inc@const_iterator@?$_Tree@V?$_Tset_traits@IU?$less@I@std@@V?$K2SetAllocator@I@@$0A@@std@@@std@@QAEXXZ 21103410 f i c_gameserver.obj
 0002:00080580       ?get_allocator@?$_Tree@V?$_Tmap_traits@IPAVCTeamInfo@@U?$less@I@std@@V?$K2MapAllocator@U?$pair@$$CBIPAVCTeamInfo@@@std@@@@$0A@@std@@@std@@QBE?AV?$K2MapAllocator@U?$pair@$$CBIPAVCTeamInfo@@@std@@@@XZ 21103580 f i c_gameserver.obj
 0002:000805d0       ?key_comp@?$_Tree@V?$_Tmap_traits@IPAVCTeamInfo@@U?$less@I@std@@V?$K2MapAllocator@U?$pair@$$CBIPAVCTeamInfo@@@std@@@@$0A@@std@@@std@@QBE?AU?$less@I@2@XZ 211035d0 f i c_gameserver.obj
 0002:000805f0       ?_Copy@?$_Tree@V?$_Tmap_traits@IPAVCTeamInfo@@U?$less@I@std@@V?$K2MapAllocator@U?$pair@$$CBIPAVCTeamInfo@@@std@@@@$0A@@std@@@std@@IAEXABV12@@Z 211035f0 f i c_gameserver.obj
 0002:000806f0       ?capacity@?$vector@GV?$K2VectorAllocator@G@@@std@@QBEIXZ 211036f0 f i c_gameserver.obj
 0002:00080740       ?resize@?$vector@GV?$K2VectorAllocator@G@@@std@@QAEXIG@Z 21103740 f i c_gameserver.obj
 0002:000808b0       ?insert@?$vector@GV?$K2VectorAllocator@G@@@std@@QAE?AV?$_Vector_iterator@GV?$K2VectorAllocator@G@@@2@V32@ABG@Z 211038b0 f i c_gameserver.obj
 0002:00080a20       ?erase@?$vector@GV?$K2VectorAllocator@G@@@std@@QAE?AV?$_Vector_iterator@GV?$K2VectorAllocator@G@@@2@V32@0@Z 21103a20 f i c_gameserver.obj
 0002:00080ba0       ?_Ufill@?$vector@GV?$K2VectorAllocator@G@@@std@@IAEPAGPAGIABG@Z 21103ba0 f i c_gameserver.obj
 0002:00080bf0       ?_Orphan_range@?$vector@GV?$K2VectorAllocator@G@@@std@@IBEXPAG0@Z 21103bf0 f i c_gameserver.obj
 0002:00080c90       ??0?$pair@$$CBHPAVCPlayer@@@std@@QAE@ABHABQAVCPlayer@@@Z 21103c90 f i c_gameserver.obj
 0002:00080cd0       ??D?$_Vector_const_iterator@IV?$K2VectorAllocator@I@@@std@@QBEABIXZ 21103cd0 f i c_gameserver.obj
 0002:00080d90       ??E?$_Vector_const_iterator@IV?$K2VectorAllocator@I@@@std@@QAEAAV01@XZ 21103d90 f i c_gameserver.obj
 0002:00080e80       ?_Tidy@?$vector@VCPHPData@@V?$K2VectorAllocator@VCPHPData@@@@@std@@IAEXXZ 21103e80 f i c_gameserver.obj
 0002:00080f20       ??1?$K2VectorAllocator@VCPHPData@@@@QAE@XZ 21103f20 f i c_gameserver.obj
 0002:00080f40       ??0?$_Vector_const_iterator@VCPHPData@@V?$K2VectorAllocator@VCPHPData@@@@@std@@QAE@PAVCPHPData@@PBV_Container_base@1@@Z 21103f40 f i c_gameserver.obj
 0002:00081040       ??8?$_Vector_const_iterator@VCPHPData@@V?$K2VectorAllocator@VCPHPData@@@@@std@@QBE_NABV01@@Z 21104040 f i c_gameserver.obj
 0002:00081080       ?_Tidy@?$vector@VCLastGameInfo@CPlayerAccountHistory@@V?$K2VectorAllocator@VCLastGameInfo@CPlayerAccountHistory@@@@@std@@IAEXXZ 21104080 f i c_gameserver.obj
 0002:00081120       ??1?$K2VectorAllocator@VCLastGameInfo@CPlayerAccountHistory@@@@QAE@XZ 21104120 f i c_gameserver.obj
 0002:00081140       ?_Tidy@?$vector@VCFavHeroes@CPlayerAccountHistory@@V?$K2VectorAllocator@VCFavHeroes@CPlayerAccountHistory@@@@@std@@IAEXXZ 21104140 f i c_gameserver.obj
 0002:000811e0       ??1?$K2VectorAllocator@VCFavHeroes@CPlayerAccountHistory@@@@QAE@XZ 211041e0 f i c_gameserver.obj
 0002:00081200       ?capacity@?$vector@U?$pair@V?$basic_string@DU?$char_traits@D@std@@V?$K2StringAllocator@D@@@std@@V12@@std@@V?$K2VectorAllocator@U?$pair@V?$basic_string@DU?$char_traits@D@std@@V?$K2StringAllocator@D@@@std@@V12@@std@@@@@std@@QBEIXZ 21104200 f i c_gameserver.obj
 0002:00081250       ?begin@?$vector@U?$pair@V?$basic_string@DU?$char_traits@D@std@@V?$K2StringAllocator@D@@@std@@V12@@std@@V?$K2VectorAllocator@U?$pair@V?$basic_string@DU?$char_traits@D@std@@V?$K2StringAllocator@D@@@std@@V12@@std@@@@@std@@QAE?AV?$_Vector_iterator@U?$pair@V?$basic_string@DU?$char_traits@D@std@@V?$K2StringAllocator@D@@@std@@V12@@std@@V?$K2VectorAllocator@U?$pair@V?$basic_string@DU?$char_traits@D@std@@V?$K2StringAllocator@D@@@std@@V12@@std@@@@@2@XZ 21104250 f i c_gameserver.obj
 0002:000812a0       ?end@?$vector@U?$pair@V?$basic_string@DU?$char_traits@D@std@@V?$K2StringAllocator@D@@@std@@V12@@std@@V?$K2VectorAllocator@U?$pair@V?$basic_string@DU?$char_traits@D@std@@V?$K2StringAllocator@D@@@std@@V12@@std@@@@@std@@QAE?AV?$_Vector_iterator@U?$pair@V?$basic_string@DU?$char_traits@D@std@@V?$K2StringAllocator@D@@@std@@V12@@std@@V?$K2VectorAllocator@U?$pair@V?$basic_string@DU?$char_traits@D@std@@V?$K2StringAllocator@D@@@std@@V12@@std@@@@@2@XZ 211042a0 f i c_gameserver.obj
 0002:000812f0       ?insert@?$vector@U?$pair@V?$basic_string@DU?$char_traits@D@std@@V?$K2StringAllocator@D@@@std@@V12@@std@@V?$K2VectorAllocator@U?$pair@V?$basic_string@DU?$char_traits@D@std@@V?$K2StringAllocator@D@@@std@@V12@@std@@@@@std@@QAE?AV?$_Vector_iterator@U?$pair@V?$basic_string@DU?$char_traits@D@std@@V?$K2StringAllocator@D@@@std@@V12@@std@@V?$K2VectorAllocator@U?$pair@V?$basic_string@DU?$char_traits@D@std@@V?$K2StringAllocator@D@@@std@@V12@@std@@@@@2@V32@ABU?$pair@V?$basic_string@DU?$char_traits@D@std@@V?$K2StringAllocator@D@@@std@@V12@@2@@Z 211042f0 f i c_gameserver.obj
 0002:00081460       ?erase@?$vector@U?$pair@V?$basic_string@DU?$char_traits@D@std@@V?$K2StringAllocator@D@@@std@@V12@@std@@V?$K2VectorAllocator@U?$pair@V?$basic_string@DU?$char_traits@D@std@@V?$K2StringAllocator@D@@@std@@V12@@std@@@@@std@@QAE?AV?$_Vector_iterator@U?$pair@V?$basic_string@DU?$char_traits@D@std@@V?$K2StringAllocator@D@@@std@@V12@@std@@V?$K2VectorAllocator@U?$pair@V?$basic_string@DU?$char_traits@D@std@@V?$K2StringAllocator@D@@@std@@V12@@std@@@@@2@V32@0@Z 21104460 f i c_gameserver.obj
 0002:000815e0       ?_Ufill@?$vector@U?$pair@V?$basic_string@DU?$char_traits@D@std@@V?$K2StringAllocator@D@@@std@@V12@@std@@V?$K2VectorAllocator@U?$pair@V?$basic_string@DU?$char_traits@D@std@@V?$K2StringAllocator@D@@@std@@V12@@std@@@@@std@@IAEPAU?$pair@V?$basic_string@DU?$char_traits@D@std@@V?$K2StringAllocator@D@@@std@@V12@@2@PAU32@IABU32@@Z 211045e0 f i c_gameserver.obj
 0002:00081630       ?_Orphan_range@?$vector@U?$pair@V?$basic_string@DU?$char_traits@D@std@@V?$K2StringAllocator@D@@@std@@V12@@std@@V?$K2VectorAllocator@U?$pair@V?$basic_string@DU?$char_traits@D@std@@V?$K2StringAllocator@D@@@std@@V12@@std@@@@@std@@IBEXPAU?$pair@V?$basic_string@DU?$char_traits@D@std@@V?$K2StringAllocator@D@@@std@@V12@@2@0@Z 21104630 f i c_gameserver.obj
 0002:000816d0       ?capacity@?$vector@USSmackdownEntry@CGameStats@@V?$K2VectorAllocator@USSmackdownEntry@CGameStats@@@@@std@@QBEIXZ 211046d0 f i c_gameserver.obj
 0002:00081720       ?end@?$vector@USSmackdownEntry@CGameStats@@V?$K2VectorAllocator@USSmackdownEntry@CGameStats@@@@@std@@QAE?AV?$_Vector_iterator@USSmackdownEntry@CGameStats@@V?$K2VectorAllocator@USSmackdownEntry@CGameStats@@@@@2@XZ 21104720 f i c_gameserver.obj
 0002:00081770       ?insert@?$vector@USSmackdownEntry@CGameStats@@V?$K2VectorAllocator@USSmackdownEntry@CGameStats@@@@@std@@QAE?AV?$_Vector_iterator@USSmackdownEntry@CGameStats@@V?$K2VectorAllocator@USSmackdownEntry@CGameStats@@@@@2@V32@ABUSSmackdownEntry@CGameStats@@@Z 21104770 f i c_gameserver.obj
 0002:000818e0       ?_Ufill@?$vector@USSmackdownEntry@CGameStats@@V?$K2VectorAllocator@USSmackdownEntry@CGameStats@@@@@std@@IAEPAUSSmackdownEntry@CGameStats@@PAU34@IABU34@@Z 211048e0 f i c_gameserver.obj
 0002:00081930       ?_Orphan_range@?$vector@USSmackdownEntry@CGameStats@@V?$K2VectorAllocator@USSmackdownEntry@CGameStats@@@@@std@@IBEXPAUSSmackdownEntry@CGameStats@@0@Z 21104930 f i c_gameserver.obj
 0002:000819d0       ?capacity@?$vector@USHumiliationEntry@CGameStats@@V?$K2VectorAllocator@USHumiliationEntry@CGameStats@@@@@std@@QBEIXZ 211049d0 f i c_gameserver.obj
 0002:00081a20       ?end@?$vector@USHumiliationEntry@CGameStats@@V?$K2VectorAllocator@USHumiliationEntry@CGameStats@@@@@std@@QAE?AV?$_Vector_iterator@USHumiliationEntry@CGameStats@@V?$K2VectorAllocator@USHumiliationEntry@CGameStats@@@@@2@XZ 21104a20 f i c_gameserver.obj
 0002:00081a70       ?insert@?$vector@USHumiliationEntry@CGameStats@@V?$K2VectorAllocator@USHumiliationEntry@CGameStats@@@@@std@@QAE?AV?$_Vector_iterator@USHumiliationEntry@CGameStats@@V?$K2VectorAllocator@USHumiliationEntry@CGameStats@@@@@2@V32@ABUSHumiliationEntry@CGameStats@@@Z 21104a70 f i c_gameserver.obj
 0002:00081be0       ?_Ufill@?$vector@USHumiliationEntry@CGameStats@@V?$K2VectorAllocator@USHumiliationEntry@CGameStats@@@@@std@@IAEPAUSHumiliationEntry@CGameStats@@PAU34@IABU34@@Z 21104be0 f i c_gameserver.obj
 0002:00081c30       ?_Orphan_range@?$vector@USHumiliationEntry@CGameStats@@V?$K2VectorAllocator@USHumiliationEntry@CGameStats@@@@@std@@IBEXPAUSHumiliationEntry@CGameStats@@0@Z 21104c30 f i c_gameserver.obj
 0002:00081cd0       ?capacity@?$vector@USRivalEntry@CGameStats@@V?$K2VectorAllocator@USRivalEntry@CGameStats@@@@@std@@QBEIXZ 21104cd0 f i c_gameserver.obj
 0002:00081d20       ?end@?$vector@USRivalEntry@CGameStats@@V?$K2VectorAllocator@USRivalEntry@CGameStats@@@@@std@@QAE?AV?$_Vector_iterator@USRivalEntry@CGameStats@@V?$K2VectorAllocator@USRivalEntry@CGameStats@@@@@2@XZ 21104d20 f i c_gameserver.obj
 0002:00081d70       ?size@?$vector@USRivalEntry@CGameStats@@V?$K2VectorAllocator@USRivalEntry@CGameStats@@@@@std@@QBEIXZ 21104d70 f i c_gameserver.obj
 0002:00081dc0       ?insert@?$vector@USRivalEntry@CGameStats@@V?$K2VectorAllocator@USRivalEntry@CGameStats@@@@@std@@QAE?AV?$_Vector_iterator@USRivalEntry@CGameStats@@V?$K2VectorAllocator@USRivalEntry@CGameStats@@@@@2@V32@ABUSRivalEntry@CGameStats@@@Z 21104dc0 f i c_gameserver.obj
 0002:00081f30       ?_Ufill@?$vector@USRivalEntry@CGameStats@@V?$K2VectorAllocator@USRivalEntry@CGameStats@@@@@std@@IAEPAUSRivalEntry@CGameStats@@PAU34@IABU34@@Z 21104f30 f i c_gameserver.obj
 0002:00081f80       ?_Orphan_range@?$vector@USRivalEntry@CGameStats@@V?$K2VectorAllocator@USRivalEntry@CGameStats@@@@@std@@IBEXPAUSRivalEntry@CGameStats@@0@Z 21104f80 f i c_gameserver.obj
 0002:00082020       ?capacity@?$vector@USPaybackEntry@CGameStats@@V?$K2VectorAllocator@USPaybackEntry@CGameStats@@@@@std@@QBEIXZ 21105020 f i c_gameserver.obj
 0002:00082070       ?end@?$vector@USPaybackEntry@CGameStats@@V?$K2VectorAllocator@USPaybackEntry@CGameStats@@@@@std@@QAE?AV?$_Vector_iterator@USPaybackEntry@CGameStats@@V?$K2VectorAllocator@USPaybackEntry@CGameStats@@@@@2@XZ 21105070 f i c_gameserver.obj
 0002:000820c0       ?insert@?$vector@USPaybackEntry@CGameStats@@V?$K2VectorAllocator@USPaybackEntry@CGameStats@@@@@std@@QAE?AV?$_Vector_iterator@USPaybackEntry@CGameStats@@V?$K2VectorAllocator@USPaybackEntry@CGameStats@@@@@2@V32@ABUSPaybackEntry@CGameStats@@@Z 211050c0 f i c_gameserver.obj
 0002:00082230       ?_Ufill@?$vector@USPaybackEntry@CGameStats@@V?$K2VectorAllocator@USPaybackEntry@CGameStats@@@@@std@@IAEPAUSPaybackEntry@CGameStats@@PAU34@IABU34@@Z 21105230 f i c_gameserver.obj
 0002:00082280       ?_Orphan_range@?$vector@USPaybackEntry@CGameStats@@V?$K2VectorAllocator@USPaybackEntry@CGameStats@@@@@std@@IBEXPAUSPaybackEntry@CGameStats@@0@Z 21105280 f i c_gameserver.obj
 0002:00082320       ?capacity@?$vector@USAbilityUpgradeEntry@CGameStats@@V?$K2VectorAllocator@USAbilityUpgradeEntry@CGameStats@@@@@std@@QBEIXZ 21105320 f i c_gameserver.obj
 0002:00082370       ?end@?$vector@USAbilityUpgradeEntry@CGameStats@@V?$K2VectorAllocator@USAbilityUpgradeEntry@CGameStats@@@@@std@@QAE?AV?$_Vector_iterator@USAbilityUpgradeEntry@CGameStats@@V?$K2VectorAllocator@USAbilityUpgradeEntry@CGameStats@@@@@2@XZ 21105370 f i c_gameserver.obj
 0002:000823c0       ?size@?$vector@USAbilityUpgradeEntry@CGameStats@@V?$K2VectorAllocator@USAbilityUpgradeEntry@CGameStats@@@@@std@@QBEIXZ 211053c0 f i c_gameserver.obj
 0002:00082410       ?insert@?$vector@USAbilityUpgradeEntry@CGameStats@@V?$K2VectorAllocator@USAbilityUpgradeEntry@CGameStats@@@@@std@@QAE?AV?$_Vector_iterator@USAbilityUpgradeEntry@CGameStats@@V?$K2VectorAllocator@USAbilityUpgradeEntry@CGameStats@@@@@2@V32@ABUSAbilityUpgradeEntry@CGameStats@@@Z 21105410 f i c_gameserver.obj
 0002:00082580       ?_Ufill@?$vector@USAbilityUpgradeEntry@CGameStats@@V?$K2VectorAllocator@USAbilityUpgradeEntry@CGameStats@@@@@std@@IAEPAUSAbilityUpgradeEntry@CGameStats@@PAU34@IABU34@@Z 21105580 f i c_gameserver.obj
 0002:000825d0       ?_Orphan_range@?$vector@USAbilityUpgradeEntry@CGameStats@@V?$K2VectorAllocator@USAbilityUpgradeEntry@CGameStats@@@@@std@@IBEXPAUSAbilityUpgradeEntry@CGameStats@@0@Z 211055d0 f i c_gameserver.obj
 0002:00082670       ?capacity@?$vector@USItemHistoryEntry@CGameStats@@V?$K2VectorAllocator@USItemHistoryEntry@CGameStats@@@@@std@@QBEIXZ 21105670 f i c_gameserver.obj
 0002:000826c0       ?end@?$vector@USItemHistoryEntry@CGameStats@@V?$K2VectorAllocator@USItemHistoryEntry@CGameStats@@@@@std@@QAE?AV?$_Vector_iterator@USItemHistoryEntry@CGameStats@@V?$K2VectorAllocator@USItemHistoryEntry@CGameStats@@@@@2@XZ 211056c0 f i c_gameserver.obj
 0002:00082710       ?size@?$vector@USItemHistoryEntry@CGameStats@@V?$K2VectorAllocator@USItemHistoryEntry@CGameStats@@@@@std@@QBEIXZ 21105710 f i c_gameserver.obj
 0002:00082760       ?insert@?$vector@USItemHistoryEntry@CGameStats@@V?$K2VectorAllocator@USItemHistoryEntry@CGameStats@@@@@std@@QAE?AV?$_Vector_iterator@USItemHistoryEntry@CGameStats@@V?$K2VectorAllocator@USItemHistoryEntry@CGameStats@@@@@2@V32@ABUSItemHistoryEntry@CGameStats@@@Z 21105760 f i c_gameserver.obj
 0002:000828d0       ?_Ufill@?$vector@USItemHistoryEntry@CGameStats@@V?$K2VectorAllocator@USItemHistoryEntry@CGameStats@@@@@std@@IAEPAUSItemHistoryEntry@CGameStats@@PAU34@IABU34@@Z 211058d0 f i c_gameserver.obj
 0002:00082920       ?_Orphan_range@?$vector@USItemHistoryEntry@CGameStats@@V?$K2VectorAllocator@USItemHistoryEntry@CGameStats@@@@@std@@IBEXPAUSItemHistoryEntry@CGameStats@@0@Z 21105920 f i c_gameserver.obj
 0002:000829c0       ?capacity@?$vector@USHeroKillHistoryEvent@CGameStats@@V?$K2VectorAllocator@USHeroKillHistoryEvent@CGameStats@@@@@std@@QBEIXZ 211059c0 f i c_gameserver.obj
 0002:00082a10       ?end@?$vector@USHeroKillHistoryEvent@CGameStats@@V?$K2VectorAllocator@USHeroKillHistoryEvent@CGameStats@@@@@std@@QAE?AV?$_Vector_iterator@USHeroKillHistoryEvent@CGameStats@@V?$K2VectorAllocator@USHeroKillHistoryEvent@CGameStats@@@@@2@XZ 21105a10 f i c_gameserver.obj
 0002:00082a60       ?size@?$vector@USHeroKillHistoryEvent@CGameStats@@V?$K2VectorAllocator@USHeroKillHistoryEvent@CGameStats@@@@@std@@QBEIXZ 21105a60 f i c_gameserver.obj
 0002:00082ab0       ?insert@?$vector@USHeroKillHistoryEvent@CGameStats@@V?$K2VectorAllocator@USHeroKillHistoryEvent@CGameStats@@@@@std@@QAE?AV?$_Vector_iterator@USHeroKillHistoryEvent@CGameStats@@V?$K2VectorAllocator@USHeroKillHistoryEvent@CGameStats@@@@@2@V32@ABUSHeroKillHistoryEvent@CGameStats@@@Z 21105ab0 f i c_gameserver.obj
 0002:00082c20       ?_Ufill@?$vector@USHeroKillHistoryEvent@CGameStats@@V?$K2VectorAllocator@USHeroKillHistoryEvent@CGameStats@@@@@std@@IAEPAUSHeroKillHistoryEvent@CGameStats@@PAU34@IABU34@@Z 21105c20 f i c_gameserver.obj
 0002:00082c70       ?_Orphan_range@?$vector@USHeroKillHistoryEvent@CGameStats@@V?$K2VectorAllocator@USHeroKillHistoryEvent@CGameStats@@@@@std@@IBEXPAUSHeroKillHistoryEvent@CGameStats@@0@Z 21105c70 f i c_gameserver.obj
 0002:00082d10       ?capacity@?$vector@U?$pair@IH@std@@V?$K2VectorAllocator@U?$pair@IH@std@@@@@std@@QBEIXZ 21105d10 f i c_gameserver.obj
 0002:00082d60       ?end@?$vector@U?$pair@IH@std@@V?$K2VectorAllocator@U?$pair@IH@std@@@@@std@@QAE?AV?$_Vector_iterator@U?$pair@IH@std@@V?$K2VectorAllocator@U?$pair@IH@std@@@@@2@XZ 21105d60 f i c_gameserver.obj
 0002:00082db0       ?size@?$vector@U?$pair@IH@std@@V?$K2VectorAllocator@U?$pair@IH@std@@@@@std@@QBEIXZ 21105db0 f i c_gameserver.obj
 0002:00082e00       ?insert@?$vector@U?$pair@IH@std@@V?$K2VectorAllocator@U?$pair@IH@std@@@@@std@@QAE?AV?$_Vector_iterator@U?$pair@IH@std@@V?$K2VectorAllocator@U?$pair@IH@std@@@@@2@V32@ABU?$pair@IH@2@@Z 21105e00 f i c_gameserver.obj
 0002:00082f70       ?_Ufill@?$vector@U?$pair@IH@std@@V?$K2VectorAllocator@U?$pair@IH@std@@@@@std@@IAEPAU?$pair@IH@2@PAU32@IABU32@@Z 21105f70 f i c_gameserver.obj
 0002:00082fc0       ?_Orphan_range@?$vector@U?$pair@IH@std@@V?$K2VectorAllocator@U?$pair@IH@std@@@@@std@@IBEXPAU?$pair@IH@2@0@Z 21105fc0 f i c_gameserver.obj
 0002:00083060       ??0?$vector@USGuestEntry@@V?$K2VectorAllocator@USGuestEntry@@@@@std@@QAE@XZ 21106060 f i c_gameserver.obj
 0002:000830f0       ?begin@?$vector@USGuestEntry@@V?$K2VectorAllocator@USGuestEntry@@@@@std@@QAE?AV?$_Vector_iterator@USGuestEntry@@V?$K2VectorAllocator@USGuestEntry@@@@@2@XZ 211060f0 f i c_gameserver.obj
 0002:00083140       ?end@?$vector@USGuestEntry@@V?$K2VectorAllocator@USGuestEntry@@@@@std@@QAE?AV?$_Vector_iterator@USGuestEntry@@V?$K2VectorAllocator@USGuestEntry@@@@@2@XZ 21106140 f i c_gameserver.obj
 0002:00083190       ?erase@?$vector@USGuestEntry@@V?$K2VectorAllocator@USGuestEntry@@@@@std@@QAE?AV?$_Vector_iterator@USGuestEntry@@V?$K2VectorAllocator@USGuestEntry@@@@@2@V32@0@Z 21106190 f i c_gameserver.obj
 0002:00083310       ?_Tidy@?$vector@USGuestEntry@@V?$K2VectorAllocator@USGuestEntry@@@@@std@@IAEXXZ 21106310 f i c_gameserver.obj
 0002:000833b0       ??1?$K2VectorAllocator@USGuestEntry@@@@QAE@XZ 211063b0 f i c_gameserver.obj
 0002:000833d0       ??0?$map@HVCPlayerAccountStats@@U?$less@H@std@@V?$K2MapAllocator@U?$pair@$$CBHVCPlayerAccountStats@@@std@@@@@std@@QAE@XZ 211063d0 f i c_gameserver.obj
 0002:00083470       ?_Key@?$_Tree@V?$_Tmap_traits@HVCPlayerAccountStats@@U?$less@H@std@@V?$K2MapAllocator@U?$pair@$$CBHVCPlayerAccountStats@@@std@@@@$0A@@std@@@std@@KAABHPAU_Node@?$_Tree_nod@V?$_Tmap_traits@HVCPlayerAccountStats@@U?$less@H@std@@V?$K2MapAllocator@U?$pair@$$CBHVCPlayerAccountStats@@@std@@@@$0A@@std@@@2@@Z 21106470 f i c_gameserver.obj
 0002:000834a0       ?insert@?$_Tree@V?$_Tmap_traits@HVCPlayerAccountStats@@U?$less@H@std@@V?$K2MapAllocator@U?$pair@$$CBHVCPlayerAccountStats@@@std@@@@$0A@@std@@@std@@QAE?AViterator@12@V312@ABU?$pair@$$CBHVCPlayerAccountStats@@@2@@Z 211064a0 f i c_gameserver.obj
 0002:00084260       ?lower_bound@?$_Tree@V?$_Tmap_traits@HVCPlayerAccountStats@@U?$less@H@std@@V?$K2MapAllocator@U?$pair@$$CBHVCPlayerAccountStats@@@std@@@@$0A@@std@@@std@@QAE?AViterator@12@ABH@Z 21107260 f i c_gameserver.obj
 0002:000842c0       ?_Tidy@?$_Tree@V?$_Tmap_traits@HVCPlayerAccountStats@@U?$less@H@std@@V?$K2MapAllocator@U?$pair@$$CBHVCPlayerAccountStats@@@std@@@@$0A@@std@@@std@@IAEXXZ 211072c0 f i c_gameserver.obj
 0002:00084410       ??1?$K2MapAllocator@U?$pair@$$CBHVCPlayerAccountStats@@@std@@@@QAE@XZ 21107410 f i c_gameserver.obj
 0002:00084430       ??1?$K2MapAllocator@U_Node@?$_Tree_nod@V?$_Tmap_traits@HVCPlayerAccountStats@@U?$less@H@std@@V?$K2MapAllocator@U?$pair@$$CBHVCPlayerAccountStats@@@std@@@@$0A@@std@@@std@@@@QAE@XZ 21107430 f i c_gameserver.obj
 0002:00084450       ??1?$K2MapAllocator@PAU_Node@?$_Tree_nod@V?$_Tmap_traits@HVCPlayerAccountStats@@U?$less@H@std@@V?$K2MapAllocator@U?$pair@$$CBHVCPlayerAccountStats@@@std@@@@$0A@@std@@@std@@@@QAE@XZ 21107450 f i c_gameserver.obj
 0002:00084470       ??0iterator@?$_Tree@V?$_Tmap_traits@HVCPlayerAccountStats@@U?$less@H@std@@V?$K2MapAllocator@U?$pair@$$CBHVCPlayerAccountStats@@@std@@@@$0A@@std@@@std@@QAE@PAU_Node@?$_Tree_nod@V?$_Tmap_traits@HVCPlayerAccountStats@@U?$less@H@std@@V?$K2MapAllocator@U?$pair@$$CBHVCPlayerAccountStats@@@std@@@@$0A@@std@@@2@PBV12@@Z 21107470 f i c_gameserver.obj
 0002:000844b0       ??Diterator@?$_Tree@V?$_Tmap_traits@HVCPlayerAccountStats@@U?$less@H@std@@V?$K2MapAllocator@U?$pair@$$CBHVCPlayerAccountStats@@@std@@@@$0A@@std@@@std@@QBEAAU?$pair@$$CBHVCPlayerAccountStats@@@2@XZ 211074b0 f i c_gameserver.obj
 0002:000844e0       ??0const_iterator@?$_Tree@V?$_Tmap_traits@HVCPlayerAccountStats@@U?$less@H@std@@V?$K2MapAllocator@U?$pair@$$CBHVCPlayerAccountStats@@@std@@@@$0A@@std@@@std@@QAE@XZ 211074e0 f i c_gameserver.obj
 0002:00084520       ?_Mynode@const_iterator@?$_Tree@V?$_Tmap_traits@HVCPlayerAccountStats@@U?$less@H@std@@V?$K2MapAllocator@U?$pair@$$CBHVCPlayerAccountStats@@@std@@@@$0A@@std@@@std@@QBEPAU_Node@?$_Tree_nod@V?$_Tmap_traits@HVCPlayerAccountStats@@U?$less@H@std@@V?$K2MapAllocator@U?$pair@$$CBHVCPlayerAccountStats@@@std@@@@$0A@@std@@@3@XZ 21107520 f i c_gameserver.obj
 0002:00084540       ??0?$vector@USMatchKillEntry@@V?$K2VectorAllocator@USMatchKillEntry@@@@@std@@QAE@XZ 21107540 f i c_gameserver.obj
 0002:000845d0       ?capacity@?$vector@USMatchKillEntry@@V?$K2VectorAllocator@USMatchKillEntry@@@@@std@@QBEIXZ 211075d0 f i c_gameserver.obj
 0002:00084620       ?size@?$vector@USMatchKillEntry@@V?$K2VectorAllocator@USMatchKillEntry@@@@@std@@QBEIXZ 21107620 f i c_gameserver.obj
 0002:00084670       ?insert@?$vector@USMatchKillEntry@@V?$K2VectorAllocator@USMatchKillEntry@@@@@std@@QAE?AV?$_Vector_iterator@USMatchKillEntry@@V?$K2VectorAllocator@USMatchKillEntry@@@@@2@V32@ABUSMatchKillEntry@@@Z 21107670 f i c_gameserver.obj
 0002:000847e0       ?erase@?$vector@USMatchKillEntry@@V?$K2VectorAllocator@USMatchKillEntry@@@@@std@@QAE?AV?$_Vector_iterator@USMatchKillEntry@@V?$K2VectorAllocator@USMatchKillEntry@@@@@2@V32@0@Z 211077e0 f i c_gameserver.obj
 0002:00084960       ?_Tidy@?$vector@USMatchKillEntry@@V?$K2VectorAllocator@USMatchKillEntry@@@@@std@@IAEXXZ 21107960 f i c_gameserver.obj
 0002:00084a00       ?_Ufill@?$vector@USMatchKillEntry@@V?$K2VectorAllocator@USMatchKillEntry@@@@@std@@IAEPAUSMatchKillEntry@@PAU3@IABU3@@Z 21107a00 f i c_gameserver.obj
 0002:00084a50       ?_Orphan_range@?$vector@USMatchKillEntry@@V?$K2VectorAllocator@USMatchKillEntry@@@@@std@@IBEXPAUSMatchKillEntry@@0@Z 21107a50 f i c_gameserver.obj
 0002:00084af0       ??1?$K2VectorAllocator@USMatchKillEntry@@@@QAE@XZ 21107af0 f i c_gameserver.obj
 0002:00084b10       ??0?$vector@USDelayedMessage@CGameServer@@V?$K2VectorAllocator@USDelayedMessage@CGameServer@@@@@std@@QAE@XZ 21107b10 f i c_gameserver.obj
 0002:00084ba0       ?capacity@?$vector@USDelayedMessage@CGameServer@@V?$K2VectorAllocator@USDelayedMessage@CGameServer@@@@@std@@QBEIXZ 21107ba0 f i c_gameserver.obj
 0002:00084bf0       ?size@?$vector@USDelayedMessage@CGameServer@@V?$K2VectorAllocator@USDelayedMessage@CGameServer@@@@@std@@QBEIXZ 21107bf0 f i c_gameserver.obj
 0002:00084c40       ?insert@?$vector@USDelayedMessage@CGameServer@@V?$K2VectorAllocator@USDelayedMessage@CGameServer@@@@@std@@QAE?AV?$_Vector_iterator@USDelayedMessage@CGameServer@@V?$K2VectorAllocator@USDelayedMessage@CGameServer@@@@@2@V32@ABUSDelayedMessage@CGameServer@@@Z 21107c40 f i c_gameserver.obj
 0002:00084db0       ?_Destroy@?$vector@USDelayedMessage@CGameServer@@V?$K2VectorAllocator@USDelayedMessage@CGameServer@@@@@std@@IAEXPAUSDelayedMessage@CGameServer@@0@Z 21107db0 f i c_gameserver.obj
 0002:00084df0       ?_Tidy@?$vector@USDelayedMessage@CGameServer@@V?$K2VectorAllocator@USDelayedMessage@CGameServer@@@@@std@@IAEXXZ 21107df0 f i c_gameserver.obj
 0002:00084e90       ?_Ufill@?$vector@USDelayedMessage@CGameServer@@V?$K2VectorAllocator@USDelayedMessage@CGameServer@@@@@std@@IAEPAUSDelayedMessage@CGameServer@@PAU34@IABU34@@Z 21107e90 f i c_gameserver.obj
 0002:00084ee0       ?_Orphan_range@?$vector@USDelayedMessage@CGameServer@@V?$K2VectorAllocator@USDelayedMessage@CGameServer@@@@@std@@IBEXPAUSDelayedMessage@CGameServer@@0@Z 21107ee0 f i c_gameserver.obj
 0002:00084f80       ??1?$K2VectorAllocator@USDelayedMessage@CGameServer@@@@QAE@XZ 21107f80 f i c_gameserver.obj
 0002:00084fa0       ?_Lmost@?$_Tree@V?$_Tmap_traits@IVCBufferDynamic@@U?$less@I@std@@V?$K2MapAllocator@U?$pair@$$CBIVCBufferDynamic@@@std@@@@$0A@@std@@@std@@IBEAAPAU_Node@?$_Tree_nod@V?$_Tmap_traits@IVCBufferDynamic@@U?$less@I@std@@V?$K2MapAllocator@U?$pair@$$CBIVCBufferDynamic@@@std@@@@$0A@@std@@@2@XZ 21107fa0 f i c_gameserver.obj
 0002:00084fd0       ?_Lmost@?$_Tree@V?$_Tmap_traits@IV?$basic_string@DU?$char_traits@D@std@@V?$K2StringAllocator@D@@@std@@U?$less@I@2@V?$K2MapAllocator@U?$pair@$$CBIV?$basic_string@DU?$char_traits@D@std@@V?$K2StringAllocator@D@@@std@@@std@@@@$0A@@std@@@std@@IBEAAPAU_Node@?$_Tree_nod@V?$_Tmap_traits@IV?$basic_string@DU?$char_traits@D@std@@V?$K2StringAllocator@D@@@std@@U?$less@I@2@V?$K2MapAllocator@U?$pair@$$CBIV?$basic_string@DU?$char_traits@D@std@@V?$K2StringAllocator@D@@@std@@@std@@@@$0A@@std@@@2@XZ 21107fd0 f i c_gameserver.obj
 0002:00085000       ?_Color@?$_Tree@V?$_Tmap_traits@HPAVCClientConnection@@U?$less@H@std@@V?$K2MapAllocator@U?$pair@$$CBHPAVCClientConnection@@@std@@@@$0A@@std@@@std@@KAAADPAU_Node@?$_Tree_nod@V?$_Tmap_traits@HPAVCClientConnection@@U?$less@H@std@@V?$K2MapAllocator@U?$pair@$$CBHPAVCClientConnection@@@std@@@@$0A@@std@@@2@@Z 21108000 f i c_gameserver.obj
 0002:00085020       ?_Isnil@?$_Tree@V?$_Tmap_traits@HPAVCClientConnection@@U?$less@H@std@@V?$K2MapAllocator@U?$pair@$$CBHPAVCClientConnection@@@std@@@@$0A@@std@@@std@@KAAADPAU_Node@?$_Tree_nod@V?$_Tmap_traits@HPAVCClientConnection@@U?$less@H@std@@V?$K2MapAllocator@U?$pair@$$CBHPAVCClientConnection@@@std@@@@$0A@@std@@@2@@Z 21108020 f i c_gameserver.obj
 0002:00085040       ?_Key@?$_Tree@V?$_Tmap_traits@HPAVCClientConnection@@U?$less@H@std@@V?$K2MapAllocator@U?$pair@$$CBHPAVCClientConnection@@@std@@@@$0A@@std@@@std@@KAABHPAU_Node@?$_Tree_nod@V?$_Tmap_traits@HPAVCClientConnection@@U?$less@H@std@@V?$K2MapAllocator@U?$pair@$$CBHPAVCClientConnection@@@std@@@@$0A@@std@@@2@@Z 21108040 f i c_gameserver.obj
 0002:00085070       ?_Left@?$_Tree@V?$_Tmap_traits@HPAVCClientConnection@@U?$less@H@std@@V?$K2MapAllocator@U?$pair@$$CBHPAVCClientConnection@@@std@@@@$0A@@std@@@std@@KAAAPAU_Node@?$_Tree_nod@V?$_Tmap_traits@HPAVCClientConnection@@U?$less@H@std@@V?$K2MapAllocator@U?$pair@$$CBHPAVCClientConnection@@@std@@@@$0A@@std@@@2@PAU342@@Z 21108070 f i c_gameserver.obj
 0002:00085090       ?_Parent@?$_Tree@V?$_Tmap_traits@HPAVCClientConnection@@U?$less@H@std@@V?$K2MapAllocator@U?$pair@$$CBHPAVCClientConnection@@@std@@@@$0A@@std@@@std@@KAAAPAU_Node@?$_Tree_nod@V?$_Tmap_traits@HPAVCClientConnection@@U?$less@H@std@@V?$K2MapAllocator@U?$pair@$$CBHPAVCClientConnection@@@std@@@@$0A@@std@@@2@PAU342@@Z 21108090 f i c_gameserver.obj
 0002:000850b0       ?_Right@?$_Tree@V?$_Tmap_traits@HPAVCClientConnection@@U?$less@H@std@@V?$K2MapAllocator@U?$pair@$$CBHPAVCClientConnection@@@std@@@@$0A@@std@@@std@@KAAAPAU_Node@?$_Tree_nod@V?$_Tmap_traits@HPAVCClientConnection@@U?$less@H@std@@V?$K2MapAllocator@U?$pair@$$CBHPAVCClientConnection@@@std@@@@$0A@@std@@@2@PAU342@@Z 211080b0 f i c_gameserver.obj
 0002:000850d0       ?insert@?$_Tree@V?$_Tmap_traits@HPAVCClientConnection@@U?$less@H@std@@V?$K2MapAllocator@U?$pair@$$CBHPAVCClientConnection@@@std@@@@$0A@@std@@@std@@QAE?AViterator@12@V312@ABU?$pair@$$CBHPAVCClientConnection@@@2@@Z 211080d0 f i c_gameserver.obj
 0002:00085e90       ?size@?$_Tree@V?$_Tmap_traits@HPAVCClientConnection@@U?$less@H@std@@V?$K2MapAllocator@U?$pair@$$CBHPAVCClientConnection@@@std@@@@$0A@@std@@@std@@QBEIXZ 21108e90 f i c_gameserver.obj
 0002:00085eb0       ?lower_bound@?$_Tree@V?$_Tmap_traits@HPAVCClientConnection@@U?$less@H@std@@V?$K2MapAllocator@U?$pair@$$CBHPAVCClientConnection@@@std@@@@$0A@@std@@@std@@QAE?AViterator@12@ABH@Z 21108eb0 f i c_gameserver.obj
 0002:00085f10       ?_Lmost@?$_Tree@V?$_Tmap_traits@HPAVCClientConnection@@U?$less@H@std@@V?$K2MapAllocator@U?$pair@$$CBHPAVCClientConnection@@@std@@@@$0A@@std@@@std@@IBEAAPAU_Node@?$_Tree_nod@V?$_Tmap_traits@HPAVCClientConnection@@U?$less@H@std@@V?$K2MapAllocator@U?$pair@$$CBHPAVCClientConnection@@@std@@@@$0A@@std@@@2@XZ 21108f10 f i c_gameserver.obj
 0002:00085f40       ?_Lrotate@?$_Tree@V?$_Tmap_traits@HPAVCClientConnection@@U?$less@H@std@@V?$K2MapAllocator@U?$pair@$$CBHPAVCClientConnection@@@std@@@@$0A@@std@@@std@@IAEXPAU_Node@?$_Tree_nod@V?$_Tmap_traits@HPAVCClientConnection@@U?$less@H@std@@V?$K2MapAllocator@U?$pair@$$CBHPAVCClientConnection@@@std@@@@$0A@@std@@@2@@Z 21108f40 f i c_gameserver.obj
 0002:000860d0       ?_Max@?$_Tree@V?$_Tmap_traits@HPAVCClientConnection@@U?$less@H@std@@V?$K2MapAllocator@U?$pair@$$CBHPAVCClientConnection@@@std@@@@$0A@@std@@@std@@KAPAU_Node@?$_Tree_nod@V?$_Tmap_traits@HPAVCClientConnection@@U?$less@H@std@@V?$K2MapAllocator@U?$pair@$$CBHPAVCClientConnection@@@std@@@@$0A@@std@@@2@PAU342@@Z 211090d0 f i c_gameserver.obj
 0002:00086130       ?_Min@?$_Tree@V?$_Tmap_traits@HPAVCClientConnection@@U?$less@H@std@@V?$K2MapAllocator@U?$pair@$$CBHPAVCClientConnection@@@std@@@@$0A@@std@@@std@@KAPAU_Node@?$_Tree_nod@V?$_Tmap_traits@HPAVCClientConnection@@U?$less@H@std@@V?$K2MapAllocator@U?$pair@$$CBHPAVCClientConnection@@@std@@@@$0A@@std@@@2@PAU342@@Z 21109130 f i c_gameserver.obj
 0002:00086190       ?_Rmost@?$_Tree@V?$_Tmap_traits@HPAVCClientConnection@@U?$less@H@std@@V?$K2MapAllocator@U?$pair@$$CBHPAVCClientConnection@@@std@@@@$0A@@std@@@std@@IBEAAPAU_Node@?$_Tree_nod@V?$_Tmap_traits@HPAVCClientConnection@@U?$less@H@std@@V?$K2MapAllocator@U?$pair@$$CBHPAVCClientConnection@@@std@@@@$0A@@std@@@2@XZ 21109190 f i c_gameserver.obj
 0002:000861c0       ?_Root@?$_Tree@V?$_Tmap_traits@HPAVCClientConnection@@U?$less@H@std@@V?$K2MapAllocator@U?$pair@$$CBHPAVCClientConnection@@@std@@@@$0A@@std@@@std@@IBEAAPAU_Node@?$_Tree_nod@V?$_Tmap_traits@HPAVCClientConnection@@U?$less@H@std@@V?$K2MapAllocator@U?$pair@$$CBHPAVCClientConnection@@@std@@@@$0A@@std@@@2@XZ 211091c0 f i c_gameserver.obj
 0002:000861f0       ?_Rrotate@?$_Tree@V?$_Tmap_traits@HPAVCClientConnection@@U?$less@H@std@@V?$K2MapAllocator@U?$pair@$$CBHPAVCClientConnection@@@std@@@@$0A@@std@@@std@@IAEXPAU_Node@?$_Tree_nod@V?$_Tmap_traits@HPAVCClientConnection@@U?$less@H@std@@V?$K2MapAllocator@U?$pair@$$CBHPAVCClientConnection@@@std@@@@$0A@@std@@@2@@Z 211091f0 f i c_gameserver.obj
 0002:00086380       ?_Orphan_ptr@?$_Tree@V?$_Tmap_traits@HPAVCClientConnection@@U?$less@H@std@@V?$K2MapAllocator@U?$pair@$$CBHPAVCClientConnection@@@std@@@@$0A@@std@@@std@@IBEXAAV12@PAU_Node@?$_Tree_nod@V?$_Tmap_traits@HPAVCClientConnection@@U?$less@H@std@@V?$K2MapAllocator@U?$pair@$$CBHPAVCClientConnection@@@std@@@@$0A@@std@@@2@@Z 21109380 f i c_gameserver.obj
 0002:00086430       ?deallocate@?$K2MapAllocator@U_Node@?$_Tree_nod@V?$_Tmap_traits@HPAVCClientConnection@@U?$less@H@std@@V?$K2MapAllocator@U?$pair@$$CBHPAVCClientConnection@@@std@@@@$0A@@std@@@std@@@@QAEXPAU_Node@?$_Tree_nod@V?$_Tmap_traits@HPAVCClientConnection@@U?$less@H@std@@V?$K2MapAllocator@U?$pair@$$CBHPAVCClientConnection@@@std@@@@$0A@@std@@@std@@I@Z 21109430 f i c_gameserver.obj
 0002:00086470       ?destroy@?$allocator@U_Node@?$_Tree_nod@V?$_Tmap_traits@HPAVCClientConnection@@U?$less@H@std@@V?$K2MapAllocator@U?$pair@$$CBHPAVCClientConnection@@@std@@@@$0A@@std@@@std@@@std@@QAEXPAU_Node@?$_Tree_nod@V?$_Tmap_traits@HPAVCClientConnection@@U?$less@H@std@@V?$K2MapAllocator@U?$pair@$$CBHPAVCClientConnection@@@std@@@@$0A@@std@@@2@@Z 21109470 f i c_gameserver.obj
 0002:000864a0       ?_Key@?$_Tree@V?$_Tmap_traits@IUSRosterEntty@CHostServer@@U?$less@I@std@@V?$K2MapAllocator@U?$pair@$$CBIUSRosterEntty@CHostServer@@@std@@@@$0A@@std@@@std@@KAABIPAU_Node@?$_Tree_nod@V?$_Tmap_traits@IUSRosterEntty@CHostServer@@U?$less@I@std@@V?$K2MapAllocator@U?$pair@$$CBIUSRosterEntty@CHostServer@@@std@@@@$0A@@std@@@2@@Z 211094a0 f i c_gameserver.obj
 0002:000864d0       ?lower_bound@?$_Tree@V?$_Tmap_traits@IUSRosterEntty@CHostServer@@U?$less@I@std@@V?$K2MapAllocator@U?$pair@$$CBIUSRosterEntty@CHostServer@@@std@@@@$0A@@std@@@std@@QBE?AVconst_iterator@12@ABI@Z 211094d0 f i c_gameserver.obj
 0002:00086530       ??0const_iterator@?$_Tree@V?$_Tmap_traits@IUSRosterEntty@CHostServer@@U?$less@I@std@@V?$K2MapAllocator@U?$pair@$$CBIUSRosterEntty@CHostServer@@@std@@@@$0A@@std@@@std@@QAE@PAU_Node@?$_Tree_nod@V?$_Tmap_traits@IUSRosterEntty@CHostServer@@U?$less@I@std@@V?$K2MapAllocator@U?$pair@$$CBIUSRosterEntty@CHostServer@@@std@@@@$0A@@std@@@2@PBV12@@Z 21109530 f i c_gameserver.obj
 0002:000865c0       ??Dconst_iterator@?$_Tree@V?$_Tmap_traits@IUSRosterEntty@CHostServer@@U?$less@I@std@@V?$K2MapAllocator@U?$pair@$$CBIUSRosterEntty@CHostServer@@@std@@@@$0A@@std@@@std@@QBEABU?$pair@$$CBIUSRosterEntty@CHostServer@@@2@XZ 211095c0 f i c_gameserver.obj
 0002:00086680       ?_Mynode@const_iterator@?$_Tree@V?$_Tmap_traits@IUSRosterEntty@CHostServer@@U?$less@I@std@@V?$K2MapAllocator@U?$pair@$$CBIUSRosterEntty@CHostServer@@@std@@@@$0A@@std@@@std@@QBEPAU_Node@?$_Tree_nod@V?$_Tmap_traits@IUSRosterEntty@CHostServer@@U?$less@I@std@@V?$K2MapAllocator@U?$pair@$$CBIUSRosterEntty@CHostServer@@@std@@@@$0A@@std@@@3@XZ 21109680 f i c_gameserver.obj
 0002:000866a0       ?_Key@?$_Tree@V?$_Tmap_traits@V?$basic_string@_WU?$char_traits@_W@std@@V?$K2StringAllocator@_W@@@std@@USResContext@CResourceInfo@@U?$less@V?$basic_string@_WU?$char_traits@_W@std@@V?$K2StringAllocator@_W@@@std@@@2@V?$K2MapAllocator@U?$pair@$$CBV?$basic_string@_WU?$char_traits@_W@std@@V?$K2StringAllocator@_W@@@std@@USResContext@CResourceInfo@@@std@@@@$0A@@std@@@std@@KAABV?$basic_string@_WU?$char_traits@_W@std@@V?$K2StringAllocator@_W@@@2@PAU_Node@?$_Tree_nod@V?$_Tmap_traits@V?$basic_string@_WU?$char_traits@_W@std@@V?$K2StringAllocator@_W@@@std@@USResContext@CResourceInfo@@U?$less@V?$basic_string@_WU?$char_traits@_W@std@@V?$K2StringAllocator@_W@@@std@@@2@V?$K2MapAllocator@U?$pair@$$CBV?$basic_string@_WU?$char_traits@_W@std@@V?$K2StringAllocator@_W@@@std@@USResContext@CResourceInfo@@@std@@@@$0A@@std@@@2@@Z 211096a0 f i c_gameserver.obj
 0002:000866d0       ?lower_bound@?$_Tree@V?$_Tmap_traits@V?$basic_string@_WU?$char_traits@_W@std@@V?$K2StringAllocator@_W@@@std@@USResContext@CResourceInfo@@U?$less@V?$basic_string@_WU?$char_traits@_W@std@@V?$K2StringAllocator@_W@@@std@@@2@V?$K2MapAllocator@U?$pair@$$CBV?$basic_string@_WU?$char_traits@_W@std@@V?$K2StringAllocator@_W@@@std@@USResContext@CResourceInfo@@@std@@@@$0A@@std@@@std@@QAE?AViterator@12@ABV?$basic_string@_WU?$char_traits@_W@std@@V?$K2StringAllocator@_W@@@2@@Z 211096d0 f i c_gameserver.obj
 0002:00086730       ??0iterator@?$_Tree@V?$_Tmap_traits@V?$basic_string@_WU?$char_traits@_W@std@@V?$K2StringAllocator@_W@@@std@@USResContext@CResourceInfo@@U?$less@V?$basic_string@_WU?$char_traits@_W@std@@V?$K2StringAllocator@_W@@@std@@@2@V?$K2MapAllocator@U?$pair@$$CBV?$basic_string@_WU?$char_traits@_W@std@@V?$K2StringAllocator@_W@@@std@@USResContext@CResourceInfo@@@std@@@@$0A@@std@@@std@@QAE@PAU_Node@?$_Tree_nod@V?$_Tmap_traits@V?$basic_string@_WU?$char_traits@_W@std@@V?$K2StringAllocator@_W@@@std@@USResContext@CResourceInfo@@U?$less@V?$basic_string@_WU?$char_traits@_W@std@@V?$K2StringAllocator@_W@@@std@@@2@V?$K2MapAllocator@U?$pair@$$CBV?$basic_string@_WU?$char_traits@_W@std@@V?$K2StringAllocator@_W@@@std@@USResContext@CResourceInfo@@@std@@@@$0A@@std@@@2@PBV12@@Z 21109730 f i c_gameserver.obj
 0002:00086770       ??Diterator@?$_Tree@V?$_Tmap_traits@V?$basic_string@_WU?$char_traits@_W@std@@V?$K2StringAllocator@_W@@@std@@USResContext@CResourceInfo@@U?$less@V?$basic_string@_WU?$char_traits@_W@std@@V?$K2StringAllocator@_W@@@std@@@2@V?$K2MapAllocator@U?$pair@$$CBV?$basic_string@_WU?$char_traits@_W@std@@V?$K2StringAllocator@_W@@@std@@USResContext@CResourceInfo@@@std@@@@$0A@@std@@@std@@QBEAAU?$pair@$$CBV?$basic_string@_WU?$char_traits@_W@std@@V?$K2StringAllocator@_W@@@std@@USResContext@CResourceInfo@@@2@XZ 21109770 f i c_gameserver.obj
 0002:000867a0       ??0const_iterator@?$_Tree@V?$_Tmap_traits@V?$basic_string@_WU?$char_traits@_W@std@@V?$K2StringAllocator@_W@@@std@@USResContext@CResourceInfo@@U?$less@V?$basic_string@_WU?$char_traits@_W@std@@V?$K2StringAllocator@_W@@@std@@@2@V?$K2MapAllocator@U?$pair@$$CBV?$basic_string@_WU?$char_traits@_W@std@@V?$K2StringAllocator@_W@@@std@@USResContext@CResourceInfo@@@std@@@@$0A@@std@@@std@@QAE@XZ 211097a0 f i c_gameserver.obj
 0002:000867e0       ?_Mynode@const_iterator@?$_Tree@V?$_Tmap_traits@V?$basic_string@_WU?$char_traits@_W@std@@V?$K2StringAllocator@_W@@@std@@USResContext@CResourceInfo@@U?$less@V?$basic_string@_WU?$char_traits@_W@std@@V?$K2StringAllocator@_W@@@std@@@2@V?$K2MapAllocator@U?$pair@$$CBV?$basic_string@_WU?$char_traits@_W@std@@V?$K2StringAllocator@_W@@@std@@USResContext@CResourceInfo@@@std@@@@$0A@@std@@@std@@QBEPAU_Node@?$_Tree_nod@V?$_Tmap_traits@V?$basic_string@_WU?$char_traits@_W@std@@V?$K2StringAllocator@_W@@@std@@USResContext@CResourceInfo@@U?$less@V?$basic_string@_WU?$char_traits@_W@std@@V?$K2StringAllocator@_W@@@std@@@2@V?$K2MapAllocator@U?$pair@$$CBV?$basic_string@_WU?$char_traits@_W@std@@V?$K2StringAllocator@_W@@@std@@USResContext@CResourceInfo@@@std@@@@$0A@@std@@@3@XZ 211097e0 f i c_gameserver.obj
 0002:00086800       ??0iterator@?$_Tree@V?$_Tmap_traits@IV?$basic_string@DU?$char_traits@D@std@@V?$K2StringAllocator@D@@@std@@U?$less@I@2@V?$K2MapAllocator@U?$pair@$$CBIV?$basic_string@DU?$char_traits@D@std@@V?$K2StringAllocator@D@@@std@@@std@@@@$0A@@std@@@std@@QAE@PAU_Node@?$_Tree_nod@V?$_Tmap_traits@IV?$basic_string@DU?$char_traits@D@std@@V?$K2StringAllocator@D@@@std@@U?$less@I@2@V?$K2MapAllocator@U?$pair@$$CBIV?$basic_string@DU?$char_traits@D@std@@V?$K2StringAllocator@D@@@std@@@std@@@@$0A@@std@@@2@PBV12@@Z 21109800 f i c_gameserver.obj
 0002:00086840       ??Diterator@?$_Tree@V?$_Tmap_traits@IV?$basic_string@DU?$char_traits@D@std@@V?$K2StringAllocator@D@@@std@@U?$less@I@2@V?$K2MapAllocator@U?$pair@$$CBIV?$basic_string@DU?$char_traits@D@std@@V?$K2StringAllocator@D@@@std@@@std@@@@$0A@@std@@@std@@QBEAAU?$pair@$$CBIV?$basic_string@DU?$char_traits@D@std@@V?$K2StringAllocator@D@@@std@@@2@XZ 21109840 f i c_gameserver.obj
 0002:00086870       ??Econst_iterator@?$_Tree@V?$_Tmap_traits@IV?$basic_string@DU?$char_traits@D@std@@V?$K2StringAllocator@D@@@std@@U?$less@I@2@V?$K2MapAllocator@U?$pair@$$CBIV?$basic_string@DU?$char_traits@D@std@@V?$K2StringAllocator@D@@@std@@@std@@@@$0A@@std@@@std@@QAEAAV012@XZ 21109870 f i c_gameserver.obj
 0002:000868a0       ??8const_iterator@?$_Tree@V?$_Tmap_traits@IV?$basic_string@DU?$char_traits@D@std@@V?$K2StringAllocator@D@@@std@@U?$less@I@2@V?$K2MapAllocator@U?$pair@$$CBIV?$basic_string@DU?$char_traits@D@std@@V?$K2StringAllocator@D@@@std@@@std@@@@$0A@@std@@@std@@QBE_NABV012@@Z 211098a0 f i c_gameserver.obj
 0002:00086960       ??0iterator@?$_Tree@V?$_Tmap_traits@IVCBufferDynamic@@U?$less@I@std@@V?$K2MapAllocator@U?$pair@$$CBIVCBufferDynamic@@@std@@@@$0A@@std@@@std@@QAE@PAU_Node@?$_Tree_nod@V?$_Tmap_traits@IVCBufferDynamic@@U?$less@I@std@@V?$K2MapAllocator@U?$pair@$$CBIVCBufferDynamic@@@std@@@@$0A@@std@@@2@PBV12@@Z 21109960 f i c_gameserver.obj
 0002:000869a0       ??Diterator@?$_Tree@V?$_Tmap_traits@IVCBufferDynamic@@U?$less@I@std@@V?$K2MapAllocator@U?$pair@$$CBIVCBufferDynamic@@@std@@@@$0A@@std@@@std@@QBEAAU?$pair@$$CBIVCBufferDynamic@@@2@XZ 211099a0 f i c_gameserver.obj
 0002:000869d0       ??Econst_iterator@?$_Tree@V?$_Tmap_traits@IVCBufferDynamic@@U?$less@I@std@@V?$K2MapAllocator@U?$pair@$$CBIVCBufferDynamic@@@std@@@@$0A@@std@@@std@@QAEAAV012@XZ 211099d0 f i c_gameserver.obj
 0002:00086a00       ??8const_iterator@?$_Tree@V?$_Tmap_traits@IVCBufferDynamic@@U?$less@I@std@@V?$K2MapAllocator@U?$pair@$$CBIVCBufferDynamic@@@std@@@@$0A@@std@@@std@@QBE_NABV012@@Z 21109a00 f i c_gameserver.obj
 0002:00086ac0       ??0iterator@?$_Tree@V?$_Tmap_traits@HPAVCClientConnection@@U?$less@H@std@@V?$K2MapAllocator@U?$pair@$$CBHPAVCClientConnection@@@std@@@@$0A@@std@@@std@@QAE@PAU_Node@?$_Tree_nod@V?$_Tmap_traits@HPAVCClientConnection@@U?$less@H@std@@V?$K2MapAllocator@U?$pair@$$CBHPAVCClientConnection@@@std@@@@$0A@@std@@@2@PBV12@@Z 21109ac0 f i c_gameserver.obj
 0002:00086b00       ??Diterator@?$_Tree@V?$_Tmap_traits@HPAVCClientConnection@@U?$less@H@std@@V?$K2MapAllocator@U?$pair@$$CBHPAVCClientConnection@@@std@@@@$0A@@std@@@std@@QBEAAU?$pair@$$CBHPAVCClientConnection@@@2@XZ 21109b00 f i c_gameserver.obj
 0002:00086b30       ??Econst_iterator@?$_Tree@V?$_Tmap_traits@HPAVCClientConnection@@U?$less@H@std@@V?$K2MapAllocator@U?$pair@$$CBHPAVCClientConnection@@@std@@@@$0A@@std@@@std@@QAEAAV012@XZ 21109b30 f i c_gameserver.obj
 0002:00086b60       ?_Mynode@const_iterator@?$_Tree@V?$_Tmap_traits@HPAVCClientConnection@@U?$less@H@std@@V?$K2MapAllocator@U?$pair@$$CBHPAVCClientConnection@@@std@@@@$0A@@std@@@std@@QBEPAU_Node@?$_Tree_nod@V?$_Tmap_traits@HPAVCClientConnection@@U?$less@H@std@@V?$K2MapAllocator@U?$pair@$$CBHPAVCClientConnection@@@std@@@@$0A@@std@@@3@XZ 21109b60 f i c_gameserver.obj
 0002:00086b80       ??0?$pair@$$CBHPAVCClientConnection@@@std@@QAE@ABHABQAVCClientConnection@@@Z 21109b80 f i c_gameserver.obj
 0002:00086bc0       ??0?$_Vector_iterator@USDelayedMessage@CGameServer@@V?$K2VectorAllocator@USDelayedMessage@CGameServer@@@@@std@@QAE@PAUSDelayedMessage@CGameServer@@PBV_Container_base@1@@Z 21109bc0 f i c_gameserver.obj
 0002:00086c00       ??D?$_Vector_iterator@USDelayedMessage@CGameServer@@V?$K2VectorAllocator@USDelayedMessage@CGameServer@@@@@std@@QBEAAUSDelayedMessage@CGameServer@@XZ 21109c00 f i c_gameserver.obj
 0002:00086c30       ??E?$_Vector_const_iterator@USDelayedMessage@CGameServer@@V?$K2VectorAllocator@USDelayedMessage@CGameServer@@@@@std@@QAEAAV01@XZ 21109c30 f i c_gameserver.obj
 0002:00086d20       ??8?$_Vector_const_iterator@USDelayedMessage@CGameServer@@V?$K2VectorAllocator@USDelayedMessage@CGameServer@@@@@std@@QBE_NABV01@@Z 21109d20 f i c_gameserver.obj
 0002:00086d60       ??0?$vector@PAVCPlayer@@V?$K2VectorAllocator@PAVCPlayer@@@@@std@@QAE@XZ 21109d60 f i c_gameserver.obj
 0002:00086df0       ?capacity@?$vector@PAVCPlayer@@V?$K2VectorAllocator@PAVCPlayer@@@@@std@@QBEIXZ 21109df0 f i c_gameserver.obj
 0002:00086e40       ?size@?$vector@PAVCPlayer@@V?$K2VectorAllocator@PAVCPlayer@@@@@std@@QBEIXZ 21109e40 f i c_gameserver.obj
 0002:00086e90       ?insert@?$vector@PAVCPlayer@@V?$K2VectorAllocator@PAVCPlayer@@@@@std@@QAE?AV?$_Vector_iterator@PAVCPlayer@@V?$K2VectorAllocator@PAVCPlayer@@@@@2@V32@ABQAVCPlayer@@@Z 21109e90 f i c_gameserver.obj
 0002:00087000       ?_Tidy@?$vector@PAVCPlayer@@V?$K2VectorAllocator@PAVCPlayer@@@@@std@@IAEXXZ 2110a000 f i c_gameserver.obj
 0002:000870a0       ?_Ufill@?$vector@PAVCPlayer@@V?$K2VectorAllocator@PAVCPlayer@@@@@std@@IAEPAPAVCPlayer@@PAPAV3@IABQAV3@@Z 2110a0a0 f i c_gameserver.obj
 0002:000870f0       ?_Orphan_range@?$vector@PAVCPlayer@@V?$K2VectorAllocator@PAVCPlayer@@@@@std@@IBEXPAPAVCPlayer@@0@Z 2110a0f0 f i c_gameserver.obj
 0002:00087190       ??1?$K2VectorAllocator@PAVCPlayer@@@@QAE@XZ 2110a190 f i c_gameserver.obj
 0002:000871b0       ?construct@?$allocator@PAVCPlayer@@@std@@QAEXPAPAVCPlayer@@ABQAV3@@Z 2110a1b0 f i c_gameserver.obj
 0002:000871e0       ?destroy@?$allocator@PAVCPlayer@@@std@@QAEXPAPAVCPlayer@@@Z 2110a1e0 f i c_gameserver.obj
 0002:00087210       ??0?$_Vector_iterator@PAVCPlayer@@V?$K2VectorAllocator@PAVCPlayer@@@@@std@@QAE@PAPAVCPlayer@@PBV_Container_base@1@@Z 2110a210 f i c_gameserver.obj
 0002:00087250       ??D?$_Vector_const_iterator@PAVCPlayer@@V?$K2VectorAllocator@PAVCPlayer@@@@@std@@QBEABQAVCPlayer@@XZ 2110a250 f i c_gameserver.obj
 0002:00087310       ??E?$_Vector_const_iterator@PAVCPlayer@@V?$K2VectorAllocator@PAVCPlayer@@@@@std@@QAEAAV01@XZ 2110a310 f i c_gameserver.obj
 0002:00087400       ??8?$_Vector_const_iterator@PAVCPlayer@@V?$K2VectorAllocator@PAVCPlayer@@@@@std@@QBE_NABV01@@Z 2110a400 f i c_gameserver.obj
 0002:00087440       ??0iterator@?$_Tree@V?$_Tmap_traits@IPAVCWorldLight@@U?$less@I@std@@V?$K2MapAllocator@U?$pair@$$CBIPAVCWorldLight@@@std@@@@$0A@@std@@@std@@QAE@PAU_Node@?$_Tree_nod@V?$_Tmap_traits@IPAVCWorldLight@@U?$less@I@std@@V?$K2MapAllocator@U?$pair@$$CBIPAVCWorldLight@@@std@@@@$0A@@std@@@2@PBV12@@Z 2110a440 f i c_gameserver.obj
 0002:00087480       ??Diterator@?$_Tree@V?$_Tmap_traits@IPAVCWorldLight@@U?$less@I@std@@V?$K2MapAllocator@U?$pair@$$CBIPAVCWorldLight@@@std@@@@$0A@@std@@@std@@QBEAAU?$pair@$$CBIPAVCWorldLight@@@2@XZ 2110a480 f i c_gameserver.obj
 0002:000874b0       ??Econst_iterator@?$_Tree@V?$_Tmap_traits@IPAVCWorldLight@@U?$less@I@std@@V?$K2MapAllocator@U?$pair@$$CBIPAVCWorldLight@@@std@@@@$0A@@std@@@std@@QAEAAV012@XZ 2110a4b0 f i c_gameserver.obj
 0002:000874e0       ??8const_iterator@?$_Tree@V?$_Tmap_traits@IPAVCWorldLight@@U?$less@I@std@@V?$K2MapAllocator@U?$pair@$$CBIPAVCWorldLight@@@std@@@@$0A@@std@@@std@@QBE_NABV012@@Z 2110a4e0 f i c_gameserver.obj
 0002:000875a0       ??0?$deque@PAVCPlayer@@V?$K2DequeAllocator@PAVCPlayer@@@@@std@@QAE@XZ 2110a5a0 f i c_gameserver.obj
 0002:00087610       ?_Growmap@?$deque@PAVCPlayer@@V?$K2DequeAllocator@PAVCPlayer@@@@@std@@IAEXI@Z 2110a610 f i c_gameserver.obj
 0002:000878d0       ?_Tidy@?$deque@PAVCPlayer@@V?$K2DequeAllocator@PAVCPlayer@@@@@std@@IAEXXZ 2110a8d0 f i c_gameserver.obj
 0002:000879c0       ?_Orphan_off@?$deque@PAVCPlayer@@V?$K2DequeAllocator@PAVCPlayer@@@@@std@@IBEXI@Z 2110a9c0 f i c_gameserver.obj
 0002:00087ad0       ??1?$K2DequeAllocator@PAVCPlayer@@@@QAE@XZ 2110aad0 f i c_gameserver.obj
 0002:00087af0       ?allocate@?$K2DequeAllocator@PAVCPlayer@@@@QAEPAPAVCPlayer@@I@Z 2110aaf0 f i c_gameserver.obj
 0002:00087b40       ??1?$K2DequeAllocator@PAPAVCPlayer@@@@QAE@XZ 2110ab40 f i c_gameserver.obj
 0002:00087b60       ??0?$_Deque_iterator@PAVCPlayer@@V?$K2DequeAllocator@PAVCPlayer@@@@$00@std@@QAE@IPBV_Container_base@1@@Z 2110ab60 f i c_gameserver.obj
 0002:00087ba0       ??D?$_Deque_const_iterator@PAVCPlayer@@V?$K2DequeAllocator@PAVCPlayer@@@@$00@std@@QBEABQAVCPlayer@@XZ 2110aba0 f i c_gameserver.obj
 0002:00087cc0       ??E?$_Deque_const_iterator@PAVCPlayer@@V?$K2DequeAllocator@PAVCPlayer@@@@$00@std@@QAEAAV01@XZ 2110acc0 f i c_gameserver.obj
 0002:00087de0       ??8?$_Deque_const_iterator@PAVCPlayer@@V?$K2DequeAllocator@PAVCPlayer@@@@$00@std@@QBE_NABV01@@Z 2110ade0 f i c_gameserver.obj
 0002:00087e20       ??0?$map@HPAVIHeroEntity@@U?$less@H@std@@V?$K2MapAllocator@U?$pair@$$CBHPAVIHeroEntity@@@std@@@@@std@@QAE@XZ 2110ae20 f i c_gameserver.obj
 0002:00087ec0       ?_Isnil@?$_Tree@V?$_Tmap_traits@HPAVIHeroEntity@@U?$less@H@std@@V?$K2MapAllocator@U?$pair@$$CBHPAVIHeroEntity@@@std@@@@$0A@@std@@@std@@KAAADPAU_Node@?$_Tree_nod@V?$_Tmap_traits@HPAVIHeroEntity@@U?$less@H@std@@V?$K2MapAllocator@U?$pair@$$CBHPAVIHeroEntity@@@std@@@@$0A@@std@@@2@@Z 2110aec0 f i c_gameserver.obj
 0002:00087ee0       ?_Key@?$_Tree@V?$_Tmap_traits@HPAVIHeroEntity@@U?$less@H@std@@V?$K2MapAllocator@U?$pair@$$CBHPAVIHeroEntity@@@std@@@@$0A@@std@@@std@@KAABHPAU_Node@?$_Tree_nod@V?$_Tmap_traits@HPAVIHeroEntity@@U?$less@H@std@@V?$K2MapAllocator@U?$pair@$$CBHPAVIHeroEntity@@@std@@@@$0A@@std@@@2@@Z 2110aee0 f i c_gameserver.obj
 0002:00087f10       ?_Left@?$_Tree@V?$_Tmap_traits@HPAVIHeroEntity@@U?$less@H@std@@V?$K2MapAllocator@U?$pair@$$CBHPAVIHeroEntity@@@std@@@@$0A@@std@@@std@@KAAAPAU_Node@?$_Tree_nod@V?$_Tmap_traits@HPAVIHeroEntity@@U?$less@H@std@@V?$K2MapAllocator@U?$pair@$$CBHPAVIHeroEntity@@@std@@@@$0A@@std@@@2@PAU342@@Z 2110af10 f i c_gameserver.obj
 0002:00087f30       ?_Right@?$_Tree@V?$_Tmap_traits@HPAVIHeroEntity@@U?$less@H@std@@V?$K2MapAllocator@U?$pair@$$CBHPAVIHeroEntity@@@std@@@@$0A@@std@@@std@@KAAAPAU_Node@?$_Tree_nod@V?$_Tmap_traits@HPAVIHeroEntity@@U?$less@H@std@@V?$K2MapAllocator@U?$pair@$$CBHPAVIHeroEntity@@@std@@@@$0A@@std@@@2@PAU342@@Z 2110af30 f i c_gameserver.obj
 0002:00087f50       ?_Insert@?$_Tree@V?$_Tmap_traits@HPAVIHeroEntity@@U?$less@H@std@@V?$K2MapAllocator@U?$pair@$$CBHPAVIHeroEntity@@@std@@@@$0A@@std@@@std@@IAE?AViterator@12@_NPAU_Node@?$_Tree_nod@V?$_Tmap_traits@HPAVIHeroEntity@@U?$less@H@std@@V?$K2MapAllocator@U?$pair@$$CBHPAVIHeroEntity@@@std@@@@$0A@@std@@@2@ABU?$pair@$$CBHPAVIHeroEntity@@@2@@Z 2110af50 f i c_gameserver.obj
 0002:00088510       ?_Lmost@?$_Tree@V?$_Tmap_traits@HPAVIHeroEntity@@U?$less@H@std@@V?$K2MapAllocator@U?$pair@$$CBHPAVIHeroEntity@@@std@@@@$0A@@std@@@std@@IBEAAPAU_Node@?$_Tree_nod@V?$_Tmap_traits@HPAVIHeroEntity@@U?$less@H@std@@V?$K2MapAllocator@U?$pair@$$CBHPAVIHeroEntity@@@std@@@@$0A@@std@@@2@XZ 2110b510 f i c_gameserver.obj
 0002:00088540       ?_Root@?$_Tree@V?$_Tmap_traits@HPAVIHeroEntity@@U?$less@H@std@@V?$K2MapAllocator@U?$pair@$$CBHPAVIHeroEntity@@@std@@@@$0A@@std@@@std@@IBEAAPAU_Node@?$_Tree_nod@V?$_Tmap_traits@HPAVIHeroEntity@@U?$less@H@std@@V?$K2MapAllocator@U?$pair@$$CBHPAVIHeroEntity@@@std@@@@$0A@@std@@@2@XZ 2110b540 f i c_gameserver.obj
 0002:00088570       ?_Tidy@?$_Tree@V?$_Tmap_traits@HPAVIHeroEntity@@U?$less@H@std@@V?$K2MapAllocator@U?$pair@$$CBHPAVIHeroEntity@@@std@@@@$0A@@std@@@std@@IAEXXZ 2110b570 f i c_gameserver.obj
 0002:000886c0       ?_Kfn@?$_Tmap_traits@HPAVIHeroEntity@@U?$less@H@std@@V?$K2MapAllocator@U?$pair@$$CBHPAVIHeroEntity@@@std@@@@$0A@@std@@SAABHABU?$pair@$$CBHPAVIHeroEntity@@@2@@Z 2110b6c0 f i c_gameserver.obj
 0002:000886e0       ??1?$K2MapAllocator@U?$pair@$$CBHPAVIHeroEntity@@@std@@@@QAE@XZ 2110b6e0 f i c_gameserver.obj
 0002:00088700       ??1?$K2MapAllocator@U_Node@?$_Tree_nod@V?$_Tmap_traits@HPAVIHeroEntity@@U?$less@H@std@@V?$K2MapAllocator@U?$pair@$$CBHPAVIHeroEntity@@@std@@@@$0A@@std@@@std@@@@QAE@XZ 2110b700 f i c_gameserver.obj
 0002:00088720       ??1?$K2MapAllocator@PAU_Node@?$_Tree_nod@V?$_Tmap_traits@HPAVIHeroEntity@@U?$less@H@std@@V?$K2MapAllocator@U?$pair@$$CBHPAVIHeroEntity@@@std@@@@$0A@@std@@@std@@@@QAE@XZ 2110b720 f i c_gameserver.obj
 0002:00088740       ??0?$pair@Viterator@?$_Tree@V?$_Tmap_traits@HPAVIHeroEntity@@U?$less@H@std@@V?$K2MapAllocator@U?$pair@$$CBHPAVIHeroEntity@@@std@@@@$0A@@std@@@std@@_N@std@@QAE@ABViterator@?$_Tree@V?$_Tmap_traits@HPAVIHeroEntity@@U?$less@H@std@@V?$K2MapAllocator@U?$pair@$$CBHPAVIHeroEntity@@@std@@@@$0A@@std@@@1@AB_N@Z 2110b740 f i c_gameserver.obj
 0002:00088780       ??0iterator@?$_Tree@V?$_Tmap_traits@HPAVIHeroEntity@@U?$less@H@std@@V?$K2MapAllocator@U?$pair@$$CBHPAVIHeroEntity@@@std@@@@$0A@@std@@@std@@QAE@PAU_Node@?$_Tree_nod@V?$_Tmap_traits@HPAVIHeroEntity@@U?$less@H@std@@V?$K2MapAllocator@U?$pair@$$CBHPAVIHeroEntity@@@std@@@@$0A@@std@@@2@PBV12@@Z 2110b780 f i c_gameserver.obj
 0002:000887c0       ??Diterator@?$_Tree@V?$_Tmap_traits@HPAVIHeroEntity@@U?$less@H@std@@V?$K2MapAllocator@U?$pair@$$CBHPAVIHeroEntity@@@std@@@@$0A@@std@@@std@@QBEAAU?$pair@$$CBHPAVIHeroEntity@@@2@XZ 2110b7c0 f i c_gameserver.obj
 0002:000887f0       ??Fiterator@?$_Tree@V?$_Tmap_traits@HPAVIHeroEntity@@U?$less@H@std@@V?$K2MapAllocator@U?$pair@$$CBHPAVIHeroEntity@@@std@@@@$0A@@std@@@std@@QAEAAV012@XZ 2110b7f0 f i c_gameserver.obj
 0002:00088820       ??Econst_iterator@?$_Tree@V?$_Tmap_traits@HPAVIHeroEntity@@U?$less@H@std@@V?$K2MapAllocator@U?$pair@$$CBHPAVIHeroEntity@@@std@@@@$0A@@std@@@std@@QAEAAV012@XZ 2110b820 f i c_gameserver.obj
 0002:00088850       ??8const_iterator@?$_Tree@V?$_Tmap_traits@HPAVIHeroEntity@@U?$less@H@std@@V?$K2MapAllocator@U?$pair@$$CBHPAVIHeroEntity@@@std@@@@$0A@@std@@@std@@QBE_NABV012@@Z 2110b850 f i c_gameserver.obj
 0002:00088910       ?_Mynode@const_iterator@?$_Tree@V?$_Tmap_traits@HPAVIHeroEntity@@U?$less@H@std@@V?$K2MapAllocator@U?$pair@$$CBHPAVIHeroEntity@@@std@@@@$0A@@std@@@std@@QBEPAU_Node@?$_Tree_nod@V?$_Tmap_traits@HPAVIHeroEntity@@U?$less@H@std@@V?$K2MapAllocator@U?$pair@$$CBHPAVIHeroEntity@@@std@@@@$0A@@std@@@3@XZ 2110b910 f i c_gameserver.obj
 0002:00088930       ??0?$map@HV?$vector@HV?$K2VectorAllocator@H@@@@U?$less@H@std@@V?$K2MapAllocator@U?$pair@$$CBHV?$vector@HV?$K2VectorAllocator@H@@@@@std@@@@@std@@QAE@XZ 2110b930 f i c_gameserver.obj
 0002:000889d0       ?_Key@?$_Tree@V?$_Tmap_traits@HV?$vector@HV?$K2VectorAllocator@H@@@@U?$less@H@std@@V?$K2MapAllocator@U?$pair@$$CBHV?$vector@HV?$K2VectorAllocator@H@@@@@std@@@@$0A@@std@@@std@@KAABHPAU_Node@?$_Tree_nod@V?$_Tmap_traits@HV?$vector@HV?$K2VectorAllocator@H@@@@U?$less@H@std@@V?$K2MapAllocator@U?$pair@$$CBHV?$vector@HV?$K2VectorAllocator@H@@@@@std@@@@$0A@@std@@@2@@Z 2110b9d0 f i c_gameserver.obj
 0002:00088a00       ?insert@?$_Tree@V?$_Tmap_traits@HV?$vector@HV?$K2VectorAllocator@H@@@@U?$less@H@std@@V?$K2MapAllocator@U?$pair@$$CBHV?$vector@HV?$K2VectorAllocator@H@@@@@std@@@@$0A@@std@@@std@@QAE?AViterator@12@V312@ABU?$pair@$$CBHV?$vector@HV?$K2VectorAllocator@H@@@@@2@@Z 2110ba00 f i c_gameserver.obj
 0002:000897c0       ?lower_bound@?$_Tree@V?$_Tmap_traits@HV?$vector@HV?$K2VectorAllocator@H@@@@U?$less@H@std@@V?$K2MapAllocator@U?$pair@$$CBHV?$vector@HV?$K2VectorAllocator@H@@@@@std@@@@$0A@@std@@@std@@QAE?AViterator@12@ABH@Z 2110c7c0 f i c_gameserver.obj
 0002:00089820       ?_Lmost@?$_Tree@V?$_Tmap_traits@HV?$vector@HV?$K2VectorAllocator@H@@@@U?$less@H@std@@V?$K2MapAllocator@U?$pair@$$CBHV?$vector@HV?$K2VectorAllocator@H@@@@@std@@@@$0A@@std@@@std@@IBEAAPAU_Node@?$_Tree_nod@V?$_Tmap_traits@HV?$vector@HV?$K2VectorAllocator@H@@@@U?$less@H@std@@V?$K2MapAllocator@U?$pair@$$CBHV?$vector@HV?$K2VectorAllocator@H@@@@@std@@@@$0A@@std@@@2@XZ 2110c820 f i c_gameserver.obj
 0002:00089850       ?_Tidy@?$_Tree@V?$_Tmap_traits@HV?$vector@HV?$K2VectorAllocator@H@@@@U?$less@H@std@@V?$K2MapAllocator@U?$pair@$$CBHV?$vector@HV?$K2VectorAllocator@H@@@@@std@@@@$0A@@std@@@std@@IAEXXZ 2110c850 f i c_gameserver.obj
 0002:000899a0       ??1?$K2MapAllocator@U?$pair@$$CBHV?$vector@HV?$K2VectorAllocator@H@@@@@std@@@@QAE@XZ 2110c9a0 f i c_gameserver.obj
 0002:000899c0       ??1?$K2MapAllocator@U_Node@?$_Tree_nod@V?$_Tmap_traits@HV?$vector@HV?$K2VectorAllocator@H@@@@U?$less@H@std@@V?$K2MapAllocator@U?$pair@$$CBHV?$vector@HV?$K2VectorAllocator@H@@@@@std@@@@$0A@@std@@@std@@@@QAE@XZ 2110c9c0 f i c_gameserver.obj
 0002:000899e0       ??1?$K2MapAllocator@PAU_Node@?$_Tree_nod@V?$_Tmap_traits@HV?$vector@HV?$K2VectorAllocator@H@@@@U?$less@H@std@@V?$K2MapAllocator@U?$pair@$$CBHV?$vector@HV?$K2VectorAllocator@H@@@@@std@@@@$0A@@std@@@std@@@@QAE@XZ 2110c9e0 f i c_gameserver.obj
 0002:00089a00       ??0iterator@?$_Tree@V?$_Tmap_traits@HV?$vector@HV?$K2VectorAllocator@H@@@@U?$less@H@std@@V?$K2MapAllocator@U?$pair@$$CBHV?$vector@HV?$K2VectorAllocator@H@@@@@std@@@@$0A@@std@@@std@@QAE@PAU_Node@?$_Tree_nod@V?$_Tmap_traits@HV?$vector@HV?$K2VectorAllocator@H@@@@U?$less@H@std@@V?$K2MapAllocator@U?$pair@$$CBHV?$vector@HV?$K2VectorAllocator@H@@@@@std@@@@$0A@@std@@@2@PBV12@@Z 2110ca00 f i c_gameserver.obj
 0002:00089a40       ??Diterator@?$_Tree@V?$_Tmap_traits@HV?$vector@HV?$K2VectorAllocator@H@@@@U?$less@H@std@@V?$K2MapAllocator@U?$pair@$$CBHV?$vector@HV?$K2VectorAllocator@H@@@@@std@@@@$0A@@std@@@std@@QBEAAU?$pair@$$CBHV?$vector@HV?$K2VectorAllocator@H@@@@@2@XZ 2110ca40 f i c_gameserver.obj
 0002:00089a70       ??Eiterator@?$_Tree@V?$_Tmap_traits@HV?$vector@HV?$K2VectorAllocator@H@@@@U?$less@H@std@@V?$K2MapAllocator@U?$pair@$$CBHV?$vector@HV?$K2VectorAllocator@H@@@@@std@@@@$0A@@std@@@std@@QAEAAV012@XZ 2110ca70 f i c_gameserver.obj
 0002:00089aa0       ??8const_iterator@?$_Tree@V?$_Tmap_traits@HV?$vector@HV?$K2VectorAllocator@H@@@@U?$less@H@std@@V?$K2MapAllocator@U?$pair@$$CBHV?$vector@HV?$K2VectorAllocator@H@@@@@std@@@@$0A@@std@@@std@@QBE_NABV012@@Z 2110caa0 f i c_gameserver.obj
 0002:00089b60       ?_Mynode@const_iterator@?$_Tree@V?$_Tmap_traits@HV?$vector@HV?$K2VectorAllocator@H@@@@U?$less@H@std@@V?$K2MapAllocator@U?$pair@$$CBHV?$vector@HV?$K2VectorAllocator@H@@@@@std@@@@$0A@@std@@@std@@QBEPAU_Node@?$_Tree_nod@V?$_Tmap_traits@HV?$vector@HV?$K2VectorAllocator@H@@@@U?$less@H@std@@V?$K2MapAllocator@U?$pair@$$CBHV?$vector@HV?$K2VectorAllocator@H@@@@@std@@@@$0A@@std@@@3@XZ 2110cb60 f i c_gameserver.obj
 0002:00089b80       ??0?$pair@$$CBHV?$vector@HV?$K2VectorAllocator@H@@@@@std@@QAE@ABHABV?$vector@HV?$K2VectorAllocator@H@@@@@Z 2110cb80 f i c_gameserver.obj
 0002:00089bc0       ??0?$vector@PAVIGameEntity@@V?$K2VectorAllocator@PAVIGameEntity@@@@@std@@QAE@XZ 2110cbc0 f i c_gameserver.obj
 0002:00089c50       ?capacity@?$vector@PAVIGameEntity@@V?$K2VectorAllocator@PAVIGameEntity@@@@@std@@QBEIXZ 2110cc50 f i c_gameserver.obj
 0002:00089ca0       ?size@?$vector@PAVIGameEntity@@V?$K2VectorAllocator@PAVIGameEntity@@@@@std@@QBEIXZ 2110cca0 f i c_gameserver.obj
 0002:00089cf0       ?insert@?$vector@PAVIGameEntity@@V?$K2VectorAllocator@PAVIGameEntity@@@@@std@@QAE?AV?$_Vector_iterator@PAVIGameEntity@@V?$K2VectorAllocator@PAVIGameEntity@@@@@2@V32@ABQAVIGameEntity@@@Z 2110ccf0 f i c_gameserver.obj
 0002:00089e60       ?_Tidy@?$vector@PAVIGameEntity@@V?$K2VectorAllocator@PAVIGameEntity@@@@@std@@IAEXXZ 2110ce60 f i c_gameserver.obj
 0002:00089f00       ?_Ufill@?$vector@PAVIGameEntity@@V?$K2VectorAllocator@PAVIGameEntity@@@@@std@@IAEPAPAVIGameEntity@@PAPAV3@IABQAV3@@Z 2110cf00 f i c_gameserver.obj
 0002:00089f50       ?_Orphan_range@?$vector@PAVIGameEntity@@V?$K2VectorAllocator@PAVIGameEntity@@@@@std@@IBEXPAPAVIGameEntity@@0@Z 2110cf50 f i c_gameserver.obj
 0002:00089ff0       ??1?$K2VectorAllocator@PAVIGameEntity@@@@QAE@XZ 2110cff0 f i c_gameserver.obj
 0002:0008a010       ??0?$_Vector_iterator@PAVIGameEntity@@V?$K2VectorAllocator@PAVIGameEntity@@@@@std@@QAE@PAPAVIGameEntity@@PBV_Container_base@1@@Z 2110d010 f i c_gameserver.obj
 0002:0008a050       ??D?$_Vector_const_iterator@PAVIGameEntity@@V?$K2VectorAllocator@PAVIGameEntity@@@@@std@@QBEABQAVIGameEntity@@XZ 2110d050 f i c_gameserver.obj
 0002:0008a110       ??E?$_Vector_const_iterator@PAVIGameEntity@@V?$K2VectorAllocator@PAVIGameEntity@@@@@std@@QAEAAV01@XZ 2110d110 f i c_gameserver.obj
 0002:0008a200       ??8?$_Vector_const_iterator@PAVIGameEntity@@V?$K2VectorAllocator@PAVIGameEntity@@@@@std@@QBE_NABV01@@Z 2110d200 f i c_gameserver.obj
 0002:0008a240       ??0?$map@HPAVCGameStats@@U?$less@H@std@@V?$K2MapAllocator@U?$pair@$$CBHPAVCGameStats@@@std@@@@@std@@QAE@XZ 2110d240 f i c_gameserver.obj
 0002:0008a2e0       ?_Key@?$_Tree@V?$_Tmap_traits@HPAVCGameStats@@U?$less@H@std@@V?$K2MapAllocator@U?$pair@$$CBHPAVCGameStats@@@std@@@@$0A@@std@@@std@@KAABHPAU_Node@?$_Tree_nod@V?$_Tmap_traits@HPAVCGameStats@@U?$less@H@std@@V?$K2MapAllocator@U?$pair@$$CBHPAVCGameStats@@@std@@@@$0A@@std@@@2@@Z 2110d2e0 f i c_gameserver.obj
 0002:0008a310       ?insert@?$_Tree@V?$_Tmap_traits@HPAVCGameStats@@U?$less@H@std@@V?$K2MapAllocator@U?$pair@$$CBHPAVCGameStats@@@std@@@@$0A@@std@@@std@@QAE?AViterator@12@V312@ABU?$pair@$$CBHPAVCGameStats@@@2@@Z 2110d310 f i c_gameserver.obj
 0002:0008b0d0       ?lower_bound@?$_Tree@V?$_Tmap_traits@HPAVCGameStats@@U?$less@H@std@@V?$K2MapAllocator@U?$pair@$$CBHPAVCGameStats@@@std@@@@$0A@@std@@@std@@QAE?AViterator@12@ABH@Z 2110e0d0 f i c_gameserver.obj
 0002:0008b130       ?_Lmost@?$_Tree@V?$_Tmap_traits@HPAVCGameStats@@U?$less@H@std@@V?$K2MapAllocator@U?$pair@$$CBHPAVCGameStats@@@std@@@@$0A@@std@@@std@@IBEAAPAU_Node@?$_Tree_nod@V?$_Tmap_traits@HPAVCGameStats@@U?$less@H@std@@V?$K2MapAllocator@U?$pair@$$CBHPAVCGameStats@@@std@@@@$0A@@std@@@2@XZ 2110e130 f i c_gameserver.obj
 0002:0008b160       ?_Tidy@?$_Tree@V?$_Tmap_traits@HPAVCGameStats@@U?$less@H@std@@V?$K2MapAllocator@U?$pair@$$CBHPAVCGameStats@@@std@@@@$0A@@std@@@std@@IAEXXZ 2110e160 f i c_gameserver.obj
 0002:0008b2b0       ??1?$K2MapAllocator@U?$pair@$$CBHPAVCGameStats@@@std@@@@QAE@XZ 2110e2b0 f i c_gameserver.obj
 0002:0008b2d0       ??1?$K2MapAllocator@U_Node@?$_Tree_nod@V?$_Tmap_traits@HPAVCGameStats@@U?$less@H@std@@V?$K2MapAllocator@U?$pair@$$CBHPAVCGameStats@@@std@@@@$0A@@std@@@std@@@@QAE@XZ 2110e2d0 f i c_gameserver.obj
 0002:0008b2f0       ??1?$K2MapAllocator@PAU_Node@?$_Tree_nod@V?$_Tmap_traits@HPAVCGameStats@@U?$less@H@std@@V?$K2MapAllocator@U?$pair@$$CBHPAVCGameStats@@@std@@@@$0A@@std@@@std@@@@QAE@XZ 2110e2f0 f i c_gameserver.obj
 0002:0008b310       ??0iterator@?$_Tree@V?$_Tmap_traits@HPAVCGameStats@@U?$less@H@std@@V?$K2MapAllocator@U?$pair@$$CBHPAVCGameStats@@@std@@@@$0A@@std@@@std@@QAE@PAU_Node@?$_Tree_nod@V?$_Tmap_traits@HPAVCGameStats@@U?$less@H@std@@V?$K2MapAllocator@U?$pair@$$CBHPAVCGameStats@@@std@@@@$0A@@std@@@2@PBV12@@Z 2110e310 f i c_gameserver.obj
 0002:0008b350       ??Diterator@?$_Tree@V?$_Tmap_traits@HPAVCGameStats@@U?$less@H@std@@V?$K2MapAllocator@U?$pair@$$CBHPAVCGameStats@@@std@@@@$0A@@std@@@std@@QBEAAU?$pair@$$CBHPAVCGameStats@@@2@XZ 2110e350 f i c_gameserver.obj
 0002:0008b380       ??0const_iterator@?$_Tree@V?$_Tmap_traits@HPAVCGameStats@@U?$less@H@std@@V?$K2MapAllocator@U?$pair@$$CBHPAVCGameStats@@@std@@@@$0A@@std@@@std@@QAE@XZ 2110e380 f i c_gameserver.obj
 0002:0008b3c0       ??Econst_iterator@?$_Tree@V?$_Tmap_traits@HPAVCGameStats@@U?$less@H@std@@V?$K2MapAllocator@U?$pair@$$CBHPAVCGameStats@@@std@@@@$0A@@std@@@std@@QAEAAV012@XZ 2110e3c0 f i c_gameserver.obj
 0002:0008b3f0       ?_Mynode@const_iterator@?$_Tree@V?$_Tmap_traits@HPAVCGameStats@@U?$less@H@std@@V?$K2MapAllocator@U?$pair@$$CBHPAVCGameStats@@@std@@@@$0A@@std@@@std@@QBEPAU_Node@?$_Tree_nod@V?$_Tmap_traits@HPAVCGameStats@@U?$less@H@std@@V?$K2MapAllocator@U?$pair@$$CBHPAVCGameStats@@@std@@@@$0A@@std@@@3@XZ 2110e3f0 f i c_gameserver.obj
 0002:0008b410       ??0?$pair@$$CBHPAVCGameStats@@@std@@QAE@ABHABQAVCGameStats@@@Z 2110e410 f i c_gameserver.obj
 0002:0008b450       ??0?$pair@$$CBHVCPlayerAccountStats@@@std@@QAE@ABHABVCPlayerAccountStats@@@Z 2110e450 f i c_gameserver.obj
 0002:0008b490       ??0?$_Vector_const_iterator@USItemHistoryEntry@CGameStats@@V?$K2VectorAllocator@USItemHistoryEntry@CGameStats@@@@@std@@QAE@PAUSItemHistoryEntry@CGameStats@@PBV_Container_base@1@@Z 2110e490 f i c_gameserver.obj
 0002:0008b590       ??D?$_Vector_const_iterator@USItemHistoryEntry@CGameStats@@V?$K2VectorAllocator@USItemHistoryEntry@CGameStats@@@@@std@@QBEABUSItemHistoryEntry@CGameStats@@XZ 2110e590 f i c_gameserver.obj
 0002:0008b650       ??8?$_Vector_const_iterator@USItemHistoryEntry@CGameStats@@V?$K2VectorAllocator@USItemHistoryEntry@CGameStats@@@@@std@@QBE_NABV01@@Z 2110e650 f i c_gameserver.obj
 0002:0008b690       ??0?$_Vector_const_iterator@USAbilityUpgradeEntry@CGameStats@@V?$K2VectorAllocator@USAbilityUpgradeEntry@CGameStats@@@@@std@@QAE@PAUSAbilityUpgradeEntry@CGameStats@@PBV_Container_base@1@@Z 2110e690 f i c_gameserver.obj
 0002:0008b790       ??D?$_Vector_const_iterator@USAbilityUpgradeEntry@CGameStats@@V?$K2VectorAllocator@USAbilityUpgradeEntry@CGameStats@@@@@std@@QBEABUSAbilityUpgradeEntry@CGameStats@@XZ 2110e790 f i c_gameserver.obj
 0002:0008b850       ??8?$_Vector_const_iterator@USAbilityUpgradeEntry@CGameStats@@V?$K2VectorAllocator@USAbilityUpgradeEntry@CGameStats@@@@@std@@QBE_NABV01@@Z 2110e850 f i c_gameserver.obj
 0002:0008b890       ?_Compat@?$_Vector_const_iterator@USAbilityUpgradeEntry@CGameStats@@V?$K2VectorAllocator@USAbilityUpgradeEntry@CGameStats@@@@@std@@QBEXABV12@@Z 2110e890 f i c_gameserver.obj
 0002:0008b940       ??0?$_Vector_iterator@USMatchKillEntry@@V?$K2VectorAllocator@USMatchKillEntry@@@@@std@@QAE@PAUSMatchKillEntry@@PBV_Container_base@1@@Z 2110e940 f i c_gameserver.obj
 0002:0008b980       ??D?$_Vector_iterator@USMatchKillEntry@@V?$K2VectorAllocator@USMatchKillEntry@@@@@std@@QBEAAUSMatchKillEntry@@XZ 2110e980 f i c_gameserver.obj
 0002:0008b9b0       ??E?$_Vector_const_iterator@USMatchKillEntry@@V?$K2VectorAllocator@USMatchKillEntry@@@@@std@@QAEAAV01@XZ 2110e9b0 f i c_gameserver.obj
 0002:0008baa0       ??8?$_Vector_const_iterator@USMatchKillEntry@@V?$K2VectorAllocator@USMatchKillEntry@@@@@std@@QBE_NABV01@@Z 2110eaa0 f i c_gameserver.obj
 0002:0008bae0       ??0?$_Vector_iterator@GV?$K2VectorAllocator@G@@@std@@QAE@PAGPBV_Container_base@1@@Z 2110eae0 f i c_gameserver.obj
 0002:0008bb20       ??D?$_Vector_const_iterator@GV?$K2VectorAllocator@G@@@std@@QBEABGXZ 2110eb20 f i c_gameserver.obj
 0002:0008bbe0       ??E?$_Vector_const_iterator@GV?$K2VectorAllocator@G@@@std@@QAEAAV01@XZ 2110ebe0 f i c_gameserver.obj
 0002:0008bcd0       ?_Compat@?$_Vector_const_iterator@GV?$K2VectorAllocator@G@@@std@@QBEXABV12@@Z 2110ecd0 f i c_gameserver.obj
 0002:0008bd80       ??0?$_Vector_iterator@U?$pair@GE@std@@V?$K2VectorAllocator@U?$pair@GE@std@@@@@std@@QAE@PAU?$pair@GE@1@PBV_Container_base@1@@Z 2110ed80 f i c_gameserver.obj
 0002:0008bdc0       ??D?$_Vector_iterator@U?$pair@GE@std@@V?$K2VectorAllocator@U?$pair@GE@std@@@@@std@@QBEAAU?$pair@GE@1@XZ 2110edc0 f i c_gameserver.obj
 0002:0008bdf0       ??E?$_Vector_const_iterator@U?$pair@GE@std@@V?$K2VectorAllocator@U?$pair@GE@std@@@@@std@@QAEAAV01@XZ 2110edf0 f i c_gameserver.obj
 0002:0008bee0       ??G?$_Vector_const_iterator@U?$pair@GE@std@@V?$K2VectorAllocator@U?$pair@GE@std@@@@@std@@QBEHABV01@@Z 2110eee0 f i c_gameserver.obj
 0002:0008bf20       ??8?$_Vector_const_iterator@U?$pair@GE@std@@V?$K2VectorAllocator@U?$pair@GE@std@@@@@std@@QBE_NABV01@@Z 2110ef20 f i c_gameserver.obj
 0002:0008bf60       ??0?$_Const_iterator@$00@?$list@PAVIUnitEntity@@V?$K2ListAllocator@PAVIUnitEntity@@@@@std@@QAE@PAU_Node@?$_List_nod@PAVIUnitEntity@@V?$K2ListAllocator@PAVIUnitEntity@@@@@2@PBV12@@Z 2110ef60 f i c_gameserver.obj
 0002:0008bff0       ??8?$_Const_iterator@$00@?$list@PAVIUnitEntity@@V?$K2ListAllocator@PAVIUnitEntity@@@@@std@@QBE_NABV012@@Z 2110eff0 f i c_gameserver.obj
 0002:0008c030       ??0?$CRect@I@@QAE@IIII@Z   2110f030 f i c_gameserver.obj
 0002:0008c080       ??0iterator@?$_Tree@V?$_Tmap_traits@GV?$basic_string@_WU?$char_traits@_W@std@@V?$K2StringAllocator@_W@@@std@@U?$less@G@2@V?$K2MapAllocator@U?$pair@$$CBGV?$basic_string@_WU?$char_traits@_W@std@@V?$K2StringAllocator@_W@@@std@@@std@@@@$0A@@std@@@std@@QAE@PAU_Node@?$_Tree_nod@V?$_Tmap_traits@GV?$basic_string@_WU?$char_traits@_W@std@@V?$K2StringAllocator@_W@@@std@@U?$less@G@2@V?$K2MapAllocator@U?$pair@$$CBGV?$basic_string@_WU?$char_traits@_W@std@@V?$K2StringAllocator@_W@@@std@@@std@@@@$0A@@std@@@2@PBV12@@Z 2110f080 f i c_gameserver.obj
 0002:0008c0c0       ??Diterator@?$_Tree@V?$_Tmap_traits@GV?$basic_string@_WU?$char_traits@_W@std@@V?$K2StringAllocator@_W@@@std@@U?$less@G@2@V?$K2MapAllocator@U?$pair@$$CBGV?$basic_string@_WU?$char_traits@_W@std@@V?$K2StringAllocator@_W@@@std@@@std@@@@$0A@@std@@@std@@QBEAAU?$pair@$$CBGV?$basic_string@_WU?$char_traits@_W@std@@V?$K2StringAllocator@_W@@@std@@@2@XZ 2110f0c0 f i c_gameserver.obj
 0002:0008c0f0       ??Econst_iterator@?$_Tree@V?$_Tmap_traits@GV?$basic_string@_WU?$char_traits@_W@std@@V?$K2StringAllocator@_W@@@std@@U?$less@G@2@V?$K2MapAllocator@U?$pair@$$CBGV?$basic_string@_WU?$char_traits@_W@std@@V?$K2StringAllocator@_W@@@std@@@std@@@@$0A@@std@@@std@@QAEAAV012@XZ 2110f0f0 f i c_gameserver.obj
 0002:0008c120       ??8const_iterator@?$_Tree@V?$_Tmap_traits@GV?$basic_string@_WU?$char_traits@_W@std@@V?$K2StringAllocator@_W@@@std@@U?$less@G@2@V?$K2MapAllocator@U?$pair@$$CBGV?$basic_string@_WU?$char_traits@_W@std@@V?$K2StringAllocator@_W@@@std@@@std@@@@$0A@@std@@@std@@QBE_NABV012@@Z 2110f120 f i c_gameserver.obj
 0002:0008c1e0       ??1?$pair@Viterator@?$_Tree@V?$_Tmap_traits@HPAVCPlayer@@U?$less@H@std@@V?$K2MapAllocator@U?$pair@$$CBHPAVCPlayer@@@std@@@@$0A@@std@@@std@@_N@std@@QAE@XZ 2110f1e0 f i c_gameserver.obj
 0002:0008c210       ??0?$_Vector_iterator@U?$pair@GE@std@@V?$K2VectorAllocator@U?$pair@GE@std@@@@@std@@QAE@ABV01@@Z 2110f210 f i c_gameserver.obj
 0002:0008c240       ??0?$_Vector_iterator@GV?$K2VectorAllocator@G@@@std@@QAE@ABV01@@Z 2110f240 f i c_gameserver.obj
 0002:0008c270       ??0?$_Ranit@VCPHPData@@HPBV1@ABV1@@std@@QAE@XZ 2110f270 f i c_gameserver.obj
 0002:0008c2a0       ??0?$_Vector_iterator@U?$pair@V?$basic_string@DU?$char_traits@D@std@@V?$K2StringAllocator@D@@@std@@V12@@std@@V?$K2VectorAllocator@U?$pair@V?$basic_string@DU?$char_traits@D@std@@V?$K2StringAllocator@D@@@std@@V12@@std@@@@@std@@QAE@ABV01@@Z 2110f2a0 f i c_gameserver.obj
 0002:0008c2d0       ??0?$_Vector_iterator@USSmackdownEntry@CGameStats@@V?$K2VectorAllocator@USSmackdownEntry@CGameStats@@@@@std@@QAE@ABV01@@Z 2110f2d0 f i c_gameserver.obj
 0002:0008c300       ??0?$_Vector_iterator@USHumiliationEntry@CGameStats@@V?$K2VectorAllocator@USHumiliationEntry@CGameStats@@@@@std@@QAE@ABV01@@Z 2110f300 f i c_gameserver.obj
 0002:0008c330       ??0?$_Vector_iterator@USRivalEntry@CGameStats@@V?$K2VectorAllocator@USRivalEntry@CGameStats@@@@@std@@QAE@ABV01@@Z 2110f330 f i c_gameserver.obj
 0002:0008c360       ??0?$_Vector_iterator@USPaybackEntry@CGameStats@@V?$K2VectorAllocator@USPaybackEntry@CGameStats@@@@@std@@QAE@ABV01@@Z 2110f360 f i c_gameserver.obj
 0002:0008c390       ??0?$_Vector_iterator@USAbilityUpgradeEntry@CGameStats@@V?$K2VectorAllocator@USAbilityUpgradeEntry@CGameStats@@@@@std@@QAE@ABV01@@Z 2110f390 f i c_gameserver.obj
 0002:0008c3c0       ??0?$_Vector_iterator@USItemHistoryEntry@CGameStats@@V?$K2VectorAllocator@USItemHistoryEntry@CGameStats@@@@@std@@QAE@ABV01@@Z 2110f3c0 f i c_gameserver.obj
 0002:0008c3f0       ??0?$_Vector_iterator@USHeroKillHistoryEvent@CGameStats@@V?$K2VectorAllocator@USHeroKillHistoryEvent@CGameStats@@@@@std@@QAE@ABV01@@Z 2110f3f0 f i c_gameserver.obj
 0002:0008c420       ??0?$_Vector_iterator@U?$pair@IH@std@@V?$K2VectorAllocator@U?$pair@IH@std@@@@@std@@QAE@ABV01@@Z 2110f420 f i c_gameserver.obj
 0002:0008c450       ??1?$pair@Viterator@?$_Tree@V?$_Tmap_traits@HVCPlayerAccountStats@@U?$less@H@std@@V?$K2MapAllocator@U?$pair@$$CBHVCPlayerAccountStats@@@std@@@@$0A@@std@@@std@@_N@std@@QAE@XZ 2110f450 f i c_gameserver.obj
 0002:0008c480       ??0?$_Bidit@U?$pair@$$CBHVCPlayerAccountStats@@@std@@HPBU12@ABU12@@std@@QAE@XZ 2110f480 f i c_gameserver.obj
 0002:0008c4b0       ??0?$_Vector_iterator@USMatchKillEntry@@V?$K2VectorAllocator@USMatchKillEntry@@@@@std@@QAE@ABV01@@Z 2110f4b0 f i c_gameserver.obj
 0002:0008c4e0       ??1?$pair@Viterator@?$_Tree@V?$_Tmap_traits@HPAVCClientConnection@@U?$less@H@std@@V?$K2MapAllocator@U?$pair@$$CBHPAVCClientConnection@@@std@@@@$0A@@std@@@std@@_N@std@@QAE@XZ 2110f4e0 f i c_gameserver.obj
 0002:0008c510       ??0?$_Bidit@U?$pair@$$CBIUSRosterEntty@CHostServer@@@std@@HPBU12@ABU12@@std@@QAE@XZ 2110f510 f i c_gameserver.obj
 0002:0008c540       ??0?$_Bidit@U?$pair@$$CBV?$basic_string@_WU?$char_traits@_W@std@@V?$K2StringAllocator@_W@@@std@@USResContext@CResourceInfo@@@std@@HPBU12@ABU12@@std@@QAE@XZ 2110f540 f i c_gameserver.obj
 0002:0008c570       ??0?$_Vector_iterator@PAVCPlayer@@V?$K2VectorAllocator@PAVCPlayer@@@@@std@@QAE@ABV01@@Z 2110f570 f i c_gameserver.obj
 0002:0008c5a0       ??1?$pair@Viterator@?$_Tree@V?$_Tmap_traits@HV?$vector@HV?$K2VectorAllocator@H@@@@U?$less@H@std@@V?$K2MapAllocator@U?$pair@$$CBHV?$vector@HV?$K2VectorAllocator@H@@@@@std@@@@$0A@@std@@@std@@_N@std@@QAE@XZ 2110f5a0 f i c_gameserver.obj
 0002:0008c5d0       ??0?$_Vector_iterator@PAVIGameEntity@@V?$K2VectorAllocator@PAVIGameEntity@@@@@std@@QAE@ABV01@@Z 2110f5d0 f i c_gameserver.obj
 0002:0008c600       ??1?$pair@Viterator@?$_Tree@V?$_Tmap_traits@HPAVCGameStats@@U?$less@H@std@@V?$K2MapAllocator@U?$pair@$$CBHPAVCGameStats@@@std@@@@$0A@@std@@@std@@_N@std@@QAE@XZ 2110f600 f i c_gameserver.obj
 0002:0008c630       ??0?$_Bidit@U?$pair@$$CBHPAVCGameStats@@@std@@HPBU12@ABU12@@std@@QAE@XZ 2110f630 f i c_gameserver.obj
 0002:0008c660       ??0CPlayerAccountStats@@QAE@ABV0@@Z 2110f660 f i c_gameserver.obj
 0002:0008c7e0       ??0?$_Ranit@USItemHistoryEntry@CGameStats@@HPBU12@ABU12@@std@@QAE@XZ 2110f7e0 f i c_gameserver.obj
 0002:0008c810       ??0?$_Ranit@USAbilityUpgradeEntry@CGameStats@@HPBU12@ABU12@@std@@QAE@XZ 2110f810 f i c_gameserver.obj
 0002:0008c840       ??0?$_Bidit@PAVIUnitEntity@@HPBQAV1@ABQAV1@@std@@QAE@XZ 2110f840 f i c_gameserver.obj
 0002:0008c870       ??0?$_Vector_const_iterator@U?$pair@GE@std@@V?$K2VectorAllocator@U?$pair@GE@std@@@@@std@@QAE@ABV01@@Z 2110f870 f i c_gameserver.obj
 0002:0008c8b0       ??0?$_Vector_const_iterator@GV?$K2VectorAllocator@G@@@std@@QAE@ABV01@@Z 2110f8b0 f i c_gameserver.obj
 0002:0008c8f0       ??0?$_Vector_const_iterator@U?$pair@V?$basic_string@DU?$char_traits@D@std@@V?$K2StringAllocator@D@@@std@@V12@@std@@V?$K2VectorAllocator@U?$pair@V?$basic_string@DU?$char_traits@D@std@@V?$K2StringAllocator@D@@@std@@V12@@std@@@@@std@@QAE@ABV01@@Z 2110f8f0 f i c_gameserver.obj
 0002:0008c930       ??0?$_Vector_const_iterator@USSmackdownEntry@CGameStats@@V?$K2VectorAllocator@USSmackdownEntry@CGameStats@@@@@std@@QAE@ABV01@@Z 2110f930 f i c_gameserver.obj
 0002:0008c970       ??0?$_Vector_const_iterator@USHumiliationEntry@CGameStats@@V?$K2VectorAllocator@USHumiliationEntry@CGameStats@@@@@std@@QAE@ABV01@@Z 2110f970 f i c_gameserver.obj
 0002:0008c9b0       ??0?$_Vector_const_iterator@USRivalEntry@CGameStats@@V?$K2VectorAllocator@USRivalEntry@CGameStats@@@@@std@@QAE@ABV01@@Z 2110f9b0 f i c_gameserver.obj
 0002:0008c9f0       ??0?$_Vector_const_iterator@USPaybackEntry@CGameStats@@V?$K2VectorAllocator@USPaybackEntry@CGameStats@@@@@std@@QAE@ABV01@@Z 2110f9f0 f i c_gameserver.obj
 0002:0008ca30       ??0?$_Vector_const_iterator@USAbilityUpgradeEntry@CGameStats@@V?$K2VectorAllocator@USAbilityUpgradeEntry@CGameStats@@@@@std@@QAE@ABV01@@Z 2110fa30 f i c_gameserver.obj
 0002:0008ca70       ??0?$_Vector_const_iterator@USItemHistoryEntry@CGameStats@@V?$K2VectorAllocator@USItemHistoryEntry@CGameStats@@@@@std@@QAE@ABV01@@Z 2110fa70 f i c_gameserver.obj
 0002:0008cab0       ??0?$_Vector_const_iterator@USHeroKillHistoryEvent@CGameStats@@V?$K2VectorAllocator@USHeroKillHistoryEvent@CGameStats@@@@@std@@QAE@ABV01@@Z 2110fab0 f i c_gameserver.obj
 0002:0008caf0       ??0?$_Vector_const_iterator@U?$pair@IH@std@@V?$K2VectorAllocator@U?$pair@IH@std@@@@@std@@QAE@ABV01@@Z 2110faf0 f i c_gameserver.obj
 0002:0008cb30       ??0?$_Vector_const_iterator@USMatchKillEntry@@V?$K2VectorAllocator@USMatchKillEntry@@@@@std@@QAE@ABV01@@Z 2110fb30 f i c_gameserver.obj
 0002:0008cb70       ??0?$_Vector_const_iterator@PAVCPlayer@@V?$K2VectorAllocator@PAVCPlayer@@@@@std@@QAE@ABV01@@Z 2110fb70 f i c_gameserver.obj
 0002:0008cbb0       ??0?$_Vector_const_iterator@PAVIGameEntity@@V?$K2VectorAllocator@PAVIGameEntity@@@@@std@@QAE@ABV01@@Z 2110fbb0 f i c_gameserver.obj
 0002:0008cbf0       ??0?$_Ranit@U?$pair@GE@std@@HPBU12@ABU12@@std@@QAE@ABU01@@Z 2110fbf0 f i c_gameserver.obj
 0002:0008cc20       ??0?$_Ranit@GHPBGABG@std@@QAE@ABU01@@Z 2110fc20 f i c_gameserver.obj
 0002:0008cc50       ??0?$_Ranit@U?$pair@V?$basic_string@DU?$char_traits@D@std@@V?$K2StringAllocator@D@@@std@@V12@@std@@HPBU12@ABU12@@std@@QAE@ABU01@@Z 2110fc50 f i c_gameserver.obj
 0002:0008cc80       ??0?$_Ranit@USSmackdownEntry@CGameStats@@HPBU12@ABU12@@std@@QAE@ABU01@@Z 2110fc80 f i c_gameserver.obj
 0002:0008ccb0       ??0?$_Ranit@USHumiliationEntry@CGameStats@@HPBU12@ABU12@@std@@QAE@ABU01@@Z 2110fcb0 f i c_gameserver.obj
 0002:0008cce0       ??0?$_Ranit@USRivalEntry@CGameStats@@HPBU12@ABU12@@std@@QAE@ABU01@@Z 2110fce0 f i c_gameserver.obj
 0002:0008cd10       ??0?$_Ranit@USPaybackEntry@CGameStats@@HPBU12@ABU12@@std@@QAE@ABU01@@Z 2110fd10 f i c_gameserver.obj
 0002:0008cd40       ??0?$_Ranit@USAbilityUpgradeEntry@CGameStats@@HPBU12@ABU12@@std@@QAE@ABU01@@Z 2110fd40 f i c_gameserver.obj
 0002:0008cd70       ??0?$_Ranit@USItemHistoryEntry@CGameStats@@HPBU12@ABU12@@std@@QAE@ABU01@@Z 2110fd70 f i c_gameserver.obj
 0002:0008cda0       ??0?$_Ranit@USHeroKillHistoryEvent@CGameStats@@HPBU12@ABU12@@std@@QAE@ABU01@@Z 2110fda0 f i c_gameserver.obj
 0002:0008cdd0       ??0?$_Ranit@U?$pair@IH@std@@HPBU12@ABU12@@std@@QAE@ABU01@@Z 2110fdd0 f i c_gameserver.obj
 0002:0008ce00       ??0?$_Ranit@USMatchKillEntry@@HPBU1@ABU1@@std@@QAE@ABU01@@Z 2110fe00 f i c_gameserver.obj
 0002:0008ce30       ??0?$_Ranit@PAVCPlayer@@HPBQAV1@ABQAV1@@std@@QAE@ABU01@@Z 2110fe30 f i c_gameserver.obj
 0002:0008ce60       ??0?$_Ranit@PAVIGameEntity@@HPBQAV1@ABQAV1@@std@@QAE@ABU01@@Z 2110fe60 f i c_gameserver.obj
 0002:0008ce90       ?max_size@?$vector@HV?$K2VectorAllocator@H@@@std@@QBEIXZ 2110fe90 f i c_gameserver.obj
 0002:0008cec0       ?_Insert_n@?$vector@HV?$K2VectorAllocator@H@@@std@@IAEXV?$_Vector_iterator@HV?$K2VectorAllocator@H@@@2@IABH@Z 2110fec0 f i c_gameserver.obj
 0002:0008d370       ?_Xlen@?$vector@HV?$K2VectorAllocator@H@@@std@@KAXXZ 21110370 f i c_gameserver.obj
 0002:0008d420       ??0?$_Vector_val@HV?$K2VectorAllocator@H@@@std@@IAE@V?$K2VectorAllocator@H@@@Z 21110420 f i c_gameserver.obj
 0002:0008d4c0       ??0?$K2VectorAllocator@H@@QAE@XZ 211104c0 f i c_gameserver.obj
 0002:0008d4f0       ??0?$K2VectorAllocator@H@@QAE@ABV0@@Z 211104f0 f i c_gameserver.obj
 0002:0008d520       ?allocate@?$K2VectorAllocator@H@@QAEPAHI@Z 21110520 f i c_gameserver.obj
 0002:0008d570       ??0?$_Tree@V?$_Tset_traits@IU?$less@I@std@@V?$K2SetAllocator@I@@$0A@@std@@@std@@QAE@ABU?$less@I@1@ABV?$K2SetAllocator@I@@@Z 21110570 f i c_gameserver.obj
 0002:0008d610       ?erase@?$_Tree@V?$_Tset_traits@IU?$less@I@std@@V?$K2SetAllocator@I@@$0A@@std@@@std@@QAE?AViterator@12@V312@@Z 21110610 f i c_gameserver.obj
 0002:0008dff0       ?_Copy@?$_Tree@V?$_Tset_traits@IU?$less@I@std@@V?$K2SetAllocator@I@@$0A@@std@@@std@@IAEPAU_Node@?$_Tree_nod@V?$_Tset_traits@IU?$less@I@std@@V?$K2SetAllocator@I@@$0A@@std@@@2@PAU342@0@Z 21110ff0 f i c_gameserver.obj
 0002:0008e1b0       ?_Min@?$_Tree@V?$_Tset_traits@IU?$less@I@std@@V?$K2SetAllocator@I@@$0A@@std@@@std@@KAPAU_Node@?$_Tree_nod@V?$_Tset_traits@IU?$less@I@std@@V?$K2SetAllocator@I@@$0A@@std@@@2@PAU342@@Z 211111b0 f i c_gameserver.obj
 0002:0008e210       ??0?$K2SetAllocator@I@@QAE@XZ 21111210 f i c_gameserver.obj
 0002:0008e240       ?destroy@?$allocator@PAU_Node@?$_Tree_nod@V?$_Tset_traits@IU?$less@I@std@@V?$K2SetAllocator@I@@$0A@@std@@@std@@@std@@QAEXPAPAU_Node@?$_Tree_nod@V?$_Tset_traits@IU?$less@I@std@@V?$K2SetAllocator@I@@$0A@@std@@@2@@Z 21111240 f i c_gameserver.obj
 0002:0008e270       ?_Left@?$_Tree@V?$_Tmap_traits@GV?$basic_string@_WU?$char_traits@_W@std@@V?$K2StringAllocator@_W@@@std@@U?$less@G@2@V?$K2MapAllocator@U?$pair@$$CBGV?$basic_string@_WU?$char_traits@_W@std@@V?$K2StringAllocator@_W@@@std@@@std@@@@$0A@@std@@@std@@KAAAPAU_Node@?$_Tree_nod@V?$_Tmap_traits@GV?$basic_string@_WU?$char_traits@_W@std@@V?$K2StringAllocator@_W@@@std@@U?$less@G@2@V?$K2MapAllocator@U?$pair@$$CBGV?$basic_string@_WU?$char_traits@_W@std@@V?$K2StringAllocator@_W@@@std@@@std@@@@$0A@@std@@@2@PAU342@@Z 21111270 f i c_gameserver.obj
 0002:0008e290       ?_Parent@?$_Tree@V?$_Tmap_traits@GV?$basic_string@_WU?$char_traits@_W@std@@V?$K2StringAllocator@_W@@@std@@U?$less@G@2@V?$K2MapAllocator@U?$pair@$$CBGV?$basic_string@_WU?$char_traits@_W@std@@V?$K2StringAllocator@_W@@@std@@@std@@@@$0A@@std@@@std@@KAAAPAU_Node@?$_Tree_nod@V?$_Tmap_traits@GV?$basic_string@_WU?$char_traits@_W@std@@V?$K2StringAllocator@_W@@@std@@U?$less@G@2@V?$K2MapAllocator@U?$pair@$$CBGV?$basic_string@_WU?$char_traits@_W@std@@V?$K2StringAllocator@_W@@@std@@@std@@@@$0A@@std@@@2@PAU342@@Z 21111290 f i c_gameserver.obj
 0002:0008e2b0       ?_Right@?$_Tree@V?$_Tmap_traits@GV?$basic_string@_WU?$char_traits@_W@std@@V?$K2StringAllocator@_W@@@std@@U?$less@G@2@V?$K2MapAllocator@U?$pair@$$CBGV?$basic_string@_WU?$char_traits@_W@std@@V?$K2StringAllocator@_W@@@std@@@std@@@@$0A@@std@@@std@@KAAAPAU_Node@?$_Tree_nod@V?$_Tmap_traits@GV?$basic_string@_WU?$char_traits@_W@std@@V?$K2StringAllocator@_W@@@std@@U?$less@G@2@V?$K2MapAllocator@U?$pair@$$CBGV?$basic_string@_WU?$char_traits@_W@std@@V?$K2StringAllocator@_W@@@std@@@std@@@@$0A@@std@@@2@PAU342@@Z 211112b0 f i c_gameserver.obj
 0002:0008e2d0       ??0?$_Tree@V?$_Tmap_traits@GV?$basic_string@_WU?$char_traits@_W@std@@V?$K2StringAllocator@_W@@@std@@U?$less@G@2@V?$K2MapAllocator@U?$pair@$$CBGV?$basic_string@_WU?$char_traits@_W@std@@V?$K2StringAllocator@_W@@@std@@@std@@@@$0A@@std@@@std@@QAE@ABU?$less@G@1@ABV?$K2MapAllocator@U?$pair@$$CBGV?$basic_string@_WU?$char_traits@_W@std@@V?$K2StringAllocator@_W@@@std@@@std@@@@@Z 211112d0 f i c_gameserver.obj
 0002:0008e370       ?erase@?$_Tree@V?$_Tmap_traits@GV?$basic_string@_WU?$char_traits@_W@std@@V?$K2StringAllocator@_W@@@std@@U?$less@G@2@V?$K2MapAllocator@U?$pair@$$CBGV?$basic_string@_WU?$char_traits@_W@std@@V?$K2StringAllocator@_W@@@std@@@std@@@@$0A@@std@@@std@@QAE?AViterator@12@V312@0@Z 21111370 f i c_gameserver.obj
 0002:0008e600       ??0?$K2MapAllocator@U?$pair@$$CBGV?$basic_string@_WU?$char_traits@_W@std@@V?$K2StringAllocator@_W@@@std@@@std@@@@QAE@XZ 21111600 f i c_gameserver.obj
 0002:0008e630       ?deallocate@?$K2MapAllocator@U_Node@?$_Tree_nod@V?$_Tmap_traits@GV?$basic_string@_WU?$char_traits@_W@std@@V?$K2StringAllocator@_W@@@std@@U?$less@G@2@V?$K2MapAllocator@U?$pair@$$CBGV?$basic_string@_WU?$char_traits@_W@std@@V?$K2StringAllocator@_W@@@std@@@std@@@@$0A@@std@@@std@@@@QAEXPAU_Node@?$_Tree_nod@V?$_Tmap_traits@GV?$basic_string@_WU?$char_traits@_W@std@@V?$K2StringAllocator@_W@@@std@@U?$less@G@2@V?$K2MapAllocator@U?$pair@$$CBGV?$basic_string@_WU?$char_traits@_W@std@@V?$K2StringAllocator@_W@@@std@@@std@@@@$0A@@std@@@std@@I@Z 21111630 f i c_gameserver.obj
 0002:0008e670       ?destroy@?$allocator@PAU_Node@?$_Tree_nod@V?$_Tmap_traits@GV?$basic_string@_WU?$char_traits@_W@std@@V?$K2StringAllocator@_W@@@std@@U?$less@G@2@V?$K2MapAllocator@U?$pair@$$CBGV?$basic_string@_WU?$char_traits@_W@std@@V?$K2StringAllocator@_W@@@std@@@std@@@@$0A@@std@@@std@@@std@@QAEXPAPAU_Node@?$_Tree_nod@V?$_Tmap_traits@GV?$basic_string@_WU?$char_traits@_W@std@@V?$K2StringAllocator@_W@@@std@@U?$less@G@2@V?$K2MapAllocator@U?$pair@$$CBGV?$basic_string@_WU?$char_traits@_W@std@@V?$K2StringAllocator@_W@@@std@@@std@@@@$0A@@std@@@2@@Z 21111670 f i c_gameserver.obj
 0002:0008e6a0       ?append@?$basic_string@DU?$char_traits@D@std@@V?$K2StringAllocator@D@@@std@@QAEAAV12@ABV12@II@Z 211116a0 f i c_gameserver.obj
 0002:0008e7b0       ?insert@?$_Tree@V?$_Tmap_traits@HPAVCPlayer@@U?$less@H@std@@V?$K2MapAllocator@U?$pair@$$CBHPAVCPlayer@@@std@@@@$0A@@std@@@std@@QAE?AU?$pair@Viterator@?$_Tree@V?$_Tmap_traits@HPAVCPlayer@@U?$less@H@std@@V?$K2MapAllocator@U?$pair@$$CBHPAVCPlayer@@@std@@@@$0A@@std@@@std@@_N@2@ABU?$pair@$$CBHPAVCPlayer@@@2@@Z 211117b0 f i c_gameserver.obj
 0002:0008ebd0       ?_Insert@?$_Tree@V?$_Tmap_traits@HPAVCPlayer@@U?$less@H@std@@V?$K2MapAllocator@U?$pair@$$CBHPAVCPlayer@@@std@@@@$0A@@std@@@std@@IAE?AViterator@12@_NPAU_Node@?$_Tree_nod@V?$_Tmap_traits@HPAVCPlayer@@U?$less@H@std@@V?$K2MapAllocator@U?$pair@$$CBHPAVCPlayer@@@std@@@@$0A@@std@@@2@ABU?$pair@$$CBHPAVCPlayer@@@2@@Z 21111bd0 f i c_gameserver.obj
 0002:0008f190       ?_Buy@?$vector@U?$pair@GE@std@@V?$K2VectorAllocator@U?$pair@GE@std@@@@@std@@IAE_NI@Z 21112190 f i c_gameserver.obj
 0002:0008f240       ?_Destroy@?$vector@U?$pair@GE@std@@V?$K2VectorAllocator@U?$pair@GE@std@@@@@std@@IAEXPAU?$pair@GE@2@0@Z 21112240 f i c_gameserver.obj
 0002:0008f280       ?_Insert_n@?$vector@U?$pair@GE@std@@V?$K2VectorAllocator@U?$pair@GE@std@@@@@std@@IAEXV?$_Vector_iterator@U?$pair@GE@std@@V?$K2VectorAllocator@U?$pair@GE@std@@@@@2@IABU?$pair@GE@2@@Z 21112280 f i c_gameserver.obj
 0002:0008f730       ??0?$_Vector_val@U?$pair@GE@std@@V?$K2VectorAllocator@U?$pair@GE@std@@@@@std@@IAE@V?$K2VectorAllocator@U?$pair@GE@std@@@@@Z 21112730 f i c_gameserver.obj
 0002:0008f7d0       ??0?$K2VectorAllocator@U?$pair@GE@std@@@@QAE@XZ 211127d0 f i c_gameserver.obj
 0002:0008f800       ?deallocate@?$K2VectorAllocator@U?$pair@GE@std@@@@QAEXPAU?$pair@GE@std@@I@Z 21112800 f i c_gameserver.obj
 0002:0008f840       ?_Left@?$_Tree@V?$_Tmap_traits@IPAVCWorldLight@@U?$less@I@std@@V?$K2MapAllocator@U?$pair@$$CBIPAVCWorldLight@@@std@@@@$0A@@std@@@std@@KAAAPAU_Node@?$_Tree_nod@V?$_Tmap_traits@IPAVCWorldLight@@U?$less@I@std@@V?$K2MapAllocator@U?$pair@$$CBIPAVCWorldLight@@@std@@@@$0A@@std@@@2@PAU342@@Z 21112840 f i c_gameserver.obj
 0002:0008f860       ??Eiterator@?$_Tree@V?$_Tset_traits@IU?$less@I@std@@V?$K2SetAllocator@I@@$0A@@std@@@std@@QAE?AV012@H@Z 21112860 f i c_gameserver.obj
 0002:0008f910       ?size@?$_Tree@V?$_Tmap_traits@IPAVCTeamInfo@@U?$less@I@std@@V?$K2MapAllocator@U?$pair@$$CBIPAVCTeamInfo@@@std@@@@$0A@@std@@@std@@QBEIXZ 21112910 f i c_gameserver.obj
 0002:0008f930       ?_Copy@?$_Tree@V?$_Tmap_traits@IPAVCTeamInfo@@U?$less@I@std@@V?$K2MapAllocator@U?$pair@$$CBIPAVCTeamInfo@@@std@@@@$0A@@std@@@std@@IAEPAU_Node@?$_Tree_nod@V?$_Tmap_traits@IPAVCTeamInfo@@U?$less@I@std@@V?$K2MapAllocator@U?$pair@$$CBIPAVCTeamInfo@@@std@@@@$0A@@std@@@2@PAU342@0@Z 21112930 f i c_gameserver.obj
 0002:0008faf0       ?_Insert_n@?$vector@GV?$K2VectorAllocator@G@@@std@@IAEXV?$_Vector_iterator@GV?$K2VectorAllocator@G@@@2@IABG@Z 21112af0 f i c_gameserver.obj
 0002:0008ffa0       ??0iterator@?$_Tree@V?$_Tmap_traits@HPAVCPlayer@@U?$less@H@std@@V?$K2MapAllocator@U?$pair@$$CBHPAVCPlayer@@@std@@@@$0A@@std@@@std@@QAE@XZ 21112fa0 f i c_gameserver.obj
 0002:0008ffd0       ??Fiterator@?$_Tree@V?$_Tmap_traits@HPAVCPlayer@@U?$less@H@std@@V?$K2MapAllocator@U?$pair@$$CBHPAVCPlayer@@@std@@@@$0A@@std@@@std@@QAEAAV012@XZ 21112fd0 f i c_gameserver.obj
 0002:00090000       ??G?$_Vector_const_iterator@IV?$K2VectorAllocator@I@@@std@@QBE?AV01@H@Z 21113000 f i c_gameserver.obj
 0002:000900b0       ?_Destroy@?$vector@VCPHPData@@V?$K2VectorAllocator@VCPHPData@@@@@std@@IAEXPAVCPHPData@@0@Z 211130b0 f i c_gameserver.obj
 0002:000900f0       ?deallocate@?$K2VectorAllocator@VCPHPData@@@@QAEXPAVCPHPData@@I@Z 211130f0 f i c_gameserver.obj
 0002:00090130       ?_Compat@?$_Vector_const_iterator@VCPHPData@@V?$K2VectorAllocator@VCPHPData@@@@@std@@QBEXABV12@@Z 21113130 f i c_gameserver.obj
 0002:000901e0       ?_Destroy@?$vector@VCLastGameInfo@CPlayerAccountHistory@@V?$K2VectorAllocator@VCLastGameInfo@CPlayerAccountHistory@@@@@std@@IAEXPAVCLastGameInfo@CPlayerAccountHistory@@0@Z 211131e0 f i c_gameserver.obj
 0002:00090220       ?deallocate@?$K2VectorAllocator@VCLastGameInfo@CPlayerAccountHistory@@@@QAEXPAVCLastGameInfo@CPlayerAccountHistory@@I@Z 21113220 f i c_gameserver.obj
 0002:00090260       ?_Destroy@?$vector@VCFavHeroes@CPlayerAccountHistory@@V?$K2VectorAllocator@VCFavHeroes@CPlayerAccountHistory@@@@@std@@IAEXPAVCFavHeroes@CPlayerAccountHistory@@0@Z 21113260 f i c_gameserver.obj
 0002:000902a0       ?deallocate@?$K2VectorAllocator@VCFavHeroes@CPlayerAccountHistory@@@@QAEXPAVCFavHeroes@CPlayerAccountHistory@@I@Z 211132a0 f i c_gameserver.obj
 0002:000902e0       ?_Destroy@?$vector@U?$pair@V?$basic_string@DU?$char_traits@D@std@@V?$K2StringAllocator@D@@@std@@V12@@std@@V?$K2VectorAllocator@U?$pair@V?$basic_string@DU?$char_traits@D@std@@V?$K2StringAllocator@D@@@std@@V12@@std@@@@@std@@IAEXPAU?$pair@V?$basic_string@DU?$char_traits@D@std@@V?$K2StringAllocator@D@@@std@@V12@@2@0@Z 211132e0 f i c_gameserver.obj
 0002:00090320       ?_Insert_n@?$vector@U?$pair@V?$basic_string@DU?$char_traits@D@std@@V?$K2StringAllocator@D@@@std@@V12@@std@@V?$K2VectorAllocator@U?$pair@V?$basic_string@DU?$char_traits@D@std@@V?$K2StringAllocator@D@@@std@@V12@@std@@@@@std@@IAEXV?$_Vector_iterator@U?$pair@V?$basic_string@DU?$char_traits@D@std@@V?$K2StringAllocator@D@@@std@@V12@@std@@V?$K2VectorAllocator@U?$pair@V?$basic_string@DU?$char_traits@D@std@@V?$K2StringAllocator@D@@@std@@V12@@std@@@@@2@IABU?$pair@V?$basic_string@DU?$char_traits@D@std@@V?$K2StringAllocator@D@@@std@@V12@@2@@Z 21113320 f i c_gameserver.obj
 0002:00090820       ?begin@?$vector@USSmackdownEntry@CGameStats@@V?$K2VectorAllocator@USSmackdownEntry@CGameStats@@@@@std@@QAE?AV?$_Vector_iterator@USSmackdownEntry@CGameStats@@V?$K2VectorAllocator@USSmackdownEntry@CGameStats@@@@@2@XZ 21113820 f i c_gameserver.obj
 0002:00090870       ?_Insert_n@?$vector@USSmackdownEntry@CGameStats@@V?$K2VectorAllocator@USSmackdownEntry@CGameStats@@@@@std@@IAEXV?$_Vector_iterator@USSmackdownEntry@CGameStats@@V?$K2VectorAllocator@USSmackdownEntry@CGameStats@@@@@2@IABUSSmackdownEntry@CGameStats@@@Z 21113870 f i c_gameserver.obj
 0002:00090d40       ?_Destroy@?$vector@USSmackdownEntry@CGameStats@@V?$K2VectorAllocator@USSmackdownEntry@CGameStats@@@@@std@@IAEXPAUSSmackdownEntry@CGameStats@@0@Z 21113d40 f i c_gameserver.obj
 0002:00090d80       ?deallocate@?$K2VectorAllocator@USSmackdownEntry@CGameStats@@@@QAEXPAUSSmackdownEntry@CGameStats@@I@Z 21113d80 f i c_gameserver.obj
 0002:00090dc0       ?begin@?$vector@USHumiliationEntry@CGameStats@@V?$K2VectorAllocator@USHumiliationEntry@CGameStats@@@@@std@@QAE?AV?$_Vector_iterator@USHumiliationEntry@CGameStats@@V?$K2VectorAllocator@USHumiliationEntry@CGameStats@@@@@2@XZ 21113dc0 f i c_gameserver.obj
 0002:00090e10       ?_Insert_n@?$vector@USHumiliationEntry@CGameStats@@V?$K2VectorAllocator@USHumiliationEntry@CGameStats@@@@@std@@IAEXV?$_Vector_iterator@USHumiliationEntry@CGameStats@@V?$K2VectorAllocator@USHumiliationEntry@CGameStats@@@@@2@IABUSHumiliationEntry@CGameStats@@@Z 21113e10 f i c_gameserver.obj
 0002:000912e0       ?_Destroy@?$vector@USHumiliationEntry@CGameStats@@V?$K2VectorAllocator@USHumiliationEntry@CGameStats@@@@@std@@IAEXPAUSHumiliationEntry@CGameStats@@0@Z 211142e0 f i c_gameserver.obj
 0002:00091320       ?deallocate@?$K2VectorAllocator@USHumiliationEntry@CGameStats@@@@QAEXPAUSHumiliationEntry@CGameStats@@I@Z 21114320 f i c_gameserver.obj
 0002:00091360       ?begin@?$vector@USRivalEntry@CGameStats@@V?$K2VectorAllocator@USRivalEntry@CGameStats@@@@@std@@QAE?AV?$_Vector_iterator@USRivalEntry@CGameStats@@V?$K2VectorAllocator@USRivalEntry@CGameStats@@@@@2@XZ 21114360 f i c_gameserver.obj
 0002:000913b0       ?_Insert_n@?$vector@USRivalEntry@CGameStats@@V?$K2VectorAllocator@USRivalEntry@CGameStats@@@@@std@@IAEXV?$_Vector_iterator@USRivalEntry@CGameStats@@V?$K2VectorAllocator@USRivalEntry@CGameStats@@@@@2@IABUSRivalEntry@CGameStats@@@Z 211143b0 f i c_gameserver.obj
 0002:00091880       ?_Destroy@?$vector@USRivalEntry@CGameStats@@V?$K2VectorAllocator@USRivalEntry@CGameStats@@@@@std@@IAEXPAUSRivalEntry@CGameStats@@0@Z 21114880 f i c_gameserver.obj
 0002:000918c0       ?deallocate@?$K2VectorAllocator@USRivalEntry@CGameStats@@@@QAEXPAUSRivalEntry@CGameStats@@I@Z 211148c0 f i c_gameserver.obj
 0002:00091900       ?begin@?$vector@USPaybackEntry@CGameStats@@V?$K2VectorAllocator@USPaybackEntry@CGameStats@@@@@std@@QAE?AV?$_Vector_iterator@USPaybackEntry@CGameStats@@V?$K2VectorAllocator@USPaybackEntry@CGameStats@@@@@2@XZ 21114900 f i c_gameserver.obj
 0002:00091950       ?_Insert_n@?$vector@USPaybackEntry@CGameStats@@V?$K2VectorAllocator@USPaybackEntry@CGameStats@@@@@std@@IAEXV?$_Vector_iterator@USPaybackEntry@CGameStats@@V?$K2VectorAllocator@USPaybackEntry@CGameStats@@@@@2@IABUSPaybackEntry@CGameStats@@@Z 21114950 f i c_gameserver.obj
 0002:00091e20       ?_Destroy@?$vector@USPaybackEntry@CGameStats@@V?$K2VectorAllocator@USPaybackEntry@CGameStats@@@@@std@@IAEXPAUSPaybackEntry@CGameStats@@0@Z 21114e20 f i c_gameserver.obj
 0002:00091e60       ?deallocate@?$K2VectorAllocator@USPaybackEntry@CGameStats@@@@QAEXPAUSPaybackEntry@CGameStats@@I@Z 21114e60 f i c_gameserver.obj
 0002:00091ea0       ?begin@?$vector@USAbilityUpgradeEntry@CGameStats@@V?$K2VectorAllocator@USAbilityUpgradeEntry@CGameStats@@@@@std@@QAE?AV?$_Vector_iterator@USAbilityUpgradeEntry@CGameStats@@V?$K2VectorAllocator@USAbilityUpgradeEntry@CGameStats@@@@@2@XZ 21114ea0 f i c_gameserver.obj
 0002:00091ef0       ?_Insert_n@?$vector@USAbilityUpgradeEntry@CGameStats@@V?$K2VectorAllocator@USAbilityUpgradeEntry@CGameStats@@@@@std@@IAEXV?$_Vector_iterator@USAbilityUpgradeEntry@CGameStats@@V?$K2VectorAllocator@USAbilityUpgradeEntry@CGameStats@@@@@2@IABUSAbilityUpgradeEntry@CGameStats@@@Z 21114ef0 f i c_gameserver.obj
 0002:000923b0       ?_Destroy@?$vector@USAbilityUpgradeEntry@CGameStats@@V?$K2VectorAllocator@USAbilityUpgradeEntry@CGameStats@@@@@std@@IAEXPAUSAbilityUpgradeEntry@CGameStats@@0@Z 211153b0 f i c_gameserver.obj
 0002:000923f0       ?deallocate@?$K2VectorAllocator@USAbilityUpgradeEntry@CGameStats@@@@QAEXPAUSAbilityUpgradeEntry@CGameStats@@I@Z 211153f0 f i c_gameserver.obj
 0002:00092430       ?begin@?$vector@USItemHistoryEntry@CGameStats@@V?$K2VectorAllocator@USItemHistoryEntry@CGameStats@@@@@std@@QAE?AV?$_Vector_iterator@USItemHistoryEntry@CGameStats@@V?$K2VectorAllocator@USItemHistoryEntry@CGameStats@@@@@2@XZ 21115430 f i c_gameserver.obj
 0002:00092480       ?_Insert_n@?$vector@USItemHistoryEntry@CGameStats@@V?$K2VectorAllocator@USItemHistoryEntry@CGameStats@@@@@std@@IAEXV?$_Vector_iterator@USItemHistoryEntry@CGameStats@@V?$K2VectorAllocator@USItemHistoryEntry@CGameStats@@@@@2@IABUSItemHistoryEntry@CGameStats@@@Z 21115480 f i c_gameserver.obj
 0002:00092940       ?_Destroy@?$vector@USItemHistoryEntry@CGameStats@@V?$K2VectorAllocator@USItemHistoryEntry@CGameStats@@@@@std@@IAEXPAUSItemHistoryEntry@CGameStats@@0@Z 21115940 f i c_gameserver.obj
 0002:00092980       ?deallocate@?$K2VectorAllocator@USItemHistoryEntry@CGameStats@@@@QAEXPAUSItemHistoryEntry@CGameStats@@I@Z 21115980 f i c_gameserver.obj
 0002:000929c0       ?begin@?$vector@USHeroKillHistoryEvent@CGameStats@@V?$K2VectorAllocator@USHeroKillHistoryEvent@CGameStats@@@@@std@@QAE?AV?$_Vector_iterator@USHeroKillHistoryEvent@CGameStats@@V?$K2VectorAllocator@USHeroKillHistoryEvent@CGameStats@@@@@2@XZ 211159c0 f i c_gameserver.obj
 0002:00092a10       ?_Insert_n@?$vector@USHeroKillHistoryEvent@CGameStats@@V?$K2VectorAllocator@USHeroKillHistoryEvent@CGameStats@@@@@std@@IAEXV?$_Vector_iterator@USHeroKillHistoryEvent@CGameStats@@V?$K2VectorAllocator@USHeroKillHistoryEvent@CGameStats@@@@@2@IABUSHeroKillHistoryEvent@CGameStats@@@Z 21115a10 f i c_gameserver.obj
 0002:00092f10       ?_Destroy@?$vector@USHeroKillHistoryEvent@CGameStats@@V?$K2VectorAllocator@USHeroKillHistoryEvent@CGameStats@@@@@std@@IAEXPAUSHeroKillHistoryEvent@CGameStats@@0@Z 21115f10 f i c_gameserver.obj
 0002:00092f50       ?deallocate@?$K2VectorAllocator@USHeroKillHistoryEvent@CGameStats@@@@QAEXPAUSHeroKillHistoryEvent@CGameStats@@I@Z 21115f50 f i c_gameserver.obj
 0002:00092f90       ?begin@?$vector@U?$pair@IH@std@@V?$K2VectorAllocator@U?$pair@IH@std@@@@@std@@QAE?AV?$_Vector_iterator@U?$pair@IH@std@@V?$K2VectorAllocator@U?$pair@IH@std@@@@@2@XZ 21115f90 f i c_gameserver.obj
 0002:00092fe0       ?_Insert_n@?$vector@U?$pair@IH@std@@V?$K2VectorAllocator@U?$pair@IH@std@@@@@std@@IAEXV?$_Vector_iterator@U?$pair@IH@std@@V?$K2VectorAllocator@U?$pair@IH@std@@@@@2@IABU?$pair@IH@2@@Z 21115fe0 f i c_gameserver.obj
 0002:000934a0       ?_Destroy@?$vector@U?$pair@IH@std@@V?$K2VectorAllocator@U?$pair@IH@std@@@@@std@@IAEXPAU?$pair@IH@2@0@Z 211164a0 f i c_gameserver.obj
 0002:000934e0       ?deallocate@?$K2VectorAllocator@U?$pair@IH@std@@@@QAEXPAU?$pair@IH@std@@I@Z 211164e0 f i c_gameserver.obj
 0002:00093520       ?_Buy@?$vector@USGuestEntry@@V?$K2VectorAllocator@USGuestEntry@@@@@std@@IAE_NI@Z 21116520 f i c_gameserver.obj
 0002:000935d0       ?_Destroy@?$vector@USGuestEntry@@V?$K2VectorAllocator@USGuestEntry@@@@@std@@IAEXPAUSGuestEntry@@0@Z 211165d0 f i c_gameserver.obj
 0002:00093610       ?_Orphan_range@?$vector@USGuestEntry@@V?$K2VectorAllocator@USGuestEntry@@@@@std@@IBEXPAUSGuestEntry@@0@Z 21116610 f i c_gameserver.obj
 0002:000936b0       ??0?$_Vector_val@USGuestEntry@@V?$K2VectorAllocator@USGuestEntry@@@@@std@@IAE@V?$K2VectorAllocator@USGuestEntry@@@@@Z 211166b0 f i c_gameserver.obj
 0002:00093750       ??0?$K2VectorAllocator@USGuestEntry@@@@QAE@XZ 21116750 f i c_gameserver.obj
 0002:00093780       ?deallocate@?$K2VectorAllocator@USGuestEntry@@@@QAEXPAUSGuestEntry@@I@Z 21116780 f i c_gameserver.obj
 0002:000937c0       ?_Isnil@?$_Tree@V?$_Tmap_traits@HVCPlayerAccountStats@@U?$less@H@std@@V?$K2MapAllocator@U?$pair@$$CBHVCPlayerAccountStats@@@std@@@@$0A@@std@@@std@@KAAADPAU_Node@?$_Tree_nod@V?$_Tmap_traits@HVCPlayerAccountStats@@U?$less@H@std@@V?$K2MapAllocator@U?$pair@$$CBHVCPlayerAccountStats@@@std@@@@$0A@@std@@@2@@Z 211167c0 f i c_gameserver.obj
 0002:000937e0       ?_Left@?$_Tree@V?$_Tmap_traits@HVCPlayerAccountStats@@U?$less@H@std@@V?$K2MapAllocator@U?$pair@$$CBHVCPlayerAccountStats@@@std@@@@$0A@@std@@@std@@KAAAPAU_Node@?$_Tree_nod@V?$_Tmap_traits@HVCPlayerAccountStats@@U?$less@H@std@@V?$K2MapAllocator@U?$pair@$$CBHVCPlayerAccountStats@@@std@@@@$0A@@std@@@2@PAU342@@Z 211167e0 f i c_gameserver.obj
 0002:00093800       ?_Parent@?$_Tree@V?$_Tmap_traits@HVCPlayerAccountStats@@U?$less@H@std@@V?$K2MapAllocator@U?$pair@$$CBHVCPlayerAccountStats@@@std@@@@$0A@@std@@@std@@KAAAPAU_Node@?$_Tree_nod@V?$_Tmap_traits@HVCPlayerAccountStats@@U?$less@H@std@@V?$K2MapAllocator@U?$pair@$$CBHVCPlayerAccountStats@@@std@@@@$0A@@std@@@2@PAU342@@Z 21116800 f i c_gameserver.obj
 0002:00093820       ?_Right@?$_Tree@V?$_Tmap_traits@HVCPlayerAccountStats@@U?$less@H@std@@V?$K2MapAllocator@U?$pair@$$CBHVCPlayerAccountStats@@@std@@@@$0A@@std@@@std@@KAAAPAU_Node@?$_Tree_nod@V?$_Tmap_traits@HVCPlayerAccountStats@@U?$less@H@std@@V?$K2MapAllocator@U?$pair@$$CBHVCPlayerAccountStats@@@std@@@@$0A@@std@@@2@PAU342@@Z 21116820 f i c_gameserver.obj
 0002:00093840       ?_Myval@?$_Tree@V?$_Tmap_traits@HVCPlayerAccountStats@@U?$less@H@std@@V?$K2MapAllocator@U?$pair@$$CBHVCPlayerAccountStats@@@std@@@@$0A@@std@@@std@@KAAAU?$pair@$$CBHVCPlayerAccountStats@@@2@PAU_Node@?$_Tree_nod@V?$_Tmap_traits@HVCPlayerAccountStats@@U?$less@H@std@@V?$K2MapAllocator@U?$pair@$$CBHVCPlayerAccountStats@@@std@@@@$0A@@std@@@2@@Z 21116840 f i c_gameserver.obj
 0002:00093860       ??0?$_Tree@V?$_Tmap_traits@HVCPlayerAccountStats@@U?$less@H@std@@V?$K2MapAllocator@U?$pair@$$CBHVCPlayerAccountStats@@@std@@@@$0A@@std@@@std@@QAE@ABU?$less@H@1@ABV?$K2MapAllocator@U?$pair@$$CBHVCPlayerAccountStats@@@std@@@@@Z 21116860 f i c_gameserver.obj
 0002:00093900       ?begin@?$_Tree@V?$_Tmap_traits@HVCPlayerAccountStats@@U?$less@H@std@@V?$K2MapAllocator@U?$pair@$$CBHVCPlayerAccountStats@@@std@@@@$0A@@std@@@std@@QAE?AViterator@12@XZ 21116900 f i c_gameserver.obj
 0002:00093950       ?size@?$_Tree@V?$_Tmap_traits@HVCPlayerAccountStats@@U?$less@H@std@@V?$K2MapAllocator@U?$pair@$$CBHVCPlayerAccountStats@@@std@@@@$0A@@std@@@std@@QBEIXZ 21116950 f i c_gameserver.obj
 0002:00093970       ?insert@?$_Tree@V?$_Tmap_traits@HVCPlayerAccountStats@@U?$less@H@std@@V?$K2MapAllocator@U?$pair@$$CBHVCPlayerAccountStats@@@std@@@@$0A@@std@@@std@@QAE?AU?$pair@Viterator@?$_Tree@V?$_Tmap_traits@HVCPlayerAccountStats@@U?$less@H@std@@V?$K2MapAllocator@U?$pair@$$CBHVCPlayerAccountStats@@@std@@@@$0A@@std@@@std@@_N@2@ABU?$pair@$$CBHVCPlayerAccountStats@@@2@@Z 21116970 f i c_gameserver.obj
 0002:00093d90       ?erase@?$_Tree@V?$_Tmap_traits@HVCPlayerAccountStats@@U?$less@H@std@@V?$K2MapAllocator@U?$pair@$$CBHVCPlayerAccountStats@@@std@@@@$0A@@std@@@std@@QAE?AViterator@12@V312@0@Z 21116d90 f i c_gameserver.obj
 0002:00094020       ?_Insert@?$_Tree@V?$_Tmap_traits@HVCPlayerAccountStats@@U?$less@H@std@@V?$K2MapAllocator@U?$pair@$$CBHVCPlayerAccountStats@@@std@@@@$0A@@std@@@std@@IAE?AViterator@12@_NPAU_Node@?$_Tree_nod@V?$_Tmap_traits@HVCPlayerAccountStats@@U?$less@H@std@@V?$K2MapAllocator@U?$pair@$$CBHVCPlayerAccountStats@@@std@@@@$0A@@std@@@2@ABU?$pair@$$CBHVCPlayerAccountStats@@@2@@Z 21117020 f i c_gameserver.obj
 0002:000945e0       ?_Lbound@?$_Tree@V?$_Tmap_traits@HVCPlayerAccountStats@@U?$less@H@std@@V?$K2MapAllocator@U?$pair@$$CBHVCPlayerAccountStats@@@std@@@@$0A@@std@@@std@@IBEPAU_Node@?$_Tree_nod@V?$_Tmap_traits@HVCPlayerAccountStats@@U?$less@H@std@@V?$K2MapAllocator@U?$pair@$$CBHVCPlayerAccountStats@@@std@@@@$0A@@std@@@2@ABH@Z 211175e0 f i c_gameserver.obj
 0002:000946b0       ?_Rmost@?$_Tree@V?$_Tmap_traits@HVCPlayerAccountStats@@U?$less@H@std@@V?$K2MapAllocator@U?$pair@$$CBHVCPlayerAccountStats@@@std@@@@$0A@@std@@@std@@IBEAAPAU_Node@?$_Tree_nod@V?$_Tmap_traits@HVCPlayerAccountStats@@U?$less@H@std@@V?$K2MapAllocator@U?$pair@$$CBHVCPlayerAccountStats@@@std@@@@$0A@@std@@@2@XZ 211176b0 f i c_gameserver.obj
 0002:000946e0       ?_Kfn@?$_Tmap_traits@HVCPlayerAccountStats@@U?$less@H@std@@V?$K2MapAllocator@U?$pair@$$CBHVCPlayerAccountStats@@@std@@@@$0A@@std@@SAABHABU?$pair@$$CBHVCPlayerAccountStats@@@2@@Z 211176e0 f i c_gameserver.obj
 0002:00094700       ??0?$K2MapAllocator@U?$pair@$$CBHVCPlayerAccountStats@@@std@@@@QAE@XZ 21117700 f i c_gameserver.obj
 0002:00094730       ?deallocate@?$K2MapAllocator@U_Node@?$_Tree_nod@V?$_Tmap_traits@HVCPlayerAccountStats@@U?$less@H@std@@V?$K2MapAllocator@U?$pair@$$CBHVCPlayerAccountStats@@@std@@@@$0A@@std@@@std@@@@QAEXPAU_Node@?$_Tree_nod@V?$_Tmap_traits@HVCPlayerAccountStats@@U?$less@H@std@@V?$K2MapAllocator@U?$pair@$$CBHVCPlayerAccountStats@@@std@@@@$0A@@std@@@std@@I@Z 21117730 f i c_gameserver.obj
 0002:00094770       ?destroy@?$allocator@PAU_Node@?$_Tree_nod@V?$_Tmap_traits@HVCPlayerAccountStats@@U?$less@H@std@@V?$K2MapAllocator@U?$pair@$$CBHVCPlayerAccountStats@@@std@@@@$0A@@std@@@std@@@std@@QAEXPAPAU_Node@?$_Tree_nod@V?$_Tmap_traits@HVCPlayerAccountStats@@U?$less@H@std@@V?$K2MapAllocator@U?$pair@$$CBHVCPlayerAccountStats@@@std@@@@$0A@@std@@@2@@Z 21117770 f i c_gameserver.obj
 0002:000947a0       ??Eiterator@?$_Tree@V?$_Tmap_traits@HVCPlayerAccountStats@@U?$less@H@std@@V?$K2MapAllocator@U?$pair@$$CBHVCPlayerAccountStats@@@std@@@@$0A@@std@@@std@@QAEAAV012@XZ 211177a0 f i c_gameserver.obj
 0002:000947d0       ??Fiterator@?$_Tree@V?$_Tmap_traits@HVCPlayerAccountStats@@U?$less@H@std@@V?$K2MapAllocator@U?$pair@$$CBHVCPlayerAccountStats@@@std@@@@$0A@@std@@@std@@QAEAAV012@XZ 211177d0 f i c_gameserver.obj
 0002:00094800       ??0const_iterator@?$_Tree@V?$_Tmap_traits@HVCPlayerAccountStats@@U?$less@H@std@@V?$K2MapAllocator@U?$pair@$$CBHVCPlayerAccountStats@@@std@@@@$0A@@std@@@std@@QAE@PAU_Node@?$_Tree_nod@V?$_Tmap_traits@HVCPlayerAccountStats@@U?$less@H@std@@V?$K2MapAllocator@U?$pair@$$CBHVCPlayerAccountStats@@@std@@@@$0A@@std@@@2@PBV12@@Z 21117800 f i c_gameserver.obj
 0002:00094890       ??Dconst_iterator@?$_Tree@V?$_Tmap_traits@HVCPlayerAccountStats@@U?$less@H@std@@V?$K2MapAllocator@U?$pair@$$CBHVCPlayerAccountStats@@@std@@@@$0A@@std@@@std@@QBEABU?$pair@$$CBHVCPlayerAccountStats@@@2@XZ 21117890 f i c_gameserver.obj
 0002:00094950       ?_Buy@?$vector@USMatchKillEntry@@V?$K2VectorAllocator@USMatchKillEntry@@@@@std@@IAE_NI@Z 21117950 f i c_gameserver.obj
 0002:00094a00       ?_Destroy@?$vector@USMatchKillEntry@@V?$K2VectorAllocator@USMatchKillEntry@@@@@std@@IAEXPAUSMatchKillEntry@@0@Z 21117a00 f i c_gameserver.obj
 0002:00094a40       ?_Insert_n@?$vector@USMatchKillEntry@@V?$K2VectorAllocator@USMatchKillEntry@@@@@std@@IAEXV?$_Vector_iterator@USMatchKillEntry@@V?$K2VectorAllocator@USMatchKillEntry@@@@@2@IABUSMatchKillEntry@@@Z 21117a40 f i c_gameserver.obj
 0002:00094f40       ??0?$_Vector_val@USMatchKillEntry@@V?$K2VectorAllocator@USMatchKillEntry@@@@@std@@IAE@V?$K2VectorAllocator@USMatchKillEntry@@@@@Z 21117f40 f i c_gameserver.obj
 0002:00094fe0       ??0?$K2VectorAllocator@USMatchKillEntry@@@@QAE@XZ 21117fe0 f i c_gameserver.obj
 0002:00095010       ?deallocate@?$K2VectorAllocator@USMatchKillEntry@@@@QAEXPAUSMatchKillEntry@@I@Z 21118010 f i c_gameserver.obj
 0002:00095050       ?_Buy@?$vector@USDelayedMessage@CGameServer@@V?$K2VectorAllocator@USDelayedMessage@CGameServer@@@@@std@@IAE_NI@Z 21118050 f i c_gameserver.obj
 0002:00095100       ?_Insert_n@?$vector@USDelayedMessage@CGameServer@@V?$K2VectorAllocator@USDelayedMessage@CGameServer@@@@@std@@IAEXV?$_Vector_iterator@USDelayedMessage@CGameServer@@V?$K2VectorAllocator@USDelayedMessage@CGameServer@@@@@2@IABUSDelayedMessage@CGameServer@@@Z 21118100 f i c_gameserver.obj
 0002:00095600       ??0?$_Vector_val@USDelayedMessage@CGameServer@@V?$K2VectorAllocator@USDelayedMessage@CGameServer@@@@@std@@IAE@V?$K2VectorAllocator@USDelayedMessage@CGameServer@@@@@Z 21118600 f i c_gameserver.obj
 0002:000956a0       ??0?$K2VectorAllocator@USDelayedMessage@CGameServer@@@@QAE@XZ 211186a0 f i c_gameserver.obj
 0002:000956d0       ?deallocate@?$K2VectorAllocator@USDelayedMessage@CGameServer@@@@QAEXPAUSDelayedMessage@CGameServer@@I@Z 211186d0 f i c_gameserver.obj
 0002:00095710       ?_Left@?$_Tree@V?$_Tmap_traits@IVCBufferDynamic@@U?$less@I@std@@V?$K2MapAllocator@U?$pair@$$CBIVCBufferDynamic@@@std@@@@$0A@@std@@@std@@KAAAPAU_Node@?$_Tree_nod@V?$_Tmap_traits@IVCBufferDynamic@@U?$less@I@std@@V?$K2MapAllocator@U?$pair@$$CBIVCBufferDynamic@@@std@@@@$0A@@std@@@2@PAU342@@Z 21118710 f i c_gameserver.obj
 0002:00095730       ?_Left@?$_Tree@V?$_Tmap_traits@IV?$basic_string@DU?$char_traits@D@std@@V?$K2StringAllocator@D@@@std@@U?$less@I@2@V?$K2MapAllocator@U?$pair@$$CBIV?$basic_string@DU?$char_traits@D@std@@V?$K2StringAllocator@D@@@std@@@std@@@@$0A@@std@@@std@@KAAAPAU_Node@?$_Tree_nod@V?$_Tmap_traits@IV?$basic_string@DU?$char_traits@D@std@@V?$K2StringAllocator@D@@@std@@U?$less@I@2@V?$K2MapAllocator@U?$pair@$$CBIV?$basic_string@DU?$char_traits@D@std@@V?$K2StringAllocator@D@@@std@@@std@@@@$0A@@std@@@2@PAU342@@Z 21118730 f i c_gameserver.obj
 0002:00095750       ?_Myval@?$_Tree@V?$_Tmap_traits@HPAVCClientConnection@@U?$less@H@std@@V?$K2MapAllocator@U?$pair@$$CBHPAVCClientConnection@@@std@@@@$0A@@std@@@std@@KAAAU?$pair@$$CBHPAVCClientConnection@@@2@PAU_Node@?$_Tree_nod@V?$_Tmap_traits@HPAVCClientConnection@@U?$less@H@std@@V?$K2MapAllocator@U?$pair@$$CBHPAVCClientConnection@@@std@@@@$0A@@std@@@2@@Z 21118750 f i c_gameserver.obj
 0002:00095770       ?insert@?$_Tree@V?$_Tmap_traits@HPAVCClientConnection@@U?$less@H@std@@V?$K2MapAllocator@U?$pair@$$CBHPAVCClientConnection@@@std@@@@$0A@@std@@@std@@QAE?AU?$pair@Viterator@?$_Tree@V?$_Tmap_traits@HPAVCClientConnection@@U?$less@H@std@@V?$K2MapAllocator@U?$pair@$$CBHPAVCClientConnection@@@std@@@@$0A@@std@@@std@@_N@2@ABU?$pair@$$CBHPAVCClientConnection@@@2@@Z 21118770 f i c_gameserver.obj
 0002:00095b90       ?_Insert@?$_Tree@V?$_Tmap_traits@HPAVCClientConnection@@U?$less@H@std@@V?$K2MapAllocator@U?$pair@$$CBHPAVCClientConnection@@@std@@@@$0A@@std@@@std@@IAE?AViterator@12@_NPAU_Node@?$_Tree_nod@V?$_Tmap_traits@HPAVCClientConnection@@U?$less@H@std@@V?$K2MapAllocator@U?$pair@$$CBHPAVCClientConnection@@@std@@@@$0A@@std@@@2@ABU?$pair@$$CBHPAVCClientConnection@@@2@@Z 21118b90 f i c_gameserver.obj
 0002:00096150       ?_Lbound@?$_Tree@V?$_Tmap_traits@HPAVCClientConnection@@U?$less@H@std@@V?$K2MapAllocator@U?$pair@$$CBHPAVCClientConnection@@@std@@@@$0A@@std@@@std@@IBEPAU_Node@?$_Tree_nod@V?$_Tmap_traits@HPAVCClientConnection@@U?$less@H@std@@V?$K2MapAllocator@U?$pair@$$CBHPAVCClientConnection@@@std@@@@$0A@@std@@@2@ABH@Z 21119150 f i c_gameserver.obj
 0002:00096220       ?_Kfn@?$_Tmap_traits@HPAVCClientConnection@@U?$less@H@std@@V?$K2MapAllocator@U?$pair@$$CBHPAVCClientConnection@@@std@@@@$0A@@std@@SAABHABU?$pair@$$CBHPAVCClientConnection@@@2@@Z 21119220 f i c_gameserver.obj
 0002:00096240       ?_Myval@?$_Tree@V?$_Tmap_traits@IUSRosterEntty@CHostServer@@U?$less@I@std@@V?$K2MapAllocator@U?$pair@$$CBIUSRosterEntty@CHostServer@@@std@@@@$0A@@std@@@std@@KAAAU?$pair@$$CBIUSRosterEntty@CHostServer@@@2@PAU_Node@?$_Tree_nod@V?$_Tmap_traits@IUSRosterEntty@CHostServer@@U?$less@I@std@@V?$K2MapAllocator@U?$pair@$$CBIUSRosterEntty@CHostServer@@@std@@@@$0A@@std@@@2@@Z 21119240 f i c_gameserver.obj
 0002:00096260       ?_Lbound@?$_Tree@V?$_Tmap_traits@IUSRosterEntty@CHostServer@@U?$less@I@std@@V?$K2MapAllocator@U?$pair@$$CBIUSRosterEntty@CHostServer@@@std@@@@$0A@@std@@@std@@IBEPAU_Node@?$_Tree_nod@V?$_Tmap_traits@IUSRosterEntty@CHostServer@@U?$less@I@std@@V?$K2MapAllocator@U?$pair@$$CBIUSRosterEntty@CHostServer@@@std@@@@$0A@@std@@@2@ABI@Z 21119260 f i c_gameserver.obj
 0002:00096330       ?_Root@?$_Tree@V?$_Tmap_traits@IUSRosterEntty@CHostServer@@U?$less@I@std@@V?$K2MapAllocator@U?$pair@$$CBIUSRosterEntty@CHostServer@@@std@@@@$0A@@std@@@std@@IBEAAPAU_Node@?$_Tree_nod@V?$_Tmap_traits@IUSRosterEntty@CHostServer@@U?$less@I@std@@V?$K2MapAllocator@U?$pair@$$CBIUSRosterEntty@CHostServer@@@std@@@@$0A@@std@@@2@XZ 21119330 f i c_gameserver.obj
 0002:00096360       ?_Isnil@?$_Tree@V?$_Tmap_traits@IUSRosterEntty@CHostServer@@U?$less@I@std@@V?$K2MapAllocator@U?$pair@$$CBIUSRosterEntty@CHostServer@@@std@@@@$0A@@std@@@std@@KAAADPAU_Node@?$_Tree_nod@V?$_Tmap_traits@IUSRosterEntty@CHostServer@@U?$less@I@std@@V?$K2MapAllocator@U?$pair@$$CBIUSRosterEntty@CHostServer@@@std@@@@$0A@@std@@@2@@Z 21119360 f i c_gameserver.obj
 0002:00096380       ?_Left@?$_Tree@V?$_Tmap_traits@IUSRosterEntty@CHostServer@@U?$less@I@std@@V?$K2MapAllocator@U?$pair@$$CBIUSRosterEntty@CHostServer@@@std@@@@$0A@@std@@@std@@KAAAPAU_Node@?$_Tree_nod@V?$_Tmap_traits@IUSRosterEntty@CHostServer@@U?$less@I@std@@V?$K2MapAllocator@U?$pair@$$CBIUSRosterEntty@CHostServer@@@std@@@@$0A@@std@@@2@PAU342@@Z 21119380 f i c_gameserver.obj
 0002:000963a0       ?_Parent@?$_Tree@V?$_Tmap_traits@IUSRosterEntty@CHostServer@@U?$less@I@std@@V?$K2MapAllocator@U?$pair@$$CBIUSRosterEntty@CHostServer@@@std@@@@$0A@@std@@@std@@KAAAPAU_Node@?$_Tree_nod@V?$_Tmap_traits@IUSRosterEntty@CHostServer@@U?$less@I@std@@V?$K2MapAllocator@U?$pair@$$CBIUSRosterEntty@CHostServer@@@std@@@@$0A@@std@@@2@PAU342@@Z 211193a0 f i c_gameserver.obj
 0002:000963c0       ?_Right@?$_Tree@V?$_Tmap_traits@IUSRosterEntty@CHostServer@@U?$less@I@std@@V?$K2MapAllocator@U?$pair@$$CBIUSRosterEntty@CHostServer@@@std@@@@$0A@@std@@@std@@KAAAPAU_Node@?$_Tree_nod@V?$_Tmap_traits@IUSRosterEntty@CHostServer@@U?$less@I@std@@V?$K2MapAllocator@U?$pair@$$CBIUSRosterEntty@CHostServer@@@std@@@@$0A@@std@@@2@PAU342@@Z 211193c0 f i c_gameserver.obj
 0002:000963e0       ?_Kfn@?$_Tmap_traits@IUSRosterEntty@CHostServer@@U?$less@I@std@@V?$K2MapAllocator@U?$pair@$$CBIUSRosterEntty@CHostServer@@@std@@@@$0A@@std@@SAABIABU?$pair@$$CBIUSRosterEntty@CHostServer@@@2@@Z 211193e0 f i c_gameserver.obj
 0002:00096400       ?_Myval@?$_Tree@V?$_Tmap_traits@V?$basic_string@_WU?$char_traits@_W@std@@V?$K2StringAllocator@_W@@@std@@USResContext@CResourceInfo@@U?$less@V?$basic_string@_WU?$char_traits@_W@std@@V?$K2StringAllocator@_W@@@std@@@2@V?$K2MapAllocator@U?$pair@$$CBV?$basic_string@_WU?$char_traits@_W@std@@V?$K2StringAllocator@_W@@@std@@USResContext@CResourceInfo@@@std@@@@$0A@@std@@@std@@KAAAU?$pair@$$CBV?$basic_string@_WU?$char_traits@_W@std@@V?$K2StringAllocator@_W@@@std@@USResContext@CResourceInfo@@@2@PAU_Node@?$_Tree_nod@V?$_Tmap_traits@V?$basic_string@_WU?$char_traits@_W@std@@V?$K2StringAllocator@_W@@@std@@USResContext@CResourceInfo@@U?$less@V?$basic_string@_WU?$char_traits@_W@std@@V?$K2StringAllocator@_W@@@std@@@2@V?$K2MapAllocator@U?$pair@$$CBV?$basic_string@_WU?$char_traits@_W@std@@V?$K2StringAllocator@_W@@@std@@USResContext@CResourceInfo@@@std@@@@$0A@@std@@@2@@Z 21119400 f i c_gameserver.obj
 0002:00096420       ?_Lbound@?$_Tree@V?$_Tmap_traits@V?$basic_string@_WU?$char_traits@_W@std@@V?$K2StringAllocator@_W@@@std@@USResContext@CResourceInfo@@U?$less@V?$basic_string@_WU?$char_traits@_W@std@@V?$K2StringAllocator@_W@@@std@@@2@V?$K2MapAllocator@U?$pair@$$CBV?$basic_string@_WU?$char_traits@_W@std@@V?$K2StringAllocator@_W@@@std@@USResContext@CResourceInfo@@@std@@@@$0A@@std@@@std@@IBEPAU_Node@?$_Tree_nod@V?$_Tmap_traits@V?$basic_string@_WU?$char_traits@_W@std@@V?$K2StringAllocator@_W@@@std@@USResContext@CResourceInfo@@U?$less@V?$basic_string@_WU?$char_traits@_W@std@@V?$K2StringAllocator@_W@@@std@@@2@V?$K2MapAllocator@U?$pair@$$CBV?$basic_string@_WU?$char_traits@_W@std@@V?$K2StringAllocator@_W@@@std@@USResContext@CResourceInfo@@@std@@@@$0A@@std@@@2@ABV?$basic_string@_WU?$char_traits@_W@std@@V?$K2StringAllocator@_W@@@2@@Z 21119420 f i c_gameserver.obj
 0002:000964f0       ?_Kfn@?$_Tmap_traits@V?$basic_string@_WU?$char_traits@_W@std@@V?$K2StringAllocator@_W@@@std@@USResContext@CResourceInfo@@U?$less@V?$basic_string@_WU?$char_traits@_W@std@@V?$K2StringAllocator@_W@@@std@@@2@V?$K2MapAllocator@U?$pair@$$CBV?$basic_string@_WU?$char_traits@_W@std@@V?$K2StringAllocator@_W@@@std@@USResContext@CResourceInfo@@@std@@@@$0A@@std@@SAABV?$basic_string@_WU?$char_traits@_W@std@@V?$K2StringAllocator@_W@@@2@ABU?$pair@$$CBV?$basic_string@_WU?$char_traits@_W@std@@V?$K2StringAllocator@_W@@@std@@USResContext@CResourceInfo@@@2@@Z 211194f0 f i c_gameserver.obj
 0002:00096510       ??0const_iterator@?$_Tree@V?$_Tmap_traits@V?$basic_string@_WU?$char_traits@_W@std@@V?$K2StringAllocator@_W@@@std@@USResContext@CResourceInfo@@U?$less@V?$basic_string@_WU?$char_traits@_W@std@@V?$K2StringAllocator@_W@@@std@@@2@V?$K2MapAllocator@U?$pair@$$CBV?$basic_string@_WU?$char_traits@_W@std@@V?$K2StringAllocator@_W@@@std@@USResContext@CResourceInfo@@@std@@@@$0A@@std@@@std@@QAE@PAU_Node@?$_Tree_nod@V?$_Tmap_traits@V?$basic_string@_WU?$char_traits@_W@std@@V?$K2StringAllocator@_W@@@std@@USResContext@CResourceInfo@@U?$less@V?$basic_string@_WU?$char_traits@_W@std@@V?$K2StringAllocator@_W@@@std@@@2@V?$K2MapAllocator@U?$pair@$$CBV?$basic_string@_WU?$char_traits@_W@std@@V?$K2StringAllocator@_W@@@std@@USResContext@CResourceInfo@@@std@@@@$0A@@std@@@2@PBV12@@Z 21119510 f i c_gameserver.obj
 0002:000965a0       ??Dconst_iterator@?$_Tree@V?$_Tmap_traits@V?$basic_string@_WU?$char_traits@_W@std@@V?$K2StringAllocator@_W@@@std@@USResContext@CResourceInfo@@U?$less@V?$basic_string@_WU?$char_traits@_W@std@@V?$K2StringAllocator@_W@@@std@@@2@V?$K2MapAllocator@U?$pair@$$CBV?$basic_string@_WU?$char_traits@_W@std@@V?$K2StringAllocator@_W@@@std@@USResContext@CResourceInfo@@@std@@@@$0A@@std@@@std@@QBEABU?$pair@$$CBV?$basic_string@_WU?$char_traits@_W@std@@V?$K2StringAllocator@_W@@@std@@USResContext@CResourceInfo@@@2@XZ 211195a0 f i c_gameserver.obj
 0002:00096660       ??0const_iterator@?$_Tree@V?$_Tmap_traits@IV?$basic_string@DU?$char_traits@D@std@@V?$K2StringAllocator@D@@@std@@U?$less@I@2@V?$K2MapAllocator@U?$pair@$$CBIV?$basic_string@DU?$char_traits@D@std@@V?$K2StringAllocator@D@@@std@@@std@@@@$0A@@std@@@std@@QAE@PAU_Node@?$_Tree_nod@V?$_Tmap_traits@IV?$basic_string@DU?$char_traits@D@std@@V?$K2StringAllocator@D@@@std@@U?$less@I@2@V?$K2MapAllocator@U?$pair@$$CBIV?$basic_string@DU?$char_traits@D@std@@V?$K2StringAllocator@D@@@std@@@std@@@@$0A@@std@@@2@PBV12@@Z 21119660 f i c_gameserver.obj
 0002:000966f0       ??Dconst_iterator@?$_Tree@V?$_Tmap_traits@IV?$basic_string@DU?$char_traits@D@std@@V?$K2StringAllocator@D@@@std@@U?$less@I@2@V?$K2MapAllocator@U?$pair@$$CBIV?$basic_string@DU?$char_traits@D@std@@V?$K2StringAllocator@D@@@std@@@std@@@@$0A@@std@@@std@@QBEABU?$pair@$$CBIV?$basic_string@DU?$char_traits@D@std@@V?$K2StringAllocator@D@@@std@@@2@XZ 211196f0 f i c_gameserver.obj
 0002:000967b0       ?_Inc@const_iterator@?$_Tree@V?$_Tmap_traits@IV?$basic_string@DU?$char_traits@D@std@@V?$K2StringAllocator@D@@@std@@U?$less@I@2@V?$K2MapAllocator@U?$pair@$$CBIV?$basic_string@DU?$char_traits@D@std@@V?$K2StringAllocator@D@@@std@@@std@@@@$0A@@std@@@std@@QAEXXZ 211197b0 f i c_gameserver.obj
 0002:00096920       ??0const_iterator@?$_Tree@V?$_Tmap_traits@IVCBufferDynamic@@U?$less@I@std@@V?$K2MapAllocator@U?$pair@$$CBIVCBufferDynamic@@@std@@@@$0A@@std@@@std@@QAE@PAU_Node@?$_Tree_nod@V?$_Tmap_traits@IVCBufferDynamic@@U?$less@I@std@@V?$K2MapAllocator@U?$pair@$$CBIVCBufferDynamic@@@std@@@@$0A@@std@@@2@PBV12@@Z 21119920 f i c_gameserver.obj
 0002:000969b0       ??Dconst_iterator@?$_Tree@V?$_Tmap_traits@IVCBufferDynamic@@U?$less@I@std@@V?$K2MapAllocator@U?$pair@$$CBIVCBufferDynamic@@@std@@@@$0A@@std@@@std@@QBEABU?$pair@$$CBIVCBufferDynamic@@@2@XZ 211199b0 f i c_gameserver.obj
 0002:00096a70       ?_Inc@const_iterator@?$_Tree@V?$_Tmap_traits@IVCBufferDynamic@@U?$less@I@std@@V?$K2MapAllocator@U?$pair@$$CBIVCBufferDynamic@@@std@@@@$0A@@std@@@std@@QAEXXZ 21119a70 f i c_gameserver.obj
 0002:00096be0       ??0iterator@?$_Tree@V?$_Tmap_traits@HPAVCClientConnection@@U?$less@H@std@@V?$K2MapAllocator@U?$pair@$$CBHPAVCClientConnection@@@std@@@@$0A@@std@@@std@@QAE@XZ 21119be0 f i c_gameserver.obj
 0002:00096c10       ??Fiterator@?$_Tree@V?$_Tmap_traits@HPAVCClientConnection@@U?$less@H@std@@V?$K2MapAllocator@U?$pair@$$CBHPAVCClientConnection@@@std@@@@$0A@@std@@@std@@QAEAAV012@XZ 21119c10 f i c_gameserver.obj
 0002:00096c40       ??0const_iterator@?$_Tree@V?$_Tmap_traits@HPAVCClientConnection@@U?$less@H@std@@V?$K2MapAllocator@U?$pair@$$CBHPAVCClientConnection@@@std@@@@$0A@@std@@@std@@QAE@PAU_Node@?$_Tree_nod@V?$_Tmap_traits@HPAVCClientConnection@@U?$less@H@std@@V?$K2MapAllocator@U?$pair@$$CBHPAVCClientConnection@@@std@@@@$0A@@std@@@2@PBV12@@Z 21119c40 f i c_gameserver.obj
 0002:00096cd0       ??Dconst_iterator@?$_Tree@V?$_Tmap_traits@HPAVCClientConnection@@U?$less@H@std@@V?$K2MapAllocator@U?$pair@$$CBHPAVCClientConnection@@@std@@@@$0A@@std@@@std@@QBEABU?$pair@$$CBHPAVCClientConnection@@@2@XZ 21119cd0 f i c_gameserver.obj
 0002:00096d90       ?_Inc@const_iterator@?$_Tree@V?$_Tmap_traits@HPAVCClientConnection@@U?$less@H@std@@V?$K2MapAllocator@U?$pair@$$CBHPAVCClientConnection@@@std@@@@$0A@@std@@@std@@QAEXXZ 21119d90 f i c_gameserver.obj
 0002:00096f00       ??H?$_Vector_iterator@USDelayedMessage@CGameServer@@V?$K2VectorAllocator@USDelayedMessage@CGameServer@@@@@std@@QBE?AV01@H@Z 21119f00 f i c_gameserver.obj
 0002:00096fb0       ??G?$_Vector_iterator@USDelayedMessage@CGameServer@@V?$K2VectorAllocator@USDelayedMessage@CGameServer@@@@@std@@QBEHABV?$_Vector_const_iterator@USDelayedMessage@CGameServer@@V?$K2VectorAllocator@USDelayedMessage@CGameServer@@@@@1@@Z 21119fb0 f i c_gameserver.obj
 0002:00096fe0       ??0?$_Vector_const_iterator@USDelayedMessage@CGameServer@@V?$K2VectorAllocator@USDelayedMessage@CGameServer@@@@@std@@QAE@PAUSDelayedMessage@CGameServer@@PBV_Container_base@1@@Z 21119fe0 f i c_gameserver.obj
 0002:000970e0       ??D?$_Vector_const_iterator@USDelayedMessage@CGameServer@@V?$K2VectorAllocator@USDelayedMessage@CGameServer@@@@@std@@QBEABUSDelayedMessage@CGameServer@@XZ 2111a0e0 f i c_gameserver.obj
 0002:000971a0       ?_Compat@?$_Vector_const_iterator@USDelayedMessage@CGameServer@@V?$K2VectorAllocator@USDelayedMessage@CGameServer@@@@@std@@QBEXABV12@@Z 2111a1a0 f i c_gameserver.obj
 0002:00097250       ?_Buy@?$vector@PAVCPlayer@@V?$K2VectorAllocator@PAVCPlayer@@@@@std@@IAE_NI@Z 2111a250 f i c_gameserver.obj
 0002:00097300       ?_Destroy@?$vector@PAVCPlayer@@V?$K2VectorAllocator@PAVCPlayer@@@@@std@@IAEXPAPAVCPlayer@@0@Z 2111a300 f i c_gameserver.obj
 0002:00097340       ?_Insert_n@?$vector@PAVCPlayer@@V?$K2VectorAllocator@PAVCPlayer@@@@@std@@IAEXV?$_Vector_iterator@PAVCPlayer@@V?$K2VectorAllocator@PAVCPlayer@@@@@2@IABQAVCPlayer@@@Z 2111a340 f i c_gameserver.obj
 0002:000977f0       ??0?$_Vector_val@PAVCPlayer@@V?$K2VectorAllocator@PAVCPlayer@@@@@std@@IAE@V?$K2VectorAllocator@PAVCPlayer@@@@@Z 2111a7f0 f i c_gameserver.obj
 0002:00097890       ??0?$K2VectorAllocator@PAVCPlayer@@@@QAE@XZ 2111a890 f i c_gameserver.obj
 0002:000978c0       ?deallocate@?$K2VectorAllocator@PAVCPlayer@@@@QAEXPAPAVCPlayer@@I@Z 2111a8c0 f i c_gameserver.obj
 0002:00097900       ??H?$_Vector_iterator@PAVCPlayer@@V?$K2VectorAllocator@PAVCPlayer@@@@@std@@QBE?AV01@H@Z 2111a900 f i c_gameserver.obj
 0002:000979b0       ??G?$_Vector_iterator@PAVCPlayer@@V?$K2VectorAllocator@PAVCPlayer@@@@@std@@QBEHABV?$_Vector_const_iterator@PAVCPlayer@@V?$K2VectorAllocator@PAVCPlayer@@@@@1@@Z 2111a9b0 f i c_gameserver.obj
 0002:000979e0       ??0?$_Vector_const_iterator@PAVCPlayer@@V?$K2VectorAllocator@PAVCPlayer@@@@@std@@QAE@PAPAVCPlayer@@PBV_Container_base@1@@Z 2111a9e0 f i c_gameserver.obj
 0002:00097ae0       ?_Compat@?$_Vector_const_iterator@PAVCPlayer@@V?$K2VectorAllocator@PAVCPlayer@@@@@std@@QBEXABV12@@Z 2111aae0 f i c_gameserver.obj
 0002:00097b90       ??0const_iterator@?$_Tree@V?$_Tmap_traits@IPAVCWorldLight@@U?$less@I@std@@V?$K2MapAllocator@U?$pair@$$CBIPAVCWorldLight@@@std@@@@$0A@@std@@@std@@QAE@PAU_Node@?$_Tree_nod@V?$_Tmap_traits@IPAVCWorldLight@@U?$less@I@std@@V?$K2MapAllocator@U?$pair@$$CBIPAVCWorldLight@@@std@@@@$0A@@std@@@2@PBV12@@Z 2111ab90 f i c_gameserver.obj
 0002:00097c20       ??Dconst_iterator@?$_Tree@V?$_Tmap_traits@IPAVCWorldLight@@U?$less@I@std@@V?$K2MapAllocator@U?$pair@$$CBIPAVCWorldLight@@@std@@@@$0A@@std@@@std@@QBEABU?$pair@$$CBIPAVCWorldLight@@@2@XZ 2111ac20 f i c_gameserver.obj
 0002:00097ce0       ?_Inc@const_iterator@?$_Tree@V?$_Tmap_traits@IPAVCWorldLight@@U?$less@I@std@@V?$K2MapAllocator@U?$pair@$$CBIPAVCWorldLight@@@std@@@@$0A@@std@@@std@@QAEXXZ 2111ace0 f i c_gameserver.obj
 0002:00097e50       ??H?$_Vector_iterator@HV?$K2VectorAllocator@H@@@std@@QBE?AV01@H@Z 2111ae50 f i c_gameserver.obj
 0002:00097f00       ??G?$_Vector_iterator@HV?$K2VectorAllocator@H@@@std@@QBEHABV?$_Vector_const_iterator@HV?$K2VectorAllocator@H@@@1@@Z 2111af00 f i c_gameserver.obj
 0002:00097f30       ??M?$_Vector_const_iterator@HV?$K2VectorAllocator@H@@@std@@QBE_NABV01@@Z 2111af30 f i c_gameserver.obj
 0002:00097f70       ?max_size@?$deque@PAVCPlayer@@V?$K2DequeAllocator@PAVCPlayer@@@@@std@@QBEIXZ 2111af70 f i c_gameserver.obj
 0002:00097fa0       ?pop_back@?$deque@PAVCPlayer@@V?$K2DequeAllocator@PAVCPlayer@@@@@std@@QAEXXZ 2111afa0 f i c_gameserver.obj
 0002:000980b0       ?_Xlen@?$deque@PAVCPlayer@@V?$K2DequeAllocator@PAVCPlayer@@@@@std@@KAXXZ 2111b0b0 f i c_gameserver.obj
 0002:00098160       ??0?$_Deque_val@PAVCPlayer@@V?$K2DequeAllocator@PAVCPlayer@@@@@std@@IAE@V?$K2DequeAllocator@PAVCPlayer@@@@@Z 2111b160 f i c_gameserver.obj
 0002:00098210       ??0?$K2DequeAllocator@PAVCPlayer@@@@QAE@XZ 2111b210 f i c_gameserver.obj
 0002:00098240       ?deallocate@?$K2DequeAllocator@PAVCPlayer@@@@QAEXPAPAVCPlayer@@I@Z 2111b240 f i c_gameserver.obj
 0002:00098280       ?allocate@?$K2DequeAllocator@PAPAVCPlayer@@@@QAEPAPAPAVCPlayer@@I@Z 2111b280 f i c_gameserver.obj
 0002:000982d0       ?deallocate@?$K2DequeAllocator@PAPAVCPlayer@@@@QAEXPAPAPAVCPlayer@@I@Z 2111b2d0 f i c_gameserver.obj
 0002:00098310       ?destroy@?$allocator@PAPAVCPlayer@@@std@@QAEXPAPAPAVCPlayer@@@Z 2111b310 f i c_gameserver.obj
 0002:00098340       ??0?$_Deque_const_iterator@PAVCPlayer@@V?$K2DequeAllocator@PAVCPlayer@@@@$00@std@@QAE@IPBV_Container_base@1@@Z 2111b340 f i c_gameserver.obj
 0002:00098450       ?_Compat@?$_Deque_const_iterator@PAVCPlayer@@V?$K2DequeAllocator@PAVCPlayer@@@@$00@std@@QBEXABV12@@Z 2111b450 f i c_gameserver.obj
 0002:00098510       ?_Color@?$_Tree@V?$_Tmap_traits@HPAVIHeroEntity@@U?$less@H@std@@V?$K2MapAllocator@U?$pair@$$CBHPAVIHeroEntity@@@std@@@@$0A@@std@@@std@@KAAADPAU_Node@?$_Tree_nod@V?$_Tmap_traits@HPAVIHeroEntity@@U?$less@H@std@@V?$K2MapAllocator@U?$pair@$$CBHPAVIHeroEntity@@@std@@@@$0A@@std@@@2@@Z 2111b510 f i c_gameserver.obj
 0002:00098530       ?_Parent@?$_Tree@V?$_Tmap_traits@HPAVIHeroEntity@@U?$less@H@std@@V?$K2MapAllocator@U?$pair@$$CBHPAVIHeroEntity@@@std@@@@$0A@@std@@@std@@KAAAPAU_Node@?$_Tree_nod@V?$_Tmap_traits@HPAVIHeroEntity@@U?$less@H@std@@V?$K2MapAllocator@U?$pair@$$CBHPAVIHeroEntity@@@std@@@@$0A@@std@@@2@PAU342@@Z 2111b530 f i c_gameserver.obj
 0002:00098550       ?_Myval@?$_Tree@V?$_Tmap_traits@HPAVIHeroEntity@@U?$less@H@std@@V?$K2MapAllocator@U?$pair@$$CBHPAVIHeroEntity@@@std@@@@$0A@@std@@@std@@KAAAU?$pair@$$CBHPAVIHeroEntity@@@2@PAU_Node@?$_Tree_nod@V?$_Tmap_traits@HPAVIHeroEntity@@U?$less@H@std@@V?$K2MapAllocator@U?$pair@$$CBHPAVIHeroEntity@@@std@@@@$0A@@std@@@2@@Z 2111b550 f i c_gameserver.obj
 0002:00098570       ??0?$_Tree@V?$_Tmap_traits@HPAVIHeroEntity@@U?$less@H@std@@V?$K2MapAllocator@U?$pair@$$CBHPAVIHeroEntity@@@std@@@@$0A@@std@@@std@@QAE@ABU?$less@H@1@ABV?$K2MapAllocator@U?$pair@$$CBHPAVIHeroEntity@@@std@@@@@Z 2111b570 f i c_gameserver.obj
 0002:00098610       ?max_size@?$_Tree@V?$_Tmap_traits@HPAVIHeroEntity@@U?$less@H@std@@V?$K2MapAllocator@U?$pair@$$CBHPAVIHeroEntity@@@std@@@@$0A@@std@@@std@@QBEIXZ 2111b610 f i c_gameserver.obj
 0002:00098640       ?erase@?$_Tree@V?$_Tmap_traits@HPAVIHeroEntity@@U?$less@H@std@@V?$K2MapAllocator@U?$pair@$$CBHPAVIHeroEntity@@@std@@@@$0A@@std@@@std@@QAE?AViterator@12@V312@0@Z 2111b640 f i c_gameserver.obj
 0002:000988d0       ?_Lrotate@?$_Tree@V?$_Tmap_traits@HPAVIHeroEntity@@U?$less@H@std@@V?$K2MapAllocator@U?$pair@$$CBHPAVIHeroEntity@@@std@@@@$0A@@std@@@std@@IAEXPAU_Node@?$_Tree_nod@V?$_Tmap_traits@HPAVIHeroEntity@@U?$less@H@std@@V?$K2MapAllocator@U?$pair@$$CBHPAVIHeroEntity@@@std@@@@$0A@@std@@@2@@Z 2111b8d0 f i c_gameserver.obj
 0002:00098a60       ?_Rmost@?$_Tree@V?$_Tmap_traits@HPAVIHeroEntity@@U?$less@H@std@@V?$K2MapAllocator@U?$pair@$$CBHPAVIHeroEntity@@@std@@@@$0A@@std@@@std@@IBEAAPAU_Node@?$_Tree_nod@V?$_Tmap_traits@HPAVIHeroEntity@@U?$less@H@std@@V?$K2MapAllocator@U?$pair@$$CBHPAVIHeroEntity@@@std@@@@$0A@@std@@@2@XZ 2111ba60 f i c_gameserver.obj
 0002:00098a90       ?_Rrotate@?$_Tree@V?$_Tmap_traits@HPAVIHeroEntity@@U?$less@H@std@@V?$K2MapAllocator@U?$pair@$$CBHPAVIHeroEntity@@@std@@@@$0A@@std@@@std@@IAEXPAU_Node@?$_Tree_nod@V?$_Tmap_traits@HPAVIHeroEntity@@U?$less@H@std@@V?$K2MapAllocator@U?$pair@$$CBHPAVIHeroEntity@@@std@@@@$0A@@std@@@2@@Z 2111ba90 f i c_gameserver.obj
 0002:00098c20       ?_Buynode@?$_Tree@V?$_Tmap_traits@HPAVIHeroEntity@@U?$less@H@std@@V?$K2MapAllocator@U?$pair@$$CBHPAVIHeroEntity@@@std@@@@$0A@@std@@@std@@IAEPAU_Node@?$_Tree_nod@V?$_Tmap_traits@HPAVIHeroEntity@@U?$less@H@std@@V?$K2MapAllocator@U?$pair@$$CBHPAVIHeroEntity@@@std@@@@$0A@@std@@@2@PAU342@00ABU?$pair@$$CBHPAVIHeroEntity@@@2@D@Z 2111bc20 f i c_gameserver.obj
 0002:00098d40       ??0?$K2MapAllocator@U?$pair@$$CBHPAVIHeroEntity@@@std@@@@QAE@XZ 2111bd40 f i c_gameserver.obj
 0002:00098d70       ?deallocate@?$K2MapAllocator@U_Node@?$_Tree_nod@V?$_Tmap_traits@HPAVIHeroEntity@@U?$less@H@std@@V?$K2MapAllocator@U?$pair@$$CBHPAVIHeroEntity@@@std@@@@$0A@@std@@@std@@@@QAEXPAU_Node@?$_Tree_nod@V?$_Tmap_traits@HPAVIHeroEntity@@U?$less@H@std@@V?$K2MapAllocator@U?$pair@$$CBHPAVIHeroEntity@@@std@@@@$0A@@std@@@std@@I@Z 2111bd70 f i c_gameserver.obj
 0002:00098db0       ?destroy@?$allocator@PAU_Node@?$_Tree_nod@V?$_Tmap_traits@HPAVIHeroEntity@@U?$less@H@std@@V?$K2MapAllocator@U?$pair@$$CBHPAVIHeroEntity@@@std@@@@$0A@@std@@@std@@@std@@QAEXPAPAU_Node@?$_Tree_nod@V?$_Tmap_traits@HPAVIHeroEntity@@U?$less@H@std@@V?$K2MapAllocator@U?$pair@$$CBHPAVIHeroEntity@@@std@@@@$0A@@std@@@2@@Z 2111bdb0 f i c_gameserver.obj
 0002:00098de0       ??0const_iterator@?$_Tree@V?$_Tmap_traits@HPAVIHeroEntity@@U?$less@H@std@@V?$K2MapAllocator@U?$pair@$$CBHPAVIHeroEntity@@@std@@@@$0A@@std@@@std@@QAE@PAU_Node@?$_Tree_nod@V?$_Tmap_traits@HPAVIHeroEntity@@U?$less@H@std@@V?$K2MapAllocator@U?$pair@$$CBHPAVIHeroEntity@@@std@@@@$0A@@std@@@2@PBV12@@Z 2111bde0 f i c_gameserver.obj
 0002:00098e70       ??Dconst_iterator@?$_Tree@V?$_Tmap_traits@HPAVIHeroEntity@@U?$less@H@std@@V?$K2MapAllocator@U?$pair@$$CBHPAVIHeroEntity@@@std@@@@$0A@@std@@@std@@QBEABU?$pair@$$CBHPAVIHeroEntity@@@2@XZ 2111be70 f i c_gameserver.obj
 0002:00098f30       ??Fconst_iterator@?$_Tree@V?$_Tmap_traits@HPAVIHeroEntity@@U?$less@H@std@@V?$K2MapAllocator@U?$pair@$$CBHPAVIHeroEntity@@@std@@@@$0A@@std@@@std@@QAEAAV012@XZ 2111bf30 f i c_gameserver.obj
 0002:00098f60       ?_Inc@const_iterator@?$_Tree@V?$_Tmap_traits@HPAVIHeroEntity@@U?$less@H@std@@V?$K2MapAllocator@U?$pair@$$CBHPAVIHeroEntity@@@std@@@@$0A@@std@@@std@@QAEXXZ 2111bf60 f i c_gameserver.obj
 0002:000990d0       ?_Isnil@?$_Tree@V?$_Tmap_traits@HV?$vector@HV?$K2VectorAllocator@H@@@@U?$less@H@std@@V?$K2MapAllocator@U?$pair@$$CBHV?$vector@HV?$K2VectorAllocator@H@@@@@std@@@@$0A@@std@@@std@@KAAADPAU_Node@?$_Tree_nod@V?$_Tmap_traits@HV?$vector@HV?$K2VectorAllocator@H@@@@U?$less@H@std@@V?$K2MapAllocator@U?$pair@$$CBHV?$vector@HV?$K2VectorAllocator@H@@@@@std@@@@$0A@@std@@@2@@Z 2111c0d0 f i c_gameserver.obj
 0002:000990f0       ?_Left@?$_Tree@V?$_Tmap_traits@HV?$vector@HV?$K2VectorAllocator@H@@@@U?$less@H@std@@V?$K2MapAllocator@U?$pair@$$CBHV?$vector@HV?$K2VectorAllocator@H@@@@@std@@@@$0A@@std@@@std@@KAAAPAU_Node@?$_Tree_nod@V?$_Tmap_traits@HV?$vector@HV?$K2VectorAllocator@H@@@@U?$less@H@std@@V?$K2MapAllocator@U?$pair@$$CBHV?$vector@HV?$K2VectorAllocator@H@@@@@std@@@@$0A@@std@@@2@PAU342@@Z 2111c0f0 f i c_gameserver.obj
 0002:00099110       ?_Parent@?$_Tree@V?$_Tmap_traits@HV?$vector@HV?$K2VectorAllocator@H@@@@U?$less@H@std@@V?$K2MapAllocator@U?$pair@$$CBHV?$vector@HV?$K2VectorAllocator@H@@@@@std@@@@$0A@@std@@@std@@KAAAPAU_Node@?$_Tree_nod@V?$_Tmap_traits@HV?$vector@HV?$K2VectorAllocator@H@@@@U?$less@H@std@@V?$K2MapAllocator@U?$pair@$$CBHV?$vector@HV?$K2VectorAllocator@H@@@@@std@@@@$0A@@std@@@2@PAU342@@Z 2111c110 f i c_gameserver.obj
 0002:00099130       ?_Right@?$_Tree@V?$_Tmap_traits@HV?$vector@HV?$K2VectorAllocator@H@@@@U?$less@H@std@@V?$K2MapAllocator@U?$pair@$$CBHV?$vector@HV?$K2VectorAllocator@H@@@@@std@@@@$0A@@std@@@std@@KAAAPAU_Node@?$_Tree_nod@V?$_Tmap_traits@HV?$vector@HV?$K2VectorAllocator@H@@@@U?$less@H@std@@V?$K2MapAllocator@U?$pair@$$CBHV?$vector@HV?$K2VectorAllocator@H@@@@@std@@@@$0A@@std@@@2@PAU342@@Z 2111c130 f i c_gameserver.obj
 0002:00099150       ?_Myval@?$_Tree@V?$_Tmap_traits@HV?$vector@HV?$K2VectorAllocator@H@@@@U?$less@H@std@@V?$K2MapAllocator@U?$pair@$$CBHV?$vector@HV?$K2VectorAllocator@H@@@@@std@@@@$0A@@std@@@std@@KAAAU?$pair@$$CBHV?$vector@HV?$K2VectorAllocator@H@@@@@2@PAU_Node@?$_Tree_nod@V?$_Tmap_traits@HV?$vector@HV?$K2VectorAllocator@H@@@@U?$less@H@std@@V?$K2MapAllocator@U?$pair@$$CBHV?$vector@HV?$K2VectorAllocator@H@@@@@std@@@@$0A@@std@@@2@@Z 2111c150 f i c_gameserver.obj
 0002:00099170       ??0?$_Tree@V?$_Tmap_traits@HV?$vector@HV?$K2VectorAllocator@H@@@@U?$less@H@std@@V?$K2MapAllocator@U?$pair@$$CBHV?$vector@HV?$K2VectorAllocator@H@@@@@std@@@@$0A@@std@@@std@@QAE@ABU?$less@H@1@ABV?$K2MapAllocator@U?$pair@$$CBHV?$vector@HV?$K2VectorAllocator@H@@@@@std@@@@@Z 2111c170 f i c_gameserver.obj
 0002:00099210       ?size@?$_Tree@V?$_Tmap_traits@HV?$vector@HV?$K2VectorAllocator@H@@@@U?$less@H@std@@V?$K2MapAllocator@U?$pair@$$CBHV?$vector@HV?$K2VectorAllocator@H@@@@@std@@@@$0A@@std@@@std@@QBEIXZ 2111c210 f i c_gameserver.obj
 0002:00099230       ?insert@?$_Tree@V?$_Tmap_traits@HV?$vector@HV?$K2VectorAllocator@H@@@@U?$less@H@std@@V?$K2MapAllocator@U?$pair@$$CBHV?$vector@HV?$K2VectorAllocator@H@@@@@std@@@@$0A@@std@@@std@@QAE?AU?$pair@Viterator@?$_Tree@V?$_Tmap_traits@HV?$vector@HV?$K2VectorAllocator@H@@@@U?$less@H@std@@V?$K2MapAllocator@U?$pair@$$CBHV?$vector@HV?$K2VectorAllocator@H@@@@@std@@@@$0A@@std@@@std@@_N@2@ABU?$pair@$$CBHV?$vector@HV?$K2VectorAllocator@H@@@@@2@@Z 2111c230 f i c_gameserver.obj
 0002:00099650       ?erase@?$_Tree@V?$_Tmap_traits@HV?$vector@HV?$K2VectorAllocator@H@@@@U?$less@H@std@@V?$K2MapAllocator@U?$pair@$$CBHV?$vector@HV?$K2VectorAllocator@H@@@@@std@@@@$0A@@std@@@std@@QAE?AViterator@12@V312@0@Z 2111c650 f i c_gameserver.obj
 0002:000998e0       ?_Insert@?$_Tree@V?$_Tmap_traits@HV?$vector@HV?$K2VectorAllocator@H@@@@U?$less@H@std@@V?$K2MapAllocator@U?$pair@$$CBHV?$vector@HV?$K2VectorAllocator@H@@@@@std@@@@$0A@@std@@@std@@IAE?AViterator@12@_NPAU_Node@?$_Tree_nod@V?$_Tmap_traits@HV?$vector@HV?$K2VectorAllocator@H@@@@U?$less@H@std@@V?$K2MapAllocator@U?$pair@$$CBHV?$vector@HV?$K2VectorAllocator@H@@@@@std@@@@$0A@@std@@@2@ABU?$pair@$$CBHV?$vector@HV?$K2VectorAllocator@H@@@@@2@@Z 2111c8e0 f i c_gameserver.obj
 0002:00099ea0       ?_Lbound@?$_Tree@V?$_Tmap_traits@HV?$vector@HV?$K2VectorAllocator@H@@@@U?$less@H@std@@V?$K2MapAllocator@U?$pair@$$CBHV?$vector@HV?$K2VectorAllocator@H@@@@@std@@@@$0A@@std@@@std@@IBEPAU_Node@?$_Tree_nod@V?$_Tmap_traits@HV?$vector@HV?$K2VectorAllocator@H@@@@U?$less@H@std@@V?$K2MapAllocator@U?$pair@$$CBHV?$vector@HV?$K2VectorAllocator@H@@@@@std@@@@$0A@@std@@@2@ABH@Z 2111cea0 f i c_gameserver.obj
 0002:00099f70       ?_Rmost@?$_Tree@V?$_Tmap_traits@HV?$vector@HV?$K2VectorAllocator@H@@@@U?$less@H@std@@V?$K2MapAllocator@U?$pair@$$CBHV?$vector@HV?$K2VectorAllocator@H@@@@@std@@@@$0A@@std@@@std@@IBEAAPAU_Node@?$_Tree_nod@V?$_Tmap_traits@HV?$vector@HV?$K2VectorAllocator@H@@@@U?$less@H@std@@V?$K2MapAllocator@U?$pair@$$CBHV?$vector@HV?$K2VectorAllocator@H@@@@@std@@@@$0A@@std@@@2@XZ 2111cf70 f i c_gameserver.obj
 0002:00099fa0       ?_Kfn@?$_Tmap_traits@HV?$vector@HV?$K2VectorAllocator@H@@@@U?$less@H@std@@V?$K2MapAllocator@U?$pair@$$CBHV?$vector@HV?$K2VectorAllocator@H@@@@@std@@@@$0A@@std@@SAABHABU?$pair@$$CBHV?$vector@HV?$K2VectorAllocator@H@@@@@2@@Z 2111cfa0 f i c_gameserver.obj
 0002:00099fc0       ??0?$K2MapAllocator@U?$pair@$$CBHV?$vector@HV?$K2VectorAllocator@H@@@@@std@@@@QAE@XZ 2111cfc0 f i c_gameserver.obj
 0002:00099ff0       ?deallocate@?$K2MapAllocator@U_Node@?$_Tree_nod@V?$_Tmap_traits@HV?$vector@HV?$K2VectorAllocator@H@@@@U?$less@H@std@@V?$K2MapAllocator@U?$pair@$$CBHV?$vector@HV?$K2VectorAllocator@H@@@@@std@@@@$0A@@std@@@std@@@@QAEXPAU_Node@?$_Tree_nod@V?$_Tmap_traits@HV?$vector@HV?$K2VectorAllocator@H@@@@U?$less@H@std@@V?$K2MapAllocator@U?$pair@$$CBHV?$vector@HV?$K2VectorAllocator@H@@@@@std@@@@$0A@@std@@@std@@I@Z 2111cff0 f i c_gameserver.obj
 0002:0009a030       ?destroy@?$allocator@PAU_Node@?$_Tree_nod@V?$_Tmap_traits@HV?$vector@HV?$K2VectorAllocator@H@@@@U?$less@H@std@@V?$K2MapAllocator@U?$pair@$$CBHV?$vector@HV?$K2VectorAllocator@H@@@@@std@@@@$0A@@std@@@std@@@std@@QAEXPAPAU_Node@?$_Tree_nod@V?$_Tmap_traits@HV?$vector@HV?$K2VectorAllocator@H@@@@U?$less@H@std@@V?$K2MapAllocator@U?$pair@$$CBHV?$vector@HV?$K2VectorAllocator@H@@@@@std@@@@$0A@@std@@@2@@Z 2111d030 f i c_gameserver.obj
 0002:0009a060       ??0iterator@?$_Tree@V?$_Tmap_traits@HV?$vector@HV?$K2VectorAllocator@H@@@@U?$less@H@std@@V?$K2MapAllocator@U?$pair@$$CBHV?$vector@HV?$K2VectorAllocator@H@@@@@std@@@@$0A@@std@@@std@@QAE@XZ 2111d060 f i c_gameserver.obj
 0002:0009a090       ??Fiterator@?$_Tree@V?$_Tmap_traits@HV?$vector@HV?$K2VectorAllocator@H@@@@U?$less@H@std@@V?$K2MapAllocator@U?$pair@$$CBHV?$vector@HV?$K2VectorAllocator@H@@@@@std@@@@$0A@@std@@@std@@QAEAAV012@XZ 2111d090 f i c_gameserver.obj
 0002:0009a0c0       ??0const_iterator@?$_Tree@V?$_Tmap_traits@HV?$vector@HV?$K2VectorAllocator@H@@@@U?$less@H@std@@V?$K2MapAllocator@U?$pair@$$CBHV?$vector@HV?$K2VectorAllocator@H@@@@@std@@@@$0A@@std@@@std@@QAE@PAU_Node@?$_Tree_nod@V?$_Tmap_traits@HV?$vector@HV?$K2VectorAllocator@H@@@@U?$less@H@std@@V?$K2MapAllocator@U?$pair@$$CBHV?$vector@HV?$K2VectorAllocator@H@@@@@std@@@@$0A@@std@@@2@PBV12@@Z 2111d0c0 f i c_gameserver.obj
 0002:0009a150       ??Dconst_iterator@?$_Tree@V?$_Tmap_traits@HV?$vector@HV?$K2VectorAllocator@H@@@@U?$less@H@std@@V?$K2MapAllocator@U?$pair@$$CBHV?$vector@HV?$K2VectorAllocator@H@@@@@std@@@@$0A@@std@@@std@@QBEABU?$pair@$$CBHV?$vector@HV?$K2VectorAllocator@H@@@@@2@XZ 2111d150 f i c_gameserver.obj
 0002:0009a210       ??Econst_iterator@?$_Tree@V?$_Tmap_traits@HV?$vector@HV?$K2VectorAllocator@H@@@@U?$less@H@std@@V?$K2MapAllocator@U?$pair@$$CBHV?$vector@HV?$K2VectorAllocator@H@@@@@std@@@@$0A@@std@@@std@@QAEAAV012@XZ 2111d210 f i c_gameserver.obj
 0002:0009a240       ?_Buy@?$vector@PAVIGameEntity@@V?$K2VectorAllocator@PAVIGameEntity@@@@@std@@IAE_NI@Z 2111d240 f i c_gameserver.obj
 0002:0009a2f0       ?_Destroy@?$vector@PAVIGameEntity@@V?$K2VectorAllocator@PAVIGameEntity@@@@@std@@IAEXPAPAVIGameEntity@@0@Z 2111d2f0 f i c_gameserver.obj
 0002:0009a330       ?_Insert_n@?$vector@PAVIGameEntity@@V?$K2VectorAllocator@PAVIGameEntity@@@@@std@@IAEXV?$_Vector_iterator@PAVIGameEntity@@V?$K2VectorAllocator@PAVIGameEntity@@@@@2@IABQAVIGameEntity@@@Z 2111d330 f i c_gameserver.obj
 0002:0009a7e0       ??0?$_Vector_val@PAVIGameEntity@@V?$K2VectorAllocator@PAVIGameEntity@@@@@std@@IAE@V?$K2VectorAllocator@PAVIGameEntity@@@@@Z 2111d7e0 f i c_gameserver.obj
 0002:0009a880       ??0?$K2VectorAllocator@PAVIGameEntity@@@@QAE@XZ 2111d880 f i c_gameserver.obj
 0002:0009a8b0       ?deallocate@?$K2VectorAllocator@PAVIGameEntity@@@@QAEXPAPAVIGameEntity@@I@Z 2111d8b0 f i c_gameserver.obj
 0002:0009a8f0       ??H?$_Vector_iterator@PAVIGameEntity@@V?$K2VectorAllocator@PAVIGameEntity@@@@@std@@QBE?AV01@H@Z 2111d8f0 f i c_gameserver.obj
 0002:0009a9a0       ??G?$_Vector_iterator@PAVIGameEntity@@V?$K2VectorAllocator@PAVIGameEntity@@@@@std@@QBEHABV?$_Vector_const_iterator@PAVIGameEntity@@V?$K2VectorAllocator@PAVIGameEntity@@@@@1@@Z 2111d9a0 f i c_gameserver.obj
 0002:0009a9d0       ??0?$_Vector_const_iterator@PAVIGameEntity@@V?$K2VectorAllocator@PAVIGameEntity@@@@@std@@QAE@PAPAVIGameEntity@@PBV_Container_base@1@@Z 2111d9d0 f i c_gameserver.obj
 0002:0009aad0       ?_Compat@?$_Vector_const_iterator@PAVIGameEntity@@V?$K2VectorAllocator@PAVIGameEntity@@@@@std@@QBEXABV12@@Z 2111dad0 f i c_gameserver.obj
 0002:0009ab80       ?_Isnil@?$_Tree@V?$_Tmap_traits@HPAVCGameStats@@U?$less@H@std@@V?$K2MapAllocator@U?$pair@$$CBHPAVCGameStats@@@std@@@@$0A@@std@@@std@@KAAADPAU_Node@?$_Tree_nod@V?$_Tmap_traits@HPAVCGameStats@@U?$less@H@std@@V?$K2MapAllocator@U?$pair@$$CBHPAVCGameStats@@@std@@@@$0A@@std@@@2@@Z 2111db80 f i c_gameserver.obj
 0002:0009aba0       ?_Left@?$_Tree@V?$_Tmap_traits@HPAVCGameStats@@U?$less@H@std@@V?$K2MapAllocator@U?$pair@$$CBHPAVCGameStats@@@std@@@@$0A@@std@@@std@@KAAAPAU_Node@?$_Tree_nod@V?$_Tmap_traits@HPAVCGameStats@@U?$less@H@std@@V?$K2MapAllocator@U?$pair@$$CBHPAVCGameStats@@@std@@@@$0A@@std@@@2@PAU342@@Z 2111dba0 f i c_gameserver.obj
 0002:0009abc0       ?_Parent@?$_Tree@V?$_Tmap_traits@HPAVCGameStats@@U?$less@H@std@@V?$K2MapAllocator@U?$pair@$$CBHPAVCGameStats@@@std@@@@$0A@@std@@@std@@KAAAPAU_Node@?$_Tree_nod@V?$_Tmap_traits@HPAVCGameStats@@U?$less@H@std@@V?$K2MapAllocator@U?$pair@$$CBHPAVCGameStats@@@std@@@@$0A@@std@@@2@PAU342@@Z 2111dbc0 f i c_gameserver.obj
 0002:0009abe0       ?_Right@?$_Tree@V?$_Tmap_traits@HPAVCGameStats@@U?$less@H@std@@V?$K2MapAllocator@U?$pair@$$CBHPAVCGameStats@@@std@@@@$0A@@std@@@std@@KAAAPAU_Node@?$_Tree_nod@V?$_Tmap_traits@HPAVCGameStats@@U?$less@H@std@@V?$K2MapAllocator@U?$pair@$$CBHPAVCGameStats@@@std@@@@$0A@@std@@@2@PAU342@@Z 2111dbe0 f i c_gameserver.obj
 0002:0009ac00       ?_Myval@?$_Tree@V?$_Tmap_traits@HPAVCGameStats@@U?$less@H@std@@V?$K2MapAllocator@U?$pair@$$CBHPAVCGameStats@@@std@@@@$0A@@std@@@std@@KAAAU?$pair@$$CBHPAVCGameStats@@@2@PAU_Node@?$_Tree_nod@V?$_Tmap_traits@HPAVCGameStats@@U?$less@H@std@@V?$K2MapAllocator@U?$pair@$$CBHPAVCGameStats@@@std@@@@$0A@@std@@@2@@Z 2111dc00 f i c_gameserver.obj
 0002:0009ac20       ??0?$_Tree@V?$_Tmap_traits@HPAVCGameStats@@U?$less@H@std@@V?$K2MapAllocator@U?$pair@$$CBHPAVCGameStats@@@std@@@@$0A@@std@@@std@@QAE@ABU?$less@H@1@ABV?$K2MapAllocator@U?$pair@$$CBHPAVCGameStats@@@std@@@@@Z 2111dc20 f i c_gameserver.obj
 0002:0009acc0       ?size@?$_Tree@V?$_Tmap_traits@HPAVCGameStats@@U?$less@H@std@@V?$K2MapAllocator@U?$pair@$$CBHPAVCGameStats@@@std@@@@$0A@@std@@@std@@QBEIXZ 2111dcc0 f i c_gameserver.obj
 0002:0009ace0       ?insert@?$_Tree@V?$_Tmap_traits@HPAVCGameStats@@U?$less@H@std@@V?$K2MapAllocator@U?$pair@$$CBHPAVCGameStats@@@std@@@@$0A@@std@@@std@@QAE?AU?$pair@Viterator@?$_Tree@V?$_Tmap_traits@HPAVCGameStats@@U?$less@H@std@@V?$K2MapAllocator@U?$pair@$$CBHPAVCGameStats@@@std@@@@$0A@@std@@@std@@_N@2@ABU?$pair@$$CBHPAVCGameStats@@@2@@Z 2111dce0 f i c_gameserver.obj
 0002:0009b100       ?erase@?$_Tree@V?$_Tmap_traits@HPAVCGameStats@@U?$less@H@std@@V?$K2MapAllocator@U?$pair@$$CBHPAVCGameStats@@@std@@@@$0A@@std@@@std@@QAE?AViterator@12@V312@0@Z 2111e100 f i c_gameserver.obj
 0002:0009b390       ?_Insert@?$_Tree@V?$_Tmap_traits@HPAVCGameStats@@U?$less@H@std@@V?$K2MapAllocator@U?$pair@$$CBHPAVCGameStats@@@std@@@@$0A@@std@@@std@@IAE?AViterator@12@_NPAU_Node@?$_Tree_nod@V?$_Tmap_traits@HPAVCGameStats@@U?$less@H@std@@V?$K2MapAllocator@U?$pair@$$CBHPAVCGameStats@@@std@@@@$0A@@std@@@2@ABU?$pair@$$CBHPAVCGameStats@@@2@@Z 2111e390 f i c_gameserver.obj
 0002:0009b950       ?_Lbound@?$_Tree@V?$_Tmap_traits@HPAVCGameStats@@U?$less@H@std@@V?$K2MapAllocator@U?$pair@$$CBHPAVCGameStats@@@std@@@@$0A@@std@@@std@@IBEPAU_Node@?$_Tree_nod@V?$_Tmap_traits@HPAVCGameStats@@U?$less@H@std@@V?$K2MapAllocator@U?$pair@$$CBHPAVCGameStats@@@std@@@@$0A@@std@@@2@ABH@Z 2111e950 f i c_gameserver.obj
 0002:0009ba20       ?_Rmost@?$_Tree@V?$_Tmap_traits@HPAVCGameStats@@U?$less@H@std@@V?$K2MapAllocator@U?$pair@$$CBHPAVCGameStats@@@std@@@@$0A@@std@@@std@@IBEAAPAU_Node@?$_Tree_nod@V?$_Tmap_traits@HPAVCGameStats@@U?$less@H@std@@V?$K2MapAllocator@U?$pair@$$CBHPAVCGameStats@@@std@@@@$0A@@std@@@2@XZ 2111ea20 f i c_gameserver.obj
 0002:0009ba50       ?_Kfn@?$_Tmap_traits@HPAVCGameStats@@U?$less@H@std@@V?$K2MapAllocator@U?$pair@$$CBHPAVCGameStats@@@std@@@@$0A@@std@@SAABHABU?$pair@$$CBHPAVCGameStats@@@2@@Z 2111ea50 f i c_gameserver.obj
 0002:0009ba70       ??0?$K2MapAllocator@U?$pair@$$CBHPAVCGameStats@@@std@@@@QAE@XZ 2111ea70 f i c_gameserver.obj
 0002:0009baa0       ?deallocate@?$K2MapAllocator@U_Node@?$_Tree_nod@V?$_Tmap_traits@HPAVCGameStats@@U?$less@H@std@@V?$K2MapAllocator@U?$pair@$$CBHPAVCGameStats@@@std@@@@$0A@@std@@@std@@@@QAEXPAU_Node@?$_Tree_nod@V?$_Tmap_traits@HPAVCGameStats@@U?$less@H@std@@V?$K2MapAllocator@U?$pair@$$CBHPAVCGameStats@@@std@@@@$0A@@std@@@std@@I@Z 2111eaa0 f i c_gameserver.obj
 0002:0009bae0       ?destroy@?$allocator@PAU_Node@?$_Tree_nod@V?$_Tmap_traits@HPAVCGameStats@@U?$less@H@std@@V?$K2MapAllocator@U?$pair@$$CBHPAVCGameStats@@@std@@@@$0A@@std@@@std@@@std@@QAEXPAPAU_Node@?$_Tree_nod@V?$_Tmap_traits@HPAVCGameStats@@U?$less@H@std@@V?$K2MapAllocator@U?$pair@$$CBHPAVCGameStats@@@std@@@@$0A@@std@@@2@@Z 2111eae0 f i c_gameserver.obj
 0002:0009bb10       ??Fiterator@?$_Tree@V?$_Tmap_traits@HPAVCGameStats@@U?$less@H@std@@V?$K2MapAllocator@U?$pair@$$CBHPAVCGameStats@@@std@@@@$0A@@std@@@std@@QAEAAV012@XZ 2111eb10 f i c_gameserver.obj
 0002:0009bb40       ??0const_iterator@?$_Tree@V?$_Tmap_traits@HPAVCGameStats@@U?$less@H@std@@V?$K2MapAllocator@U?$pair@$$CBHPAVCGameStats@@@std@@@@$0A@@std@@@std@@QAE@PAU_Node@?$_Tree_nod@V?$_Tmap_traits@HPAVCGameStats@@U?$less@H@std@@V?$K2MapAllocator@U?$pair@$$CBHPAVCGameStats@@@std@@@@$0A@@std@@@2@PBV12@@Z 2111eb40 f i c_gameserver.obj
 0002:0009bbd0       ??Dconst_iterator@?$_Tree@V?$_Tmap_traits@HPAVCGameStats@@U?$less@H@std@@V?$K2MapAllocator@U?$pair@$$CBHPAVCGameStats@@@std@@@@$0A@@std@@@std@@QBEABU?$pair@$$CBHPAVCGameStats@@@2@XZ 2111ebd0 f i c_gameserver.obj
 0002:0009bc90       ?_Inc@const_iterator@?$_Tree@V?$_Tmap_traits@HPAVCGameStats@@U?$less@H@std@@V?$K2MapAllocator@U?$pair@$$CBHPAVCGameStats@@@std@@@@$0A@@std@@@std@@QAEXXZ 2111ec90 f i c_gameserver.obj
 0002:0009be00       ?_Compat@?$_Vector_const_iterator@USItemHistoryEntry@CGameStats@@V?$K2VectorAllocator@USItemHistoryEntry@CGameStats@@@@@std@@QBEXABV12@@Z 2111ee00 f i c_gameserver.obj
 0002:0009beb0       ??H?$_Vector_iterator@USMatchKillEntry@@V?$K2VectorAllocator@USMatchKillEntry@@@@@std@@QBE?AV01@H@Z 2111eeb0 f i c_gameserver.obj
 0002:0009bf60       ??G?$_Vector_iterator@USMatchKillEntry@@V?$K2VectorAllocator@USMatchKillEntry@@@@@std@@QBEHABV?$_Vector_const_iterator@USMatchKillEntry@@V?$K2VectorAllocator@USMatchKillEntry@@@@@1@@Z 2111ef60 f i c_gameserver.obj
 0002:0009bf90       ??0?$_Vector_const_iterator@USMatchKillEntry@@V?$K2VectorAllocator@USMatchKillEntry@@@@@std@@QAE@PAUSMatchKillEntry@@PBV_Container_base@1@@Z 2111ef90 f i c_gameserver.obj
 0002:0009c090       ??D?$_Vector_const_iterator@USMatchKillEntry@@V?$K2VectorAllocator@USMatchKillEntry@@@@@std@@QBEABUSMatchKillEntry@@XZ 2111f090 f i c_gameserver.obj
 0002:0009c150       ??M?$_Vector_const_iterator@USMatchKillEntry@@V?$K2VectorAllocator@USMatchKillEntry@@@@@std@@QBE_NABV01@@Z 2111f150 f i c_gameserver.obj
 0002:0009c190       ?_Compat@?$_Vector_const_iterator@USMatchKillEntry@@V?$K2VectorAllocator@USMatchKillEntry@@@@@std@@QBEXABV12@@Z 2111f190 f i c_gameserver.obj
 0002:0009c240       ??H?$_Vector_iterator@GV?$K2VectorAllocator@G@@@std@@QBE?AV01@H@Z 2111f240 f i c_gameserver.obj
 0002:0009c2f0       ??G?$_Vector_iterator@GV?$K2VectorAllocator@G@@@std@@QBEHABV?$_Vector_const_iterator@GV?$K2VectorAllocator@G@@@1@@Z 2111f2f0 f i c_gameserver.obj
 0002:0009c320       ??0?$_Vector_const_iterator@GV?$K2VectorAllocator@G@@@std@@QAE@PAGPBV_Container_base@1@@Z 2111f320 f i c_gameserver.obj
 0002:0009c420       ??M?$_Vector_const_iterator@GV?$K2VectorAllocator@G@@@std@@QBE_NABV01@@Z 2111f420 f i c_gameserver.obj
 0002:0009c460       ??H?$_Vector_iterator@U?$pair@GE@std@@V?$K2VectorAllocator@U?$pair@GE@std@@@@@std@@QBE?AV01@H@Z 2111f460 f i c_gameserver.obj
 0002:0009c510       ??0?$_Vector_const_iterator@U?$pair@GE@std@@V?$K2VectorAllocator@U?$pair@GE@std@@@@@std@@QAE@PAU?$pair@GE@1@PBV_Container_base@1@@Z 2111f510 f i c_gameserver.obj
 0002:0009c610       ??D?$_Vector_const_iterator@U?$pair@GE@std@@V?$K2VectorAllocator@U?$pair@GE@std@@@@@std@@QBEABU?$pair@GE@1@XZ 2111f610 f i c_gameserver.obj
 0002:0009c6d0       ??M?$_Vector_const_iterator@U?$pair@GE@std@@V?$K2VectorAllocator@U?$pair@GE@std@@@@@std@@QBE_NABV01@@Z 2111f6d0 f i c_gameserver.obj
 0002:0009c710       ?_Compat@?$_Vector_const_iterator@U?$pair@GE@std@@V?$K2VectorAllocator@U?$pair@GE@std@@@@@std@@QBEXABV12@@Z 2111f710 f i c_gameserver.obj
 0002:0009c7c0       ?_Compat@?$_Const_iterator@$00@?$list@PAVIUnitEntity@@V?$K2ListAllocator@PAVIUnitEntity@@@@@std@@QBEXABV123@@Z 2111f7c0 f i c_gameserver.obj
 0002:0009c880       ??0const_iterator@?$_Tree@V?$_Tmap_traits@GV?$basic_string@_WU?$char_traits@_W@std@@V?$K2StringAllocator@_W@@@std@@U?$less@G@2@V?$K2MapAllocator@U?$pair@$$CBGV?$basic_string@_WU?$char_traits@_W@std@@V?$K2StringAllocator@_W@@@std@@@std@@@@$0A@@std@@@std@@QAE@PAU_Node@?$_Tree_nod@V?$_Tmap_traits@GV?$basic_string@_WU?$char_traits@_W@std@@V?$K2StringAllocator@_W@@@std@@U?$less@G@2@V?$K2MapAllocator@U?$pair@$$CBGV?$basic_string@_WU?$char_traits@_W@std@@V?$K2StringAllocator@_W@@@std@@@std@@@@$0A@@std@@@2@PBV12@@Z 2111f880 f i c_gameserver.obj
 0002:0009c910       ??Dconst_iterator@?$_Tree@V?$_Tmap_traits@GV?$basic_string@_WU?$char_traits@_W@std@@V?$K2StringAllocator@_W@@@std@@U?$less@G@2@V?$K2MapAllocator@U?$pair@$$CBGV?$basic_string@_WU?$char_traits@_W@std@@V?$K2StringAllocator@_W@@@std@@@std@@@@$0A@@std@@@std@@QBEABU?$pair@$$CBGV?$basic_string@_WU?$char_traits@_W@std@@V?$K2StringAllocator@_W@@@std@@@2@XZ 2111f910 f i c_gameserver.obj
 0002:0009c9d0       ?_Inc@const_iterator@?$_Tree@V?$_Tmap_traits@GV?$basic_string@_WU?$char_traits@_W@std@@V?$K2StringAllocator@_W@@@std@@U?$less@G@2@V?$K2MapAllocator@U?$pair@$$CBGV?$basic_string@_WU?$char_traits@_W@std@@V?$K2StringAllocator@_W@@@std@@@std@@@@$0A@@std@@@std@@QAEXXZ 2111f9d0 f i c_gameserver.obj
 0002:0009cb40       ??0?$_Vector_iterator@U?$pair@V?$basic_string@DU?$char_traits@D@std@@V?$K2StringAllocator@D@@@std@@V12@@std@@V?$K2VectorAllocator@U?$pair@V?$basic_string@DU?$char_traits@D@std@@V?$K2StringAllocator@D@@@std@@V12@@std@@@@@std@@QAE@PAU?$pair@V?$basic_string@DU?$char_traits@D@std@@V?$K2StringAllocator@D@@@std@@V12@@1@PBV_Container_base@1@@Z 2111fb40 f i c_gameserver.obj
 0002:0009cb80       ??H?$_Vector_iterator@U?$pair@V?$basic_string@DU?$char_traits@D@std@@V?$K2StringAllocator@D@@@std@@V12@@std@@V?$K2VectorAllocator@U?$pair@V?$basic_string@DU?$char_traits@D@std@@V?$K2StringAllocator@D@@@std@@V12@@std@@@@@std@@QBE?AV01@H@Z 2111fb80 f i c_gameserver.obj
 0002:0009cc30       ??G?$_Vector_iterator@U?$pair@V?$basic_string@DU?$char_traits@D@std@@V?$K2StringAllocator@D@@@std@@V12@@std@@V?$K2VectorAllocator@U?$pair@V?$basic_string@DU?$char_traits@D@std@@V?$K2StringAllocator@D@@@std@@V12@@std@@@@@std@@QBEHABV?$_Vector_const_iterator@U?$pair@V?$basic_string@DU?$char_traits@D@std@@V?$K2StringAllocator@D@@@std@@V12@@std@@V?$K2VectorAllocator@U?$pair@V?$basic_string@DU?$char_traits@D@std@@V?$K2StringAllocator@D@@@std@@V12@@std@@@@@1@@Z 2111fc30 f i c_gameserver.obj
 0002:0009cc60       ??9?$_Vector_const_iterator@U?$pair@V?$basic_string@DU?$char_traits@D@std@@V?$K2StringAllocator@D@@@std@@V12@@std@@V?$K2VectorAllocator@U?$pair@V?$basic_string@DU?$char_traits@D@std@@V?$K2StringAllocator@D@@@std@@V12@@std@@@@@std@@QBE_NABV01@@Z 2111fc60 f i c_gameserver.obj
 0002:0009cca0       ??M?$_Vector_const_iterator@U?$pair@V?$basic_string@DU?$char_traits@D@std@@V?$K2StringAllocator@D@@@std@@V12@@std@@V?$K2VectorAllocator@U?$pair@V?$basic_string@DU?$char_traits@D@std@@V?$K2StringAllocator@D@@@std@@V12@@std@@@@@std@@QBE_NABV01@@Z 2111fca0 f i c_gameserver.obj
 0002:0009cce0       ??0?$_Vector_iterator@USSmackdownEntry@CGameStats@@V?$K2VectorAllocator@USSmackdownEntry@CGameStats@@@@@std@@QAE@PAUSSmackdownEntry@CGameStats@@PBV_Container_base@1@@Z 2111fce0 f i c_gameserver.obj
 0002:0009cd20       ??H?$_Vector_iterator@USSmackdownEntry@CGameStats@@V?$K2VectorAllocator@USSmackdownEntry@CGameStats@@@@@std@@QBE?AV01@H@Z 2111fd20 f i c_gameserver.obj
 0002:0009cdd0       ??G?$_Vector_iterator@USSmackdownEntry@CGameStats@@V?$K2VectorAllocator@USSmackdownEntry@CGameStats@@@@@std@@QBEHABV?$_Vector_const_iterator@USSmackdownEntry@CGameStats@@V?$K2VectorAllocator@USSmackdownEntry@CGameStats@@@@@1@@Z 2111fdd0 f i c_gameserver.obj
 0002:0009ce00       ??0?$_Vector_iterator@USHumiliationEntry@CGameStats@@V?$K2VectorAllocator@USHumiliationEntry@CGameStats@@@@@std@@QAE@PAUSHumiliationEntry@CGameStats@@PBV_Container_base@1@@Z 2111fe00 f i c_gameserver.obj
 0002:0009ce40       ??H?$_Vector_iterator@USHumiliationEntry@CGameStats@@V?$K2VectorAllocator@USHumiliationEntry@CGameStats@@@@@std@@QBE?AV01@H@Z 2111fe40 f i c_gameserver.obj
 0002:0009cef0       ??G?$_Vector_iterator@USHumiliationEntry@CGameStats@@V?$K2VectorAllocator@USHumiliationEntry@CGameStats@@@@@std@@QBEHABV?$_Vector_const_iterator@USHumiliationEntry@CGameStats@@V?$K2VectorAllocator@USHumiliationEntry@CGameStats@@@@@1@@Z 2111fef0 f i c_gameserver.obj
 0002:0009cf20       ??0?$_Vector_iterator@USRivalEntry@CGameStats@@V?$K2VectorAllocator@USRivalEntry@CGameStats@@@@@std@@QAE@PAUSRivalEntry@CGameStats@@PBV_Container_base@1@@Z 2111ff20 f i c_gameserver.obj
 0002:0009cf60       ??H?$_Vector_iterator@USRivalEntry@CGameStats@@V?$K2VectorAllocator@USRivalEntry@CGameStats@@@@@std@@QBE?AV01@H@Z 2111ff60 f i c_gameserver.obj
 0002:0009d010       ??G?$_Vector_iterator@USRivalEntry@CGameStats@@V?$K2VectorAllocator@USRivalEntry@CGameStats@@@@@std@@QBEHABV?$_Vector_const_iterator@USRivalEntry@CGameStats@@V?$K2VectorAllocator@USRivalEntry@CGameStats@@@@@1@@Z 21120010 f i c_gameserver.obj
 0002:0009d040       ??0?$_Vector_iterator@USPaybackEntry@CGameStats@@V?$K2VectorAllocator@USPaybackEntry@CGameStats@@@@@std@@QAE@PAUSPaybackEntry@CGameStats@@PBV_Container_base@1@@Z 21120040 f i c_gameserver.obj
 0002:0009d080       ??H?$_Vector_iterator@USPaybackEntry@CGameStats@@V?$K2VectorAllocator@USPaybackEntry@CGameStats@@@@@std@@QBE?AV01@H@Z 21120080 f i c_gameserver.obj
 0002:0009d130       ??G?$_Vector_iterator@USPaybackEntry@CGameStats@@V?$K2VectorAllocator@USPaybackEntry@CGameStats@@@@@std@@QBEHABV?$_Vector_const_iterator@USPaybackEntry@CGameStats@@V?$K2VectorAllocator@USPaybackEntry@CGameStats@@@@@1@@Z 21120130 f i c_gameserver.obj
 0002:0009d160       ??0?$_Vector_iterator@USAbilityUpgradeEntry@CGameStats@@V?$K2VectorAllocator@USAbilityUpgradeEntry@CGameStats@@@@@std@@QAE@PAUSAbilityUpgradeEntry@CGameStats@@PBV_Container_base@1@@Z 21120160 f i c_gameserver.obj
 0002:0009d1a0       ??H?$_Vector_iterator@USAbilityUpgradeEntry@CGameStats@@V?$K2VectorAllocator@USAbilityUpgradeEntry@CGameStats@@@@@std@@QBE?AV01@H@Z 211201a0 f i c_gameserver.obj
 0002:0009d250       ??G?$_Vector_iterator@USAbilityUpgradeEntry@CGameStats@@V?$K2VectorAllocator@USAbilityUpgradeEntry@CGameStats@@@@@std@@QBEHABV?$_Vector_const_iterator@USAbilityUpgradeEntry@CGameStats@@V?$K2VectorAllocator@USAbilityUpgradeEntry@CGameStats@@@@@1@@Z 21120250 f i c_gameserver.obj
 0002:0009d280       ??0?$_Vector_iterator@USItemHistoryEntry@CGameStats@@V?$K2VectorAllocator@USItemHistoryEntry@CGameStats@@@@@std@@QAE@PAUSItemHistoryEntry@CGameStats@@PBV_Container_base@1@@Z 21120280 f i c_gameserver.obj
 0002:0009d2c0       ??H?$_Vector_iterator@USItemHistoryEntry@CGameStats@@V?$K2VectorAllocator@USItemHistoryEntry@CGameStats@@@@@std@@QBE?AV01@H@Z 211202c0 f i c_gameserver.obj
 0002:0009d370       ??G?$_Vector_iterator@USItemHistoryEntry@CGameStats@@V?$K2VectorAllocator@USItemHistoryEntry@CGameStats@@@@@std@@QBEHABV?$_Vector_const_iterator@USItemHistoryEntry@CGameStats@@V?$K2VectorAllocator@USItemHistoryEntry@CGameStats@@@@@1@@Z 21120370 f i c_gameserver.obj
 0002:0009d3a0       ??0?$_Vector_iterator@USHeroKillHistoryEvent@CGameStats@@V?$K2VectorAllocator@USHeroKillHistoryEvent@CGameStats@@@@@std@@QAE@PAUSHeroKillHistoryEvent@CGameStats@@PBV_Container_base@1@@Z 211203a0 f i c_gameserver.obj
 0002:0009d3e0       ??H?$_Vector_iterator@USHeroKillHistoryEvent@CGameStats@@V?$K2VectorAllocator@USHeroKillHistoryEvent@CGameStats@@@@@std@@QBE?AV01@H@Z 211203e0 f i c_gameserver.obj
 0002:0009d490       ??G?$_Vector_iterator@USHeroKillHistoryEvent@CGameStats@@V?$K2VectorAllocator@USHeroKillHistoryEvent@CGameStats@@@@@std@@QBEHABV?$_Vector_const_iterator@USHeroKillHistoryEvent@CGameStats@@V?$K2VectorAllocator@USHeroKillHistoryEvent@CGameStats@@@@@1@@Z 21120490 f i c_gameserver.obj
 0002:0009d4c0       ??0?$_Vector_iterator@U?$pair@IH@std@@V?$K2VectorAllocator@U?$pair@IH@std@@@@@std@@QAE@PAU?$pair@IH@1@PBV_Container_base@1@@Z 211204c0 f i c_gameserver.obj
 0002:0009d500       ??H?$_Vector_iterator@U?$pair@IH@std@@V?$K2VectorAllocator@U?$pair@IH@std@@@@@std@@QBE?AV01@H@Z 21120500 f i c_gameserver.obj
 0002:0009d5b0       ??G?$_Vector_iterator@U?$pair@IH@std@@V?$K2VectorAllocator@U?$pair@IH@std@@@@@std@@QBEHABV?$_Vector_const_iterator@U?$pair@IH@std@@V?$K2VectorAllocator@U?$pair@IH@std@@@@@1@@Z 211205b0 f i c_gameserver.obj
 0002:0009d5e0       ??0?$_Vector_iterator@USGuestEntry@@V?$K2VectorAllocator@USGuestEntry@@@@@std@@QAE@PAUSGuestEntry@@PBV_Container_base@1@@Z 211205e0 f i c_gameserver.obj
 0002:0009d620       ??9?$_Vector_const_iterator@USGuestEntry@@V?$K2VectorAllocator@USGuestEntry@@@@@std@@QBE_NABV01@@Z 21120620 f i c_gameserver.obj
 0002:0009d660       ??M?$_Vector_const_iterator@USGuestEntry@@V?$K2VectorAllocator@USGuestEntry@@@@@std@@QBE_NABV01@@Z 21120660 f i c_gameserver.obj
 0002:0009d6a0       ??0iterator@?$_Tree@V?$_Tmap_traits@GV?$basic_string@_WU?$char_traits@_W@std@@V?$K2StringAllocator@_W@@@std@@U?$less@G@2@V?$K2MapAllocator@U?$pair@$$CBGV?$basic_string@_WU?$char_traits@_W@std@@V?$K2StringAllocator@_W@@@std@@@std@@@@$0A@@std@@@std@@QAE@ABV012@@Z 211206a0 f i c_gameserver.obj
 0002:0009d6d0       ??0?$pair@V?$basic_string@DU?$char_traits@D@std@@V?$K2StringAllocator@D@@@std@@V12@@std@@QAE@ABU01@@Z 211206d0 f i c_gameserver.obj
 0002:0009d760       ??0SHeroKillHistoryEvent@CGameStats@@QAE@ABU01@@Z 21120760 f i c_gameserver.obj
 0002:0009d7b0       ??0SMatchKillEntry@@QAE@ABU0@@Z 211207b0 f i c_gameserver.obj
 0002:0009d820       ??0SDelayedMessage@CGameServer@@QAE@ABU01@@Z 21120820 f i c_gameserver.obj
 0002:0009d880       ??0?$_Bidit@U?$pair@$$CBIV?$basic_string@DU?$char_traits@D@std@@V?$K2StringAllocator@D@@@std@@@std@@HPBU12@ABU12@@std@@QAE@XZ 21120880 f i c_gameserver.obj
 0002:0009d8b0       ??0?$_Bidit@U?$pair@$$CBIVCBufferDynamic@@@std@@HPBU12@ABU12@@std@@QAE@XZ 211208b0 f i c_gameserver.obj
 0002:0009d8e0       ??0?$_Bidit@U?$pair@$$CBHPAVCClientConnection@@@std@@HPBU12@ABU12@@std@@QAE@XZ 211208e0 f i c_gameserver.obj
 0002:0009d910       ??0?$_Ranit@USDelayedMessage@CGameServer@@HPBU12@ABU12@@std@@QAE@XZ 21120910 f i c_gameserver.obj
 0002:0009d940       ??0?$_Ranit@PAVCPlayer@@HPBQAV1@ABQAV1@@std@@QAE@XZ 21120940 f i c_gameserver.obj
 0002:0009d970       ??0?$_Bidit@U?$pair@$$CBIPAVCWorldLight@@@std@@HPBU12@ABU12@@std@@QAE@XZ 21120970 f i c_gameserver.obj
 0002:0009d9a0       ??0?$_Bidit@U?$pair@$$CBHPAVIHeroEntity@@@std@@HPBU12@ABU12@@std@@QAE@XZ 211209a0 f i c_gameserver.obj
 0002:0009d9d0       ??0?$_Bidit@U?$pair@$$CBHV?$vector@HV?$K2VectorAllocator@H@@@@@std@@HPBU12@ABU12@@std@@QAE@XZ 211209d0 f i c_gameserver.obj
 0002:0009da00       ??0?$_Ranit@PAVIGameEntity@@HPBQAV1@ABQAV1@@std@@QAE@XZ 21120a00 f i c_gameserver.obj
 0002:0009da30       ??0?$_Ranit@USMatchKillEntry@@HPBU1@ABU1@@std@@QAE@XZ 21120a30 f i c_gameserver.obj
 0002:0009da60       ??0?$_Ranit@GHPBGABG@std@@QAE@XZ 21120a60 f i c_gameserver.obj
 0002:0009da90       ??0?$_Ranit@U?$pair@GE@std@@HPBU12@ABU12@@std@@QAE@XZ 21120a90 f i c_gameserver.obj
 0002:0009dac0       ??0?$_Bidit@U?$pair@$$CBGV?$basic_string@_WU?$char_traits@_W@std@@V?$K2StringAllocator@_W@@@std@@@std@@HPBU12@ABU12@@std@@QAE@XZ 21120ac0 f i c_gameserver.obj
 0002:0009daf0       ??0const_iterator@?$_Tree@V?$_Tmap_traits@GV?$basic_string@_WU?$char_traits@_W@std@@V?$K2StringAllocator@_W@@@std@@U?$less@G@2@V?$K2MapAllocator@U?$pair@$$CBGV?$basic_string@_WU?$char_traits@_W@std@@V?$K2StringAllocator@_W@@@std@@@std@@@@$0A@@std@@@std@@QAE@ABV012@@Z 21120af0 f i c_gameserver.obj
 0002:0009db30       ??0CBufferDynamic@@QAE@ABV0@@Z 21120b30 f i c_gameserver.obj
 0002:0009db70       ??0?$_Bidit@U?$pair@$$CBGV?$basic_string@_WU?$char_traits@_W@std@@V?$K2StringAllocator@_W@@@std@@@std@@HPBU12@ABU12@@std@@QAE@ABU01@@Z 21120b70 f i c_gameserver.obj
 0002:0009dba0       ??0?$allocator@H@std@@QAE@XZ 21120ba0 f i c_gameserver.obj
 0002:0009dbc0       ??0?$allocator@H@std@@QAE@ABV01@@Z 21120bc0 f i c_gameserver.obj
 0002:0009dbe0       ?max_size@?$allocator@H@std@@QBEIXZ 21120be0 f i c_gameserver.obj
