 vid_gl2_debug

 Timestamp is 4dfdabbc (Sun Jun 19 02:56:44 2011)

 Preferred load address is 17000000

 Start         Length     Name                   Class
 0001:00000000 000b5620H .textbss                DATA
 0002:00000000 0015003aH .text                   CODE
 0002:00150040 0001c415H .text$x                 CODE
 0002:0016c460 0000e541H .text$yc                CODE
 0002:0017a9b0 00003e59H .text$yd                CODE
 0003:00000000 00000104H .CRT$XCA                DATA
 0003:00000104 0000083fH .CRT$XCU                DATA
 0003:00000944 00000104H .CRT$XCZ                DATA
 0003:00000a48 00000104H .CRT$XIA                DATA
 0003:00000b4c 00000104H .CRT$XIAA               DATA
 0003:00000c50 00000104H .CRT$XIC                DATA
 0003:00000d54 00000104H .CRT$XIZ                DATA
 0003:00000e60 00033faeH .rdata                  DATA
 0003:00034e10 0000015cH .rdata$debug            DATA
 0003:00034f6c 00000156H .rdata$r                DATA
 0003:000350c4 00000104H .rtc$IAA                DATA
 0003:000351c8 00000104H .rtc$IZZ                DATA
 0003:000352cc 00000104H .rtc$TAA                DATA
 0003:000353d0 00000104H .rtc$TZZ                DATA
 0003:000354d8 00019dfaH .xdata$x                DATA
 0003:0004f2e0 0000015cH .edata                  DATA
 0004:00000000 00000872H .data                   DATA
 0004:00000880 0004f0f4H .bss                    DATA
 0005:00000000 000000a0H .idata$2                DATA
 0005:000000a0 00000014H .idata$3                DATA
 0005:000000b4 00000b18H .idata$4                DATA
 0005:00000bcc 00000b18H .idata$5                DATA
 0005:000016e4 00006748H .idata$6                DATA
 0006:00000000 00000169H .rsrc$01                DATA
 0006:00000170 00000a99H .rsrc$02                DATA

  Address         Publics by Value              Rva+Base       Lib:Object

 0000:00000000       ___safe_se_handler_table   00000000     <absolute>
 0000:00000000       ___safe_se_handler_count   00000000     <absolute>
 0000:00000000       __except_list              00000000     <absolute>
 0000:00009876       __fltused                  00009876     <absolute>
 0000:00009876       __ldused                   00009876     <absolute>
 0000:00000000       ___ImageBase               17000000     <linker-defined>
 0001:00000000       __enc$textbss$begin        17001000     <linker-defined>
 0001:000b5620       __enc$textbss$end          170b6620     <linker-defined>
 0002:0000fc80       ??2CBillboardRenderer@@SAPAXIPBD00F@Z 170c6c80 f   c_billboardrenderer.obj
 0002:0000fca0       ??0CBillboardRenderer@@QAE@IIIHM@Z 170c6ca0 f   c_billboardrenderer.obj
 0002:0000fcf0       ??_GCBillboardRenderer@@UAEPAXI@Z 170c6cf0 f i c_billboardrenderer.obj
 0002:0000fcf0       ??_ECBillboardRenderer@@UAEPAXI@Z 170c6cf0 f i c_billboardrenderer.obj
 0002:0000fd40       ??3CBillboardRenderer@@SAXPAX@Z 170c6d40 f i c_billboardrenderer.obj
 0002:0000fd60       ??1CBillboardRenderer@@UAE@XZ 170c6d60 f   c_billboardrenderer.obj
 0002:0000fd90       ?Render@CBillboardRenderer@@UAEXW4EMaterialPhase@@@Z 170c6d90 f   c_billboardrenderer.obj
 0002:0000ff20       ?GetMaterialState@CGfxMaterials@@QAEABUSMaterialState@@XZ 170c6f20 f i c_billboardrenderer.obj
 0002:0000ff50       ?Allocate@?$CPool@VCBillboardRenderer@@@@QAEPAVCBillboardRenderer@@XZ 170c6f50 f i c_billboardrenderer.obj
 0002:000100e0       ?Allocate@CMemManager@@SAPAXIPBDW4MemoryType@@00F@Z 170c70e0 f i c_billboardrenderer.obj
 0002:00010120       ?push_back@?$vector@PAVCBillboardRenderer@@V?$K2VectorAllocator@PAVCBillboardRenderer@@@@@std@@QAEXABQAVCBillboardRenderer@@@Z 170c7120 f i c_billboardrenderer.obj
 0002:000101d0       ??1?$_Vector_iterator@PAVCBillboardRenderer@@V?$K2VectorAllocator@PAVCBillboardRenderer@@@@@std@@QAE@XZ 170c71d0 f i c_billboardrenderer.obj
 0002:00010200       ??1?$_Vector_const_iterator@PAVCBillboardRenderer@@V?$K2VectorAllocator@PAVCBillboardRenderer@@@@@std@@QAE@XZ 170c7200 f i c_billboardrenderer.obj
 0002:00010230       ??1?$_Ranit@PAVCBillboardRenderer@@HPBQAV1@ABQAV1@@std@@QAE@XZ 170c7230 f i c_billboardrenderer.obj
 0002:00010260       ??1_Iterator_base@std@@QAE@XZ 170c7260 f i c_billboardrenderer.obj
 0002:000102e0       ?_Orphan_me@_Iterator_base@std@@QAEXXZ 170c72e0 f i c_billboardrenderer.obj
 0002:00010380       ?end@?$vector@PAVCBillboardRenderer@@V?$K2VectorAllocator@PAVCBillboardRenderer@@@@@std@@QAE?AV?$_Vector_iterator@PAVCBillboardRenderer@@V?$K2VectorAllocator@PAVCBillboardRenderer@@@@@2@XZ 170c7380 f i c_billboardrenderer.obj
 0002:000103d0       ?capacity@?$vector@PAVCBillboardRenderer@@V?$K2VectorAllocator@PAVCBillboardRenderer@@@@@std@@QBEIXZ 170c73d0 f i c_billboardrenderer.obj
 0002:00010420       ?size@?$vector@PAVCBillboardRenderer@@V?$K2VectorAllocator@PAVCBillboardRenderer@@@@@std@@QBEIXZ 170c7420 f i c_billboardrenderer.obj
 0002:00010470       ?insert@?$vector@PAVCBillboardRenderer@@V?$K2VectorAllocator@PAVCBillboardRenderer@@@@@std@@QAE?AV?$_Vector_iterator@PAVCBillboardRenderer@@V?$K2VectorAllocator@PAVCBillboardRenderer@@@@@2@V32@ABQAVCBillboardRenderer@@@Z 170c7470 f i c_billboardrenderer.obj
 0002:000105e0       ?begin@?$vector@PAVCBillboardRenderer@@V?$K2VectorAllocator@PAVCBillboardRenderer@@@@@std@@QAE?AV?$_Vector_iterator@PAVCBillboardRenderer@@V?$K2VectorAllocator@PAVCBillboardRenderer@@@@@2@XZ 170c75e0 f i c_billboardrenderer.obj
 0002:00010630       ?_Ufill@?$vector@PAVCBillboardRenderer@@V?$K2VectorAllocator@PAVCBillboardRenderer@@@@@std@@IAEPAPAVCBillboardRenderer@@PAPAV3@IABQAV3@@Z 170c7630 f i c_billboardrenderer.obj
 0002:00010680       ?_Orphan_range@?$vector@PAVCBillboardRenderer@@V?$K2VectorAllocator@PAVCBillboardRenderer@@@@@std@@IBEXPAPAVCBillboardRenderer@@0@Z 170c7680 f i c_billboardrenderer.obj
 0002:00010720       ??0?$_Vector_iterator@PAVCBillboardRenderer@@V?$K2VectorAllocator@PAVCBillboardRenderer@@@@@std@@QAE@PAPAVCBillboardRenderer@@PBV_Container_base@1@@Z 170c7720 f i c_billboardrenderer.obj
 0002:00010760       ??0?$_Vector_iterator@PAVCBillboardRenderer@@V?$K2VectorAllocator@PAVCBillboardRenderer@@@@@std@@QAE@ABV01@@Z 170c7760 f i c_billboardrenderer.obj
 0002:00010790       ??0?$_Vector_const_iterator@PAVCBillboardRenderer@@V?$K2VectorAllocator@PAVCBillboardRenderer@@@@@std@@QAE@ABV01@@Z 170c7790 f i c_billboardrenderer.obj
 0002:000107d0       ??0?$_Ranit@PAVCBillboardRenderer@@HPBQAV1@ABQAV1@@std@@QAE@ABU01@@Z 170c77d0 f i c_billboardrenderer.obj
 0002:00010800       ??0_Iterator_base@std@@QAE@ABV01@@Z 170c7800 f i c_billboardrenderer.obj
 0002:00010850       ??4_Iterator_base@std@@QAEAAV01@ABV01@@Z 170c7850 f i c_billboardrenderer.obj
 0002:00010900       ?_Adopt@_Iterator_base@std@@QAEXPBV_Container_base@2@@Z 170c7900 f i c_billboardrenderer.obj
 0002:000109d0       ?_Insert_n@?$vector@PAVCBillboardRenderer@@V?$K2VectorAllocator@PAVCBillboardRenderer@@@@@std@@IAEXV?$_Vector_iterator@PAVCBillboardRenderer@@V?$K2VectorAllocator@PAVCBillboardRenderer@@@@@2@IABQAVCBillboardRenderer@@@Z 170c79d0 f i c_billboardrenderer.obj
 0002:00010e80       ?_Destroy@?$vector@PAVCBillboardRenderer@@V?$K2VectorAllocator@PAVCBillboardRenderer@@@@@std@@IAEXPAPAVCBillboardRenderer@@0@Z 170c7e80 f i c_billboardrenderer.obj
 0002:00010ec0       ?deallocate@?$K2VectorAllocator@PAVCBillboardRenderer@@@@QAEXPAPAVCBillboardRenderer@@I@Z 170c7ec0 f i c_billboardrenderer.obj
 0002:00010f00       ??$_Destroy_range@PAVCBillboardRenderer@@V?$K2VectorAllocator@PAVCBillboardRenderer@@@@@std@@YAXPAPAVCBillboardRenderer@@0AAV?$K2VectorAllocator@PAVCBillboardRenderer@@@@@Z 170c7f00 f i c_billboardrenderer.obj
 0002:00010f50       ??H?$_Vector_iterator@PAVCBillboardRenderer@@V?$K2VectorAllocator@PAVCBillboardRenderer@@@@@std@@QBE?AV01@H@Z 170c7f50 f i c_billboardrenderer.obj
 0002:00011000       ??G?$_Vector_iterator@PAVCBillboardRenderer@@V?$K2VectorAllocator@PAVCBillboardRenderer@@@@@std@@QBEHABV?$_Vector_const_iterator@PAVCBillboardRenderer@@V?$K2VectorAllocator@PAVCBillboardRenderer@@@@@1@@Z 170c8000 f i c_billboardrenderer.obj
 0002:00011030       ??0?$_Vector_const_iterator@PAVCBillboardRenderer@@V?$K2VectorAllocator@PAVCBillboardRenderer@@@@@std@@QAE@PAPAVCBillboardRenderer@@PBV_Container_base@1@@Z 170c8030 f i c_billboardrenderer.obj
 0002:00011130       ??0?$_Ranit@PAVCBillboardRenderer@@HPBQAV1@ABQAV1@@std@@QAE@XZ 170c8130 f i c_billboardrenderer.obj
 0002:00011160       ??0_Iterator_base@std@@QAE@XZ 170c8160 f i c_billboardrenderer.obj
 0002:000111a0       ?max_size@?$vector@PAVCBillboardRenderer@@V?$K2VectorAllocator@PAVCBillboardRenderer@@@@@std@@QBEIXZ 170c81a0 f i c_billboardrenderer.obj
 0002:000111d0       ?_Xlen@?$vector@PAVCBillboardRenderer@@V?$K2VectorAllocator@PAVCBillboardRenderer@@@@@std@@KAXXZ 170c81d0 f i c_billboardrenderer.obj
 0002:00011280       ??0length_error@std@@QAE@ABV?$basic_string@DU?$char_traits@D@std@@V?$allocator@D@2@@1@@Z 170c8280 f i c_billboardrenderer.obj
 0002:000112c0       ??0logic_error@std@@QAE@ABV?$basic_string@DU?$char_traits@D@std@@V?$allocator@D@2@@1@@Z 170c82c0 f i c_billboardrenderer.obj
 0002:00011350       ?what@logic_error@std@@UBEPBDXZ 170c8350 f i c_billboardrenderer.obj
 0002:00011380       ??_Glogic_error@std@@UAEPAXI@Z 170c8380 f i c_billboardrenderer.obj
 0002:00011380       ??_Elogic_error@std@@UAEPAXI@Z 170c8380 f i c_billboardrenderer.obj
 0002:000113d0       ??1logic_error@std@@UAE@XZ 170c83d0 f i c_billboardrenderer.obj
 0002:00011410       ??1length_error@std@@UAE@XZ 170c8410 f i c_billboardrenderer.obj
 0002:00011440       ??_Elength_error@std@@UAEPAXI@Z 170c8440 f i c_billboardrenderer.obj
 0002:00011440       ??_Glength_error@std@@UAEPAXI@Z 170c8440 f i c_billboardrenderer.obj
 0002:00011490       ??0logic_error@std@@QAE@ABV01@@Z 170c8490 f i c_billboardrenderer.obj
 0002:00011530       ?allocate@?$K2VectorAllocator@PAVCBillboardRenderer@@@@QAEPAPAVCBillboardRenderer@@I@Z 170c8530 f i c_billboardrenderer.obj
 0002:00011580       ??Y?$_Vector_iterator@PAVCBillboardRenderer@@V?$K2VectorAllocator@PAVCBillboardRenderer@@@@@std@@QAEAAV01@H@Z 170c8580 f i c_billboardrenderer.obj
 0002:000115b0       ??G?$_Vector_const_iterator@PAVCBillboardRenderer@@V?$K2VectorAllocator@PAVCBillboardRenderer@@@@@std@@QBEHABV01@@Z 170c85b0 f i c_billboardrenderer.obj
 0002:000115f0       ?_Compat@?$_Vector_const_iterator@PAVCBillboardRenderer@@V?$K2VectorAllocator@PAVCBillboardRenderer@@@@@std@@QBEXABV12@@Z 170c85f0 f i c_billboardrenderer.obj
 0002:000116a0       ?max_size@?$allocator@PAVCBillboardRenderer@@@std@@QBEIXZ 170c86a0 f i c_billboardrenderer.obj
 0002:000116e0       ??Y?$_Vector_const_iterator@PAVCBillboardRenderer@@V?$K2VectorAllocator@PAVCBillboardRenderer@@@@@std@@QAEAAV01@H@Z 170c86e0 f i c_billboardrenderer.obj
 0002:00011810       ??$MIN@I@@YAABIABI0@Z      170c8810 f i c_billboardrenderer.obj
 0002:00011850       ??$_Ptr_cat@PAPAVCBillboardRenderer@@PAPAV1@@std@@YA?AU_Scalar_ptr_iterator_tag@0@AAPAPAVCBillboardRenderer@@0@Z 170c8850 f i c_billboardrenderer.obj
 0002:00011870       ??$_Destroy_range@PAVCBillboardRenderer@@V?$K2VectorAllocator@PAVCBillboardRenderer@@@@@std@@YAXPAPAVCBillboardRenderer@@0AAV?$K2VectorAllocator@PAVCBillboardRenderer@@@@U_Scalar_ptr_iterator_tag@0@@Z 170c8870 f i c_billboardrenderer.obj
 0002:00011890       ??$unchecked_uninitialized_fill_n@PAPAVCBillboardRenderer@@IPAV1@V?$K2VectorAllocator@PAVCBillboardRenderer@@@@@stdext@@YAXPAPAVCBillboardRenderer@@IABQAV1@AAV?$K2VectorAllocator@PAVCBillboardRenderer@@@@@Z 170c8890 f i c_billboardrenderer.obj
 0002:000118f0       ??$_Umove@PAPAVCBillboardRenderer@@@?$vector@PAVCBillboardRenderer@@V?$K2VectorAllocator@PAVCBillboardRenderer@@@@@std@@IAEPAPAVCBillboardRenderer@@PAPAV2@00@Z 170c88f0 f i c_billboardrenderer.obj
 0002:00011930       ??$fill@PAPAVCBillboardRenderer@@PAV1@@std@@YAXPAPAVCBillboardRenderer@@0ABQAV1@@Z 170c8930 f i c_billboardrenderer.obj
 0002:00011980       ??$_Unchecked_move_backward@PAPAVCBillboardRenderer@@PAPAV1@@stdext@@YAPAPAVCBillboardRenderer@@PAPAV1@00@Z 170c8980 f i c_billboardrenderer.obj
 0002:00011a10       ??$_Checked_base@PAPAVCBillboardRenderer@@@std@@YAPAPAVCBillboardRenderer@@AAPAPAV1@@Z 170c8a10 f i c_billboardrenderer.obj
 0002:00011a40       ??$_Iter_random@PAPAVCBillboardRenderer@@PAPAV1@@std@@YA?AUrandom_access_iterator_tag@0@ABQAPAVCBillboardRenderer@@0@Z 170c8a40 f i c_billboardrenderer.obj
 0002:00011a60       ??$_Uninit_fill_n@PAPAVCBillboardRenderer@@IPAV1@V?$K2VectorAllocator@PAVCBillboardRenderer@@@@@std@@YAXPAPAVCBillboardRenderer@@IABQAV1@AAV?$K2VectorAllocator@PAVCBillboardRenderer@@@@U_Scalar_ptr_iterator_tag@0@U_Range_checked_iterator_tag@0@@Z 170c8a60 f i c_billboardrenderer.obj
 0002:00011a90       ??$_Unchecked_uninitialized_move@PAPAVCBillboardRenderer@@PAPAV1@V?$K2VectorAllocator@PAVCBillboardRenderer@@@@@stdext@@YAPAPAVCBillboardRenderer@@PAPAV1@00AAV?$K2VectorAllocator@PAVCBillboardRenderer@@@@@Z 170c8a90 f i c_billboardrenderer.obj
 0002:00011b00       ??$_Fill@PAPAVCBillboardRenderer@@PAV1@@std@@YAXPAPAVCBillboardRenderer@@0ABQAV1@@Z 170c8b00 f i c_billboardrenderer.obj
 0002:00011b60       ??$_Move_cat@PAPAVCBillboardRenderer@@@std@@YA?AU_Undefined_move_tag@0@ABQAPAVCBillboardRenderer@@@Z 170c8b60 f i c_billboardrenderer.obj
 0002:00011b80       ??$_Move_backward_opt@PAPAVCBillboardRenderer@@PAPAV1@Urandom_access_iterator_tag@std@@U_Undefined_move_tag@3@@std@@YAPAPAVCBillboardRenderer@@PAPAV1@00Urandom_access_iterator_tag@0@U_Undefined_move_tag@0@U_Range_checked_iterator_tag@0@@Z 170c8b80 f i c_billboardrenderer.obj
 0002:00011be0       ??$_Checked_base@PAPAVCBillboardRenderer@@@std@@YAPAPAVCBillboardRenderer@@AAPAPAV1@U_Unchanged_checked_iterator_base_type_tag@0@@Z 170c8be0 f i c_billboardrenderer.obj
 0002:00011c00       ??$_Debug_range@PAPAVCBillboardRenderer@@@std@@YAXPAPAVCBillboardRenderer@@0PB_WI@Z 170c8c00 f i c_billboardrenderer.obj
 0002:00011c50       ??$unchecked_fill_n@PAPAVCBillboardRenderer@@IPAV1@@stdext@@YAXPAPAVCBillboardRenderer@@IABQAV1@@Z 170c8c50 f i c_billboardrenderer.obj
 0002:00011ca0       ??$_Uninit_move@PAPAVCBillboardRenderer@@PAPAV1@V?$K2VectorAllocator@PAVCBillboardRenderer@@@@U_Undefined_move_tag@std@@@std@@YAPAPAVCBillboardRenderer@@PAPAV1@00AAV?$K2VectorAllocator@PAVCBillboardRenderer@@@@U_Undefined_move_tag@0@U_Range_checked_iterator_tag@0@@Z 170c8ca0 f i c_billboardrenderer.obj
 0002:00011ce0       ??$_Copy_backward_opt@PAPAVCBillboardRenderer@@PAPAV1@Urandom_access_iterator_tag@std@@@std@@YAPAPAVCBillboardRenderer@@PAPAV1@00Urandom_access_iterator_tag@0@U_Scalar_ptr_iterator_tag@0@U_Range_checked_iterator_tag@0@@Z 170c8ce0 f i c_billboardrenderer.obj
 0002:00011d90       ??$_Debug_pointer@PAVCBillboardRenderer@@@std@@YAXPAPAVCBillboardRenderer@@PB_WI@Z 170c8d90 f i c_billboardrenderer.obj
 0002:00011dd0       ??$_Iter_cat@PAPAVCBillboardRenderer@@@std@@YA?AUrandom_access_iterator_tag@0@ABQAPAVCBillboardRenderer@@@Z 170c8dd0 f i c_billboardrenderer.obj
 0002:00011df0       ??$_Debug_range2@PAPAVCBillboardRenderer@@@std@@YAXPAPAVCBillboardRenderer@@0PB_WIUrandom_access_iterator_tag@0@@Z 170c8df0 f i c_billboardrenderer.obj
 0002:00011e70       ??$_Fill_n@PAPAVCBillboardRenderer@@IPAV1@@std@@YAXPAPAVCBillboardRenderer@@IABQAV1@Urandom_access_iterator_tag@0@U_Range_checked_iterator_tag@0@@Z 170c8e70 f i c_billboardrenderer.obj
 0002:00011ed0       ??$unchecked_uninitialized_copy@PAPAVCBillboardRenderer@@PAPAV1@V?$K2VectorAllocator@PAVCBillboardRenderer@@@@@stdext@@YAPAPAVCBillboardRenderer@@PAPAV1@00AAV?$K2VectorAllocator@PAVCBillboardRenderer@@@@@Z 170c8ed0 f i c_billboardrenderer.obj
 0002:00011f40       ??$_Fill_n@PAPAVCBillboardRenderer@@IPAV1@@std@@YAXPAPAVCBillboardRenderer@@IABQAV1@U_Range_checked_iterator_tag@0@@Z 170c8f40 f i c_billboardrenderer.obj
 0002:00011f90       ??$_Uninit_copy@PAPAVCBillboardRenderer@@PAPAV1@V?$K2VectorAllocator@PAVCBillboardRenderer@@@@@std@@YAPAPAVCBillboardRenderer@@PAPAV1@00AAV?$K2VectorAllocator@PAVCBillboardRenderer@@@@U_Scalar_ptr_iterator_tag@0@U_Range_checked_iterator_tag@0@@Z 170c8f90 f i c_billboardrenderer.obj
 0002:00012030       ??0?$basic_string@_WU?$char_traits@_W@std@@V?$K2StringAllocator@_W@@@std@@QAE@PB_W@Z 170c9030 f i c_billboardrenderer.obj
 0002:000120e0       ??1?$basic_string@_WU?$char_traits@_W@std@@V?$K2StringAllocator@_W@@@std@@QAE@XZ 170c90e0 f i c_billboardrenderer.obj
 0002:00012160       ??1?$_String_val@_WV?$K2StringAllocator@_W@@@std@@QAE@XZ 170c9160 f i c_billboardrenderer.obj
 0002:000121e0       ?assign@?$basic_string@_WU?$char_traits@_W@std@@V?$K2StringAllocator@_W@@@std@@QAEAAV12@PB_W@Z 170c91e0 f i c_billboardrenderer.obj
 0002:00012220       ?_Tidy@?$basic_string@_WU?$char_traits@_W@std@@V?$K2StringAllocator@_W@@@std@@IAEX_NI@Z 170c9220 f i c_billboardrenderer.obj
 0002:000122c0       ??0?$_String_val@_WV?$K2StringAllocator@_W@@@std@@IAE@V?$K2StringAllocator@_W@@@Z 170c92c0 f i c_billboardrenderer.obj
 0002:00012360       ??0?$K2StringAllocator@_W@@QAE@XZ 170c9360 f i c_billboardrenderer.obj
 0002:00012390       ?GetInstance@CMemManager@@SAPAV1@XZ 170c9390 f i c_billboardrenderer.obj
 0002:00012460       ??1?$K2StringAllocator@_W@@QAE@XZ 170c9460 f i c_billboardrenderer.obj
 0002:00012480       ??0length_error@std@@QAE@ABV01@@Z 170c9480 f i c_billboardrenderer.obj
 0002:000124c0       ?assign@?$basic_string@_WU?$char_traits@_W@std@@V?$K2StringAllocator@_W@@@std@@QAEAAV12@PB_WI@Z 170c94c0 f i c_billboardrenderer.obj
 0002:00012580       ?assign@?$basic_string@_WU?$char_traits@_W@std@@V?$K2StringAllocator@_W@@@std@@QAEAAV12@ABV12@II@Z 170c9580 f i c_billboardrenderer.obj
 0002:00012670       ?_Myptr@?$basic_string@_WU?$char_traits@_W@std@@V?$K2StringAllocator@_W@@@std@@IAEPA_WXZ 170c9670 f i c_billboardrenderer.obj
 0002:000126b0       ?_Myptr@?$basic_string@_WU?$char_traits@_W@std@@V?$K2StringAllocator@_W@@@std@@IBEPB_WXZ 170c96b0 f i c_billboardrenderer.obj
 0002:000126f0       ?erase@?$basic_string@_WU?$char_traits@_W@std@@V?$K2StringAllocator@_W@@@std@@QAEAAV12@II@Z 170c96f0 f i c_billboardrenderer.obj
 0002:000127c0       ?size@?$basic_string@_WU?$char_traits@_W@std@@V?$K2StringAllocator@_W@@@std@@QBEIXZ 170c97c0 f i c_billboardrenderer.obj
 0002:000127e0       ?_Eos@?$basic_string@_WU?$char_traits@_W@std@@V?$K2StringAllocator@_W@@@std@@IAEXI@Z 170c97e0 f i c_billboardrenderer.obj
 0002:00012830       ?_Grow@?$basic_string@_WU?$char_traits@_W@std@@V?$K2StringAllocator@_W@@@std@@IAE_NI_N@Z 170c9830 f i c_billboardrenderer.obj
 0002:00012900       ??0?$K2StringAllocator@_W@@QAE@ABV0@@Z 170c9900 f i c_billboardrenderer.obj
 0002:00012930       ?deallocate@?$K2StringAllocator@_W@@QAEXPA_WI@Z 170c9930 f i c_billboardrenderer.obj
 0002:00012970       ?max_size@?$basic_string@_WU?$char_traits@_W@std@@V?$K2StringAllocator@_W@@@std@@QBEIXZ 170c9970 f i c_billboardrenderer.obj
 0002:000129c0       ?_Copy@?$basic_string@_WU?$char_traits@_W@std@@V?$K2StringAllocator@_W@@@std@@IAEXII@Z 170c99c0 f i c_billboardrenderer.obj
 0002:00012bb0       ?_Inside@?$basic_string@_WU?$char_traits@_W@std@@V?$K2StringAllocator@_W@@@std@@IAE_NPB_W@Z 170c9bb0 f i c_billboardrenderer.obj
 0002:00012c20       ?allocate@?$K2StringAllocator@_W@@QAEPA_WI@Z 170c9c20 f i c_billboardrenderer.obj
 0002:00012c70       ??$copy_s@U?$char_traits@_W@std@@@_Traits_helper@std@@YAPA_WPA_WIPB_WI@Z 170c9c70 f i c_billboardrenderer.obj
 0002:00012cc0       ??$_Char_traits_cat@U?$char_traits@_W@std@@@std@@YA?AU_Secure_char_traits_tag@0@XZ 170c9cc0 f i c_billboardrenderer.obj
 0002:00012ce0       ??$copy_s@U?$char_traits@_W@std@@@_Traits_helper@std@@YAPA_WPA_WIPB_WIU_Secure_char_traits_tag@1@@Z 170c9ce0 f i c_billboardrenderer.obj
 0002:00012d20       ??$_Debug_pointer@_W@std@@YAXPB_W0I@Z 170c9d20 f i c_billboardrenderer.obj
 0002:00012d60       ??$move_s@U?$char_traits@_W@std@@@_Traits_helper@std@@YAPA_WPA_WIPB_WI@Z 170c9d60 f i c_billboardrenderer.obj
 0002:00012db0       ??$move_s@U?$char_traits@_W@std@@@_Traits_helper@std@@YAPA_WPA_WIPB_WIU_Secure_char_traits_tag@1@@Z 170c9db0 f i c_billboardrenderer.obj
 0002:00012df0       ??0?$CPool@VCBillboardRenderer@@@@QAE@II@Z 170c9df0 f i c_billboardrenderer.obj
 0002:00012eb0       ??0?$vector@PAVCBillboardRenderer@@V?$K2VectorAllocator@PAVCBillboardRenderer@@@@@@QAE@XZ 170c9eb0 f i c_billboardrenderer.obj
 0002:00012ee0       ??0?$vector@PAVCBillboardRenderer@@V?$K2VectorAllocator@PAVCBillboardRenderer@@@@@std@@QAE@XZ 170c9ee0 f i c_billboardrenderer.obj
 0002:00012f70       ??1?$_Vector_val@PAVCBillboardRenderer@@V?$K2VectorAllocator@PAVCBillboardRenderer@@@@@std@@QAE@XZ 170c9f70 f i c_billboardrenderer.obj
 0002:00012ff0       ??1?$K2VectorAllocator@PAVCBillboardRenderer@@@@QAE@XZ 170c9ff0 f i c_billboardrenderer.obj
 0002:00013010       ?_Buy@?$vector@PAVCBillboardRenderer@@V?$K2VectorAllocator@PAVCBillboardRenderer@@@@@std@@IAE_NI@Z 170ca010 f i c_billboardrenderer.obj
 0002:000130c0       ??0?$_Vector_val@PAVCBillboardRenderer@@V?$K2VectorAllocator@PAVCBillboardRenderer@@@@@std@@IAE@V?$K2VectorAllocator@PAVCBillboardRenderer@@@@@Z 170ca0c0 f i c_billboardrenderer.obj
 0002:00013160       ??0?$K2VectorAllocator@PAVCBillboardRenderer@@@@QAE@XZ 170ca160 f i c_billboardrenderer.obj
 0002:00013190       ??0?$K2VectorAllocator@PAVCBillboardRenderer@@@@QAE@ABV0@@Z 170ca190 f i c_billboardrenderer.obj
 0002:000131c0       ??0?$allocator@PAVCBillboardRenderer@@@std@@QAE@XZ 170ca1c0 f i c_billboardrenderer.obj
 0002:000131e0       ??0?$allocator@PAVCBillboardRenderer@@@std@@QAE@ABV01@@Z 170ca1e0 f i c_billboardrenderer.obj
 0002:00013200       ??$MAX@I@@YAABIABI0@Z      170ca200 f i c_billboardrenderer.obj
 0002:00013240       ??1?$CPool@VCBillboardRenderer@@@@QAE@XZ 170ca240 f i c_billboardrenderer.obj
 0002:000132f0       ??1?$vector@PAVCBillboardRenderer@@V?$K2VectorAllocator@PAVCBillboardRenderer@@@@@@QAE@XZ 170ca2f0 f i c_billboardrenderer.obj
 0002:00013320       ??1?$vector@PAVCBillboardRenderer@@V?$K2VectorAllocator@PAVCBillboardRenderer@@@@@std@@QAE@XZ 170ca320 f i c_billboardrenderer.obj
 0002:000133a0       ?_Tidy@?$vector@PAVCBillboardRenderer@@V?$K2VectorAllocator@PAVCBillboardRenderer@@@@@std@@IAEXXZ 170ca3a0 f i c_billboardrenderer.obj
 0002:00013440       ?Reset@?$CPool@VCBillboardRenderer@@@@QAEXXZ 170ca440 f i c_billboardrenderer.obj
 0002:00013560       ?clear@?$vector@PAVCBillboardRenderer@@V?$K2VectorAllocator@PAVCBillboardRenderer@@@@@std@@QAEXXZ 170ca560 f i c_billboardrenderer.obj
 0002:00013620       ??D?$_Vector_iterator@PAVCBillboardRenderer@@V?$K2VectorAllocator@PAVCBillboardRenderer@@@@@std@@QBEAAPAVCBillboardRenderer@@XZ 170ca620 f i c_billboardrenderer.obj
 0002:00013650       ??E?$_Vector_iterator@PAVCBillboardRenderer@@V?$K2VectorAllocator@PAVCBillboardRenderer@@@@@std@@QAEAAV01@XZ 170ca650 f i c_billboardrenderer.obj
 0002:00013680       ??9?$_Vector_const_iterator@PAVCBillboardRenderer@@V?$K2VectorAllocator@PAVCBillboardRenderer@@@@@std@@QBE_NABV01@@Z 170ca680 f i c_billboardrenderer.obj
 0002:000136c0       ?erase@?$vector@PAVCBillboardRenderer@@V?$K2VectorAllocator@PAVCBillboardRenderer@@@@@std@@QAE?AV?$_Vector_iterator@PAVCBillboardRenderer@@V?$K2VectorAllocator@PAVCBillboardRenderer@@@@@2@V32@0@Z 170ca6c0 f i c_billboardrenderer.obj
 0002:00013840       ??D?$_Vector_const_iterator@PAVCBillboardRenderer@@V?$K2VectorAllocator@PAVCBillboardRenderer@@@@@std@@QBEABQAVCBillboardRenderer@@XZ 170ca840 f i c_billboardrenderer.obj
 0002:00013900       ??E?$_Vector_const_iterator@PAVCBillboardRenderer@@V?$K2VectorAllocator@PAVCBillboardRenderer@@@@@std@@QAEAAV01@XZ 170ca900 f i c_billboardrenderer.obj
 0002:000139f0       ??8?$_Vector_const_iterator@PAVCBillboardRenderer@@V?$K2VectorAllocator@PAVCBillboardRenderer@@@@@std@@QBE_NABV01@@Z 170ca9f0 f i c_billboardrenderer.obj
 0002:00013a30       ??M?$_Vector_const_iterator@PAVCBillboardRenderer@@V?$K2VectorAllocator@PAVCBillboardRenderer@@@@@std@@QBE_NABV01@@Z 170caa30 f i c_billboardrenderer.obj
 0002:00013a70       ??$unchecked_copy@PAPAVCBillboardRenderer@@PAPAV1@@stdext@@YAPAPAVCBillboardRenderer@@PAPAV1@00@Z 170caa70 f i c_billboardrenderer.obj
 0002:00013b00       ??$_Copy_opt@PAPAVCBillboardRenderer@@PAPAV1@Urandom_access_iterator_tag@std@@@std@@YAPAPAVCBillboardRenderer@@PAPAV1@00Urandom_access_iterator_tag@0@U_Scalar_ptr_iterator_tag@0@U_Range_checked_iterator_tag@0@@Z 170cab00 f i c_billboardrenderer.obj
 0002:00013bb0       ??2CBoxRenderer@@SAPAXIPBD00F@Z 170cabb0 f   c_boxrenderer.obj
 0002:00013bd0       ??0CBoxRenderer@@QAE@H@Z   170cabd0 f   c_boxrenderer.obj
 0002:00013c20       ??_ECBoxRenderer@@UAEPAXI@Z 170cac20 f i c_boxrenderer.obj
 0002:00013c20       ??_GCBoxRenderer@@UAEPAXI@Z 170cac20 f i c_boxrenderer.obj
 0002:00013c70       ??3CBoxRenderer@@SAXPAX@Z  170cac70 f i c_boxrenderer.obj
 0002:00013c90       ??1CBoxRenderer@@UAE@XZ    170cac90 f   c_boxrenderer.obj
 0002:00013cc0       ?Render@CBoxRenderer@@UAEXW4EMaterialPhase@@@Z 170cacc0 f   c_boxrenderer.obj
 0002:00013e60       ?Allocate@?$CPool@VCBoxRenderer@@@@QAEPAVCBoxRenderer@@XZ 170cae60 f i c_boxrenderer.obj
 0002:00013ff0       ?push_back@?$vector@PAVCBoxRenderer@@V?$K2VectorAllocator@PAVCBoxRenderer@@@@@std@@QAEXABQAVCBoxRenderer@@@Z 170caff0 f i c_boxrenderer.obj
 0002:000140a0       ??1?$_Vector_iterator@PAVCBoxRenderer@@V?$K2VectorAllocator@PAVCBoxRenderer@@@@@std@@QAE@XZ 170cb0a0 f i c_boxrenderer.obj
 0002:000140d0       ??1?$_Vector_const_iterator@PAVCBoxRenderer@@V?$K2VectorAllocator@PAVCBoxRenderer@@@@@std@@QAE@XZ 170cb0d0 f i c_boxrenderer.obj
 0002:00014100       ??1?$_Ranit@PAVCBoxRenderer@@HPBQAV1@ABQAV1@@std@@QAE@XZ 170cb100 f i c_boxrenderer.obj
 0002:00014130       ?end@?$vector@PAVCBoxRenderer@@V?$K2VectorAllocator@PAVCBoxRenderer@@@@@std@@QAE?AV?$_Vector_iterator@PAVCBoxRenderer@@V?$K2VectorAllocator@PAVCBoxRenderer@@@@@2@XZ 170cb130 f i c_boxrenderer.obj
 0002:00014180       ?capacity@?$vector@PAVCBoxRenderer@@V?$K2VectorAllocator@PAVCBoxRenderer@@@@@std@@QBEIXZ 170cb180 f i c_boxrenderer.obj
 0002:000141d0       ?size@?$vector@PAVCBoxRenderer@@V?$K2VectorAllocator@PAVCBoxRenderer@@@@@std@@QBEIXZ 170cb1d0 f i c_boxrenderer.obj
 0002:00014220       ?insert@?$vector@PAVCBoxRenderer@@V?$K2VectorAllocator@PAVCBoxRenderer@@@@@std@@QAE?AV?$_Vector_iterator@PAVCBoxRenderer@@V?$K2VectorAllocator@PAVCBoxRenderer@@@@@2@V32@ABQAVCBoxRenderer@@@Z 170cb220 f i c_boxrenderer.obj
 0002:00014390       ?begin@?$vector@PAVCBoxRenderer@@V?$K2VectorAllocator@PAVCBoxRenderer@@@@@std@@QAE?AV?$_Vector_iterator@PAVCBoxRenderer@@V?$K2VectorAllocator@PAVCBoxRenderer@@@@@2@XZ 170cb390 f i c_boxrenderer.obj
 0002:000143e0       ?_Ufill@?$vector@PAVCBoxRenderer@@V?$K2VectorAllocator@PAVCBoxRenderer@@@@@std@@IAEPAPAVCBoxRenderer@@PAPAV3@IABQAV3@@Z 170cb3e0 f i c_boxrenderer.obj
 0002:00014430       ?_Orphan_range@?$vector@PAVCBoxRenderer@@V?$K2VectorAllocator@PAVCBoxRenderer@@@@@std@@IBEXPAPAVCBoxRenderer@@0@Z 170cb430 f i c_boxrenderer.obj
 0002:000144d0       ??0?$_Vector_iterator@PAVCBoxRenderer@@V?$K2VectorAllocator@PAVCBoxRenderer@@@@@std@@QAE@PAPAVCBoxRenderer@@PBV_Container_base@1@@Z 170cb4d0 f i c_boxrenderer.obj
 0002:00014510       ??0?$_Vector_iterator@PAVCBoxRenderer@@V?$K2VectorAllocator@PAVCBoxRenderer@@@@@std@@QAE@ABV01@@Z 170cb510 f i c_boxrenderer.obj
 0002:00014540       ??0?$_Vector_const_iterator@PAVCBoxRenderer@@V?$K2VectorAllocator@PAVCBoxRenderer@@@@@std@@QAE@ABV01@@Z 170cb540 f i c_boxrenderer.obj
 0002:00014580       ??0?$_Ranit@PAVCBoxRenderer@@HPBQAV1@ABQAV1@@std@@QAE@ABU01@@Z 170cb580 f i c_boxrenderer.obj
 0002:000145b0       ?_Insert_n@?$vector@PAVCBoxRenderer@@V?$K2VectorAllocator@PAVCBoxRenderer@@@@@std@@IAEXV?$_Vector_iterator@PAVCBoxRenderer@@V?$K2VectorAllocator@PAVCBoxRenderer@@@@@2@IABQAVCBoxRenderer@@@Z 170cb5b0 f i c_boxrenderer.obj
 0002:00014a60       ?_Destroy@?$vector@PAVCBoxRenderer@@V?$K2VectorAllocator@PAVCBoxRenderer@@@@@std@@IAEXPAPAVCBoxRenderer@@0@Z 170cba60 f i c_boxrenderer.obj
 0002:00014aa0       ?deallocate@?$K2VectorAllocator@PAVCBoxRenderer@@@@QAEXPAPAVCBoxRenderer@@I@Z 170cbaa0 f i c_boxrenderer.obj
 0002:00014ae0       ??$_Destroy_range@PAVCBoxRenderer@@V?$K2VectorAllocator@PAVCBoxRenderer@@@@@std@@YAXPAPAVCBoxRenderer@@0AAV?$K2VectorAllocator@PAVCBoxRenderer@@@@@Z 170cbae0 f i c_boxrenderer.obj
 0002:00014b30       ??H?$_Vector_iterator@PAVCBoxRenderer@@V?$K2VectorAllocator@PAVCBoxRenderer@@@@@std@@QBE?AV01@H@Z 170cbb30 f i c_boxrenderer.obj
 0002:00014be0       ??G?$_Vector_iterator@PAVCBoxRenderer@@V?$K2VectorAllocator@PAVCBoxRenderer@@@@@std@@QBEHABV?$_Vector_const_iterator@PAVCBoxRenderer@@V?$K2VectorAllocator@PAVCBoxRenderer@@@@@1@@Z 170cbbe0 f i c_boxrenderer.obj
 0002:00014c10       ??0?$_Vector_const_iterator@PAVCBoxRenderer@@V?$K2VectorAllocator@PAVCBoxRenderer@@@@@std@@QAE@PAPAVCBoxRenderer@@PBV_Container_base@1@@Z 170cbc10 f i c_boxrenderer.obj
 0002:00014d10       ??0?$_Ranit@PAVCBoxRenderer@@HPBQAV1@ABQAV1@@std@@QAE@XZ 170cbd10 f i c_boxrenderer.obj
 0002:00014d40       ?max_size@?$vector@PAVCBoxRenderer@@V?$K2VectorAllocator@PAVCBoxRenderer@@@@@std@@QBEIXZ 170cbd40 f i c_boxrenderer.obj
 0002:00014d70       ?_Xlen@?$vector@PAVCBoxRenderer@@V?$K2VectorAllocator@PAVCBoxRenderer@@@@@std@@KAXXZ 170cbd70 f i c_boxrenderer.obj
 0002:00014e20       ?allocate@?$K2VectorAllocator@PAVCBoxRenderer@@@@QAEPAPAVCBoxRenderer@@I@Z 170cbe20 f i c_boxrenderer.obj
 0002:00014e70       ??Y?$_Vector_iterator@PAVCBoxRenderer@@V?$K2VectorAllocator@PAVCBoxRenderer@@@@@std@@QAEAAV01@H@Z 170cbe70 f i c_boxrenderer.obj
 0002:00014ea0       ??G?$_Vector_const_iterator@PAVCBoxRenderer@@V?$K2VectorAllocator@PAVCBoxRenderer@@@@@std@@QBEHABV01@@Z 170cbea0 f i c_boxrenderer.obj
 0002:00014ee0       ?_Compat@?$_Vector_const_iterator@PAVCBoxRenderer@@V?$K2VectorAllocator@PAVCBoxRenderer@@@@@std@@QBEXABV12@@Z 170cbee0 f i c_boxrenderer.obj
 0002:00014f90       ?max_size@?$allocator@PAVCBoxRenderer@@@std@@QBEIXZ 170cbf90 f i c_boxrenderer.obj
 0002:00014fd0       ??Y?$_Vector_const_iterator@PAVCBoxRenderer@@V?$K2VectorAllocator@PAVCBoxRenderer@@@@@std@@QAEAAV01@H@Z 170cbfd0 f i c_boxrenderer.obj
 0002:00015100       ??$_Ptr_cat@PAPAVCBoxRenderer@@PAPAV1@@std@@YA?AU_Scalar_ptr_iterator_tag@0@AAPAPAVCBoxRenderer@@0@Z 170cc100 f i c_boxrenderer.obj
 0002:00015120       ??$_Destroy_range@PAVCBoxRenderer@@V?$K2VectorAllocator@PAVCBoxRenderer@@@@@std@@YAXPAPAVCBoxRenderer@@0AAV?$K2VectorAllocator@PAVCBoxRenderer@@@@U_Scalar_ptr_iterator_tag@0@@Z 170cc120 f i c_boxrenderer.obj
 0002:00015140       ??$unchecked_uninitialized_fill_n@PAPAVCBoxRenderer@@IPAV1@V?$K2VectorAllocator@PAVCBoxRenderer@@@@@stdext@@YAXPAPAVCBoxRenderer@@IABQAV1@AAV?$K2VectorAllocator@PAVCBoxRenderer@@@@@Z 170cc140 f i c_boxrenderer.obj
 0002:000151a0       ??$_Umove@PAPAVCBoxRenderer@@@?$vector@PAVCBoxRenderer@@V?$K2VectorAllocator@PAVCBoxRenderer@@@@@std@@IAEPAPAVCBoxRenderer@@PAPAV2@00@Z 170cc1a0 f i c_boxrenderer.obj
 0002:000151e0       ??$fill@PAPAVCBoxRenderer@@PAV1@@std@@YAXPAPAVCBoxRenderer@@0ABQAV1@@Z 170cc1e0 f i c_boxrenderer.obj
 0002:00015230       ??$_Unchecked_move_backward@PAPAVCBoxRenderer@@PAPAV1@@stdext@@YAPAPAVCBoxRenderer@@PAPAV1@00@Z 170cc230 f i c_boxrenderer.obj
 0002:000152c0       ??$_Checked_base@PAPAVCBoxRenderer@@@std@@YAPAPAVCBoxRenderer@@AAPAPAV1@@Z 170cc2c0 f i c_boxrenderer.obj
 0002:000152f0       ??$_Iter_random@PAPAVCBoxRenderer@@PAPAV1@@std@@YA?AUrandom_access_iterator_tag@0@ABQAPAVCBoxRenderer@@0@Z 170cc2f0 f i c_boxrenderer.obj
 0002:00015310       ??$_Uninit_fill_n@PAPAVCBoxRenderer@@IPAV1@V?$K2VectorAllocator@PAVCBoxRenderer@@@@@std@@YAXPAPAVCBoxRenderer@@IABQAV1@AAV?$K2VectorAllocator@PAVCBoxRenderer@@@@U_Scalar_ptr_iterator_tag@0@U_Range_checked_iterator_tag@0@@Z 170cc310 f i c_boxrenderer.obj
 0002:00015340       ??$_Unchecked_uninitialized_move@PAPAVCBoxRenderer@@PAPAV1@V?$K2VectorAllocator@PAVCBoxRenderer@@@@@stdext@@YAPAPAVCBoxRenderer@@PAPAV1@00AAV?$K2VectorAllocator@PAVCBoxRenderer@@@@@Z 170cc340 f i c_boxrenderer.obj
 0002:000153b0       ??$_Fill@PAPAVCBoxRenderer@@PAV1@@std@@YAXPAPAVCBoxRenderer@@0ABQAV1@@Z 170cc3b0 f i c_boxrenderer.obj
 0002:00015410       ??$_Move_cat@PAPAVCBoxRenderer@@@std@@YA?AU_Undefined_move_tag@0@ABQAPAVCBoxRenderer@@@Z 170cc410 f i c_boxrenderer.obj
 0002:00015430       ??$_Move_backward_opt@PAPAVCBoxRenderer@@PAPAV1@Urandom_access_iterator_tag@std@@U_Undefined_move_tag@3@@std@@YAPAPAVCBoxRenderer@@PAPAV1@00Urandom_access_iterator_tag@0@U_Undefined_move_tag@0@U_Range_checked_iterator_tag@0@@Z 170cc430 f i c_boxrenderer.obj
 0002:00015490       ??$_Checked_base@PAPAVCBoxRenderer@@@std@@YAPAPAVCBoxRenderer@@AAPAPAV1@U_Unchanged_checked_iterator_base_type_tag@0@@Z 170cc490 f i c_boxrenderer.obj
 0002:000154b0       ??$_Debug_range@PAPAVCBoxRenderer@@@std@@YAXPAPAVCBoxRenderer@@0PB_WI@Z 170cc4b0 f i c_boxrenderer.obj
 0002:00015500       ??$unchecked_fill_n@PAPAVCBoxRenderer@@IPAV1@@stdext@@YAXPAPAVCBoxRenderer@@IABQAV1@@Z 170cc500 f i c_boxrenderer.obj
 0002:00015550       ??$_Uninit_move@PAPAVCBoxRenderer@@PAPAV1@V?$K2VectorAllocator@PAVCBoxRenderer@@@@U_Undefined_move_tag@std@@@std@@YAPAPAVCBoxRenderer@@PAPAV1@00AAV?$K2VectorAllocator@PAVCBoxRenderer@@@@U_Undefined_move_tag@0@U_Range_checked_iterator_tag@0@@Z 170cc550 f i c_boxrenderer.obj
 0002:00015590       ??$_Copy_backward_opt@PAPAVCBoxRenderer@@PAPAV1@Urandom_access_iterator_tag@std@@@std@@YAPAPAVCBoxRenderer@@PAPAV1@00Urandom_access_iterator_tag@0@U_Scalar_ptr_iterator_tag@0@U_Range_checked_iterator_tag@0@@Z 170cc590 f i c_boxrenderer.obj
 0002:00015640       ??$_Debug_pointer@PAVCBoxRenderer@@@std@@YAXPAPAVCBoxRenderer@@PB_WI@Z 170cc640 f i c_boxrenderer.obj
 0002:00015680       ??$_Iter_cat@PAPAVCBoxRenderer@@@std@@YA?AUrandom_access_iterator_tag@0@ABQAPAVCBoxRenderer@@@Z 170cc680 f i c_boxrenderer.obj
 0002:000156a0       ??$_Debug_range2@PAPAVCBoxRenderer@@@std@@YAXPAPAVCBoxRenderer@@0PB_WIUrandom_access_iterator_tag@0@@Z 170cc6a0 f i c_boxrenderer.obj
 0002:00015720       ??$_Fill_n@PAPAVCBoxRenderer@@IPAV1@@std@@YAXPAPAVCBoxRenderer@@IABQAV1@Urandom_access_iterator_tag@0@U_Range_checked_iterator_tag@0@@Z 170cc720 f i c_boxrenderer.obj
 0002:00015780       ??$unchecked_uninitialized_copy@PAPAVCBoxRenderer@@PAPAV1@V?$K2VectorAllocator@PAVCBoxRenderer@@@@@stdext@@YAPAPAVCBoxRenderer@@PAPAV1@00AAV?$K2VectorAllocator@PAVCBoxRenderer@@@@@Z 170cc780 f i c_boxrenderer.obj
 0002:000157f0       ??$_Fill_n@PAPAVCBoxRenderer@@IPAV1@@std@@YAXPAPAVCBoxRenderer@@IABQAV1@U_Range_checked_iterator_tag@0@@Z 170cc7f0 f i c_boxrenderer.obj
 0002:00015840       ??$_Uninit_copy@PAPAVCBoxRenderer@@PAPAV1@V?$K2VectorAllocator@PAVCBoxRenderer@@@@@std@@YAPAPAVCBoxRenderer@@PAPAV1@00AAV?$K2VectorAllocator@PAVCBoxRenderer@@@@U_Scalar_ptr_iterator_tag@0@U_Range_checked_iterator_tag@0@@Z 170cc840 f i c_boxrenderer.obj
 0002:000158e0       ??0?$CPool@VCBoxRenderer@@@@QAE@II@Z 170cc8e0 f i c_boxrenderer.obj
 0002:000159a0       ??0?$vector@PAVCBoxRenderer@@V?$K2VectorAllocator@PAVCBoxRenderer@@@@@@QAE@XZ 170cc9a0 f i c_boxrenderer.obj
 0002:000159d0       ??0?$vector@PAVCBoxRenderer@@V?$K2VectorAllocator@PAVCBoxRenderer@@@@@std@@QAE@XZ 170cc9d0 f i c_boxrenderer.obj
 0002:00015a60       ??1?$_Vector_val@PAVCBoxRenderer@@V?$K2VectorAllocator@PAVCBoxRenderer@@@@@std@@QAE@XZ 170cca60 f i c_boxrenderer.obj
 0002:00015ae0       ??1?$K2VectorAllocator@PAVCBoxRenderer@@@@QAE@XZ 170ccae0 f i c_boxrenderer.obj
 0002:00015b00       ?_Buy@?$vector@PAVCBoxRenderer@@V?$K2VectorAllocator@PAVCBoxRenderer@@@@@std@@IAE_NI@Z 170ccb00 f i c_boxrenderer.obj
 0002:00015bb0       ??0?$_Vector_val@PAVCBoxRenderer@@V?$K2VectorAllocator@PAVCBoxRenderer@@@@@std@@IAE@V?$K2VectorAllocator@PAVCBoxRenderer@@@@@Z 170ccbb0 f i c_boxrenderer.obj
 0002:00015c50       ??0?$K2VectorAllocator@PAVCBoxRenderer@@@@QAE@XZ 170ccc50 f i c_boxrenderer.obj
 0002:00015c80       ??0?$K2VectorAllocator@PAVCBoxRenderer@@@@QAE@ABV0@@Z 170ccc80 f i c_boxrenderer.obj
 0002:00015cb0       ??0?$allocator@PAVCBoxRenderer@@@std@@QAE@XZ 170cccb0 f i c_boxrenderer.obj
 0002:00015cd0       ??0?$allocator@PAVCBoxRenderer@@@std@@QAE@ABV01@@Z 170cccd0 f i c_boxrenderer.obj
 0002:00015cf0       ??1?$CPool@VCBoxRenderer@@@@QAE@XZ 170cccf0 f i c_boxrenderer.obj
 0002:00015da0       ??1?$vector@PAVCBoxRenderer@@V?$K2VectorAllocator@PAVCBoxRenderer@@@@@@QAE@XZ 170ccda0 f i c_boxrenderer.obj
 0002:00015dd0       ??1?$vector@PAVCBoxRenderer@@V?$K2VectorAllocator@PAVCBoxRenderer@@@@@std@@QAE@XZ 170ccdd0 f i c_boxrenderer.obj
 0002:00015e50       ?_Tidy@?$vector@PAVCBoxRenderer@@V?$K2VectorAllocator@PAVCBoxRenderer@@@@@std@@IAEXXZ 170cce50 f i c_boxrenderer.obj
 0002:00015ef0       ?Reset@?$CPool@VCBoxRenderer@@@@QAEXXZ 170ccef0 f i c_boxrenderer.obj
 0002:00016010       ?clear@?$vector@PAVCBoxRenderer@@V?$K2VectorAllocator@PAVCBoxRenderer@@@@@std@@QAEXXZ 170cd010 f i c_boxrenderer.obj
 0002:000160d0       ??D?$_Vector_iterator@PAVCBoxRenderer@@V?$K2VectorAllocator@PAVCBoxRenderer@@@@@std@@QBEAAPAVCBoxRenderer@@XZ 170cd0d0 f i c_boxrenderer.obj
 0002:00016100       ??E?$_Vector_iterator@PAVCBoxRenderer@@V?$K2VectorAllocator@PAVCBoxRenderer@@@@@std@@QAEAAV01@XZ 170cd100 f i c_boxrenderer.obj
 0002:00016130       ??9?$_Vector_const_iterator@PAVCBoxRenderer@@V?$K2VectorAllocator@PAVCBoxRenderer@@@@@std@@QBE_NABV01@@Z 170cd130 f i c_boxrenderer.obj
 0002:00016170       ?erase@?$vector@PAVCBoxRenderer@@V?$K2VectorAllocator@PAVCBoxRenderer@@@@@std@@QAE?AV?$_Vector_iterator@PAVCBoxRenderer@@V?$K2VectorAllocator@PAVCBoxRenderer@@@@@2@V32@0@Z 170cd170 f i c_boxrenderer.obj
 0002:000162f0       ??D?$_Vector_const_iterator@PAVCBoxRenderer@@V?$K2VectorAllocator@PAVCBoxRenderer@@@@@std@@QBEABQAVCBoxRenderer@@XZ 170cd2f0 f i c_boxrenderer.obj
 0002:000163b0       ??E?$_Vector_const_iterator@PAVCBoxRenderer@@V?$K2VectorAllocator@PAVCBoxRenderer@@@@@std@@QAEAAV01@XZ 170cd3b0 f i c_boxrenderer.obj
 0002:000164a0       ??8?$_Vector_const_iterator@PAVCBoxRenderer@@V?$K2VectorAllocator@PAVCBoxRenderer@@@@@std@@QBE_NABV01@@Z 170cd4a0 f i c_boxrenderer.obj
 0002:000164e0       ??M?$_Vector_const_iterator@PAVCBoxRenderer@@V?$K2VectorAllocator@PAVCBoxRenderer@@@@@std@@QBE_NABV01@@Z 170cd4e0 f i c_boxrenderer.obj
 0002:00016520       ??$unchecked_copy@PAPAVCBoxRenderer@@PAPAV1@@stdext@@YAPAPAVCBoxRenderer@@PAPAV1@00@Z 170cd520 f i c_boxrenderer.obj
 0002:000165b0       ??$_Copy_opt@PAPAVCBoxRenderer@@PAPAV1@Urandom_access_iterator_tag@std@@@std@@YAPAPAVCBoxRenderer@@PAPAV1@00Urandom_access_iterator_tag@0@U_Scalar_ptr_iterator_tag@0@U_Range_checked_iterator_tag@0@@Z 170cd5b0 f i c_boxrenderer.obj
 0002:00016660       ??2CEffectTriangleRenderer@@SAPAXIPBD00F@Z 170cd660 f   c_effecttrianglerenderer.obj
 0002:00016680       ??0CEffectTriangleRenderer@@QAE@IIIHM@Z 170cd680 f   c_effecttrianglerenderer.obj
 0002:000166d0       ??_GCEffectTriangleRenderer@@UAEPAXI@Z 170cd6d0 f i c_effecttrianglerenderer.obj
 0002:000166d0       ??_ECEffectTriangleRenderer@@UAEPAXI@Z 170cd6d0 f i c_effecttrianglerenderer.obj
 0002:00016720       ??3CEffectTriangleRenderer@@SAXPAX@Z 170cd720 f i c_effecttrianglerenderer.obj
 0002:00016740       ??1CEffectTriangleRenderer@@UAE@XZ 170cd740 f   c_effecttrianglerenderer.obj
 0002:00016770       ?Render@CEffectTriangleRenderer@@UAEXW4EMaterialPhase@@@Z 170cd770 f   c_effecttrianglerenderer.obj
 0002:00016950       ?Allocate@?$CPool@VCEffectTriangleRenderer@@@@QAEPAVCEffectTriangleRenderer@@XZ 170cd950 f i c_effecttrianglerenderer.obj
 0002:00016ae0       ?push_back@?$vector@PAVCEffectTriangleRenderer@@V?$K2VectorAllocator@PAVCEffectTriangleRenderer@@@@@std@@QAEXABQAVCEffectTriangleRenderer@@@Z 170cdae0 f i c_effecttrianglerenderer.obj
 0002:00016b90       ??1?$_Vector_iterator@PAVCEffectTriangleRenderer@@V?$K2VectorAllocator@PAVCEffectTriangleRenderer@@@@@std@@QAE@XZ 170cdb90 f i c_effecttrianglerenderer.obj
 0002:00016bc0       ??1?$_Vector_const_iterator@PAVCEffectTriangleRenderer@@V?$K2VectorAllocator@PAVCEffectTriangleRenderer@@@@@std@@QAE@XZ 170cdbc0 f i c_effecttrianglerenderer.obj
 0002:00016bf0       ??1?$_Ranit@PAVCEffectTriangleRenderer@@HPBQAV1@ABQAV1@@std@@QAE@XZ 170cdbf0 f i c_effecttrianglerenderer.obj
 0002:00016c20       ?end@?$vector@PAVCEffectTriangleRenderer@@V?$K2VectorAllocator@PAVCEffectTriangleRenderer@@@@@std@@QAE?AV?$_Vector_iterator@PAVCEffectTriangleRenderer@@V?$K2VectorAllocator@PAVCEffectTriangleRenderer@@@@@2@XZ 170cdc20 f i c_effecttrianglerenderer.obj
 0002:00016c70       ?capacity@?$vector@PAVCEffectTriangleRenderer@@V?$K2VectorAllocator@PAVCEffectTriangleRenderer@@@@@std@@QBEIXZ 170cdc70 f i c_effecttrianglerenderer.obj
 0002:00016cc0       ?size@?$vector@PAVCEffectTriangleRenderer@@V?$K2VectorAllocator@PAVCEffectTriangleRenderer@@@@@std@@QBEIXZ 170cdcc0 f i c_effecttrianglerenderer.obj
 0002:00016d10       ?insert@?$vector@PAVCEffectTriangleRenderer@@V?$K2VectorAllocator@PAVCEffectTriangleRenderer@@@@@std@@QAE?AV?$_Vector_iterator@PAVCEffectTriangleRenderer@@V?$K2VectorAllocator@PAVCEffectTriangleRenderer@@@@@2@V32@ABQAVCEffectTriangleRenderer@@@Z 170cdd10 f i c_effecttrianglerenderer.obj
 0002:00016e80       ?begin@?$vector@PAVCEffectTriangleRenderer@@V?$K2VectorAllocator@PAVCEffectTriangleRenderer@@@@@std@@QAE?AV?$_Vector_iterator@PAVCEffectTriangleRenderer@@V?$K2VectorAllocator@PAVCEffectTriangleRenderer@@@@@2@XZ 170cde80 f i c_effecttrianglerenderer.obj
 0002:00016ed0       ?_Ufill@?$vector@PAVCEffectTriangleRenderer@@V?$K2VectorAllocator@PAVCEffectTriangleRenderer@@@@@std@@IAEPAPAVCEffectTriangleRenderer@@PAPAV3@IABQAV3@@Z 170cded0 f i c_effecttrianglerenderer.obj
 0002:00016f20       ?_Orphan_range@?$vector@PAVCEffectTriangleRenderer@@V?$K2VectorAllocator@PAVCEffectTriangleRenderer@@@@@std@@IBEXPAPAVCEffectTriangleRenderer@@0@Z 170cdf20 f i c_effecttrianglerenderer.obj
 0002:00016fc0       ??0?$_Vector_iterator@PAVCEffectTriangleRenderer@@V?$K2VectorAllocator@PAVCEffectTriangleRenderer@@@@@std@@QAE@PAPAVCEffectTriangleRenderer@@PBV_Container_base@1@@Z 170cdfc0 f i c_effecttrianglerenderer.obj
 0002:00017000       ??0?$_Vector_iterator@PAVCEffectTriangleRenderer@@V?$K2VectorAllocator@PAVCEffectTriangleRenderer@@@@@std@@QAE@ABV01@@Z 170ce000 f i c_effecttrianglerenderer.obj
 0002:00017030       ??0?$_Vector_const_iterator@PAVCEffectTriangleRenderer@@V?$K2VectorAllocator@PAVCEffectTriangleRenderer@@@@@std@@QAE@ABV01@@Z 170ce030 f i c_effecttrianglerenderer.obj
 0002:00017070       ??0?$_Ranit@PAVCEffectTriangleRenderer@@HPBQAV1@ABQAV1@@std@@QAE@ABU01@@Z 170ce070 f i c_effecttrianglerenderer.obj
 0002:000170a0       ?_Insert_n@?$vector@PAVCEffectTriangleRenderer@@V?$K2VectorAllocator@PAVCEffectTriangleRenderer@@@@@std@@IAEXV?$_Vector_iterator@PAVCEffectTriangleRenderer@@V?$K2VectorAllocator@PAVCEffectTriangleRenderer@@@@@2@IABQAVCEffectTriangleRenderer@@@Z 170ce0a0 f i c_effecttrianglerenderer.obj
 0002:00017550       ?_Destroy@?$vector@PAVCEffectTriangleRenderer@@V?$K2VectorAllocator@PAVCEffectTriangleRenderer@@@@@std@@IAEXPAPAVCEffectTriangleRenderer@@0@Z 170ce550 f i c_effecttrianglerenderer.obj
 0002:00017590       ?deallocate@?$K2VectorAllocator@PAVCEffectTriangleRenderer@@@@QAEXPAPAVCEffectTriangleRenderer@@I@Z 170ce590 f i c_effecttrianglerenderer.obj
 0002:000175d0       ??$_Destroy_range@PAVCEffectTriangleRenderer@@V?$K2VectorAllocator@PAVCEffectTriangleRenderer@@@@@std@@YAXPAPAVCEffectTriangleRenderer@@0AAV?$K2VectorAllocator@PAVCEffectTriangleRenderer@@@@@Z 170ce5d0 f i c_effecttrianglerenderer.obj
 0002:00017620       ??H?$_Vector_iterator@PAVCEffectTriangleRenderer@@V?$K2VectorAllocator@PAVCEffectTriangleRenderer@@@@@std@@QBE?AV01@H@Z 170ce620 f i c_effecttrianglerenderer.obj
 0002:000176d0       ??G?$_Vector_iterator@PAVCEffectTriangleRenderer@@V?$K2VectorAllocator@PAVCEffectTriangleRenderer@@@@@std@@QBEHABV?$_Vector_const_iterator@PAVCEffectTriangleRenderer@@V?$K2VectorAllocator@PAVCEffectTriangleRenderer@@@@@1@@Z 170ce6d0 f i c_effecttrianglerenderer.obj
 0002:00017700       ??0?$_Vector_const_iterator@PAVCEffectTriangleRenderer@@V?$K2VectorAllocator@PAVCEffectTriangleRenderer@@@@@std@@QAE@PAPAVCEffectTriangleRenderer@@PBV_Container_base@1@@Z 170ce700 f i c_effecttrianglerenderer.obj
 0002:00017800       ??0?$_Ranit@PAVCEffectTriangleRenderer@@HPBQAV1@ABQAV1@@std@@QAE@XZ 170ce800 f i c_effecttrianglerenderer.obj
 0002:00017830       ?max_size@?$vector@PAVCEffectTriangleRenderer@@V?$K2VectorAllocator@PAVCEffectTriangleRenderer@@@@@std@@QBEIXZ 170ce830 f i c_effecttrianglerenderer.obj
 0002:00017860       ?_Xlen@?$vector@PAVCEffectTriangleRenderer@@V?$K2VectorAllocator@PAVCEffectTriangleRenderer@@@@@std@@KAXXZ 170ce860 f i c_effecttrianglerenderer.obj
 0002:00017910       ?allocate@?$K2VectorAllocator@PAVCEffectTriangleRenderer@@@@QAEPAPAVCEffectTriangleRenderer@@I@Z 170ce910 f i c_effecttrianglerenderer.obj
 0002:00017960       ??Y?$_Vector_iterator@PAVCEffectTriangleRenderer@@V?$K2VectorAllocator@PAVCEffectTriangleRenderer@@@@@std@@QAEAAV01@H@Z 170ce960 f i c_effecttrianglerenderer.obj
 0002:00017990       ??G?$_Vector_const_iterator@PAVCEffectTriangleRenderer@@V?$K2VectorAllocator@PAVCEffectTriangleRenderer@@@@@std@@QBEHABV01@@Z 170ce990 f i c_effecttrianglerenderer.obj
 0002:000179d0       ?_Compat@?$_Vector_const_iterator@PAVCEffectTriangleRenderer@@V?$K2VectorAllocator@PAVCEffectTriangleRenderer@@@@@std@@QBEXABV12@@Z 170ce9d0 f i c_effecttrianglerenderer.obj
 0002:00017a80       ?max_size@?$allocator@PAVCEffectTriangleRenderer@@@std@@QBEIXZ 170cea80 f i c_effecttrianglerenderer.obj
 0002:00017ac0       ??Y?$_Vector_const_iterator@PAVCEffectTriangleRenderer@@V?$K2VectorAllocator@PAVCEffectTriangleRenderer@@@@@std@@QAEAAV01@H@Z 170ceac0 f i c_effecttrianglerenderer.obj
 0002:00017bf0       ??$_Ptr_cat@PAPAVCEffectTriangleRenderer@@PAPAV1@@std@@YA?AU_Scalar_ptr_iterator_tag@0@AAPAPAVCEffectTriangleRenderer@@0@Z 170cebf0 f i c_effecttrianglerenderer.obj
 0002:00017c10       ??$_Destroy_range@PAVCEffectTriangleRenderer@@V?$K2VectorAllocator@PAVCEffectTriangleRenderer@@@@@std@@YAXPAPAVCEffectTriangleRenderer@@0AAV?$K2VectorAllocator@PAVCEffectTriangleRenderer@@@@U_Scalar_ptr_iterator_tag@0@@Z 170cec10 f i c_effecttrianglerenderer.obj
 0002:00017c30       ??$unchecked_uninitialized_fill_n@PAPAVCEffectTriangleRenderer@@IPAV1@V?$K2VectorAllocator@PAVCEffectTriangleRenderer@@@@@stdext@@YAXPAPAVCEffectTriangleRenderer@@IABQAV1@AAV?$K2VectorAllocator@PAVCEffectTriangleRenderer@@@@@Z 170cec30 f i c_effecttrianglerenderer.obj
 0002:00017c90       ??$_Umove@PAPAVCEffectTriangleRenderer@@@?$vector@PAVCEffectTriangleRenderer@@V?$K2VectorAllocator@PAVCEffectTriangleRenderer@@@@@std@@IAEPAPAVCEffectTriangleRenderer@@PAPAV2@00@Z 170cec90 f i c_effecttrianglerenderer.obj
 0002:00017cd0       ??$fill@PAPAVCEffectTriangleRenderer@@PAV1@@std@@YAXPAPAVCEffectTriangleRenderer@@0ABQAV1@@Z 170cecd0 f i c_effecttrianglerenderer.obj
 0002:00017d20       ??$_Unchecked_move_backward@PAPAVCEffectTriangleRenderer@@PAPAV1@@stdext@@YAPAPAVCEffectTriangleRenderer@@PAPAV1@00@Z 170ced20 f i c_effecttrianglerenderer.obj
 0002:00017db0       ??$_Checked_base@PAPAVCEffectTriangleRenderer@@@std@@YAPAPAVCEffectTriangleRenderer@@AAPAPAV1@@Z 170cedb0 f i c_effecttrianglerenderer.obj
 0002:00017de0       ??$_Iter_random@PAPAVCEffectTriangleRenderer@@PAPAV1@@std@@YA?AUrandom_access_iterator_tag@0@ABQAPAVCEffectTriangleRenderer@@0@Z 170cede0 f i c_effecttrianglerenderer.obj
 0002:00017e00       ??$_Uninit_fill_n@PAPAVCEffectTriangleRenderer@@IPAV1@V?$K2VectorAllocator@PAVCEffectTriangleRenderer@@@@@std@@YAXPAPAVCEffectTriangleRenderer@@IABQAV1@AAV?$K2VectorAllocator@PAVCEffectTriangleRenderer@@@@U_Scalar_ptr_iterator_tag@0@U_Range_checked_iterator_tag@0@@Z 170cee00 f i c_effecttrianglerenderer.obj
 0002:00017e30       ??$_Unchecked_uninitialized_move@PAPAVCEffectTriangleRenderer@@PAPAV1@V?$K2VectorAllocator@PAVCEffectTriangleRenderer@@@@@stdext@@YAPAPAVCEffectTriangleRenderer@@PAPAV1@00AAV?$K2VectorAllocator@PAVCEffectTriangleRenderer@@@@@Z 170cee30 f i c_effecttrianglerenderer.obj
 0002:00017ea0       ??$_Fill@PAPAVCEffectTriangleRenderer@@PAV1@@std@@YAXPAPAVCEffectTriangleRenderer@@0ABQAV1@@Z 170ceea0 f i c_effecttrianglerenderer.obj
 0002:00017f00       ??$_Move_cat@PAPAVCEffectTriangleRenderer@@@std@@YA?AU_Undefined_move_tag@0@ABQAPAVCEffectTriangleRenderer@@@Z 170cef00 f i c_effecttrianglerenderer.obj
 0002:00017f20       ??$_Move_backward_opt@PAPAVCEffectTriangleRenderer@@PAPAV1@Urandom_access_iterator_tag@std@@U_Undefined_move_tag@3@@std@@YAPAPAVCEffectTriangleRenderer@@PAPAV1@00Urandom_access_iterator_tag@0@U_Undefined_move_tag@0@U_Range_checked_iterator_tag@0@@Z 170cef20 f i c_effecttrianglerenderer.obj
 0002:00017f80       ??$_Checked_base@PAPAVCEffectTriangleRenderer@@@std@@YAPAPAVCEffectTriangleRenderer@@AAPAPAV1@U_Unchanged_checked_iterator_base_type_tag@0@@Z 170cef80 f i c_effecttrianglerenderer.obj
 0002:00017fa0       ??$_Debug_range@PAPAVCEffectTriangleRenderer@@@std@@YAXPAPAVCEffectTriangleRenderer@@0PB_WI@Z 170cefa0 f i c_effecttrianglerenderer.obj
 0002:00017ff0       ??$unchecked_fill_n@PAPAVCEffectTriangleRenderer@@IPAV1@@stdext@@YAXPAPAVCEffectTriangleRenderer@@IABQAV1@@Z 170ceff0 f i c_effecttrianglerenderer.obj
 0002:00018040       ??$_Uninit_move@PAPAVCEffectTriangleRenderer@@PAPAV1@V?$K2VectorAllocator@PAVCEffectTriangleRenderer@@@@U_Undefined_move_tag@std@@@std@@YAPAPAVCEffectTriangleRenderer@@PAPAV1@00AAV?$K2VectorAllocator@PAVCEffectTriangleRenderer@@@@U_Undefined_move_tag@0@U_Range_checked_iterator_tag@0@@Z 170cf040 f i c_effecttrianglerenderer.obj
 0002:00018080       ??$_Copy_backward_opt@PAPAVCEffectTriangleRenderer@@PAPAV1@Urandom_access_iterator_tag@std@@@std@@YAPAPAVCEffectTriangleRenderer@@PAPAV1@00Urandom_access_iterator_tag@0@U_Scalar_ptr_iterator_tag@0@U_Range_checked_iterator_tag@0@@Z 170cf080 f i c_effecttrianglerenderer.obj
 0002:00018130       ??$_Debug_pointer@PAVCEffectTriangleRenderer@@@std@@YAXPAPAVCEffectTriangleRenderer@@PB_WI@Z 170cf130 f i c_effecttrianglerenderer.obj
 0002:00018170       ??$_Iter_cat@PAPAVCEffectTriangleRenderer@@@std@@YA?AUrandom_access_iterator_tag@0@ABQAPAVCEffectTriangleRenderer@@@Z 170cf170 f i c_effecttrianglerenderer.obj
 0002:00018190       ??$_Debug_range2@PAPAVCEffectTriangleRenderer@@@std@@YAXPAPAVCEffectTriangleRenderer@@0PB_WIUrandom_access_iterator_tag@0@@Z 170cf190 f i c_effecttrianglerenderer.obj
 0002:00018210       ??$_Fill_n@PAPAVCEffectTriangleRenderer@@IPAV1@@std@@YAXPAPAVCEffectTriangleRenderer@@IABQAV1@Urandom_access_iterator_tag@0@U_Range_checked_iterator_tag@0@@Z 170cf210 f i c_effecttrianglerenderer.obj
 0002:00018270       ??$unchecked_uninitialized_copy@PAPAVCEffectTriangleRenderer@@PAPAV1@V?$K2VectorAllocator@PAVCEffectTriangleRenderer@@@@@stdext@@YAPAPAVCEffectTriangleRenderer@@PAPAV1@00AAV?$K2VectorAllocator@PAVCEffectTriangleRenderer@@@@@Z 170cf270 f i c_effecttrianglerenderer.obj
 0002:000182e0       ??$_Fill_n@PAPAVCEffectTriangleRenderer@@IPAV1@@std@@YAXPAPAVCEffectTriangleRenderer@@IABQAV1@U_Range_checked_iterator_tag@0@@Z 170cf2e0 f i c_effecttrianglerenderer.obj
 0002:00018330       ??$_Uninit_copy@PAPAVCEffectTriangleRenderer@@PAPAV1@V?$K2VectorAllocator@PAVCEffectTriangleRenderer@@@@@std@@YAPAPAVCEffectTriangleRenderer@@PAPAV1@00AAV?$K2VectorAllocator@PAVCEffectTriangleRenderer@@@@U_Scalar_ptr_iterator_tag@0@U_Range_checked_iterator_tag@0@@Z 170cf330 f i c_effecttrianglerenderer.obj
 0002:000183d0       ??0?$CPool@VCEffectTriangleRenderer@@@@QAE@II@Z 170cf3d0 f i c_effecttrianglerenderer.obj
 0002:00018490       ??0?$vector@PAVCEffectTriangleRenderer@@V?$K2VectorAllocator@PAVCEffectTriangleRenderer@@@@@@QAE@XZ 170cf490 f i c_effecttrianglerenderer.obj
 0002:000184c0       ??0?$vector@PAVCEffectTriangleRenderer@@V?$K2VectorAllocator@PAVCEffectTriangleRenderer@@@@@std@@QAE@XZ 170cf4c0 f i c_effecttrianglerenderer.obj
 0002:00018550       ??1?$_Vector_val@PAVCEffectTriangleRenderer@@V?$K2VectorAllocator@PAVCEffectTriangleRenderer@@@@@std@@QAE@XZ 170cf550 f i c_effecttrianglerenderer.obj
 0002:000185d0       ??1?$K2VectorAllocator@PAVCEffectTriangleRenderer@@@@QAE@XZ 170cf5d0 f i c_effecttrianglerenderer.obj
 0002:000185f0       ?_Buy@?$vector@PAVCEffectTriangleRenderer@@V?$K2VectorAllocator@PAVCEffectTriangleRenderer@@@@@std@@IAE_NI@Z 170cf5f0 f i c_effecttrianglerenderer.obj
 0002:000186a0       ??0?$_Vector_val@PAVCEffectTriangleRenderer@@V?$K2VectorAllocator@PAVCEffectTriangleRenderer@@@@@std@@IAE@V?$K2VectorAllocator@PAVCEffectTriangleRenderer@@@@@Z 170cf6a0 f i c_effecttrianglerenderer.obj
 0002:00018740       ??0?$K2VectorAllocator@PAVCEffectTriangleRenderer@@@@QAE@XZ 170cf740 f i c_effecttrianglerenderer.obj
 0002:00018770       ??0?$K2VectorAllocator@PAVCEffectTriangleRenderer@@@@QAE@ABV0@@Z 170cf770 f i c_effecttrianglerenderer.obj
 0002:000187a0       ??0?$allocator@PAVCEffectTriangleRenderer@@@std@@QAE@XZ 170cf7a0 f i c_effecttrianglerenderer.obj
 0002:000187c0       ??0?$allocator@PAVCEffectTriangleRenderer@@@std@@QAE@ABV01@@Z 170cf7c0 f i c_effecttrianglerenderer.obj
 0002:000187e0       ??1?$CPool@VCEffectTriangleRenderer@@@@QAE@XZ 170cf7e0 f i c_effecttrianglerenderer.obj
 0002:00018890       ??1?$vector@PAVCEffectTriangleRenderer@@V?$K2VectorAllocator@PAVCEffectTriangleRenderer@@@@@@QAE@XZ 170cf890 f i c_effecttrianglerenderer.obj
 0002:000188c0       ??1?$vector@PAVCEffectTriangleRenderer@@V?$K2VectorAllocator@PAVCEffectTriangleRenderer@@@@@std@@QAE@XZ 170cf8c0 f i c_effecttrianglerenderer.obj
 0002:00018940       ?_Tidy@?$vector@PAVCEffectTriangleRenderer@@V?$K2VectorAllocator@PAVCEffectTriangleRenderer@@@@@std@@IAEXXZ 170cf940 f i c_effecttrianglerenderer.obj
 0002:000189e0       ?Reset@?$CPool@VCEffectTriangleRenderer@@@@QAEXXZ 170cf9e0 f i c_effecttrianglerenderer.obj
 0002:00018b00       ?clear@?$vector@PAVCEffectTriangleRenderer@@V?$K2VectorAllocator@PAVCEffectTriangleRenderer@@@@@std@@QAEXXZ 170cfb00 f i c_effecttrianglerenderer.obj
 0002:00018bc0       ??D?$_Vector_iterator@PAVCEffectTriangleRenderer@@V?$K2VectorAllocator@PAVCEffectTriangleRenderer@@@@@std@@QBEAAPAVCEffectTriangleRenderer@@XZ 170cfbc0 f i c_effecttrianglerenderer.obj
 0002:00018bf0       ??E?$_Vector_iterator@PAVCEffectTriangleRenderer@@V?$K2VectorAllocator@PAVCEffectTriangleRenderer@@@@@std@@QAEAAV01@XZ 170cfbf0 f i c_effecttrianglerenderer.obj
 0002:00018c20       ??9?$_Vector_const_iterator@PAVCEffectTriangleRenderer@@V?$K2VectorAllocator@PAVCEffectTriangleRenderer@@@@@std@@QBE_NABV01@@Z 170cfc20 f i c_effecttrianglerenderer.obj
 0002:00018c60       ?erase@?$vector@PAVCEffectTriangleRenderer@@V?$K2VectorAllocator@PAVCEffectTriangleRenderer@@@@@std@@QAE?AV?$_Vector_iterator@PAVCEffectTriangleRenderer@@V?$K2VectorAllocator@PAVCEffectTriangleRenderer@@@@@2@V32@0@Z 170cfc60 f i c_effecttrianglerenderer.obj
 0002:00018de0       ??D?$_Vector_const_iterator@PAVCEffectTriangleRenderer@@V?$K2VectorAllocator@PAVCEffectTriangleRenderer@@@@@std@@QBEABQAVCEffectTriangleRenderer@@XZ 170cfde0 f i c_effecttrianglerenderer.obj
 0002:00018ea0       ??E?$_Vector_const_iterator@PAVCEffectTriangleRenderer@@V?$K2VectorAllocator@PAVCEffectTriangleRenderer@@@@@std@@QAEAAV01@XZ 170cfea0 f i c_effecttrianglerenderer.obj
 0002:00018f90       ??8?$_Vector_const_iterator@PAVCEffectTriangleRenderer@@V?$K2VectorAllocator@PAVCEffectTriangleRenderer@@@@@std@@QBE_NABV01@@Z 170cff90 f i c_effecttrianglerenderer.obj
 0002:00018fd0       ??M?$_Vector_const_iterator@PAVCEffectTriangleRenderer@@V?$K2VectorAllocator@PAVCEffectTriangleRenderer@@@@@std@@QBE_NABV01@@Z 170cffd0 f i c_effecttrianglerenderer.obj
 0002:00019010       ??$unchecked_copy@PAPAVCEffectTriangleRenderer@@PAPAV1@@stdext@@YAPAPAVCEffectTriangleRenderer@@PAPAV1@00@Z 170d0010 f i c_effecttrianglerenderer.obj
 0002:000190a0       ??$_Copy_opt@PAPAVCEffectTriangleRenderer@@PAPAV1@Urandom_access_iterator_tag@std@@@std@@YAPAPAVCEffectTriangleRenderer@@PAPAV1@00Urandom_access_iterator_tag@0@U_Scalar_ptr_iterator_tag@0@U_Range_checked_iterator_tag@0@@Z 170d00a0 f i c_effecttrianglerenderer.obj
 0002:00019150       ??2CFoliageRenderer@@SAPAXIPBD00F@Z 170d0150 f   c_foliagerenderer.obj
 0002:00019170       ??0CFoliageRenderer@@QAE@HHW4EFoliageRenderOrder@@H@Z 170d0170 f   c_foliagerenderer.obj
 0002:000191e0       ??_GCFoliageRenderer@@UAEPAXI@Z 170d01e0 f i c_foliagerenderer.obj
 0002:000191e0       ??_ECFoliageRenderer@@UAEPAXI@Z 170d01e0 f i c_foliagerenderer.obj
 0002:00019230       ??3CFoliageRenderer@@SAXPAX@Z 170d0230 f i c_foliagerenderer.obj
 0002:00019250       ??1CFoliageRenderer@@UAE@XZ 170d0250 f   c_foliagerenderer.obj
 0002:00019280       ?Setup@CFoliageRenderer@@UAEXW4EMaterialPhase@@@Z 170d0280 f   c_foliagerenderer.obj
 0002:000197d0       ??1?$_Vector_iterator@PAUSSceneLightEntry@@V?$K2VectorAllocator@PAUSSceneLightEntry@@@@@std@@QAE@XZ 170d07d0 f i c_foliagerenderer.obj
 0002:00019800       ??1?$_Vector_const_iterator@PAUSSceneLightEntry@@V?$K2VectorAllocator@PAUSSceneLightEntry@@@@@std@@QAE@XZ 170d0800 f i c_foliagerenderer.obj
 0002:00019830       ??1?$_Ranit@PAUSSceneLightEntry@@HPBQAU1@ABQAU1@@std@@QAE@XZ 170d0830 f i c_foliagerenderer.obj
 0002:00019860       ?RenderChunk@CFoliageRenderer@@AAEXW4EMaterialPhase@@@Z 170d0860 f   c_foliagerenderer.obj
 0002:00019d60       ?Render@CFoliageRenderer@@UAEXW4EMaterialPhase@@@Z 170d0d60 f   c_foliagerenderer.obj
 0002:00019db0       ??B?$CCvar@HH@@QBEHXZ      170d0db0 f i c_foliagerenderer.obj
 0002:00019de0       ??B?$CCvar@_N_N@@QBE_NXZ   170d0de0 f i c_foliagerenderer.obj
 0002:00019e10       ?begin@?$vector@PAUSSceneLightEntry@@V?$K2VectorAllocator@PAUSSceneLightEntry@@@@@std@@QAE?AV?$_Vector_iterator@PAUSSceneLightEntry@@V?$K2VectorAllocator@PAUSSceneLightEntry@@@@@2@XZ 170d0e10 f i c_foliagerenderer.obj
 0002:00019e60       ?end@?$vector@PAUSSceneLightEntry@@V?$K2VectorAllocator@PAUSSceneLightEntry@@@@@std@@QAE?AV?$_Vector_iterator@PAUSSceneLightEntry@@V?$K2VectorAllocator@PAUSSceneLightEntry@@@@@2@XZ 170d0e60 f i c_foliagerenderer.obj
 0002:00019eb0       ??D?$_Vector_iterator@PAUSSceneLightEntry@@V?$K2VectorAllocator@PAUSSceneLightEntry@@@@@std@@QBEAAPAUSSceneLightEntry@@XZ 170d0eb0 f i c_foliagerenderer.obj
 0002:00019ee0       ??E?$_Vector_iterator@PAUSSceneLightEntry@@V?$K2VectorAllocator@PAUSSceneLightEntry@@@@@std@@QAEAAV01@XZ 170d0ee0 f i c_foliagerenderer.obj
 0002:00019f10       ??9?$_Vector_const_iterator@PAUSSceneLightEntry@@V?$K2VectorAllocator@PAUSSceneLightEntry@@@@@std@@QBE_NABV01@@Z 170d0f10 f i c_foliagerenderer.obj
 0002:00019f50       ??0?$_Vector_iterator@PAUSSceneLightEntry@@V?$K2VectorAllocator@PAUSSceneLightEntry@@@@@std@@QAE@PAPAUSSceneLightEntry@@PBV_Container_base@1@@Z 170d0f50 f i c_foliagerenderer.obj
 0002:00019f90       ??D?$_Vector_const_iterator@PAUSSceneLightEntry@@V?$K2VectorAllocator@PAUSSceneLightEntry@@@@@std@@QBEABQAUSSceneLightEntry@@XZ 170d0f90 f i c_foliagerenderer.obj
 0002:0001a050       ??E?$_Vector_const_iterator@PAUSSceneLightEntry@@V?$K2VectorAllocator@PAUSSceneLightEntry@@@@@std@@QAEAAV01@XZ 170d1050 f i c_foliagerenderer.obj
 0002:0001a140       ??8?$_Vector_const_iterator@PAUSSceneLightEntry@@V?$K2VectorAllocator@PAUSSceneLightEntry@@@@@std@@QBE_NABV01@@Z 170d1140 f i c_foliagerenderer.obj
 0002:0001a180       ??0?$_Vector_const_iterator@PAUSSceneLightEntry@@V?$K2VectorAllocator@PAUSSceneLightEntry@@@@@std@@QAE@PAPAUSSceneLightEntry@@PBV_Container_base@1@@Z 170d1180 f i c_foliagerenderer.obj
 0002:0001a280       ?_Compat@?$_Vector_const_iterator@PAUSSceneLightEntry@@V?$K2VectorAllocator@PAUSSceneLightEntry@@@@@std@@QBEXABV12@@Z 170d1280 f i c_foliagerenderer.obj
 0002:0001a330       ??0?$_Ranit@PAUSSceneLightEntry@@HPBQAU1@ABQAU1@@std@@QAE@XZ 170d1330 f i c_foliagerenderer.obj
 0002:0001a360       ?acos@@YAMM@Z              170d1360 f i c_foliagerenderer.obj
 0002:0001a390       _acosf                     170d1390 f i c_foliagerenderer.obj
 0002:0001a3c0       ?Allocate@?$CPool@VCFoliageRenderer@@@@QAEPAVCFoliageRenderer@@XZ 170d13c0 f i c_foliagerenderer.obj
 0002:0001a550       ??$Normalize@M@@YA?AV?$CVec2@M@@ABV0@@Z 170d1550 f i c_foliagerenderer.obj
 0002:0001a620       ?sqrt@@YAMM@Z              170d1620 f i c_foliagerenderer.obj
 0002:0001a650       _sqrtf                     170d1650 f i c_foliagerenderer.obj
 0002:0001a680       ?INT_ROUND@@YAHM@Z         170d1680 f i c_foliagerenderer.obj
 0002:0001a6e0       ?push_back@?$vector@PAVCFoliageRenderer@@V?$K2VectorAllocator@PAVCFoliageRenderer@@@@@std@@QAEXABQAVCFoliageRenderer@@@Z 170d16e0 f i c_foliagerenderer.obj
 0002:0001a790       ??1?$_Vector_iterator@PAVCFoliageRenderer@@V?$K2VectorAllocator@PAVCFoliageRenderer@@@@@std@@QAE@XZ 170d1790 f i c_foliagerenderer.obj
 0002:0001a7c0       ??1?$_Vector_const_iterator@PAVCFoliageRenderer@@V?$K2VectorAllocator@PAVCFoliageRenderer@@@@@std@@QAE@XZ 170d17c0 f i c_foliagerenderer.obj
 0002:0001a7f0       ??1?$_Ranit@PAVCFoliageRenderer@@HPBQAV1@ABQAV1@@std@@QAE@XZ 170d17f0 f i c_foliagerenderer.obj
 0002:0001a820       ?end@?$vector@PAVCFoliageRenderer@@V?$K2VectorAllocator@PAVCFoliageRenderer@@@@@std@@QAE?AV?$_Vector_iterator@PAVCFoliageRenderer@@V?$K2VectorAllocator@PAVCFoliageRenderer@@@@@2@XZ 170d1820 f i c_foliagerenderer.obj
 0002:0001a870       ?capacity@?$vector@PAVCFoliageRenderer@@V?$K2VectorAllocator@PAVCFoliageRenderer@@@@@std@@QBEIXZ 170d1870 f i c_foliagerenderer.obj
 0002:0001a8c0       ?size@?$vector@PAVCFoliageRenderer@@V?$K2VectorAllocator@PAVCFoliageRenderer@@@@@std@@QBEIXZ 170d18c0 f i c_foliagerenderer.obj
 0002:0001a910       ?insert@?$vector@PAVCFoliageRenderer@@V?$K2VectorAllocator@PAVCFoliageRenderer@@@@@std@@QAE?AV?$_Vector_iterator@PAVCFoliageRenderer@@V?$K2VectorAllocator@PAVCFoliageRenderer@@@@@2@V32@ABQAVCFoliageRenderer@@@Z 170d1910 f i c_foliagerenderer.obj
 0002:0001aa80       ?begin@?$vector@PAVCFoliageRenderer@@V?$K2VectorAllocator@PAVCFoliageRenderer@@@@@std@@QAE?AV?$_Vector_iterator@PAVCFoliageRenderer@@V?$K2VectorAllocator@PAVCFoliageRenderer@@@@@2@XZ 170d1a80 f i c_foliagerenderer.obj
 0002:0001aad0       ?_Ufill@?$vector@PAVCFoliageRenderer@@V?$K2VectorAllocator@PAVCFoliageRenderer@@@@@std@@IAEPAPAVCFoliageRenderer@@PAPAV3@IABQAV3@@Z 170d1ad0 f i c_foliagerenderer.obj
 0002:0001ab20       ?_Orphan_range@?$vector@PAVCFoliageRenderer@@V?$K2VectorAllocator@PAVCFoliageRenderer@@@@@std@@IBEXPAPAVCFoliageRenderer@@0@Z 170d1b20 f i c_foliagerenderer.obj
 0002:0001abc0       ??0?$_Vector_iterator@PAVCFoliageRenderer@@V?$K2VectorAllocator@PAVCFoliageRenderer@@@@@std@@QAE@PAPAVCFoliageRenderer@@PBV_Container_base@1@@Z 170d1bc0 f i c_foliagerenderer.obj
 0002:0001ac00       ??0?$_Vector_iterator@PAVCFoliageRenderer@@V?$K2VectorAllocator@PAVCFoliageRenderer@@@@@std@@QAE@ABV01@@Z 170d1c00 f i c_foliagerenderer.obj
 0002:0001ac30       ??0?$_Vector_const_iterator@PAVCFoliageRenderer@@V?$K2VectorAllocator@PAVCFoliageRenderer@@@@@std@@QAE@ABV01@@Z 170d1c30 f i c_foliagerenderer.obj
 0002:0001ac70       ??0?$_Ranit@PAVCFoliageRenderer@@HPBQAV1@ABQAV1@@std@@QAE@ABU01@@Z 170d1c70 f i c_foliagerenderer.obj
 0002:0001aca0       ?_Insert_n@?$vector@PAVCFoliageRenderer@@V?$K2VectorAllocator@PAVCFoliageRenderer@@@@@std@@IAEXV?$_Vector_iterator@PAVCFoliageRenderer@@V?$K2VectorAllocator@PAVCFoliageRenderer@@@@@2@IABQAVCFoliageRenderer@@@Z 170d1ca0 f i c_foliagerenderer.obj
 0002:0001b150       ?_Destroy@?$vector@PAVCFoliageRenderer@@V?$K2VectorAllocator@PAVCFoliageRenderer@@@@@std@@IAEXPAPAVCFoliageRenderer@@0@Z 170d2150 f i c_foliagerenderer.obj
 0002:0001b190       ?deallocate@?$K2VectorAllocator@PAVCFoliageRenderer@@@@QAEXPAPAVCFoliageRenderer@@I@Z 170d2190 f i c_foliagerenderer.obj
 0002:0001b1d0       ??$_Destroy_range@PAVCFoliageRenderer@@V?$K2VectorAllocator@PAVCFoliageRenderer@@@@@std@@YAXPAPAVCFoliageRenderer@@0AAV?$K2VectorAllocator@PAVCFoliageRenderer@@@@@Z 170d21d0 f i c_foliagerenderer.obj
 0002:0001b220       ??H?$_Vector_iterator@PAVCFoliageRenderer@@V?$K2VectorAllocator@PAVCFoliageRenderer@@@@@std@@QBE?AV01@H@Z 170d2220 f i c_foliagerenderer.obj
 0002:0001b2d0       ??G?$_Vector_iterator@PAVCFoliageRenderer@@V?$K2VectorAllocator@PAVCFoliageRenderer@@@@@std@@QBEHABV?$_Vector_const_iterator@PAVCFoliageRenderer@@V?$K2VectorAllocator@PAVCFoliageRenderer@@@@@1@@Z 170d22d0 f i c_foliagerenderer.obj
 0002:0001b300       ??0?$_Vector_const_iterator@PAVCFoliageRenderer@@V?$K2VectorAllocator@PAVCFoliageRenderer@@@@@std@@QAE@PAPAVCFoliageRenderer@@PBV_Container_base@1@@Z 170d2300 f i c_foliagerenderer.obj
 0002:0001b400       ??0?$_Ranit@PAVCFoliageRenderer@@HPBQAV1@ABQAV1@@std@@QAE@XZ 170d2400 f i c_foliagerenderer.obj
 0002:0001b430       ?max_size@?$vector@PAVCFoliageRenderer@@V?$K2VectorAllocator@PAVCFoliageRenderer@@@@@std@@QBEIXZ 170d2430 f i c_foliagerenderer.obj
 0002:0001b460       ?_Xlen@?$vector@PAVCFoliageRenderer@@V?$K2VectorAllocator@PAVCFoliageRenderer@@@@@std@@KAXXZ 170d2460 f i c_foliagerenderer.obj
 0002:0001b510       ?allocate@?$K2VectorAllocator@PAVCFoliageRenderer@@@@QAEPAPAVCFoliageRenderer@@I@Z 170d2510 f i c_foliagerenderer.obj
 0002:0001b560       ??Y?$_Vector_iterator@PAVCFoliageRenderer@@V?$K2VectorAllocator@PAVCFoliageRenderer@@@@@std@@QAEAAV01@H@Z 170d2560 f i c_foliagerenderer.obj
 0002:0001b590       ??G?$_Vector_const_iterator@PAVCFoliageRenderer@@V?$K2VectorAllocator@PAVCFoliageRenderer@@@@@std@@QBEHABV01@@Z 170d2590 f i c_foliagerenderer.obj
 0002:0001b5d0       ?_Compat@?$_Vector_const_iterator@PAVCFoliageRenderer@@V?$K2VectorAllocator@PAVCFoliageRenderer@@@@@std@@QBEXABV12@@Z 170d25d0 f i c_foliagerenderer.obj
 0002:0001b680       ?max_size@?$allocator@PAVCFoliageRenderer@@@std@@QBEIXZ 170d2680 f i c_foliagerenderer.obj
 0002:0001b6c0       ??Y?$_Vector_const_iterator@PAVCFoliageRenderer@@V?$K2VectorAllocator@PAVCFoliageRenderer@@@@@std@@QAEAAV01@H@Z 170d26c0 f i c_foliagerenderer.obj
 0002:0001b7f0       ??$_Ptr_cat@PAPAVCFoliageRenderer@@PAPAV1@@std@@YA?AU_Scalar_ptr_iterator_tag@0@AAPAPAVCFoliageRenderer@@0@Z 170d27f0 f i c_foliagerenderer.obj
 0002:0001b810       ??$_Destroy_range@PAVCFoliageRenderer@@V?$K2VectorAllocator@PAVCFoliageRenderer@@@@@std@@YAXPAPAVCFoliageRenderer@@0AAV?$K2VectorAllocator@PAVCFoliageRenderer@@@@U_Scalar_ptr_iterator_tag@0@@Z 170d2810 f i c_foliagerenderer.obj
 0002:0001b830       ??$unchecked_uninitialized_fill_n@PAPAVCFoliageRenderer@@IPAV1@V?$K2VectorAllocator@PAVCFoliageRenderer@@@@@stdext@@YAXPAPAVCFoliageRenderer@@IABQAV1@AAV?$K2VectorAllocator@PAVCFoliageRenderer@@@@@Z 170d2830 f i c_foliagerenderer.obj
 0002:0001b890       ??$_Umove@PAPAVCFoliageRenderer@@@?$vector@PAVCFoliageRenderer@@V?$K2VectorAllocator@PAVCFoliageRenderer@@@@@std@@IAEPAPAVCFoliageRenderer@@PAPAV2@00@Z 170d2890 f i c_foliagerenderer.obj
 0002:0001b8d0       ??$fill@PAPAVCFoliageRenderer@@PAV1@@std@@YAXPAPAVCFoliageRenderer@@0ABQAV1@@Z 170d28d0 f i c_foliagerenderer.obj
 0002:0001b920       ??$_Unchecked_move_backward@PAPAVCFoliageRenderer@@PAPAV1@@stdext@@YAPAPAVCFoliageRenderer@@PAPAV1@00@Z 170d2920 f i c_foliagerenderer.obj
 0002:0001b9b0       ??$_Checked_base@PAPAVCFoliageRenderer@@@std@@YAPAPAVCFoliageRenderer@@AAPAPAV1@@Z 170d29b0 f i c_foliagerenderer.obj
 0002:0001b9e0       ??$_Iter_random@PAPAVCFoliageRenderer@@PAPAV1@@std@@YA?AUrandom_access_iterator_tag@0@ABQAPAVCFoliageRenderer@@0@Z 170d29e0 f i c_foliagerenderer.obj
 0002:0001ba00       ??$_Uninit_fill_n@PAPAVCFoliageRenderer@@IPAV1@V?$K2VectorAllocator@PAVCFoliageRenderer@@@@@std@@YAXPAPAVCFoliageRenderer@@IABQAV1@AAV?$K2VectorAllocator@PAVCFoliageRenderer@@@@U_Scalar_ptr_iterator_tag@0@U_Range_checked_iterator_tag@0@@Z 170d2a00 f i c_foliagerenderer.obj
 0002:0001ba30       ??$_Unchecked_uninitialized_move@PAPAVCFoliageRenderer@@PAPAV1@V?$K2VectorAllocator@PAVCFoliageRenderer@@@@@stdext@@YAPAPAVCFoliageRenderer@@PAPAV1@00AAV?$K2VectorAllocator@PAVCFoliageRenderer@@@@@Z 170d2a30 f i c_foliagerenderer.obj
 0002:0001baa0       ??$_Fill@PAPAVCFoliageRenderer@@PAV1@@std@@YAXPAPAVCFoliageRenderer@@0ABQAV1@@Z 170d2aa0 f i c_foliagerenderer.obj
 0002:0001bb00       ??$_Move_cat@PAPAVCFoliageRenderer@@@std@@YA?AU_Undefined_move_tag@0@ABQAPAVCFoliageRenderer@@@Z 170d2b00 f i c_foliagerenderer.obj
 0002:0001bb20       ??$_Move_backward_opt@PAPAVCFoliageRenderer@@PAPAV1@Urandom_access_iterator_tag@std@@U_Undefined_move_tag@3@@std@@YAPAPAVCFoliageRenderer@@PAPAV1@00Urandom_access_iterator_tag@0@U_Undefined_move_tag@0@U_Range_checked_iterator_tag@0@@Z 170d2b20 f i c_foliagerenderer.obj
 0002:0001bb80       ??$_Checked_base@PAPAVCFoliageRenderer@@@std@@YAPAPAVCFoliageRenderer@@AAPAPAV1@U_Unchanged_checked_iterator_base_type_tag@0@@Z 170d2b80 f i c_foliagerenderer.obj
 0002:0001bba0       ??$_Debug_range@PAPAVCFoliageRenderer@@@std@@YAXPAPAVCFoliageRenderer@@0PB_WI@Z 170d2ba0 f i c_foliagerenderer.obj
 0002:0001bbf0       ??$unchecked_fill_n@PAPAVCFoliageRenderer@@IPAV1@@stdext@@YAXPAPAVCFoliageRenderer@@IABQAV1@@Z 170d2bf0 f i c_foliagerenderer.obj
 0002:0001bc40       ??$_Uninit_move@PAPAVCFoliageRenderer@@PAPAV1@V?$K2VectorAllocator@PAVCFoliageRenderer@@@@U_Undefined_move_tag@std@@@std@@YAPAPAVCFoliageRenderer@@PAPAV1@00AAV?$K2VectorAllocator@PAVCFoliageRenderer@@@@U_Undefined_move_tag@0@U_Range_checked_iterator_tag@0@@Z 170d2c40 f i c_foliagerenderer.obj
 0002:0001bc80       ??$_Copy_backward_opt@PAPAVCFoliageRenderer@@PAPAV1@Urandom_access_iterator_tag@std@@@std@@YAPAPAVCFoliageRenderer@@PAPAV1@00Urandom_access_iterator_tag@0@U_Scalar_ptr_iterator_tag@0@U_Range_checked_iterator_tag@0@@Z 170d2c80 f i c_foliagerenderer.obj
 0002:0001bd30       ??$_Debug_pointer@PAVCFoliageRenderer@@@std@@YAXPAPAVCFoliageRenderer@@PB_WI@Z 170d2d30 f i c_foliagerenderer.obj
 0002:0001bd70       ??$_Iter_cat@PAPAVCFoliageRenderer@@@std@@YA?AUrandom_access_iterator_tag@0@ABQAPAVCFoliageRenderer@@@Z 170d2d70 f i c_foliagerenderer.obj
 0002:0001bd90       ??$_Debug_range2@PAPAVCFoliageRenderer@@@std@@YAXPAPAVCFoliageRenderer@@0PB_WIUrandom_access_iterator_tag@0@@Z 170d2d90 f i c_foliagerenderer.obj
 0002:0001be10       ??$_Fill_n@PAPAVCFoliageRenderer@@IPAV1@@std@@YAXPAPAVCFoliageRenderer@@IABQAV1@Urandom_access_iterator_tag@0@U_Range_checked_iterator_tag@0@@Z 170d2e10 f i c_foliagerenderer.obj
 0002:0001be70       ??$unchecked_uninitialized_copy@PAPAVCFoliageRenderer@@PAPAV1@V?$K2VectorAllocator@PAVCFoliageRenderer@@@@@stdext@@YAPAPAVCFoliageRenderer@@PAPAV1@00AAV?$K2VectorAllocator@PAVCFoliageRenderer@@@@@Z 170d2e70 f i c_foliagerenderer.obj
 0002:0001bee0       ??$_Fill_n@PAPAVCFoliageRenderer@@IPAV1@@std@@YAXPAPAVCFoliageRenderer@@IABQAV1@U_Range_checked_iterator_tag@0@@Z 170d2ee0 f i c_foliagerenderer.obj
 0002:0001bf30       ??$_Uninit_copy@PAPAVCFoliageRenderer@@PAPAV1@V?$K2VectorAllocator@PAVCFoliageRenderer@@@@@std@@YAPAPAVCFoliageRenderer@@PAPAV1@00AAV?$K2VectorAllocator@PAVCFoliageRenderer@@@@U_Scalar_ptr_iterator_tag@0@U_Range_checked_iterator_tag@0@@Z 170d2f30 f i c_foliagerenderer.obj
 0002:0001bfd0       ?GetTime@CCamera@@QBEMXZ   170d2fd0 f i c_foliagerenderer.obj
 0002:0001bff0       ?GetViewAxis@CCamera@@QBEABV?$CVec3@M@@W4EAxisComponent@@@Z 170d2ff0 f i c_foliagerenderer.obj
 0002:0001c020       ??ACAxis@@QBEABV?$CVec3@M@@H@Z 170d3020 f i c_foliagerenderer.obj
 0002:0001c050       ?GetLayer@CMaterialPhase@@QBEHXZ 170d3050 f i c_foliagerenderer.obj
 0002:0001c070       ?SetVertexShader@CMaterialPhase@@QAEXI@Z 170d3070 f i c_foliagerenderer.obj
 0002:0001c0a0       ?GetPhase@CMaterial@@QAEAAVCMaterialPhase@@W4EMaterialPhase@@@Z 170d30a0 f i c_foliagerenderer.obj
 0002:0001c120       ?GetPosition@CSceneLight@@QBEABV?$CVec3@M@@XZ 170d3120 f i c_foliagerenderer.obj
 0002:0001c140       ?GetColor@CSceneLight@@QBEABV?$CVec3@M@@XZ 170d3140 f i c_foliagerenderer.obj
 0002:0001c160       ?GetFalloffStart@CSceneLight@@QBEMXZ 170d3160 f i c_foliagerenderer.obj
 0002:0001c180       ?GetFalloffEnd@CSceneLight@@QBEMXZ 170d3180 f i c_foliagerenderer.obj
 0002:0001c1a0       ?GetLightList@CSceneManager@@QAEAAV?$vector@PAUSSceneLightEntry@@V?$K2VectorAllocator@PAUSSceneLightEntry@@@@@@XZ 170d31a0 f i c_foliagerenderer.obj
 0002:0001c1d0       ??1CSphere@@QAE@XZ         170d31d0 f i c_foliagerenderer.obj
 0002:0001c1f0       ??0CSphere@@QAE@ABV?$CVec3@M@@M@Z 170d31f0 f i c_foliagerenderer.obj
 0002:0001c240       ??BD3DXMATRIX@@QAEPAMXZ    170d3240 f i c_foliagerenderer.obj
 0002:0001c260       ??A?$vector@VCMaterialPhase@@V?$K2VectorAllocator@VCMaterialPhase@@@@@std@@QAEAAVCMaterialPhase@@I@Z 170d3260 f i c_foliagerenderer.obj
 0002:0001c380       ?size@?$vector@VCMaterialPhase@@V?$K2VectorAllocator@VCMaterialPhase@@@@@std@@QBEIXZ 170d3380 f i c_foliagerenderer.obj
 0002:0001c3d0       ??0?$CCvar@_N_N@@QAE@ABV?$basic_string@_WU?$char_traits@_W@std@@V?$K2StringAllocator@_W@@@std@@_NHP6A_NPAVCConsoleElement@@ABV?$vector@V?$basic_string@_WU?$char_traits@_W@std@@V?$K2StringAllocator@_W@@@std@@V?$K2VectorAllocator@V?$basic_string@_WU?$char_traits@_W@std@@V?$K2StringAllocator@_W@@@std@@@@@@@Z@Z 170d33d0 f i c_foliagerenderer.obj
 0002:0001c4e0       ??1?$vector@V?$basic_string@_WU?$char_traits@_W@std@@V?$K2StringAllocator@_W@@@std@@V?$K2VectorAllocator@V?$basic_string@_WU?$char_traits@_W@std@@V?$K2StringAllocator@_W@@@std@@@@@@QAE@XZ 170d34e0 f i c_foliagerenderer.obj
 0002:0001c510       ??_G?$CCvar@_N_N@@UAEPAXI@Z 170d3510 f i c_foliagerenderer.obj
 0002:0001c510       ??_E?$CCvar@_N_N@@UAEPAXI@Z 170d3510 f i c_foliagerenderer.obj
 0002:0001c560       ?Toggle@?$CCvar@_N_N@@UAEXXZ 170d3560 f i c_foliagerenderer.obj
 0002:0001c5b0       ??0?$vector@V?$basic_string@_WU?$char_traits@_W@std@@V?$K2StringAllocator@_W@@@std@@V?$K2VectorAllocator@V?$basic_string@_WU?$char_traits@_W@std@@V?$K2StringAllocator@_W@@@std@@@@@@QAE@XZ 170d35b0 f i c_foliagerenderer.obj
 0002:0001c5e0       ??1?$vector@V?$basic_string@_WU?$char_traits@_W@std@@V?$K2StringAllocator@_W@@@std@@V?$K2VectorAllocator@V?$basic_string@_WU?$char_traits@_W@std@@V?$K2StringAllocator@_W@@@std@@@@@std@@QAE@XZ 170d35e0 f i c_foliagerenderer.obj
 0002:0001c660       ?push_back@?$vector@V?$basic_string@_WU?$char_traits@_W@std@@V?$K2StringAllocator@_W@@@std@@V?$K2VectorAllocator@V?$basic_string@_WU?$char_traits@_W@std@@V?$K2StringAllocator@_W@@@std@@@@@std@@QAEXABV?$basic_string@_WU?$char_traits@_W@std@@V?$K2StringAllocator@_W@@@2@@Z 170d3660 f i c_foliagerenderer.obj
 0002:0001c710       ??1?$_Vector_iterator@V?$basic_string@_WU?$char_traits@_W@std@@V?$K2StringAllocator@_W@@@std@@V?$K2VectorAllocator@V?$basic_string@_WU?$char_traits@_W@std@@V?$K2StringAllocator@_W@@@std@@@@@std@@QAE@XZ 170d3710 f i c_foliagerenderer.obj
 0002:0001c740       ??1?$_Vector_const_iterator@V?$basic_string@_WU?$char_traits@_W@std@@V?$K2StringAllocator@_W@@@std@@V?$K2VectorAllocator@V?$basic_string@_WU?$char_traits@_W@std@@V?$K2StringAllocator@_W@@@std@@@@@std@@QAE@XZ 170d3740 f i c_foliagerenderer.obj
 0002:0001c770       ??1?$_Ranit@V?$basic_string@_WU?$char_traits@_W@std@@V?$K2StringAllocator@_W@@@std@@HPBV12@ABV12@@std@@QAE@XZ 170d3770 f i c_foliagerenderer.obj
 0002:0001c7a0       ?end@?$vector@V?$basic_string@_WU?$char_traits@_W@std@@V?$K2StringAllocator@_W@@@std@@V?$K2VectorAllocator@V?$basic_string@_WU?$char_traits@_W@std@@V?$K2StringAllocator@_W@@@std@@@@@std@@QAE?AV?$_Vector_iterator@V?$basic_string@_WU?$char_traits@_W@std@@V?$K2StringAllocator@_W@@@std@@V?$K2VectorAllocator@V?$basic_string@_WU?$char_traits@_W@std@@V?$K2StringAllocator@_W@@@std@@@@@2@XZ 170d37a0 f i c_foliagerenderer.obj
 0002:0001c7f0       ?size@?$vector@V?$basic_string@_WU?$char_traits@_W@std@@V?$K2StringAllocator@_W@@@std@@V?$K2VectorAllocator@V?$basic_string@_WU?$char_traits@_W@std@@V?$K2StringAllocator@_W@@@std@@@@@std@@QBEIXZ 170d37f0 f i c_foliagerenderer.obj
 0002:0001c840       ??1?$CCvar@_N_N@@UAE@XZ    170d3840 f i c_foliagerenderer.obj
 0002:0001c870       ?Reset@?$CCvar@_N_N@@UAEXXZ 170d3870 f i c_foliagerenderer.obj
 0002:0001c8d0       ?IsDefault@?$CCvar@_N_N@@UBE_NXZ 170d38d0 f i c_foliagerenderer.obj
 0002:0001c910       ?StoreValue@?$CCvar@_N_N@@UAEXXZ 170d3910 f i c_foliagerenderer.obj
 0002:0001c940       ?RestoreStored@?$CCvar@_N_N@@UAEXXZ 170d3940 f i c_foliagerenderer.obj
 0002:0001c970       ?GetString@?$CCvar@_N_N@@UBE?AV?$basic_string@_WU?$char_traits@_W@std@@V?$K2StringAllocator@_W@@@std@@XZ 170d3970 f i c_foliagerenderer.obj
 0002:0001c9c0       ?XtoW@@YA?AV?$basic_string@_WU?$char_traits@_W@std@@V?$K2StringAllocator@_W@@@std@@_N0@Z 170d39c0 f i c_foliagerenderer.obj
 0002:0001ca60       ?SetIndex@?$CCvar@_N_N@@UAEXIABV?$basic_string@_WU?$char_traits@_W@std@@V?$K2StringAllocator@_W@@@std@@@Z 170d3a60 f i c_foliagerenderer.obj
 0002:0001ca80       ?Inc@?$CCvar@_N_N@@UAEXABV?$basic_string@_WU?$char_traits@_W@std@@V?$K2StringAllocator@_W@@@std@@@Z 170d3a80 f i c_foliagerenderer.obj
 0002:0001caa0       ??1?$_Vector_val@V?$basic_string@_WU?$char_traits@_W@std@@V?$K2StringAllocator@_W@@@std@@V?$K2VectorAllocator@V?$basic_string@_WU?$char_traits@_W@std@@V?$K2StringAllocator@_W@@@std@@@@@std@@QAE@XZ 170d3aa0 f i c_foliagerenderer.obj
 0002:0001cb20       ??0?$vector@V?$basic_string@_WU?$char_traits@_W@std@@V?$K2StringAllocator@_W@@@std@@V?$K2VectorAllocator@V?$basic_string@_WU?$char_traits@_W@std@@V?$K2StringAllocator@_W@@@std@@@@@std@@QAE@XZ 170d3b20 f i c_foliagerenderer.obj
 0002:0001cbb0       ?capacity@?$vector@V?$basic_string@_WU?$char_traits@_W@std@@V?$K2StringAllocator@_W@@@std@@V?$K2VectorAllocator@V?$basic_string@_WU?$char_traits@_W@std@@V?$K2StringAllocator@_W@@@std@@@@@std@@QBEIXZ 170d3bb0 f i c_foliagerenderer.obj
 0002:0001cc00       ?insert@?$vector@V?$basic_string@_WU?$char_traits@_W@std@@V?$K2StringAllocator@_W@@@std@@V?$K2VectorAllocator@V?$basic_string@_WU?$char_traits@_W@std@@V?$K2StringAllocator@_W@@@std@@@@@std@@QAE?AV?$_Vector_iterator@V?$basic_string@_WU?$char_traits@_W@std@@V?$K2StringAllocator@_W@@@std@@V?$K2VectorAllocator@V?$basic_string@_WU?$char_traits@_W@std@@V?$K2StringAllocator@_W@@@std@@@@@2@V32@ABV?$basic_string@_WU?$char_traits@_W@std@@V?$K2StringAllocator@_W@@@2@@Z 170d3c00 f i c_foliagerenderer.obj
 0002:0001cd70       ?begin@?$vector@V?$basic_string@_WU?$char_traits@_W@std@@V?$K2StringAllocator@_W@@@std@@V?$K2VectorAllocator@V?$basic_string@_WU?$char_traits@_W@std@@V?$K2StringAllocator@_W@@@std@@@@@std@@QAE?AV?$_Vector_iterator@V?$basic_string@_WU?$char_traits@_W@std@@V?$K2StringAllocator@_W@@@std@@V?$K2VectorAllocator@V?$basic_string@_WU?$char_traits@_W@std@@V?$K2StringAllocator@_W@@@std@@@@@2@XZ 170d3d70 f i c_foliagerenderer.obj
 0002:0001cdc0       ??H?$_Vector_iterator@V?$basic_string@_WU?$char_traits@_W@std@@V?$K2StringAllocator@_W@@@std@@V?$K2VectorAllocator@V?$basic_string@_WU?$char_traits@_W@std@@V?$K2StringAllocator@_W@@@std@@@@@std@@QBE?AV01@H@Z 170d3dc0 f i c_foliagerenderer.obj
 0002:0001ce70       ??0?$_Vector_iterator@V?$basic_string@_WU?$char_traits@_W@std@@V?$K2StringAllocator@_W@@@std@@V?$K2VectorAllocator@V?$basic_string@_WU?$char_traits@_W@std@@V?$K2StringAllocator@_W@@@std@@@@@std@@QAE@ABV01@@Z 170d3e70 f i c_foliagerenderer.obj
 0002:0001cea0       ??0?$_Vector_const_iterator@V?$basic_string@_WU?$char_traits@_W@std@@V?$K2StringAllocator@_W@@@std@@V?$K2VectorAllocator@V?$basic_string@_WU?$char_traits@_W@std@@V?$K2StringAllocator@_W@@@std@@@@@std@@QAE@ABV01@@Z 170d3ea0 f i c_foliagerenderer.obj
 0002:0001cee0       ??0?$_Ranit@V?$basic_string@_WU?$char_traits@_W@std@@V?$K2StringAllocator@_W@@@std@@HPBV12@ABV12@@std@@QAE@ABU01@@Z 170d3ee0 f i c_foliagerenderer.obj
 0002:0001cf10       ?_Buy@?$vector@V?$basic_string@_WU?$char_traits@_W@std@@V?$K2StringAllocator@_W@@@std@@V?$K2VectorAllocator@V?$basic_string@_WU?$char_traits@_W@std@@V?$K2StringAllocator@_W@@@std@@@@@std@@IAE_NI@Z 170d3f10 f i c_foliagerenderer.obj
 0002:0001cfc0       ?_Tidy@?$vector@V?$basic_string@_WU?$char_traits@_W@std@@V?$K2StringAllocator@_W@@@std@@V?$K2VectorAllocator@V?$basic_string@_WU?$char_traits@_W@std@@V?$K2StringAllocator@_W@@@std@@@@@std@@IAEXXZ 170d3fc0 f i c_foliagerenderer.obj
 0002:0001d060       ?_Destroy@?$vector@V?$basic_string@_WU?$char_traits@_W@std@@V?$K2StringAllocator@_W@@@std@@V?$K2VectorAllocator@V?$basic_string@_WU?$char_traits@_W@std@@V?$K2StringAllocator@_W@@@std@@@@@std@@IAEXPAV?$basic_string@_WU?$char_traits@_W@std@@V?$K2StringAllocator@_W@@@2@0@Z 170d4060 f i c_foliagerenderer.obj
 0002:0001d0a0       ?_Ufill@?$vector@V?$basic_string@_WU?$char_traits@_W@std@@V?$K2StringAllocator@_W@@@std@@V?$K2VectorAllocator@V?$basic_string@_WU?$char_traits@_W@std@@V?$K2StringAllocator@_W@@@std@@@@@std@@IAEPAV?$basic_string@_WU?$char_traits@_W@std@@V?$K2StringAllocator@_W@@@2@PAV32@IABV32@@Z 170d40a0 f i c_foliagerenderer.obj
 0002:0001d0f0       ?_Orphan_range@?$vector@V?$basic_string@_WU?$char_traits@_W@std@@V?$K2StringAllocator@_W@@@std@@V?$K2VectorAllocator@V?$basic_string@_WU?$char_traits@_W@std@@V?$K2StringAllocator@_W@@@std@@@@@std@@IBEXPAV?$basic_string@_WU?$char_traits@_W@std@@V?$K2StringAllocator@_W@@@2@0@Z 170d40f0 f i c_foliagerenderer.obj
 0002:0001d190       ??1?$K2VectorAllocator@V?$basic_string@_WU?$char_traits@_W@std@@V?$K2StringAllocator@_W@@@std@@@@QAE@XZ 170d4190 f i c_foliagerenderer.obj
 0002:0001d1b0       ?deallocate@?$K2VectorAllocator@V?$basic_string@_WU?$char_traits@_W@std@@V?$K2StringAllocator@_W@@@std@@@@QAEXPAV?$basic_string@_WU?$char_traits@_W@std@@V?$K2StringAllocator@_W@@@std@@I@Z 170d41b0 f i c_foliagerenderer.obj
 0002:0001d1f0       ??0?$_Vector_iterator@V?$basic_string@_WU?$char_traits@_W@std@@V?$K2StringAllocator@_W@@@std@@V?$K2VectorAllocator@V?$basic_string@_WU?$char_traits@_W@std@@V?$K2StringAllocator@_W@@@std@@@@@std@@QAE@PAV?$basic_string@_WU?$char_traits@_W@std@@V?$K2StringAllocator@_W@@@1@PBV_Container_base@1@@Z 170d41f0 f i c_foliagerenderer.obj
 0002:0001d230       ??Y?$_Vector_iterator@V?$basic_string@_WU?$char_traits@_W@std@@V?$K2StringAllocator@_W@@@std@@V?$K2VectorAllocator@V?$basic_string@_WU?$char_traits@_W@std@@V?$K2StringAllocator@_W@@@std@@@@@std@@QAEAAV01@H@Z 170d4230 f i c_foliagerenderer.obj
 0002:0001d260       ?max_size@?$vector@V?$basic_string@_WU?$char_traits@_W@std@@V?$K2StringAllocator@_W@@@std@@V?$K2VectorAllocator@V?$basic_string@_WU?$char_traits@_W@std@@V?$K2StringAllocator@_W@@@std@@@@@std@@QBEIXZ 170d4260 f i c_foliagerenderer.obj
 0002:0001d290       ?_Insert_n@?$vector@V?$basic_string@_WU?$char_traits@_W@std@@V?$K2StringAllocator@_W@@@std@@V?$K2VectorAllocator@V?$basic_string@_WU?$char_traits@_W@std@@V?$K2StringAllocator@_W@@@std@@@@@std@@IAEXV?$_Vector_iterator@V?$basic_string@_WU?$char_traits@_W@std@@V?$K2StringAllocator@_W@@@std@@V?$K2VectorAllocator@V?$basic_string@_WU?$char_traits@_W@std@@V?$K2StringAllocator@_W@@@std@@@@@2@IABV?$basic_string@_WU?$char_traits@_W@std@@V?$K2StringAllocator@_W@@@2@@Z 170d4290 f i c_foliagerenderer.obj
 0002:0001d780       ??0?$basic_string@_WU?$char_traits@_W@std@@V?$K2StringAllocator@_W@@@std@@QAE@ABV01@@Z 170d4780 f i c_foliagerenderer.obj
 0002:0001d820       ??0?$_String_val@_WV?$K2StringAllocator@_W@@@std@@QAE@ABV01@@Z 170d4820 f i c_foliagerenderer.obj
 0002:0001d8c0       ?_Xlen@?$vector@V?$basic_string@_WU?$char_traits@_W@std@@V?$K2StringAllocator@_W@@@std@@V?$K2VectorAllocator@V?$basic_string@_WU?$char_traits@_W@std@@V?$K2StringAllocator@_W@@@std@@@@@std@@KAXXZ 170d48c0 f i c_foliagerenderer.obj
 0002:0001d970       ??0?$_Vector_val@V?$basic_string@_WU?$char_traits@_W@std@@V?$K2StringAllocator@_W@@@std@@V?$K2VectorAllocator@V?$basic_string@_WU?$char_traits@_W@std@@V?$K2StringAllocator@_W@@@std@@@@@std@@IAE@V?$K2VectorAllocator@V?$basic_string@_WU?$char_traits@_W@std@@V?$K2StringAllocator@_W@@@std@@@@@Z 170d4970 f i c_foliagerenderer.obj
 0002:0001da10       ??0?$K2VectorAllocator@V?$basic_string@_WU?$char_traits@_W@std@@V?$K2StringAllocator@_W@@@std@@@@QAE@XZ 170d4a10 f i c_foliagerenderer.obj
 0002:0001da40       ??0?$K2VectorAllocator@V?$basic_string@_WU?$char_traits@_W@std@@V?$K2StringAllocator@_W@@@std@@@@QAE@ABV0@@Z 170d4a40 f i c_foliagerenderer.obj
 0002:0001da70       ?allocate@?$K2VectorAllocator@V?$basic_string@_WU?$char_traits@_W@std@@V?$K2StringAllocator@_W@@@std@@@@QAEPAV?$basic_string@_WU?$char_traits@_W@std@@V?$K2StringAllocator@_W@@@std@@I@Z 170d4a70 f i c_foliagerenderer.obj
 0002:0001dac0       ??G?$_Vector_iterator@V?$basic_string@_WU?$char_traits@_W@std@@V?$K2StringAllocator@_W@@@std@@V?$K2VectorAllocator@V?$basic_string@_WU?$char_traits@_W@std@@V?$K2StringAllocator@_W@@@std@@@@@std@@QBEHABV?$_Vector_const_iterator@V?$basic_string@_WU?$char_traits@_W@std@@V?$K2StringAllocator@_W@@@std@@V?$K2VectorAllocator@V?$basic_string@_WU?$char_traits@_W@std@@V?$K2StringAllocator@_W@@@std@@@@@1@@Z 170d4ac0 f i c_foliagerenderer.obj
 0002:0001daf0       ??0?$_Vector_const_iterator@V?$basic_string@_WU?$char_traits@_W@std@@V?$K2StringAllocator@_W@@@std@@V?$K2VectorAllocator@V?$basic_string@_WU?$char_traits@_W@std@@V?$K2StringAllocator@_W@@@std@@@@@std@@QAE@PAV?$basic_string@_WU?$char_traits@_W@std@@V?$K2StringAllocator@_W@@@1@PBV_Container_base@1@@Z 170d4af0 f i c_foliagerenderer.obj
 0002:0001dbf0       ??Y?$_Vector_const_iterator@V?$basic_string@_WU?$char_traits@_W@std@@V?$K2StringAllocator@_W@@@std@@V?$K2VectorAllocator@V?$basic_string@_WU?$char_traits@_W@std@@V?$K2StringAllocator@_W@@@std@@@@@std@@QAEAAV01@H@Z 170d4bf0 f i c_foliagerenderer.obj
 0002:0001dd20       ??0?$_Ranit@V?$basic_string@_WU?$char_traits@_W@std@@V?$K2StringAllocator@_W@@@std@@HPBV12@ABV12@@std@@QAE@XZ 170d4d20 f i c_foliagerenderer.obj
 0002:0001dd50       ??0?$allocator@V?$basic_string@_WU?$char_traits@_W@std@@V?$K2StringAllocator@_W@@@std@@@std@@QAE@XZ 170d4d50 f i c_foliagerenderer.obj
 0002:0001dd70       ??0?$allocator@V?$basic_string@_WU?$char_traits@_W@std@@V?$K2StringAllocator@_W@@@std@@@std@@QAE@ABV01@@Z 170d4d70 f i c_foliagerenderer.obj
 0002:0001dd90       ?max_size@?$allocator@V?$basic_string@_WU?$char_traits@_W@std@@V?$K2StringAllocator@_W@@@std@@@std@@QBEIXZ 170d4d90 f i c_foliagerenderer.obj
 0002:0001ddd0       ??G?$_Vector_const_iterator@V?$basic_string@_WU?$char_traits@_W@std@@V?$K2StringAllocator@_W@@@std@@V?$K2VectorAllocator@V?$basic_string@_WU?$char_traits@_W@std@@V?$K2StringAllocator@_W@@@std@@@@@std@@QBEHABV01@@Z 170d4dd0 f i c_foliagerenderer.obj
 0002:0001de10       ?_Compat@?$_Vector_const_iterator@V?$basic_string@_WU?$char_traits@_W@std@@V?$K2StringAllocator@_W@@@std@@V?$K2VectorAllocator@V?$basic_string@_WU?$char_traits@_W@std@@V?$K2StringAllocator@_W@@@std@@@@@std@@QBEXABV12@@Z 170d4e10 f i c_foliagerenderer.obj
 0002:0001dec0       ?Set@?$CCvar@_N_N@@UAEXABV?$basic_string@_WU?$char_traits@_W@std@@V?$K2StringAllocator@_W@@@std@@@Z 170d4ec0 f i c_foliagerenderer.obj
 0002:0001df20       ?AtoX@@YAAA_NABV?$basic_string@_WU?$char_traits@_W@std@@V?$K2StringAllocator@_W@@@std@@AA_N@Z 170d4f20 f i c_foliagerenderer.obj
 0002:0001e010       ?CompareNoCase@@YAHABV?$basic_string@_WU?$char_traits@_W@std@@V?$K2StringAllocator@_W@@@std@@0@Z 170d5010 f i c_foliagerenderer.obj
 0002:0001e040       ?WTOF@@YANABV?$basic_string@_WU?$char_traits@_W@std@@V?$K2StringAllocator@_W@@@std@@@Z 170d5040 f i c_foliagerenderer.obj
 0002:0001e070       ?c_str@?$basic_string@_WU?$char_traits@_W@std@@V?$K2StringAllocator@_W@@@std@@QBEPB_WXZ 170d5070 f i c_foliagerenderer.obj
 0002:0001e0a0       ??$_CompareNoCase@V?$basic_string@_WU?$char_traits@_W@std@@V?$K2StringAllocator@_W@@@std@@@@YAHABV?$basic_string@_WU?$char_traits@_W@std@@V?$K2StringAllocator@_W@@@std@@0@Z 170d50a0 f i c_foliagerenderer.obj
 0002:0001e360       ?begin@?$basic_string@_WU?$char_traits@_W@std@@V?$K2StringAllocator@_W@@@std@@QBE?AV?$_String_const_iterator@_WU?$char_traits@_W@std@@V?$K2StringAllocator@_W@@@2@XZ 170d5360 f i c_foliagerenderer.obj
 0002:0001e3b0       ?end@?$basic_string@_WU?$char_traits@_W@std@@V?$K2StringAllocator@_W@@@std@@QBE?AV?$_String_const_iterator@_WU?$char_traits@_W@std@@V?$K2StringAllocator@_W@@@2@XZ 170d53b0 f i c_foliagerenderer.obj
 0002:0001e410       ??D?$_String_const_iterator@_WU?$char_traits@_W@std@@V?$K2StringAllocator@_W@@@std@@QBEAB_WXZ 170d5410 f i c_foliagerenderer.obj
 0002:0001e4f0       ??E?$_String_const_iterator@_WU?$char_traits@_W@std@@V?$K2StringAllocator@_W@@@std@@QAEAAV01@XZ 170d54f0 f i c_foliagerenderer.obj
 0002:0001e610       ??8?$_String_const_iterator@_WU?$char_traits@_W@std@@V?$K2StringAllocator@_W@@@std@@QBE_NABV01@@Z 170d5610 f i c_foliagerenderer.obj
 0002:0001e650       ??9?$_String_const_iterator@_WU?$char_traits@_W@std@@V?$K2StringAllocator@_W@@@std@@QBE_NABV01@@Z 170d5650 f i c_foliagerenderer.obj
 0002:0001e690       ??1?$_String_const_iterator@_WU?$char_traits@_W@std@@V?$K2StringAllocator@_W@@@std@@QAE@XZ 170d5690 f i c_foliagerenderer.obj
 0002:0001e6c0       ??1?$_Ranit_base@_WHPB_WAB_WV_Iterator_base@std@@@std@@QAE@XZ 170d56c0 f i c_foliagerenderer.obj
 0002:0001e6f0       ??0?$_String_const_iterator@_WU?$char_traits@_W@std@@V?$K2StringAllocator@_W@@@std@@QAE@PB_WPBV_Container_base@1@@Z 170d56f0 f i c_foliagerenderer.obj
 0002:0001e810       ??0?$_Ranit_base@_WHPB_WAB_WV_Iterator_base@std@@@std@@QAE@XZ 170d5810 f i c_foliagerenderer.obj
 0002:0001e840       ?_Compat@?$_String_const_iterator@_WU?$char_traits@_W@std@@V?$K2StringAllocator@_W@@@std@@QBEXABV12@@Z 170d5840 f i c_foliagerenderer.obj
 0002:0001e8f0       ?GetRangeString@?$CCvar@_N_N@@UBE?AV?$basic_string@_WU?$char_traits@_W@std@@V?$K2StringAllocator@_W@@@std@@XZ 170d58f0 f i c_foliagerenderer.obj
 0002:0001eb50       ??$?H_WU?$char_traits@_W@std@@V?$K2StringAllocator@_W@@@std@@YA?AV?$basic_string@_WU?$char_traits@_W@std@@V?$K2StringAllocator@_W@@@0@PB_WABV10@@Z 170d5b50 f i c_foliagerenderer.obj
 0002:0001ec00       ??Y?$basic_string@_WU?$char_traits@_W@std@@V?$K2StringAllocator@_W@@@std@@QAEAAV01@ABV01@@Z 170d5c00 f i c_foliagerenderer.obj
 0002:0001ec30       ?append@?$basic_string@_WU?$char_traits@_W@std@@V?$K2StringAllocator@_W@@@std@@QAEAAV12@ABV12@@Z 170d5c30 f i c_foliagerenderer.obj
 0002:0001ec70       ?append@?$basic_string@_WU?$char_traits@_W@std@@V?$K2StringAllocator@_W@@@std@@QAEAAV12@ABV12@II@Z 170d5c70 f i c_foliagerenderer.obj
 0002:0001ed90       ??$?H_WU?$char_traits@_W@std@@V?$K2StringAllocator@_W@@@std@@YA?AV?$basic_string@_WU?$char_traits@_W@std@@V?$K2StringAllocator@_W@@@0@ABV10@PB_W@Z 170d5d90 f i c_foliagerenderer.obj
 0002:0001ee40       ??Y?$basic_string@_WU?$char_traits@_W@std@@V?$K2StringAllocator@_W@@@std@@QAEAAV01@PB_W@Z 170d5e40 f i c_foliagerenderer.obj
 0002:0001ee70       ?append@?$basic_string@_WU?$char_traits@_W@std@@V?$K2StringAllocator@_W@@@std@@QAEAAV12@PB_W@Z 170d5e70 f i c_foliagerenderer.obj
 0002:0001eeb0       ?append@?$basic_string@_WU?$char_traits@_W@std@@V?$K2StringAllocator@_W@@@std@@QAEAAV12@PB_WI@Z 170d5eb0 f i c_foliagerenderer.obj
 0002:0001efc0       ??$?H_WU?$char_traits@_W@std@@V?$K2StringAllocator@_W@@@std@@YA?AV?$basic_string@_WU?$char_traits@_W@std@@V?$K2StringAllocator@_W@@@0@ABV10@0@Z 170d5fc0 f i c_foliagerenderer.obj
 0002:0001f070       ??$_Destroy_range@V?$basic_string@_WU?$char_traits@_W@std@@V?$K2StringAllocator@_W@@@std@@V?$K2VectorAllocator@V?$basic_string@_WU?$char_traits@_W@std@@V?$K2StringAllocator@_W@@@std@@@@@std@@YAXPAV?$basic_string@_WU?$char_traits@_W@std@@V?$K2StringAllocator@_W@@@0@0AAV?$K2VectorAllocator@V?$basic_string@_WU?$char_traits@_W@std@@V?$K2StringAllocator@_W@@@std@@@@@Z 170d6070 f i c_foliagerenderer.obj
 0002:0001f0c0       ??$_Ptr_cat@PAV?$basic_string@_WU?$char_traits@_W@std@@V?$K2StringAllocator@_W@@@std@@PAV12@@std@@YA?AU_Nonscalar_ptr_iterator_tag@0@AAPAV?$basic_string@_WU?$char_traits@_W@std@@V?$K2StringAllocator@_W@@@0@0@Z 170d60c0 f i c_foliagerenderer.obj
 0002:0001f0e0       ??$_Destroy_range@V?$basic_string@_WU?$char_traits@_W@std@@V?$K2StringAllocator@_W@@@std@@V?$K2VectorAllocator@V?$basic_string@_WU?$char_traits@_W@std@@V?$K2StringAllocator@_W@@@std@@@@@std@@YAXPAV?$basic_string@_WU?$char_traits@_W@std@@V?$K2StringAllocator@_W@@@0@0AAV?$K2VectorAllocator@V?$basic_string@_WU?$char_traits@_W@std@@V?$K2StringAllocator@_W@@@std@@@@U_Nonscalar_ptr_iterator_tag@0@@Z 170d60e0 f i c_foliagerenderer.obj
 0002:0001f120       ?destroy@?$allocator@V?$basic_string@_WU?$char_traits@_W@std@@V?$K2StringAllocator@_W@@@std@@@std@@QAEXPAV?$basic_string@_WU?$char_traits@_W@std@@V?$K2StringAllocator@_W@@@2@@Z 170d6120 f i c_foliagerenderer.obj
 0002:0001f150       ??$unchecked_uninitialized_fill_n@PAV?$basic_string@_WU?$char_traits@_W@std@@V?$K2StringAllocator@_W@@@std@@IV12@V?$K2VectorAllocator@V?$basic_string@_WU?$char_traits@_W@std@@V?$K2StringAllocator@_W@@@std@@@@@stdext@@YAXPAV?$basic_string@_WU?$char_traits@_W@std@@V?$K2StringAllocator@_W@@@std@@IABV12@AAV?$K2VectorAllocator@V?$basic_string@_WU?$char_traits@_W@std@@V?$K2StringAllocator@_W@@@std@@@@@Z 170d6150 f i c_foliagerenderer.obj
 0002:0001f1b0       ??$_Uninit_fill_n@PAV?$basic_string@_WU?$char_traits@_W@std@@V?$K2StringAllocator@_W@@@std@@IV12@V?$K2VectorAllocator@V?$basic_string@_WU?$char_traits@_W@std@@V?$K2StringAllocator@_W@@@std@@@@@std@@YAXPAV?$basic_string@_WU?$char_traits@_W@std@@V?$K2StringAllocator@_W@@@0@IABV10@AAV?$K2VectorAllocator@V?$basic_string@_WU?$char_traits@_W@std@@V?$K2StringAllocator@_W@@@std@@@@U_Nonscalar_ptr_iterator_tag@0@U_Range_checked_iterator_tag@0@@Z 170d61b0 f i c_foliagerenderer.obj
 0002:0001f2a0       ?construct@?$allocator@V?$basic_string@_WU?$char_traits@_W@std@@V?$K2StringAllocator@_W@@@std@@@std@@QAEXPAV?$basic_string@_WU?$char_traits@_W@std@@V?$K2StringAllocator@_W@@@2@ABV32@@Z 170d62a0 f i c_foliagerenderer.obj
 0002:0001f2d0       ??$_Construct@V?$basic_string@_WU?$char_traits@_W@std@@V?$K2StringAllocator@_W@@@std@@V12@@std@@YAXPAV?$basic_string@_WU?$char_traits@_W@std@@V?$K2StringAllocator@_W@@@0@ABV10@@Z 170d62d0 f i c_foliagerenderer.obj
 0002:0001f380       ??2@YAPAXIPAX@Z            170d6380 f i c_foliagerenderer.obj
 0002:0001f3a0       ??3@YAXPAX0@Z              170d63a0 f i c_foliagerenderer.obj
 0002:0001f3c0       ??$_Umove@PAV?$basic_string@_WU?$char_traits@_W@std@@V?$K2StringAllocator@_W@@@std@@@?$vector@V?$basic_string@_WU?$char_traits@_W@std@@V?$K2StringAllocator@_W@@@std@@V?$K2VectorAllocator@V?$basic_string@_WU?$char_traits@_W@std@@V?$K2StringAllocator@_W@@@std@@@@@std@@IAEPAV?$basic_string@_WU?$char_traits@_W@std@@V?$K2StringAllocator@_W@@@1@PAV21@00@Z 170d63c0 f i c_foliagerenderer.obj
 0002:0001f400       ??$_Unchecked_uninitialized_move@PAV?$basic_string@_WU?$char_traits@_W@std@@V?$K2StringAllocator@_W@@@std@@PAV12@V?$K2VectorAllocator@V?$basic_string@_WU?$char_traits@_W@std@@V?$K2StringAllocator@_W@@@std@@@@@stdext@@YAPAV?$basic_string@_WU?$char_traits@_W@std@@V?$K2StringAllocator@_W@@@std@@PAV12@00AAV?$K2VectorAllocator@V?$basic_string@_WU?$char_traits@_W@std@@V?$K2StringAllocator@_W@@@std@@@@@Z 170d6400 f i c_foliagerenderer.obj
 0002:0001f470       ??$_Checked_base@PAV?$basic_string@_WU?$char_traits@_W@std@@V?$K2StringAllocator@_W@@@std@@@std@@YAPAV?$basic_string@_WU?$char_traits@_W@std@@V?$K2StringAllocator@_W@@@0@AAPAV10@@Z 170d6470 f i c_foliagerenderer.obj
 0002:0001f4a0       ??$_Move_cat@PAV?$basic_string@_WU?$char_traits@_W@std@@V?$K2StringAllocator@_W@@@std@@@std@@YA?AU_Swap_move_tag@0@ABQAV?$basic_string@_WU?$char_traits@_W@std@@V?$K2StringAllocator@_W@@@0@@Z 170d64a0 f i c_foliagerenderer.obj
 0002:0001f4c0       ??$_Checked_base@PAV?$basic_string@_WU?$char_traits@_W@std@@V?$K2StringAllocator@_W@@@std@@@std@@YAPAV?$basic_string@_WU?$char_traits@_W@std@@V?$K2StringAllocator@_W@@@0@AAPAV10@U_Unchanged_checked_iterator_base_type_tag@0@@Z 170d64c0 f i c_foliagerenderer.obj
 0002:0001f4e0       ??$_Uninit_move@PAV?$basic_string@_WU?$char_traits@_W@std@@V?$K2StringAllocator@_W@@@std@@PAV12@V?$K2VectorAllocator@V?$basic_string@_WU?$char_traits@_W@std@@V?$K2StringAllocator@_W@@@std@@@@@std@@YAPAV?$basic_string@_WU?$char_traits@_W@std@@V?$K2StringAllocator@_W@@@0@PAV10@00AAV?$K2VectorAllocator@V?$basic_string@_WU?$char_traits@_W@std@@V?$K2StringAllocator@_W@@@std@@@@U_Swap_move_tag@0@U_Range_checked_iterator_tag@0@@Z 170d64e0 f i c_foliagerenderer.obj
 0002:0001f670       ??$_Debug_range@PAV?$basic_string@_WU?$char_traits@_W@std@@V?$K2StringAllocator@_W@@@std@@@std@@YAXPAV?$basic_string@_WU?$char_traits@_W@std@@V?$K2StringAllocator@_W@@@0@0PB_WI@Z 170d6670 f i c_foliagerenderer.obj
 0002:0001f6c0       ??$_Debug_pointer@V?$basic_string@_WU?$char_traits@_W@std@@V?$K2StringAllocator@_W@@@std@@@std@@YAXPAV?$basic_string@_WU?$char_traits@_W@std@@V?$K2StringAllocator@_W@@@0@PB_WI@Z 170d66c0 f i c_foliagerenderer.obj
 0002:0001f700       ??$swap@_WU?$char_traits@_W@std@@V?$K2StringAllocator@_W@@@std@@YAXAAV?$basic_string@_WU?$char_traits@_W@std@@V?$K2StringAllocator@_W@@@0@0@Z 170d6700 f i c_foliagerenderer.obj
 0002:0001f730       ??$_Iter_cat@PAV?$basic_string@_WU?$char_traits@_W@std@@V?$K2StringAllocator@_W@@@std@@@std@@YA?AUrandom_access_iterator_tag@0@ABQAV?$basic_string@_WU?$char_traits@_W@std@@V?$K2StringAllocator@_W@@@0@@Z 170d6730 f i c_foliagerenderer.obj
 0002:0001f750       ??$_Debug_range2@PAV?$basic_string@_WU?$char_traits@_W@std@@V?$K2StringAllocator@_W@@@std@@@std@@YAXPAV?$basic_string@_WU?$char_traits@_W@std@@V?$K2StringAllocator@_W@@@0@0PB_WIUrandom_access_iterator_tag@0@@Z 170d6750 f i c_foliagerenderer.obj
 0002:0001f7d0       ?swap@?$basic_string@_WU?$char_traits@_W@std@@V?$K2StringAllocator@_W@@@std@@QAEXAAV12@@Z 170d67d0 f i c_foliagerenderer.obj
 0002:0001f980       ??$?8_W_W@std@@YA_NABV?$allocator@_W@0@0@Z 170d6980 f i c_foliagerenderer.obj
 0002:0001f9a0       ??0?$basic_string@_WU?$char_traits@_W@std@@V?$K2StringAllocator@_W@@@std@@QAE@U_Has_debug_it@01@@Z 170d69a0 f i c_foliagerenderer.obj
 0002:0001fa50       ??4?$basic_string@_WU?$char_traits@_W@std@@V?$K2StringAllocator@_W@@@std@@QAEAAV01@ABV01@@Z 170d6a50 f i c_foliagerenderer.obj
 0002:0001fa80       ??0_Has_debug_it@?$basic_string@_WU?$char_traits@_W@std@@V?$K2StringAllocator@_W@@@std@@QAE@_N@Z 170d6a80 f i c_foliagerenderer.obj
 0002:0001fab0       ?assign@?$basic_string@_WU?$char_traits@_W@std@@V?$K2StringAllocator@_W@@@std@@QAEAAV12@ABV12@@Z 170d6ab0 f i c_foliagerenderer.obj
 0002:0001faf0       ??$fill@PAV?$basic_string@_WU?$char_traits@_W@std@@V?$K2StringAllocator@_W@@@std@@V12@@std@@YAXPAV?$basic_string@_WU?$char_traits@_W@std@@V?$K2StringAllocator@_W@@@0@0ABV10@@Z 170d6af0 f i c_foliagerenderer.obj
 0002:0001fb40       ??$_Fill@PAV?$basic_string@_WU?$char_traits@_W@std@@V?$K2StringAllocator@_W@@@std@@V12@@std@@YAXPAV?$basic_string@_WU?$char_traits@_W@std@@V?$K2StringAllocator@_W@@@0@0ABV10@@Z 170d6b40 f i c_foliagerenderer.obj
 0002:0001fba0       ??$_Unchecked_move_backward@PAV?$basic_string@_WU?$char_traits@_W@std@@V?$K2StringAllocator@_W@@@std@@PAV12@@stdext@@YAPAV?$basic_string@_WU?$char_traits@_W@std@@V?$K2StringAllocator@_W@@@std@@PAV12@00@Z 170d6ba0 f i c_foliagerenderer.obj
 0002:0001fc30       ??$_Iter_random@PAV?$basic_string@_WU?$char_traits@_W@std@@V?$K2StringAllocator@_W@@@std@@PAV12@@std@@YA?AUrandom_access_iterator_tag@0@ABQAV?$basic_string@_WU?$char_traits@_W@std@@V?$K2StringAllocator@_W@@@0@0@Z 170d6c30 f i c_foliagerenderer.obj
 0002:0001fc50       ??$_Move_backward_opt@PAV?$basic_string@_WU?$char_traits@_W@std@@V?$K2StringAllocator@_W@@@std@@PAV12@@std@@YAPAV?$basic_string@_WU?$char_traits@_W@std@@V?$K2StringAllocator@_W@@@0@PAV10@00Urandom_access_iterator_tag@0@U_Swap_move_tag@0@U_Range_checked_iterator_tag@0@@Z 170d6c50 f i c_foliagerenderer.obj
 0002:0001fcc0       ??$_Move_backward_opt@PAV?$basic_string@_WU?$char_traits@_W@std@@V?$K2StringAllocator@_W@@@std@@PAV12@Uforward_iterator_tag@2@@std@@YAPAV?$basic_string@_WU?$char_traits@_W@std@@V?$K2StringAllocator@_W@@@0@PAV10@00Uforward_iterator_tag@0@U_Swap_move_tag@0@U_Range_checked_iterator_tag@0@@Z 170d6cc0 f i c_foliagerenderer.obj
 0002:0001fd30       ??$_Destroy@V?$basic_string@_WU?$char_traits@_W@std@@V?$K2StringAllocator@_W@@@std@@@std@@YAXPAV?$basic_string@_WU?$char_traits@_W@std@@V?$K2StringAllocator@_W@@@0@@Z 170d6d30 f i c_foliagerenderer.obj
 0002:0001fd50       ??_G?$basic_string@_WU?$char_traits@_W@std@@V?$K2StringAllocator@_W@@@std@@QAEPAXI@Z 170d6d50 f i c_foliagerenderer.obj
 0002:0001fda0       ??0?$CCvar@HH@@QAE@ABV?$basic_string@_WU?$char_traits@_W@std@@V?$K2StringAllocator@_W@@@std@@HHP6A_NPAVCConsoleElement@@ABV?$vector@V?$basic_string@_WU?$char_traits@_W@std@@V?$K2StringAllocator@_W@@@std@@V?$K2VectorAllocator@V?$basic_string@_WU?$char_traits@_W@std@@V?$K2StringAllocator@_W@@@std@@@@@@@Z@Z 170d6da0 f i c_foliagerenderer.obj
 0002:0001feb0       ??_E?$CCvar@HH@@UAEPAXI@Z  170d6eb0 f i c_foliagerenderer.obj
 0002:0001feb0       ??_G?$CCvar@HH@@UAEPAXI@Z  170d6eb0 f i c_foliagerenderer.obj
 0002:0001ff00       ?Set@?$CCvar@HH@@UAEXABV?$basic_string@_WU?$char_traits@_W@std@@V?$K2StringAllocator@_W@@@std@@@Z 170d6f00 f i c_foliagerenderer.obj
 0002:00020050       ?AtoX@@YAAAHABV?$basic_string@_WU?$char_traits@_W@std@@V?$K2StringAllocator@_W@@@std@@AAH@Z 170d7050 f i c_foliagerenderer.obj
 0002:00020090       ??6CConsoleStream@@QAEAAV0@PB_W@Z 170d7090 f i c_foliagerenderer.obj
 0002:00020120       ?AddOutputHistory@CConsoleStream@@AAEXABV?$basic_string@_WU?$char_traits@_W@std@@V?$K2StringAllocator@_W@@@std@@@Z 170d7120 f i c_foliagerenderer.obj
 0002:00020150       ??6CConsoleStream@@QAEAAV0@ABV?$basic_string@_WU?$char_traits@_W@std@@V?$K2StringAllocator@_W@@@std@@@Z 170d7150 f i c_foliagerenderer.obj
 0002:00020180       ??6CConsoleStream@@QAEAAV0@H@Z 170d7180 f i c_foliagerenderer.obj
 0002:00020230       ?XtoW@@YA?AV?$basic_string@_WU?$char_traits@_W@std@@V?$K2StringAllocator@_W@@@std@@HHHH@Z 170d7230 f i c_foliagerenderer.obj
 0002:00020280       ?GetNewl@CConsole@@QBEABV?$basic_string@_WU?$char_traits@_W@std@@V?$K2StringAllocator@_W@@@std@@XZ 170d7280 f i c_foliagerenderer.obj
 0002:000202b0       ?Inc@?$CCvar@HH@@UAEXABV?$basic_string@_WU?$char_traits@_W@std@@V?$K2StringAllocator@_W@@@std@@@Z 170d72b0 f i c_foliagerenderer.obj
 0002:00020320       ?AtoI@@YAHABV?$basic_string@_WU?$char_traits@_W@std@@V?$K2StringAllocator@_W@@@std@@@Z 170d7320 f i c_foliagerenderer.obj
 0002:00020350       ?Toggle@?$CCvar@HH@@UAEXXZ 170d7350 f i c_foliagerenderer.obj
 0002:000203a0       ??1?$CCvar@HH@@UAE@XZ      170d73a0 f i c_foliagerenderer.obj
 0002:000203d0       ?Reset@?$CCvar@HH@@UAEXXZ  170d73d0 f i c_foliagerenderer.obj
 0002:00020430       ?IsDefault@?$CCvar@HH@@UBE_NXZ 170d7430 f i c_foliagerenderer.obj
 0002:00020470       ?StoreValue@?$CCvar@HH@@UAEXXZ 170d7470 f i c_foliagerenderer.obj
 0002:000204a0       ?RestoreStored@?$CCvar@HH@@UAEXXZ 170d74a0 f i c_foliagerenderer.obj
 0002:000204d0       ?GetString@?$CCvar@HH@@UBE?AV?$basic_string@_WU?$char_traits@_W@std@@V?$K2StringAllocator@_W@@@std@@XZ 170d74d0 f i c_foliagerenderer.obj
 0002:00020530       ?SetIndex@?$CCvar@HH@@UAEXIABV?$basic_string@_WU?$char_traits@_W@std@@V?$K2StringAllocator@_W@@@std@@@Z 170d7530 f i c_foliagerenderer.obj
 0002:00020550       ??$_ItoW@H@@YA?AV?$basic_string@_WU?$char_traits@_W@std@@V?$K2StringAllocator@_W@@@std@@HHHH@Z 170d7550 f i c_foliagerenderer.obj
 0002:00020650       ??$ABS@H@@YAHH@Z           170d7650 f i c_foliagerenderer.obj
 0002:00020690       ?GetRangeString@?$CCvar@HH@@UBE?AV?$basic_string@_WU?$char_traits@_W@std@@V?$K2StringAllocator@_W@@@std@@XZ 170d7690 f i c_foliagerenderer.obj
 0002:000208f0       ??0?$CPool@VCFoliageRenderer@@@@QAE@II@Z 170d78f0 f i c_foliagerenderer.obj
 0002:000209b0       ??0?$vector@PAVCFoliageRenderer@@V?$K2VectorAllocator@PAVCFoliageRenderer@@@@@@QAE@XZ 170d79b0 f i c_foliagerenderer.obj
 0002:000209e0       ??0?$vector@PAVCFoliageRenderer@@V?$K2VectorAllocator@PAVCFoliageRenderer@@@@@std@@QAE@XZ 170d79e0 f i c_foliagerenderer.obj
 0002:00020a70       ??1?$_Vector_val@PAVCFoliageRenderer@@V?$K2VectorAllocator@PAVCFoliageRenderer@@@@@std@@QAE@XZ 170d7a70 f i c_foliagerenderer.obj
 0002:00020af0       ??1?$K2VectorAllocator@PAVCFoliageRenderer@@@@QAE@XZ 170d7af0 f i c_foliagerenderer.obj
 0002:00020b10       ?_Buy@?$vector@PAVCFoliageRenderer@@V?$K2VectorAllocator@PAVCFoliageRenderer@@@@@std@@IAE_NI@Z 170d7b10 f i c_foliagerenderer.obj
 0002:00020bc0       ??0?$_Vector_val@PAVCFoliageRenderer@@V?$K2VectorAllocator@PAVCFoliageRenderer@@@@@std@@IAE@V?$K2VectorAllocator@PAVCFoliageRenderer@@@@@Z 170d7bc0 f i c_foliagerenderer.obj
 0002:00020c60       ??0?$K2VectorAllocator@PAVCFoliageRenderer@@@@QAE@XZ 170d7c60 f i c_foliagerenderer.obj
 0002:00020c90       ??0?$K2VectorAllocator@PAVCFoliageRenderer@@@@QAE@ABV0@@Z 170d7c90 f i c_foliagerenderer.obj
 0002:00020cc0       ??0?$allocator@PAVCFoliageRenderer@@@std@@QAE@XZ 170d7cc0 f i c_foliagerenderer.obj
 0002:00020ce0       ??0?$allocator@PAVCFoliageRenderer@@@std@@QAE@ABV01@@Z 170d7ce0 f i c_foliagerenderer.obj
 0002:00020d00       ??1?$CPool@VCFoliageRenderer@@@@QAE@XZ 170d7d00 f i c_foliagerenderer.obj
 0002:00020db0       ??1?$vector@PAVCFoliageRenderer@@V?$K2VectorAllocator@PAVCFoliageRenderer@@@@@@QAE@XZ 170d7db0 f i c_foliagerenderer.obj
 0002:00020de0       ??1?$vector@PAVCFoliageRenderer@@V?$K2VectorAllocator@PAVCFoliageRenderer@@@@@std@@QAE@XZ 170d7de0 f i c_foliagerenderer.obj
 0002:00020e60       ?_Tidy@?$vector@PAVCFoliageRenderer@@V?$K2VectorAllocator@PAVCFoliageRenderer@@@@@std@@IAEXXZ 170d7e60 f i c_foliagerenderer.obj
 0002:00020f00       ?Reset@?$CPool@VCFoliageRenderer@@@@QAEXXZ 170d7f00 f i c_foliagerenderer.obj
 0002:00021020       ?clear@?$vector@PAVCFoliageRenderer@@V?$K2VectorAllocator@PAVCFoliageRenderer@@@@@std@@QAEXXZ 170d8020 f i c_foliagerenderer.obj
 0002:000210e0       ??D?$_Vector_iterator@PAVCFoliageRenderer@@V?$K2VectorAllocator@PAVCFoliageRenderer@@@@@std@@QBEAAPAVCFoliageRenderer@@XZ 170d80e0 f i c_foliagerenderer.obj
 0002:00021110       ??E?$_Vector_iterator@PAVCFoliageRenderer@@V?$K2VectorAllocator@PAVCFoliageRenderer@@@@@std@@QAEAAV01@XZ 170d8110 f i c_foliagerenderer.obj
 0002:00021140       ??9?$_Vector_const_iterator@PAVCFoliageRenderer@@V?$K2VectorAllocator@PAVCFoliageRenderer@@@@@std@@QBE_NABV01@@Z 170d8140 f i c_foliagerenderer.obj
 0002:00021180       ?erase@?$vector@PAVCFoliageRenderer@@V?$K2VectorAllocator@PAVCFoliageRenderer@@@@@std@@QAE?AV?$_Vector_iterator@PAVCFoliageRenderer@@V?$K2VectorAllocator@PAVCFoliageRenderer@@@@@2@V32@0@Z 170d8180 f i c_foliagerenderer.obj
 0002:00021300       ??D?$_Vector_const_iterator@PAVCFoliageRenderer@@V?$K2VectorAllocator@PAVCFoliageRenderer@@@@@std@@QBEABQAVCFoliageRenderer@@XZ 170d8300 f i c_foliagerenderer.obj
 0002:000213c0       ??E?$_Vector_const_iterator@PAVCFoliageRenderer@@V?$K2VectorAllocator@PAVCFoliageRenderer@@@@@std@@QAEAAV01@XZ 170d83c0 f i c_foliagerenderer.obj
 0002:000214b0       ??8?$_Vector_const_iterator@PAVCFoliageRenderer@@V?$K2VectorAllocator@PAVCFoliageRenderer@@@@@std@@QBE_NABV01@@Z 170d84b0 f i c_foliagerenderer.obj
 0002:000214f0       ??M?$_Vector_const_iterator@PAVCFoliageRenderer@@V?$K2VectorAllocator@PAVCFoliageRenderer@@@@@std@@QBE_NABV01@@Z 170d84f0 f i c_foliagerenderer.obj
 0002:00021530       ??$unchecked_copy@PAPAVCFoliageRenderer@@PAPAV1@@stdext@@YAPAPAVCFoliageRenderer@@PAPAV1@00@Z 170d8530 f i c_foliagerenderer.obj
 0002:000215c0       ??$_Copy_opt@PAPAVCFoliageRenderer@@PAPAV1@Urandom_access_iterator_tag@std@@@std@@YAPAPAVCFoliageRenderer@@PAPAV1@00Urandom_access_iterator_tag@0@U_Scalar_ptr_iterator_tag@0@U_Range_checked_iterator_tag@0@@Z 170d85c0 f i c_foliagerenderer.obj
 0002:00021670       ??2CLineRenderer@@SAPAXIPBD00F@Z 170d8670 f   c_linerenderer.obj
 0002:00021690       ??0CLineRenderer@@QAE@H@Z  170d8690 f   c_linerenderer.obj
 0002:000216e0       ??_ECLineRenderer@@UAEPAXI@Z 170d86e0 f i c_linerenderer.obj
 0002:000216e0       ??_GCLineRenderer@@UAEPAXI@Z 170d86e0 f i c_linerenderer.obj
 0002:00021730       ??3CLineRenderer@@SAXPAX@Z 170d8730 f i c_linerenderer.obj
 0002:00021750       ??1CLineRenderer@@UAE@XZ   170d8750 f   c_linerenderer.obj
 0002:00021780       ?Render@CLineRenderer@@UAEXW4EMaterialPhase@@@Z 170d8780 f   c_linerenderer.obj
 0002:000218f0       ?Allocate@?$CPool@VCLineRenderer@@@@QAEPAVCLineRenderer@@XZ 170d88f0 f i c_linerenderer.obj
 0002:00021a80       ?push_back@?$vector@PAVCLineRenderer@@V?$K2VectorAllocator@PAVCLineRenderer@@@@@std@@QAEXABQAVCLineRenderer@@@Z 170d8a80 f i c_linerenderer.obj
 0002:00021b30       ??1?$_Vector_iterator@PAVCLineRenderer@@V?$K2VectorAllocator@PAVCLineRenderer@@@@@std@@QAE@XZ 170d8b30 f i c_linerenderer.obj
 0002:00021b60       ??1?$_Vector_const_iterator@PAVCLineRenderer@@V?$K2VectorAllocator@PAVCLineRenderer@@@@@std@@QAE@XZ 170d8b60 f i c_linerenderer.obj
 0002:00021b90       ??1?$_Ranit@PAVCLineRenderer@@HPBQAV1@ABQAV1@@std@@QAE@XZ 170d8b90 f i c_linerenderer.obj
 0002:00021bc0       ?end@?$vector@PAVCLineRenderer@@V?$K2VectorAllocator@PAVCLineRenderer@@@@@std@@QAE?AV?$_Vector_iterator@PAVCLineRenderer@@V?$K2VectorAllocator@PAVCLineRenderer@@@@@2@XZ 170d8bc0 f i c_linerenderer.obj
 0002:00021c10       ?capacity@?$vector@PAVCLineRenderer@@V?$K2VectorAllocator@PAVCLineRenderer@@@@@std@@QBEIXZ 170d8c10 f i c_linerenderer.obj
 0002:00021c60       ?size@?$vector@PAVCLineRenderer@@V?$K2VectorAllocator@PAVCLineRenderer@@@@@std@@QBEIXZ 170d8c60 f i c_linerenderer.obj
 0002:00021cb0       ?insert@?$vector@PAVCLineRenderer@@V?$K2VectorAllocator@PAVCLineRenderer@@@@@std@@QAE?AV?$_Vector_iterator@PAVCLineRenderer@@V?$K2VectorAllocator@PAVCLineRenderer@@@@@2@V32@ABQAVCLineRenderer@@@Z 170d8cb0 f i c_linerenderer.obj
 0002:00021e20       ?begin@?$vector@PAVCLineRenderer@@V?$K2VectorAllocator@PAVCLineRenderer@@@@@std@@QAE?AV?$_Vector_iterator@PAVCLineRenderer@@V?$K2VectorAllocator@PAVCLineRenderer@@@@@2@XZ 170d8e20 f i c_linerenderer.obj
 0002:00021e70       ?_Ufill@?$vector@PAVCLineRenderer@@V?$K2VectorAllocator@PAVCLineRenderer@@@@@std@@IAEPAPAVCLineRenderer@@PAPAV3@IABQAV3@@Z 170d8e70 f i c_linerenderer.obj
 0002:00021ec0       ?_Orphan_range@?$vector@PAVCLineRenderer@@V?$K2VectorAllocator@PAVCLineRenderer@@@@@std@@IBEXPAPAVCLineRenderer@@0@Z 170d8ec0 f i c_linerenderer.obj
 0002:00021f60       ??0?$_Vector_iterator@PAVCLineRenderer@@V?$K2VectorAllocator@PAVCLineRenderer@@@@@std@@QAE@PAPAVCLineRenderer@@PBV_Container_base@1@@Z 170d8f60 f i c_linerenderer.obj
 0002:00021fa0       ??0?$_Vector_iterator@PAVCLineRenderer@@V?$K2VectorAllocator@PAVCLineRenderer@@@@@std@@QAE@ABV01@@Z 170d8fa0 f i c_linerenderer.obj
 0002:00021fd0       ??0?$_Vector_const_iterator@PAVCLineRenderer@@V?$K2VectorAllocator@PAVCLineRenderer@@@@@std@@QAE@ABV01@@Z 170d8fd0 f i c_linerenderer.obj
 0002:00022010       ??0?$_Ranit@PAVCLineRenderer@@HPBQAV1@ABQAV1@@std@@QAE@ABU01@@Z 170d9010 f i c_linerenderer.obj
 0002:00022040       ?_Insert_n@?$vector@PAVCLineRenderer@@V?$K2VectorAllocator@PAVCLineRenderer@@@@@std@@IAEXV?$_Vector_iterator@PAVCLineRenderer@@V?$K2VectorAllocator@PAVCLineRenderer@@@@@2@IABQAVCLineRenderer@@@Z 170d9040 f i c_linerenderer.obj
 0002:000224f0       ?_Destroy@?$vector@PAVCLineRenderer@@V?$K2VectorAllocator@PAVCLineRenderer@@@@@std@@IAEXPAPAVCLineRenderer@@0@Z 170d94f0 f i c_linerenderer.obj
 0002:00022530       ?deallocate@?$K2VectorAllocator@PAVCLineRenderer@@@@QAEXPAPAVCLineRenderer@@I@Z 170d9530 f i c_linerenderer.obj
 0002:00022570       ??$_Destroy_range@PAVCLineRenderer@@V?$K2VectorAllocator@PAVCLineRenderer@@@@@std@@YAXPAPAVCLineRenderer@@0AAV?$K2VectorAllocator@PAVCLineRenderer@@@@@Z 170d9570 f i c_linerenderer.obj
 0002:000225c0       ??H?$_Vector_iterator@PAVCLineRenderer@@V?$K2VectorAllocator@PAVCLineRenderer@@@@@std@@QBE?AV01@H@Z 170d95c0 f i c_linerenderer.obj
 0002:00022670       ??G?$_Vector_iterator@PAVCLineRenderer@@V?$K2VectorAllocator@PAVCLineRenderer@@@@@std@@QBEHABV?$_Vector_const_iterator@PAVCLineRenderer@@V?$K2VectorAllocator@PAVCLineRenderer@@@@@1@@Z 170d9670 f i c_linerenderer.obj
 0002:000226a0       ??0?$_Vector_const_iterator@PAVCLineRenderer@@V?$K2VectorAllocator@PAVCLineRenderer@@@@@std@@QAE@PAPAVCLineRenderer@@PBV_Container_base@1@@Z 170d96a0 f i c_linerenderer.obj
 0002:000227a0       ??0?$_Ranit@PAVCLineRenderer@@HPBQAV1@ABQAV1@@std@@QAE@XZ 170d97a0 f i c_linerenderer.obj
 0002:000227d0       ?max_size@?$vector@PAVCLineRenderer@@V?$K2VectorAllocator@PAVCLineRenderer@@@@@std@@QBEIXZ 170d97d0 f i c_linerenderer.obj
 0002:00022800       ?_Xlen@?$vector@PAVCLineRenderer@@V?$K2VectorAllocator@PAVCLineRenderer@@@@@std@@KAXXZ 170d9800 f i c_linerenderer.obj
 0002:000228b0       ?allocate@?$K2VectorAllocator@PAVCLineRenderer@@@@QAEPAPAVCLineRenderer@@I@Z 170d98b0 f i c_linerenderer.obj
 0002:00022900       ??Y?$_Vector_iterator@PAVCLineRenderer@@V?$K2VectorAllocator@PAVCLineRenderer@@@@@std@@QAEAAV01@H@Z 170d9900 f i c_linerenderer.obj
 0002:00022930       ??G?$_Vector_const_iterator@PAVCLineRenderer@@V?$K2VectorAllocator@PAVCLineRenderer@@@@@std@@QBEHABV01@@Z 170d9930 f i c_linerenderer.obj
 0002:00022970       ?_Compat@?$_Vector_const_iterator@PAVCLineRenderer@@V?$K2VectorAllocator@PAVCLineRenderer@@@@@std@@QBEXABV12@@Z 170d9970 f i c_linerenderer.obj
 0002:00022a20       ?max_size@?$allocator@PAVCLineRenderer@@@std@@QBEIXZ 170d9a20 f i c_linerenderer.obj
 0002:00022a60       ??Y?$_Vector_const_iterator@PAVCLineRenderer@@V?$K2VectorAllocator@PAVCLineRenderer@@@@@std@@QAEAAV01@H@Z 170d9a60 f i c_linerenderer.obj
 0002:00022b90       ??$_Ptr_cat@PAPAVCLineRenderer@@PAPAV1@@std@@YA?AU_Scalar_ptr_iterator_tag@0@AAPAPAVCLineRenderer@@0@Z 170d9b90 f i c_linerenderer.obj
 0002:00022bb0       ??$_Destroy_range@PAVCLineRenderer@@V?$K2VectorAllocator@PAVCLineRenderer@@@@@std@@YAXPAPAVCLineRenderer@@0AAV?$K2VectorAllocator@PAVCLineRenderer@@@@U_Scalar_ptr_iterator_tag@0@@Z 170d9bb0 f i c_linerenderer.obj
 0002:00022bd0       ??$unchecked_uninitialized_fill_n@PAPAVCLineRenderer@@IPAV1@V?$K2VectorAllocator@PAVCLineRenderer@@@@@stdext@@YAXPAPAVCLineRenderer@@IABQAV1@AAV?$K2VectorAllocator@PAVCLineRenderer@@@@@Z 170d9bd0 f i c_linerenderer.obj
 0002:00022c30       ??$_Umove@PAPAVCLineRenderer@@@?$vector@PAVCLineRenderer@@V?$K2VectorAllocator@PAVCLineRenderer@@@@@std@@IAEPAPAVCLineRenderer@@PAPAV2@00@Z 170d9c30 f i c_linerenderer.obj
 0002:00022c70       ??$fill@PAPAVCLineRenderer@@PAV1@@std@@YAXPAPAVCLineRenderer@@0ABQAV1@@Z 170d9c70 f i c_linerenderer.obj
 0002:00022cc0       ??$_Unchecked_move_backward@PAPAVCLineRenderer@@PAPAV1@@stdext@@YAPAPAVCLineRenderer@@PAPAV1@00@Z 170d9cc0 f i c_linerenderer.obj
 0002:00022d50       ??$_Checked_base@PAPAVCLineRenderer@@@std@@YAPAPAVCLineRenderer@@AAPAPAV1@@Z 170d9d50 f i c_linerenderer.obj
 0002:00022d80       ??$_Iter_random@PAPAVCLineRenderer@@PAPAV1@@std@@YA?AUrandom_access_iterator_tag@0@ABQAPAVCLineRenderer@@0@Z 170d9d80 f i c_linerenderer.obj
 0002:00022da0       ??$_Uninit_fill_n@PAPAVCLineRenderer@@IPAV1@V?$K2VectorAllocator@PAVCLineRenderer@@@@@std@@YAXPAPAVCLineRenderer@@IABQAV1@AAV?$K2VectorAllocator@PAVCLineRenderer@@@@U_Scalar_ptr_iterator_tag@0@U_Range_checked_iterator_tag@0@@Z 170d9da0 f i c_linerenderer.obj
 0002:00022dd0       ??$_Unchecked_uninitialized_move@PAPAVCLineRenderer@@PAPAV1@V?$K2VectorAllocator@PAVCLineRenderer@@@@@stdext@@YAPAPAVCLineRenderer@@PAPAV1@00AAV?$K2VectorAllocator@PAVCLineRenderer@@@@@Z 170d9dd0 f i c_linerenderer.obj
 0002:00022e40       ??$_Fill@PAPAVCLineRenderer@@PAV1@@std@@YAXPAPAVCLineRenderer@@0ABQAV1@@Z 170d9e40 f i c_linerenderer.obj
 0002:00022ea0       ??$_Move_cat@PAPAVCLineRenderer@@@std@@YA?AU_Undefined_move_tag@0@ABQAPAVCLineRenderer@@@Z 170d9ea0 f i c_linerenderer.obj
 0002:00022ec0       ??$_Move_backward_opt@PAPAVCLineRenderer@@PAPAV1@Urandom_access_iterator_tag@std@@U_Undefined_move_tag@3@@std@@YAPAPAVCLineRenderer@@PAPAV1@00Urandom_access_iterator_tag@0@U_Undefined_move_tag@0@U_Range_checked_iterator_tag@0@@Z 170d9ec0 f i c_linerenderer.obj
 0002:00022f20       ??$_Checked_base@PAPAVCLineRenderer@@@std@@YAPAPAVCLineRenderer@@AAPAPAV1@U_Unchanged_checked_iterator_base_type_tag@0@@Z 170d9f20 f i c_linerenderer.obj
 0002:00022f40       ??$_Debug_range@PAPAVCLineRenderer@@@std@@YAXPAPAVCLineRenderer@@0PB_WI@Z 170d9f40 f i c_linerenderer.obj
 0002:00022f90       ??$unchecked_fill_n@PAPAVCLineRenderer@@IPAV1@@stdext@@YAXPAPAVCLineRenderer@@IABQAV1@@Z 170d9f90 f i c_linerenderer.obj
 0002:00022fe0       ??$_Uninit_move@PAPAVCLineRenderer@@PAPAV1@V?$K2VectorAllocator@PAVCLineRenderer@@@@U_Undefined_move_tag@std@@@std@@YAPAPAVCLineRenderer@@PAPAV1@00AAV?$K2VectorAllocator@PAVCLineRenderer@@@@U_Undefined_move_tag@0@U_Range_checked_iterator_tag@0@@Z 170d9fe0 f i c_linerenderer.obj
 0002:00023020       ??$_Copy_backward_opt@PAPAVCLineRenderer@@PAPAV1@Urandom_access_iterator_tag@std@@@std@@YAPAPAVCLineRenderer@@PAPAV1@00Urandom_access_iterator_tag@0@U_Scalar_ptr_iterator_tag@0@U_Range_checked_iterator_tag@0@@Z 170da020 f i c_linerenderer.obj
 0002:000230d0       ??$_Debug_pointer@PAVCLineRenderer@@@std@@YAXPAPAVCLineRenderer@@PB_WI@Z 170da0d0 f i c_linerenderer.obj
 0002:00023110       ??$_Iter_cat@PAPAVCLineRenderer@@@std@@YA?AUrandom_access_iterator_tag@0@ABQAPAVCLineRenderer@@@Z 170da110 f i c_linerenderer.obj
 0002:00023130       ??$_Debug_range2@PAPAVCLineRenderer@@@std@@YAXPAPAVCLineRenderer@@0PB_WIUrandom_access_iterator_tag@0@@Z 170da130 f i c_linerenderer.obj
 0002:000231b0       ??$_Fill_n@PAPAVCLineRenderer@@IPAV1@@std@@YAXPAPAVCLineRenderer@@IABQAV1@Urandom_access_iterator_tag@0@U_Range_checked_iterator_tag@0@@Z 170da1b0 f i c_linerenderer.obj
 0002:00023210       ??$unchecked_uninitialized_copy@PAPAVCLineRenderer@@PAPAV1@V?$K2VectorAllocator@PAVCLineRenderer@@@@@stdext@@YAPAPAVCLineRenderer@@PAPAV1@00AAV?$K2VectorAllocator@PAVCLineRenderer@@@@@Z 170da210 f i c_linerenderer.obj
 0002:00023280       ??$_Fill_n@PAPAVCLineRenderer@@IPAV1@@std@@YAXPAPAVCLineRenderer@@IABQAV1@U_Range_checked_iterator_tag@0@@Z 170da280 f i c_linerenderer.obj
 0002:000232d0       ??$_Uninit_copy@PAPAVCLineRenderer@@PAPAV1@V?$K2VectorAllocator@PAVCLineRenderer@@@@@std@@YAPAPAVCLineRenderer@@PAPAV1@00AAV?$K2VectorAllocator@PAVCLineRenderer@@@@U_Scalar_ptr_iterator_tag@0@U_Range_checked_iterator_tag@0@@Z 170da2d0 f i c_linerenderer.obj
 0002:00023370       ??0?$CPool@VCLineRenderer@@@@QAE@II@Z 170da370 f i c_linerenderer.obj
 0002:00023430       ??0?$vector@PAVCLineRenderer@@V?$K2VectorAllocator@PAVCLineRenderer@@@@@@QAE@XZ 170da430 f i c_linerenderer.obj
 0002:00023460       ??0?$vector@PAVCLineRenderer@@V?$K2VectorAllocator@PAVCLineRenderer@@@@@std@@QAE@XZ 170da460 f i c_linerenderer.obj
 0002:000234f0       ??1?$_Vector_val@PAVCLineRenderer@@V?$K2VectorAllocator@PAVCLineRenderer@@@@@std@@QAE@XZ 170da4f0 f i c_linerenderer.obj
 0002:00023570       ??1?$K2VectorAllocator@PAVCLineRenderer@@@@QAE@XZ 170da570 f i c_linerenderer.obj
 0002:00023590       ?_Buy@?$vector@PAVCLineRenderer@@V?$K2VectorAllocator@PAVCLineRenderer@@@@@std@@IAE_NI@Z 170da590 f i c_linerenderer.obj
 0002:00023640       ??0?$_Vector_val@PAVCLineRenderer@@V?$K2VectorAllocator@PAVCLineRenderer@@@@@std@@IAE@V?$K2VectorAllocator@PAVCLineRenderer@@@@@Z 170da640 f i c_linerenderer.obj
 0002:000236e0       ??0?$K2VectorAllocator@PAVCLineRenderer@@@@QAE@XZ 170da6e0 f i c_linerenderer.obj
 0002:00023710       ??0?$K2VectorAllocator@PAVCLineRenderer@@@@QAE@ABV0@@Z 170da710 f i c_linerenderer.obj
 0002:00023740       ??0?$allocator@PAVCLineRenderer@@@std@@QAE@XZ 170da740 f i c_linerenderer.obj
 0002:00023760       ??0?$allocator@PAVCLineRenderer@@@std@@QAE@ABV01@@Z 170da760 f i c_linerenderer.obj
 0002:00023780       ??1?$CPool@VCLineRenderer@@@@QAE@XZ 170da780 f i c_linerenderer.obj
 0002:00023830       ??1?$vector@PAVCLineRenderer@@V?$K2VectorAllocator@PAVCLineRenderer@@@@@@QAE@XZ 170da830 f i c_linerenderer.obj
 0002:00023860       ??1?$vector@PAVCLineRenderer@@V?$K2VectorAllocator@PAVCLineRenderer@@@@@std@@QAE@XZ 170da860 f i c_linerenderer.obj
 0002:000238e0       ?_Tidy@?$vector@PAVCLineRenderer@@V?$K2VectorAllocator@PAVCLineRenderer@@@@@std@@IAEXXZ 170da8e0 f i c_linerenderer.obj
 0002:00023980       ?Reset@?$CPool@VCLineRenderer@@@@QAEXXZ 170da980 f i c_linerenderer.obj
 0002:00023aa0       ?clear@?$vector@PAVCLineRenderer@@V?$K2VectorAllocator@PAVCLineRenderer@@@@@std@@QAEXXZ 170daaa0 f i c_linerenderer.obj
 0002:00023b60       ??D?$_Vector_iterator@PAVCLineRenderer@@V?$K2VectorAllocator@PAVCLineRenderer@@@@@std@@QBEAAPAVCLineRenderer@@XZ 170dab60 f i c_linerenderer.obj
 0002:00023b90       ??E?$_Vector_iterator@PAVCLineRenderer@@V?$K2VectorAllocator@PAVCLineRenderer@@@@@std@@QAEAAV01@XZ 170dab90 f i c_linerenderer.obj
 0002:00023bc0       ??9?$_Vector_const_iterator@PAVCLineRenderer@@V?$K2VectorAllocator@PAVCLineRenderer@@@@@std@@QBE_NABV01@@Z 170dabc0 f i c_linerenderer.obj
 0002:00023c00       ?erase@?$vector@PAVCLineRenderer@@V?$K2VectorAllocator@PAVCLineRenderer@@@@@std@@QAE?AV?$_Vector_iterator@PAVCLineRenderer@@V?$K2VectorAllocator@PAVCLineRenderer@@@@@2@V32@0@Z 170dac00 f i c_linerenderer.obj
 0002:00023d80       ??D?$_Vector_const_iterator@PAVCLineRenderer@@V?$K2VectorAllocator@PAVCLineRenderer@@@@@std@@QBEABQAVCLineRenderer@@XZ 170dad80 f i c_linerenderer.obj
 0002:00023e40       ??E?$_Vector_const_iterator@PAVCLineRenderer@@V?$K2VectorAllocator@PAVCLineRenderer@@@@@std@@QAEAAV01@XZ 170dae40 f i c_linerenderer.obj
 0002:00023f30       ??8?$_Vector_const_iterator@PAVCLineRenderer@@V?$K2VectorAllocator@PAVCLineRenderer@@@@@std@@QBE_NABV01@@Z 170daf30 f i c_linerenderer.obj
 0002:00023f70       ??M?$_Vector_const_iterator@PAVCLineRenderer@@V?$K2VectorAllocator@PAVCLineRenderer@@@@@std@@QBE_NABV01@@Z 170daf70 f i c_linerenderer.obj
 0002:00023fb0       ??$unchecked_copy@PAPAVCLineRenderer@@PAPAV1@@stdext@@YAPAPAVCLineRenderer@@PAPAV1@00@Z 170dafb0 f i c_linerenderer.obj
 0002:00024040       ??$_Copy_opt@PAPAVCLineRenderer@@PAPAV1@Urandom_access_iterator_tag@std@@@std@@YAPAPAVCLineRenderer@@PAPAV1@00Urandom_access_iterator_tag@0@U_Scalar_ptr_iterator_tag@0@U_Range_checked_iterator_tag@0@@Z 170db040 f i c_linerenderer.obj
 0002:000240f0       ??2CMeshRenderer@@SAPAXIPBD00F@Z 170db0f0 f   c_meshrenderer.obj
 0002:00024110       ??0CMeshRenderer@@QAE@IABVCSceneEntity@@PAVCMesh@@ABU_D3DXMATRIXA16@@2@Z 170db110 f   c_meshrenderer.obj
 0002:000241c0       ??_GCMeshRenderer@@UAEPAXI@Z 170db1c0 f i c_meshrenderer.obj
 0002:000241c0       ??_ECMeshRenderer@@UAEPAXI@Z 170db1c0 f i c_meshrenderer.obj
 0002:00024210       ??3CMeshRenderer@@SAXPAX@Z 170db210 f i c_meshrenderer.obj
 0002:00024230       ??1CMeshRenderer@@UAE@XZ   170db230 f   c_meshrenderer.obj
 0002:00024260       ?GL_MeshShouldDeform@@YA_NABVCSceneEntity@@PAVCMesh@@@Z 170db260 f   c_meshrenderer.obj
 0002:000242b0       ?IsValid@CSkeleton@@QAE_NXZ 170db2b0 f i c_meshrenderer.obj
 0002:000242d0       ?SetupObjectMatrix@CMeshRenderer@@AAE_NXZ 170db2d0 f   c_meshrenderer.obj
 0002:00024950       ?GetBoneIndex@CBoneList@@QAEHH@Z 170db950 f i c_meshrenderer.obj
 0002:000249a0       ?GetNumBones@CBoneList@@QAEHXZ 170db9a0 f i c_meshrenderer.obj
 0002:000249d0       ?GetBoneState@CSkeleton@@QAEPAUSBoneState@@I@Z 170db9d0 f i c_meshrenderer.obj
 0002:00024a00       ?GetNumBones@CSkeleton@@QAEIXZ 170dba00 f i c_meshrenderer.obj
 0002:00024a20       ?Setup@CMeshRenderer@@UAEXW4EMaterialPhase@@@Z 170dba20 f   c_meshrenderer.obj
 0002:000258c0       ?SetNumPointLights@CShaderRegistry@@QAEXH@Z 170dc8c0 f i c_meshrenderer.obj
 0002:000258f0       ?SetNumBones@CShaderRegistry@@QAEXH@Z 170dc8f0 f i c_meshrenderer.obj
 0002:00025930       ?SetLighting@CShaderRegistry@@QAEX_N@Z 170dc930 f i c_meshrenderer.obj
 0002:00025960       ?SetShadows@CShaderRegistry@@QAEX_N@Z 170dc960 f i c_meshrenderer.obj
 0002:00025990       ?SetFogofWar@CShaderRegistry@@QAEX_N@Z 170dc990 f i c_meshrenderer.obj
 0002:000259c0       ?SetFog@CShaderRegistry@@QAEX_N@Z 170dc9c0 f i c_meshrenderer.obj
 0002:000259f0       ?SetTexkill@CShaderRegistry@@QAEX_N@Z 170dc9f0 f i c_meshrenderer.obj
 0002:00025a20       ?GetActive@CSceneBuffer@@QAE_NXZ 170dca20 f i c_meshrenderer.obj
 0002:00025a40       ?GetBoneMapping@CK2Model@@QAEPAHXZ 170dca40 f i c_meshrenderer.obj
 0002:00025a70       ?SetRenderStates@CMeshRenderer@@AAE_NW4EMaterialPhase@@@Z 170dca70 f   c_meshrenderer.obj
 0002:00025d70       ?DrawStaticMesh@CMeshRenderer@@AAE_NXZ 170dcd70 f   c_meshrenderer.obj
 0002:00026280       ?DrawSkinnedMesh@CMeshRenderer@@AAE_NXZ 170dd280 f   c_meshrenderer.obj
 0002:00027670       ?DrawMesh@CMeshRenderer@@AAEXW4EMaterialPhase@@@Z 170de670 f   c_meshrenderer.obj
 0002:00027720       ?Render@CMeshRenderer@@UAEXW4EMaterialPhase@@@Z 170de720 f   c_meshrenderer.obj
 0002:00027af0       ?size@?$vector@HV?$K2VectorAllocator@H@@@std@@QBEIXZ 170deaf0 f i c_meshrenderer.obj
 0002:00027b40       ??A?$vector@HV?$K2VectorAllocator@H@@@std@@QAEAAHI@Z 170deb40 f i c_meshrenderer.obj
 0002:00027c60       ?compare@?$basic_string@_WU?$char_traits@_W@std@@V?$K2StringAllocator@_W@@@std@@QBEHPB_W@Z 170dec60 f i c_meshrenderer.obj
 0002:00027cb0       ??B?$CCvar@MM@@QBEMXZ      170decb0 f i c_meshrenderer.obj
 0002:00027ce0       ?size@?$vector@USShaderAttribute@@V?$K2VectorAllocator@USShaderAttribute@@@@@std@@QBEIXZ 170dece0 f i c_meshrenderer.obj
 0002:00027d30       ??A?$vector@USShaderAttribute@@V?$K2VectorAllocator@USShaderAttribute@@@@@std@@QAEAAUSShaderAttribute@@I@Z 170ded30 f i c_meshrenderer.obj
 0002:00027e50       ?Set@CMemManager@@SAPAXPAXEI@Z 170dee50 f i c_meshrenderer.obj
 0002:00027e80       ?floor@@YAMM@Z             170dee80 f i c_meshrenderer.obj
 0002:00027eb0       _floorf                    170deeb0 f i c_meshrenderer.obj
 0002:00027ef0       ?INT_FLOOR@@YAHM@Z         170deef0 f i c_meshrenderer.obj
 0002:00027f10       ?M_Identity@@YAXPAUmatrix43_s@@@Z 170def10 f i c_meshrenderer.obj
 0002:00027fa0       ?M_TransformPoint@@YAXQBM0QAY02$$CBMQAM@Z 170defa0 f i c_meshrenderer.obj
 0002:00028090       ?M_RotatePoint@@YAXQBMQAY02$$CBMQAM@Z 170df090 f i c_meshrenderer.obj
 0002:00028160       ?Allocate@?$CPool@VCMeshRenderer@@@@QAEPAVCMeshRenderer@@XZ 170df160 f i c_meshrenderer.obj
 0002:000282f0       ??$min@H@std@@YAABHABH0@Z  170df2f0 f i c_meshrenderer.obj
 0002:00028350       ??$MIN@H@@YAABHABH0@Z      170df350 f i c_meshrenderer.obj
 0002:00028390       ?push_back@?$vector@PAVCMeshRenderer@@V?$K2VectorAllocator@PAVCMeshRenderer@@@@@std@@QAEXABQAVCMeshRenderer@@@Z 170df390 f i c_meshrenderer.obj
 0002:00028440       ??1?$_Vector_iterator@PAVCMeshRenderer@@V?$K2VectorAllocator@PAVCMeshRenderer@@@@@std@@QAE@XZ 170df440 f i c_meshrenderer.obj
 0002:00028470       ??1?$_Vector_const_iterator@PAVCMeshRenderer@@V?$K2VectorAllocator@PAVCMeshRenderer@@@@@std@@QAE@XZ 170df470 f i c_meshrenderer.obj
 0002:000284a0       ??1?$_Ranit@PAVCMeshRenderer@@HPBQAV1@ABQAV1@@std@@QAE@XZ 170df4a0 f i c_meshrenderer.obj
 0002:000284d0       ?end@?$vector@PAVCMeshRenderer@@V?$K2VectorAllocator@PAVCMeshRenderer@@@@@std@@QAE?AV?$_Vector_iterator@PAVCMeshRenderer@@V?$K2VectorAllocator@PAVCMeshRenderer@@@@@2@XZ 170df4d0 f i c_meshrenderer.obj
 0002:00028520       ?capacity@?$vector@PAVCMeshRenderer@@V?$K2VectorAllocator@PAVCMeshRenderer@@@@@std@@QBEIXZ 170df520 f i c_meshrenderer.obj
 0002:00028570       ?size@?$vector@PAVCMeshRenderer@@V?$K2VectorAllocator@PAVCMeshRenderer@@@@@std@@QBEIXZ 170df570 f i c_meshrenderer.obj
 0002:000285c0       ?insert@?$vector@PAVCMeshRenderer@@V?$K2VectorAllocator@PAVCMeshRenderer@@@@@std@@QAE?AV?$_Vector_iterator@PAVCMeshRenderer@@V?$K2VectorAllocator@PAVCMeshRenderer@@@@@2@V32@ABQAVCMeshRenderer@@@Z 170df5c0 f i c_meshrenderer.obj
 0002:00028730       ?begin@?$vector@PAVCMeshRenderer@@V?$K2VectorAllocator@PAVCMeshRenderer@@@@@std@@QAE?AV?$_Vector_iterator@PAVCMeshRenderer@@V?$K2VectorAllocator@PAVCMeshRenderer@@@@@2@XZ 170df730 f i c_meshrenderer.obj
 0002:00028780       ?_Ufill@?$vector@PAVCMeshRenderer@@V?$K2VectorAllocator@PAVCMeshRenderer@@@@@std@@IAEPAPAVCMeshRenderer@@PAPAV3@IABQAV3@@Z 170df780 f i c_meshrenderer.obj
 0002:000287d0       ?_Orphan_range@?$vector@PAVCMeshRenderer@@V?$K2VectorAllocator@PAVCMeshRenderer@@@@@std@@IBEXPAPAVCMeshRenderer@@0@Z 170df7d0 f i c_meshrenderer.obj
 0002:00028870       ??0?$_Vector_iterator@PAVCMeshRenderer@@V?$K2VectorAllocator@PAVCMeshRenderer@@@@@std@@QAE@PAPAVCMeshRenderer@@PBV_Container_base@1@@Z 170df870 f i c_meshrenderer.obj
 0002:000288b0       ??0?$_Vector_iterator@PAVCMeshRenderer@@V?$K2VectorAllocator@PAVCMeshRenderer@@@@@std@@QAE@ABV01@@Z 170df8b0 f i c_meshrenderer.obj
 0002:000288e0       ??0?$_Vector_const_iterator@PAVCMeshRenderer@@V?$K2VectorAllocator@PAVCMeshRenderer@@@@@std@@QAE@ABV01@@Z 170df8e0 f i c_meshrenderer.obj
 0002:00028920       ??0?$_Ranit@PAVCMeshRenderer@@HPBQAV1@ABQAV1@@std@@QAE@ABU01@@Z 170df920 f i c_meshrenderer.obj
 0002:00028950       ?_Insert_n@?$vector@PAVCMeshRenderer@@V?$K2VectorAllocator@PAVCMeshRenderer@@@@@std@@IAEXV?$_Vector_iterator@PAVCMeshRenderer@@V?$K2VectorAllocator@PAVCMeshRenderer@@@@@2@IABQAVCMeshRenderer@@@Z 170df950 f i c_meshrenderer.obj
 0002:00028e00       ?_Destroy@?$vector@PAVCMeshRenderer@@V?$K2VectorAllocator@PAVCMeshRenderer@@@@@std@@IAEXPAPAVCMeshRenderer@@0@Z 170dfe00 f i c_meshrenderer.obj
 0002:00028e40       ?deallocate@?$K2VectorAllocator@PAVCMeshRenderer@@@@QAEXPAPAVCMeshRenderer@@I@Z 170dfe40 f i c_meshrenderer.obj
 0002:00028e80       ??$_Destroy_range@PAVCMeshRenderer@@V?$K2VectorAllocator@PAVCMeshRenderer@@@@@std@@YAXPAPAVCMeshRenderer@@0AAV?$K2VectorAllocator@PAVCMeshRenderer@@@@@Z 170dfe80 f i c_meshrenderer.obj
 0002:00028ed0       ??H?$_Vector_iterator@PAVCMeshRenderer@@V?$K2VectorAllocator@PAVCMeshRenderer@@@@@std@@QBE?AV01@H@Z 170dfed0 f i c_meshrenderer.obj
 0002:00028f80       ??G?$_Vector_iterator@PAVCMeshRenderer@@V?$K2VectorAllocator@PAVCMeshRenderer@@@@@std@@QBEHABV?$_Vector_const_iterator@PAVCMeshRenderer@@V?$K2VectorAllocator@PAVCMeshRenderer@@@@@1@@Z 170dff80 f i c_meshrenderer.obj
 0002:00028fb0       ??0?$_Vector_const_iterator@PAVCMeshRenderer@@V?$K2VectorAllocator@PAVCMeshRenderer@@@@@std@@QAE@PAPAVCMeshRenderer@@PBV_Container_base@1@@Z 170dffb0 f i c_meshrenderer.obj
 0002:000290b0       ??0?$_Ranit@PAVCMeshRenderer@@HPBQAV1@ABQAV1@@std@@QAE@XZ 170e00b0 f i c_meshrenderer.obj
 0002:000290e0       ?max_size@?$vector@PAVCMeshRenderer@@V?$K2VectorAllocator@PAVCMeshRenderer@@@@@std@@QBEIXZ 170e00e0 f i c_meshrenderer.obj
 0002:00029110       ?_Xlen@?$vector@PAVCMeshRenderer@@V?$K2VectorAllocator@PAVCMeshRenderer@@@@@std@@KAXXZ 170e0110 f i c_meshrenderer.obj
 0002:000291c0       ?allocate@?$K2VectorAllocator@PAVCMeshRenderer@@@@QAEPAPAVCMeshRenderer@@I@Z 170e01c0 f i c_meshrenderer.obj
 0002:00029210       ??Y?$_Vector_iterator@PAVCMeshRenderer@@V?$K2VectorAllocator@PAVCMeshRenderer@@@@@std@@QAEAAV01@H@Z 170e0210 f i c_meshrenderer.obj
 0002:00029240       ??G?$_Vector_const_iterator@PAVCMeshRenderer@@V?$K2VectorAllocator@PAVCMeshRenderer@@@@@std@@QBEHABV01@@Z 170e0240 f i c_meshrenderer.obj
 0002:00029280       ?_Compat@?$_Vector_const_iterator@PAVCMeshRenderer@@V?$K2VectorAllocator@PAVCMeshRenderer@@@@@std@@QBEXABV12@@Z 170e0280 f i c_meshrenderer.obj
 0002:00029330       ?max_size@?$allocator@PAVCMeshRenderer@@@std@@QBEIXZ 170e0330 f i c_meshrenderer.obj
 0002:00029370       ??Y?$_Vector_const_iterator@PAVCMeshRenderer@@V?$K2VectorAllocator@PAVCMeshRenderer@@@@@std@@QAEAAV01@H@Z 170e0370 f i c_meshrenderer.obj
 0002:000294a0       ??$_Debug_lt@HH@std@@YA_NABH0PB_WI@Z 170e04a0 f i c_meshrenderer.obj
 0002:00029500       ??$_Ptr_cat@PAPAVCMeshRenderer@@PAPAV1@@std@@YA?AU_Scalar_ptr_iterator_tag@0@AAPAPAVCMeshRenderer@@0@Z 170e0500 f i c_meshrenderer.obj
 0002:00029520       ??$_Destroy_range@PAVCMeshRenderer@@V?$K2VectorAllocator@PAVCMeshRenderer@@@@@std@@YAXPAPAVCMeshRenderer@@0AAV?$K2VectorAllocator@PAVCMeshRenderer@@@@U_Scalar_ptr_iterator_tag@0@@Z 170e0520 f i c_meshrenderer.obj
 0002:00029540       ??$unchecked_uninitialized_fill_n@PAPAVCMeshRenderer@@IPAV1@V?$K2VectorAllocator@PAVCMeshRenderer@@@@@stdext@@YAXPAPAVCMeshRenderer@@IABQAV1@AAV?$K2VectorAllocator@PAVCMeshRenderer@@@@@Z 170e0540 f i c_meshrenderer.obj
 0002:000295a0       ??$_Umove@PAPAVCMeshRenderer@@@?$vector@PAVCMeshRenderer@@V?$K2VectorAllocator@PAVCMeshRenderer@@@@@std@@IAEPAPAVCMeshRenderer@@PAPAV2@00@Z 170e05a0 f i c_meshrenderer.obj
 0002:000295e0       ??$fill@PAPAVCMeshRenderer@@PAV1@@std@@YAXPAPAVCMeshRenderer@@0ABQAV1@@Z 170e05e0 f i c_meshrenderer.obj
 0002:00029630       ??$_Unchecked_move_backward@PAPAVCMeshRenderer@@PAPAV1@@stdext@@YAPAPAVCMeshRenderer@@PAPAV1@00@Z 170e0630 f i c_meshrenderer.obj
 0002:000296c0       ??$_Checked_base@PAPAVCMeshRenderer@@@std@@YAPAPAVCMeshRenderer@@AAPAPAV1@@Z 170e06c0 f i c_meshrenderer.obj
 0002:000296f0       ??$_Iter_random@PAPAVCMeshRenderer@@PAPAV1@@std@@YA?AUrandom_access_iterator_tag@0@ABQAPAVCMeshRenderer@@0@Z 170e06f0 f i c_meshrenderer.obj
 0002:00029710       ??$_Uninit_fill_n@PAPAVCMeshRenderer@@IPAV1@V?$K2VectorAllocator@PAVCMeshRenderer@@@@@std@@YAXPAPAVCMeshRenderer@@IABQAV1@AAV?$K2VectorAllocator@PAVCMeshRenderer@@@@U_Scalar_ptr_iterator_tag@0@U_Range_checked_iterator_tag@0@@Z 170e0710 f i c_meshrenderer.obj
 0002:00029740       ??$_Unchecked_uninitialized_move@PAPAVCMeshRenderer@@PAPAV1@V?$K2VectorAllocator@PAVCMeshRenderer@@@@@stdext@@YAPAPAVCMeshRenderer@@PAPAV1@00AAV?$K2VectorAllocator@PAVCMeshRenderer@@@@@Z 170e0740 f i c_meshrenderer.obj
 0002:000297b0       ??$_Fill@PAPAVCMeshRenderer@@PAV1@@std@@YAXPAPAVCMeshRenderer@@0ABQAV1@@Z 170e07b0 f i c_meshrenderer.obj
 0002:00029810       ??$_Move_cat@PAPAVCMeshRenderer@@@std@@YA?AU_Undefined_move_tag@0@ABQAPAVCMeshRenderer@@@Z 170e0810 f i c_meshrenderer.obj
 0002:00029830       ??$_Move_backward_opt@PAPAVCMeshRenderer@@PAPAV1@Urandom_access_iterator_tag@std@@U_Undefined_move_tag@3@@std@@YAPAPAVCMeshRenderer@@PAPAV1@00Urandom_access_iterator_tag@0@U_Undefined_move_tag@0@U_Range_checked_iterator_tag@0@@Z 170e0830 f i c_meshrenderer.obj
 0002:00029890       ?GetName@IModel@@QBEABV?$basic_string@_WU?$char_traits@_W@std@@V?$K2StringAllocator@_W@@@std@@XZ 170e0890 f i c_meshrenderer.obj
 0002:000298b0       ??$_Checked_base@PAPAVCMeshRenderer@@@std@@YAPAPAVCMeshRenderer@@AAPAPAV1@U_Unchanged_checked_iterator_base_type_tag@0@@Z 170e08b0 f i c_meshrenderer.obj
 0002:000298d0       ??$_Debug_range@PAPAVCMeshRenderer@@@std@@YAXPAPAVCMeshRenderer@@0PB_WI@Z 170e08d0 f i c_meshrenderer.obj
 0002:00029920       ??$unchecked_fill_n@PAPAVCMeshRenderer@@IPAV1@@stdext@@YAXPAPAVCMeshRenderer@@IABQAV1@@Z 170e0920 f i c_meshrenderer.obj
 0002:00029970       ??$_Uninit_move@PAPAVCMeshRenderer@@PAPAV1@V?$K2VectorAllocator@PAVCMeshRenderer@@@@U_Undefined_move_tag@std@@@std@@YAPAPAVCMeshRenderer@@PAPAV1@00AAV?$K2VectorAllocator@PAVCMeshRenderer@@@@U_Undefined_move_tag@0@U_Range_checked_iterator_tag@0@@Z 170e0970 f i c_meshrenderer.obj
 0002:000299b0       ??$_Copy_backward_opt@PAPAVCMeshRenderer@@PAPAV1@Urandom_access_iterator_tag@std@@@std@@YAPAPAVCMeshRenderer@@PAPAV1@00Urandom_access_iterator_tag@0@U_Scalar_ptr_iterator_tag@0@U_Range_checked_iterator_tag@0@@Z 170e09b0 f i c_meshrenderer.obj
 0002:00029a60       ??$_Debug_pointer@PAVCMeshRenderer@@@std@@YAXPAPAVCMeshRenderer@@PB_WI@Z 170e0a60 f i c_meshrenderer.obj
 0002:00029aa0       ?GetVertexShader@CMaterialPhase@@QBEIXZ 170e0aa0 f i c_meshrenderer.obj
 0002:00029ac0       ?GetPixelShader@CMaterialPhase@@QBEIXZ 170e0ac0 f i c_meshrenderer.obj
 0002:00029ae0       ?GetTranslucent@CMaterialPhase@@QBE_NXZ 170e0ae0 f i c_meshrenderer.obj
 0002:00029b10       ?GetAlphaTest@CMaterialPhase@@QBE_NXZ 170e0b10 f i c_meshrenderer.obj
 0002:00029b40       ?GetLighting@CMaterialPhase@@QBE_NXZ 170e0b40 f i c_meshrenderer.obj
 0002:00029b70       ?GetShadows@CMaterialPhase@@QBE_NXZ 170e0b70 f i c_meshrenderer.obj
 0002:00029ba0       ?GetFog@CMaterialPhase@@QBE_NXZ 170e0ba0 f i c_meshrenderer.obj
 0002:00029bd0       ?GetRefractive@CMaterialPhase@@QBE_NXZ 170e0bd0 f i c_meshrenderer.obj
 0002:00029c00       ?GetNumMultiPass@CMaterialPhase@@QBEHXZ 170e0c00 f i c_meshrenderer.obj
 0002:00029c30       ?GetLightingScheme@CMaterial@@QBE?AW4ELightingScheme@@XZ 170e0c30 f i c_meshrenderer.obj
 0002:00029c60       ?SetPass@CMaterial@@QAEXH@Z 170e0c60 f i c_meshrenderer.obj
 0002:00029c90       ?GetPass@CMaterial@@QBEHXZ 170e0c90 f i c_meshrenderer.obj
 0002:00029cc0       ??$_Iter_cat@PAPAVCMeshRenderer@@@std@@YA?AUrandom_access_iterator_tag@0@ABQAPAVCMeshRenderer@@@Z 170e0cc0 f i c_meshrenderer.obj
 0002:00029ce0       ??$_Debug_range2@PAPAVCMeshRenderer@@@std@@YAXPAPAVCMeshRenderer@@0PB_WIUrandom_access_iterator_tag@0@@Z 170e0ce0 f i c_meshrenderer.obj
 0002:00029d60       ??$_Fill_n@PAPAVCMeshRenderer@@IPAV1@@std@@YAXPAPAVCMeshRenderer@@IABQAV1@Urandom_access_iterator_tag@0@U_Range_checked_iterator_tag@0@@Z 170e0d60 f i c_meshrenderer.obj
 0002:00029dc0       ??$unchecked_uninitialized_copy@PAPAVCMeshRenderer@@PAPAV1@V?$K2VectorAllocator@PAVCMeshRenderer@@@@@stdext@@YAPAPAVCMeshRenderer@@PAPAV1@00AAV?$K2VectorAllocator@PAVCMeshRenderer@@@@@Z 170e0dc0 f i c_meshrenderer.obj
 0002:00029e30       ??$_Fill_n@PAPAVCMeshRenderer@@IPAV1@@std@@YAXPAPAVCMeshRenderer@@IABQAV1@U_Range_checked_iterator_tag@0@@Z 170e0e30 f i c_meshrenderer.obj
 0002:00029e80       ??$_Uninit_copy@PAPAVCMeshRenderer@@PAPAV1@V?$K2VectorAllocator@PAVCMeshRenderer@@@@@std@@YAPAPAVCMeshRenderer@@PAPAV1@00AAV?$K2VectorAllocator@PAVCMeshRenderer@@@@U_Scalar_ptr_iterator_tag@0@U_Range_checked_iterator_tag@0@@Z 170e0e80 f i c_meshrenderer.obj
 0002:00029f20       ?GetScale@CWorld@@QBEMXZ   170e0f20 f i c_meshrenderer.obj
 0002:00029f50       ?GetTileDiffuseTexture@CWorld@@QBEIHHH@Z 170e0f50 f i c_meshrenderer.obj
 0002:00029fa0       ?GetTextureHandle@CWorld@@QBEIH@Z 170e0fa0 f i c_meshrenderer.obj
 0002:00029fe0       ?GetTileNormalmapTexture@CWorld@@QBEIHHH@Z 170e0fe0 f i c_meshrenderer.obj
 0002:0002a030       ??0_D3DXMATRIXA16@@QAE@XZ  170e1030 f i c_meshrenderer.obj
 0002:0002a060       ??0D3DXMATRIX@@QAE@XZ      170e1060 f i c_meshrenderer.obj
 0002:0002a080       ??DD3DXMATRIX@@QBE?AU0@ABU0@@Z 170e1080 f i c_meshrenderer.obj
 0002:0002a0e0       ??4_D3DXMATRIXA16@@QAEAAU0@ABUD3DXMATRIX@@@Z 170e10e0 f i c_meshrenderer.obj
 0002:0002a120       ?compare@?$basic_string@_WU?$char_traits@_W@std@@V?$K2StringAllocator@_W@@@std@@QBEHIIPB_WI@Z 170e1120 f i c_meshrenderer.obj
 0002:0002a220       ??$DotProduct@M@@YAMABV?$CVec3@M@@0@Z 170e1220 f i c_meshrenderer.obj
 0002:0002a270       ??0?$CPool@VCMeshRenderer@@@@QAE@II@Z 170e1270 f i c_meshrenderer.obj
 0002:0002a330       ??0?$vector@PAVCMeshRenderer@@V?$K2VectorAllocator@PAVCMeshRenderer@@@@@@QAE@XZ 170e1330 f i c_meshrenderer.obj
 0002:0002a360       ??0?$vector@PAVCMeshRenderer@@V?$K2VectorAllocator@PAVCMeshRenderer@@@@@std@@QAE@XZ 170e1360 f i c_meshrenderer.obj
 0002:0002a3f0       ??1?$_Vector_val@PAVCMeshRenderer@@V?$K2VectorAllocator@PAVCMeshRenderer@@@@@std@@QAE@XZ 170e13f0 f i c_meshrenderer.obj
 0002:0002a470       ??1?$K2VectorAllocator@PAVCMeshRenderer@@@@QAE@XZ 170e1470 f i c_meshrenderer.obj
 0002:0002a490       ?_Buy@?$vector@PAVCMeshRenderer@@V?$K2VectorAllocator@PAVCMeshRenderer@@@@@std@@IAE_NI@Z 170e1490 f i c_meshrenderer.obj
 0002:0002a540       ??0?$_Vector_val@PAVCMeshRenderer@@V?$K2VectorAllocator@PAVCMeshRenderer@@@@@std@@IAE@V?$K2VectorAllocator@PAVCMeshRenderer@@@@@Z 170e1540 f i c_meshrenderer.obj
 0002:0002a5e0       ??0?$K2VectorAllocator@PAVCMeshRenderer@@@@QAE@XZ 170e15e0 f i c_meshrenderer.obj
 0002:0002a610       ??0?$K2VectorAllocator@PAVCMeshRenderer@@@@QAE@ABV0@@Z 170e1610 f i c_meshrenderer.obj
 0002:0002a640       ??0?$allocator@PAVCMeshRenderer@@@std@@QAE@XZ 170e1640 f i c_meshrenderer.obj
 0002:0002a660       ??0?$allocator@PAVCMeshRenderer@@@std@@QAE@ABV01@@Z 170e1660 f i c_meshrenderer.obj
 0002:0002a680       ??1?$CPool@VCMeshRenderer@@@@QAE@XZ 170e1680 f i c_meshrenderer.obj
 0002:0002a730       ??1?$vector@PAVCMeshRenderer@@V?$K2VectorAllocator@PAVCMeshRenderer@@@@@@QAE@XZ 170e1730 f i c_meshrenderer.obj
 0002:0002a760       ??1?$vector@PAVCMeshRenderer@@V?$K2VectorAllocator@PAVCMeshRenderer@@@@@std@@QAE@XZ 170e1760 f i c_meshrenderer.obj
 0002:0002a7e0       ?_Tidy@?$vector@PAVCMeshRenderer@@V?$K2VectorAllocator@PAVCMeshRenderer@@@@@std@@IAEXXZ 170e17e0 f i c_meshrenderer.obj
 0002:0002a880       ?Reset@?$CPool@VCMeshRenderer@@@@QAEXXZ 170e1880 f i c_meshrenderer.obj
 0002:0002a9a0       ?clear@?$vector@PAVCMeshRenderer@@V?$K2VectorAllocator@PAVCMeshRenderer@@@@@std@@QAEXXZ 170e19a0 f i c_meshrenderer.obj
 0002:0002aa60       ??D?$_Vector_iterator@PAVCMeshRenderer@@V?$K2VectorAllocator@PAVCMeshRenderer@@@@@std@@QBEAAPAVCMeshRenderer@@XZ 170e1a60 f i c_meshrenderer.obj
 0002:0002aa90       ??E?$_Vector_iterator@PAVCMeshRenderer@@V?$K2VectorAllocator@PAVCMeshRenderer@@@@@std@@QAEAAV01@XZ 170e1a90 f i c_meshrenderer.obj
 0002:0002aac0       ??9?$_Vector_const_iterator@PAVCMeshRenderer@@V?$K2VectorAllocator@PAVCMeshRenderer@@@@@std@@QBE_NABV01@@Z 170e1ac0 f i c_meshrenderer.obj
 0002:0002ab00       ?erase@?$vector@PAVCMeshRenderer@@V?$K2VectorAllocator@PAVCMeshRenderer@@@@@std@@QAE?AV?$_Vector_iterator@PAVCMeshRenderer@@V?$K2VectorAllocator@PAVCMeshRenderer@@@@@2@V32@0@Z 170e1b00 f i c_meshrenderer.obj
 0002:0002ac80       ??D?$_Vector_const_iterator@PAVCMeshRenderer@@V?$K2VectorAllocator@PAVCMeshRenderer@@@@@std@@QBEABQAVCMeshRenderer@@XZ 170e1c80 f i c_meshrenderer.obj
 0002:0002ad40       ??E?$_Vector_const_iterator@PAVCMeshRenderer@@V?$K2VectorAllocator@PAVCMeshRenderer@@@@@std@@QAEAAV01@XZ 170e1d40 f i c_meshrenderer.obj
 0002:0002ae30       ??8?$_Vector_const_iterator@PAVCMeshRenderer@@V?$K2VectorAllocator@PAVCMeshRenderer@@@@@std@@QBE_NABV01@@Z 170e1e30 f i c_meshrenderer.obj
 0002:0002ae70       ??M?$_Vector_const_iterator@PAVCMeshRenderer@@V?$K2VectorAllocator@PAVCMeshRenderer@@@@@std@@QBE_NABV01@@Z 170e1e70 f i c_meshrenderer.obj
 0002:0002aeb0       ??$unchecked_copy@PAPAVCMeshRenderer@@PAPAV1@@stdext@@YAPAPAVCMeshRenderer@@PAPAV1@00@Z 170e1eb0 f i c_meshrenderer.obj
 0002:0002af40       ??$_Copy_opt@PAPAVCMeshRenderer@@PAPAV1@Urandom_access_iterator_tag@std@@@std@@YAPAPAVCMeshRenderer@@PAPAV1@00Urandom_access_iterator_tag@0@U_Scalar_ptr_iterator_tag@0@U_Range_checked_iterator_tag@0@@Z 170e1f40 f i c_meshrenderer.obj
 0002:0002aff0       ??2CPointRenderer@@SAPAXIPBD00F@Z 170e1ff0 f   c_pointrenderer.obj
 0002:0002b010       ??0CPointRenderer@@QAE@H@Z 170e2010 f   c_pointrenderer.obj
 0002:0002b060       ??_GCPointRenderer@@UAEPAXI@Z 170e2060 f i c_pointrenderer.obj
 0002:0002b060       ??_ECPointRenderer@@UAEPAXI@Z 170e2060 f i c_pointrenderer.obj
 0002:0002b0b0       ??3CPointRenderer@@SAXPAX@Z 170e20b0 f i c_pointrenderer.obj
 0002:0002b0d0       ??1CPointRenderer@@UAE@XZ  170e20d0 f   c_pointrenderer.obj
 0002:0002b100       ?Render@CPointRenderer@@UAEXW4EMaterialPhase@@@Z 170e2100 f   c_pointrenderer.obj
 0002:0002b270       ?Allocate@?$CPool@VCPointRenderer@@@@QAEPAVCPointRenderer@@XZ 170e2270 f i c_pointrenderer.obj
 0002:0002b400       ?push_back@?$vector@PAVCPointRenderer@@V?$K2VectorAllocator@PAVCPointRenderer@@@@@std@@QAEXABQAVCPointRenderer@@@Z 170e2400 f i c_pointrenderer.obj
 0002:0002b4b0       ??1?$_Vector_iterator@PAVCPointRenderer@@V?$K2VectorAllocator@PAVCPointRenderer@@@@@std@@QAE@XZ 170e24b0 f i c_pointrenderer.obj
 0002:0002b4e0       ??1?$_Vector_const_iterator@PAVCPointRenderer@@V?$K2VectorAllocator@PAVCPointRenderer@@@@@std@@QAE@XZ 170e24e0 f i c_pointrenderer.obj
 0002:0002b510       ??1?$_Ranit@PAVCPointRenderer@@HPBQAV1@ABQAV1@@std@@QAE@XZ 170e2510 f i c_pointrenderer.obj
 0002:0002b540       ?end@?$vector@PAVCPointRenderer@@V?$K2VectorAllocator@PAVCPointRenderer@@@@@std@@QAE?AV?$_Vector_iterator@PAVCPointRenderer@@V?$K2VectorAllocator@PAVCPointRenderer@@@@@2@XZ 170e2540 f i c_pointrenderer.obj
 0002:0002b590       ?capacity@?$vector@PAVCPointRenderer@@V?$K2VectorAllocator@PAVCPointRenderer@@@@@std@@QBEIXZ 170e2590 f i c_pointrenderer.obj
 0002:0002b5e0       ?size@?$vector@PAVCPointRenderer@@V?$K2VectorAllocator@PAVCPointRenderer@@@@@std@@QBEIXZ 170e25e0 f i c_pointrenderer.obj
 0002:0002b630       ?insert@?$vector@PAVCPointRenderer@@V?$K2VectorAllocator@PAVCPointRenderer@@@@@std@@QAE?AV?$_Vector_iterator@PAVCPointRenderer@@V?$K2VectorAllocator@PAVCPointRenderer@@@@@2@V32@ABQAVCPointRenderer@@@Z 170e2630 f i c_pointrenderer.obj
 0002:0002b7a0       ?begin@?$vector@PAVCPointRenderer@@V?$K2VectorAllocator@PAVCPointRenderer@@@@@std@@QAE?AV?$_Vector_iterator@PAVCPointRenderer@@V?$K2VectorAllocator@PAVCPointRenderer@@@@@2@XZ 170e27a0 f i c_pointrenderer.obj
 0002:0002b7f0       ?_Ufill@?$vector@PAVCPointRenderer@@V?$K2VectorAllocator@PAVCPointRenderer@@@@@std@@IAEPAPAVCPointRenderer@@PAPAV3@IABQAV3@@Z 170e27f0 f i c_pointrenderer.obj
 0002:0002b840       ?_Orphan_range@?$vector@PAVCPointRenderer@@V?$K2VectorAllocator@PAVCPointRenderer@@@@@std@@IBEXPAPAVCPointRenderer@@0@Z 170e2840 f i c_pointrenderer.obj
 0002:0002b8e0       ??0?$_Vector_iterator@PAVCPointRenderer@@V?$K2VectorAllocator@PAVCPointRenderer@@@@@std@@QAE@PAPAVCPointRenderer@@PBV_Container_base@1@@Z 170e28e0 f i c_pointrenderer.obj
 0002:0002b920       ??0?$_Vector_iterator@PAVCPointRenderer@@V?$K2VectorAllocator@PAVCPointRenderer@@@@@std@@QAE@ABV01@@Z 170e2920 f i c_pointrenderer.obj
 0002:0002b950       ??0?$_Vector_const_iterator@PAVCPointRenderer@@V?$K2VectorAllocator@PAVCPointRenderer@@@@@std@@QAE@ABV01@@Z 170e2950 f i c_pointrenderer.obj
 0002:0002b990       ??0?$_Ranit@PAVCPointRenderer@@HPBQAV1@ABQAV1@@std@@QAE@ABU01@@Z 170e2990 f i c_pointrenderer.obj
 0002:0002b9c0       ?_Insert_n@?$vector@PAVCPointRenderer@@V?$K2VectorAllocator@PAVCPointRenderer@@@@@std@@IAEXV?$_Vector_iterator@PAVCPointRenderer@@V?$K2VectorAllocator@PAVCPointRenderer@@@@@2@IABQAVCPointRenderer@@@Z 170e29c0 f i c_pointrenderer.obj
 0002:0002be70       ?_Destroy@?$vector@PAVCPointRenderer@@V?$K2VectorAllocator@PAVCPointRenderer@@@@@std@@IAEXPAPAVCPointRenderer@@0@Z 170e2e70 f i c_pointrenderer.obj
 0002:0002beb0       ?deallocate@?$K2VectorAllocator@PAVCPointRenderer@@@@QAEXPAPAVCPointRenderer@@I@Z 170e2eb0 f i c_pointrenderer.obj
 0002:0002bef0       ??$_Destroy_range@PAVCPointRenderer@@V?$K2VectorAllocator@PAVCPointRenderer@@@@@std@@YAXPAPAVCPointRenderer@@0AAV?$K2VectorAllocator@PAVCPointRenderer@@@@@Z 170e2ef0 f i c_pointrenderer.obj
 0002:0002bf40       ??H?$_Vector_iterator@PAVCPointRenderer@@V?$K2VectorAllocator@PAVCPointRenderer@@@@@std@@QBE?AV01@H@Z 170e2f40 f i c_pointrenderer.obj
 0002:0002bff0       ??G?$_Vector_iterator@PAVCPointRenderer@@V?$K2VectorAllocator@PAVCPointRenderer@@@@@std@@QBEHABV?$_Vector_const_iterator@PAVCPointRenderer@@V?$K2VectorAllocator@PAVCPointRenderer@@@@@1@@Z 170e2ff0 f i c_pointrenderer.obj
 0002:0002c020       ??0?$_Vector_const_iterator@PAVCPointRenderer@@V?$K2VectorAllocator@PAVCPointRenderer@@@@@std@@QAE@PAPAVCPointRenderer@@PBV_Container_base@1@@Z 170e3020 f i c_pointrenderer.obj
 0002:0002c120       ??0?$_Ranit@PAVCPointRenderer@@HPBQAV1@ABQAV1@@std@@QAE@XZ 170e3120 f i c_pointrenderer.obj
 0002:0002c150       ?max_size@?$vector@PAVCPointRenderer@@V?$K2VectorAllocator@PAVCPointRenderer@@@@@std@@QBEIXZ 170e3150 f i c_pointrenderer.obj
 0002:0002c180       ?_Xlen@?$vector@PAVCPointRenderer@@V?$K2VectorAllocator@PAVCPointRenderer@@@@@std@@KAXXZ 170e3180 f i c_pointrenderer.obj
 0002:0002c230       ?allocate@?$K2VectorAllocator@PAVCPointRenderer@@@@QAEPAPAVCPointRenderer@@I@Z 170e3230 f i c_pointrenderer.obj
 0002:0002c280       ??Y?$_Vector_iterator@PAVCPointRenderer@@V?$K2VectorAllocator@PAVCPointRenderer@@@@@std@@QAEAAV01@H@Z 170e3280 f i c_pointrenderer.obj
 0002:0002c2b0       ??G?$_Vector_const_iterator@PAVCPointRenderer@@V?$K2VectorAllocator@PAVCPointRenderer@@@@@std@@QBEHABV01@@Z 170e32b0 f i c_pointrenderer.obj
 0002:0002c2f0       ?_Compat@?$_Vector_const_iterator@PAVCPointRenderer@@V?$K2VectorAllocator@PAVCPointRenderer@@@@@std@@QBEXABV12@@Z 170e32f0 f i c_pointrenderer.obj
 0002:0002c3a0       ?max_size@?$allocator@PAVCPointRenderer@@@std@@QBEIXZ 170e33a0 f i c_pointrenderer.obj
 0002:0002c3e0       ??Y?$_Vector_const_iterator@PAVCPointRenderer@@V?$K2VectorAllocator@PAVCPointRenderer@@@@@std@@QAEAAV01@H@Z 170e33e0 f i c_pointrenderer.obj
 0002:0002c510       ??$_Ptr_cat@PAPAVCPointRenderer@@PAPAV1@@std@@YA?AU_Scalar_ptr_iterator_tag@0@AAPAPAVCPointRenderer@@0@Z 170e3510 f i c_pointrenderer.obj
 0002:0002c530       ??$_Destroy_range@PAVCPointRenderer@@V?$K2VectorAllocator@PAVCPointRenderer@@@@@std@@YAXPAPAVCPointRenderer@@0AAV?$K2VectorAllocator@PAVCPointRenderer@@@@U_Scalar_ptr_iterator_tag@0@@Z 170e3530 f i c_pointrenderer.obj
 0002:0002c550       ??$unchecked_uninitialized_fill_n@PAPAVCPointRenderer@@IPAV1@V?$K2VectorAllocator@PAVCPointRenderer@@@@@stdext@@YAXPAPAVCPointRenderer@@IABQAV1@AAV?$K2VectorAllocator@PAVCPointRenderer@@@@@Z 170e3550 f i c_pointrenderer.obj
 0002:0002c5b0       ??$_Umove@PAPAVCPointRenderer@@@?$vector@PAVCPointRenderer@@V?$K2VectorAllocator@PAVCPointRenderer@@@@@std@@IAEPAPAVCPointRenderer@@PAPAV2@00@Z 170e35b0 f i c_pointrenderer.obj
 0002:0002c5f0       ??$fill@PAPAVCPointRenderer@@PAV1@@std@@YAXPAPAVCPointRenderer@@0ABQAV1@@Z 170e35f0 f i c_pointrenderer.obj
 0002:0002c640       ??$_Unchecked_move_backward@PAPAVCPointRenderer@@PAPAV1@@stdext@@YAPAPAVCPointRenderer@@PAPAV1@00@Z 170e3640 f i c_pointrenderer.obj
 0002:0002c6d0       ??$_Checked_base@PAPAVCPointRenderer@@@std@@YAPAPAVCPointRenderer@@AAPAPAV1@@Z 170e36d0 f i c_pointrenderer.obj
 0002:0002c700       ??$_Iter_random@PAPAVCPointRenderer@@PAPAV1@@std@@YA?AUrandom_access_iterator_tag@0@ABQAPAVCPointRenderer@@0@Z 170e3700 f i c_pointrenderer.obj
 0002:0002c720       ??$_Uninit_fill_n@PAPAVCPointRenderer@@IPAV1@V?$K2VectorAllocator@PAVCPointRenderer@@@@@std@@YAXPAPAVCPointRenderer@@IABQAV1@AAV?$K2VectorAllocator@PAVCPointRenderer@@@@U_Scalar_ptr_iterator_tag@0@U_Range_checked_iterator_tag@0@@Z 170e3720 f i c_pointrenderer.obj
 0002:0002c750       ??$_Unchecked_uninitialized_move@PAPAVCPointRenderer@@PAPAV1@V?$K2VectorAllocator@PAVCPointRenderer@@@@@stdext@@YAPAPAVCPointRenderer@@PAPAV1@00AAV?$K2VectorAllocator@PAVCPointRenderer@@@@@Z 170e3750 f i c_pointrenderer.obj
 0002:0002c7c0       ??$_Fill@PAPAVCPointRenderer@@PAV1@@std@@YAXPAPAVCPointRenderer@@0ABQAV1@@Z 170e37c0 f i c_pointrenderer.obj
 0002:0002c820       ??$_Move_cat@PAPAVCPointRenderer@@@std@@YA?AU_Undefined_move_tag@0@ABQAPAVCPointRenderer@@@Z 170e3820 f i c_pointrenderer.obj
 0002:0002c840       ??$_Move_backward_opt@PAPAVCPointRenderer@@PAPAV1@Urandom_access_iterator_tag@std@@U_Undefined_move_tag@3@@std@@YAPAPAVCPointRenderer@@PAPAV1@00Urandom_access_iterator_tag@0@U_Undefined_move_tag@0@U_Range_checked_iterator_tag@0@@Z 170e3840 f i c_pointrenderer.obj
 0002:0002c8a0       ??$_Checked_base@PAPAVCPointRenderer@@@std@@YAPAPAVCPointRenderer@@AAPAPAV1@U_Unchanged_checked_iterator_base_type_tag@0@@Z 170e38a0 f i c_pointrenderer.obj
 0002:0002c8c0       ??$_Debug_range@PAPAVCPointRenderer@@@std@@YAXPAPAVCPointRenderer@@0PB_WI@Z 170e38c0 f i c_pointrenderer.obj
 0002:0002c910       ??$unchecked_fill_n@PAPAVCPointRenderer@@IPAV1@@stdext@@YAXPAPAVCPointRenderer@@IABQAV1@@Z 170e3910 f i c_pointrenderer.obj
 0002:0002c960       ??$_Uninit_move@PAPAVCPointRenderer@@PAPAV1@V?$K2VectorAllocator@PAVCPointRenderer@@@@U_Undefined_move_tag@std@@@std@@YAPAPAVCPointRenderer@@PAPAV1@00AAV?$K2VectorAllocator@PAVCPointRenderer@@@@U_Undefined_move_tag@0@U_Range_checked_iterator_tag@0@@Z 170e3960 f i c_pointrenderer.obj
 0002:0002c9a0       ??$_Copy_backward_opt@PAPAVCPointRenderer@@PAPAV1@Urandom_access_iterator_tag@std@@@std@@YAPAPAVCPointRenderer@@PAPAV1@00Urandom_access_iterator_tag@0@U_Scalar_ptr_iterator_tag@0@U_Range_checked_iterator_tag@0@@Z 170e39a0 f i c_pointrenderer.obj
 0002:0002ca50       ??$_Debug_pointer@PAVCPointRenderer@@@std@@YAXPAPAVCPointRenderer@@PB_WI@Z 170e3a50 f i c_pointrenderer.obj
 0002:0002ca90       ??$_Iter_cat@PAPAVCPointRenderer@@@std@@YA?AUrandom_access_iterator_tag@0@ABQAPAVCPointRenderer@@@Z 170e3a90 f i c_pointrenderer.obj
 0002:0002cab0       ??$_Debug_range2@PAPAVCPointRenderer@@@std@@YAXPAPAVCPointRenderer@@0PB_WIUrandom_access_iterator_tag@0@@Z 170e3ab0 f i c_pointrenderer.obj
 0002:0002cb30       ??$_Fill_n@PAPAVCPointRenderer@@IPAV1@@std@@YAXPAPAVCPointRenderer@@IABQAV1@Urandom_access_iterator_tag@0@U_Range_checked_iterator_tag@0@@Z 170e3b30 f i c_pointrenderer.obj
 0002:0002cb90       ??$unchecked_uninitialized_copy@PAPAVCPointRenderer@@PAPAV1@V?$K2VectorAllocator@PAVCPointRenderer@@@@@stdext@@YAPAPAVCPointRenderer@@PAPAV1@00AAV?$K2VectorAllocator@PAVCPointRenderer@@@@@Z 170e3b90 f i c_pointrenderer.obj
 0002:0002cc00       ??$_Fill_n@PAPAVCPointRenderer@@IPAV1@@std@@YAXPAPAVCPointRenderer@@IABQAV1@U_Range_checked_iterator_tag@0@@Z 170e3c00 f i c_pointrenderer.obj
 0002:0002cc50       ??$_Uninit_copy@PAPAVCPointRenderer@@PAPAV1@V?$K2VectorAllocator@PAVCPointRenderer@@@@@std@@YAPAPAVCPointRenderer@@PAPAV1@00AAV?$K2VectorAllocator@PAVCPointRenderer@@@@U_Scalar_ptr_iterator_tag@0@U_Range_checked_iterator_tag@0@@Z 170e3c50 f i c_pointrenderer.obj
 0002:0002ccf0       ??0?$CPool@VCPointRenderer@@@@QAE@II@Z 170e3cf0 f i c_pointrenderer.obj
 0002:0002cdb0       ??0?$vector@PAVCPointRenderer@@V?$K2VectorAllocator@PAVCPointRenderer@@@@@@QAE@XZ 170e3db0 f i c_pointrenderer.obj
 0002:0002cde0       ??0?$vector@PAVCPointRenderer@@V?$K2VectorAllocator@PAVCPointRenderer@@@@@std@@QAE@XZ 170e3de0 f i c_pointrenderer.obj
 0002:0002ce70       ??1?$_Vector_val@PAVCPointRenderer@@V?$K2VectorAllocator@PAVCPointRenderer@@@@@std@@QAE@XZ 170e3e70 f i c_pointrenderer.obj
 0002:0002cef0       ??1?$K2VectorAllocator@PAVCPointRenderer@@@@QAE@XZ 170e3ef0 f i c_pointrenderer.obj
 0002:0002cf10       ?_Buy@?$vector@PAVCPointRenderer@@V?$K2VectorAllocator@PAVCPointRenderer@@@@@std@@IAE_NI@Z 170e3f10 f i c_pointrenderer.obj
 0002:0002cfc0       ??0?$_Vector_val@PAVCPointRenderer@@V?$K2VectorAllocator@PAVCPointRenderer@@@@@std@@IAE@V?$K2VectorAllocator@PAVCPointRenderer@@@@@Z 170e3fc0 f i c_pointrenderer.obj
 0002:0002d060       ??0?$K2VectorAllocator@PAVCPointRenderer@@@@QAE@XZ 170e4060 f i c_pointrenderer.obj
 0002:0002d090       ??0?$K2VectorAllocator@PAVCPointRenderer@@@@QAE@ABV0@@Z 170e4090 f i c_pointrenderer.obj
 0002:0002d0c0       ??0?$allocator@PAVCPointRenderer@@@std@@QAE@XZ 170e40c0 f i c_pointrenderer.obj
 0002:0002d0e0       ??0?$allocator@PAVCPointRenderer@@@std@@QAE@ABV01@@Z 170e40e0 f i c_pointrenderer.obj
 0002:0002d100       ??1?$CPool@VCPointRenderer@@@@QAE@XZ 170e4100 f i c_pointrenderer.obj
 0002:0002d1b0       ??1?$vector@PAVCPointRenderer@@V?$K2VectorAllocator@PAVCPointRenderer@@@@@@QAE@XZ 170e41b0 f i c_pointrenderer.obj
 0002:0002d1e0       ??1?$vector@PAVCPointRenderer@@V?$K2VectorAllocator@PAVCPointRenderer@@@@@std@@QAE@XZ 170e41e0 f i c_pointrenderer.obj
 0002:0002d260       ?_Tidy@?$vector@PAVCPointRenderer@@V?$K2VectorAllocator@PAVCPointRenderer@@@@@std@@IAEXXZ 170e4260 f i c_pointrenderer.obj
 0002:0002d300       ?Reset@?$CPool@VCPointRenderer@@@@QAEXXZ 170e4300 f i c_pointrenderer.obj
 0002:0002d420       ?clear@?$vector@PAVCPointRenderer@@V?$K2VectorAllocator@PAVCPointRenderer@@@@@std@@QAEXXZ 170e4420 f i c_pointrenderer.obj
 0002:0002d4e0       ??D?$_Vector_iterator@PAVCPointRenderer@@V?$K2VectorAllocator@PAVCPointRenderer@@@@@std@@QBEAAPAVCPointRenderer@@XZ 170e44e0 f i c_pointrenderer.obj
 0002:0002d510       ??E?$_Vector_iterator@PAVCPointRenderer@@V?$K2VectorAllocator@PAVCPointRenderer@@@@@std@@QAEAAV01@XZ 170e4510 f i c_pointrenderer.obj
 0002:0002d540       ??9?$_Vector_const_iterator@PAVCPointRenderer@@V?$K2VectorAllocator@PAVCPointRenderer@@@@@std@@QBE_NABV01@@Z 170e4540 f i c_pointrenderer.obj
 0002:0002d580       ?erase@?$vector@PAVCPointRenderer@@V?$K2VectorAllocator@PAVCPointRenderer@@@@@std@@QAE?AV?$_Vector_iterator@PAVCPointRenderer@@V?$K2VectorAllocator@PAVCPointRenderer@@@@@2@V32@0@Z 170e4580 f i c_pointrenderer.obj
 0002:0002d700       ??D?$_Vector_const_iterator@PAVCPointRenderer@@V?$K2VectorAllocator@PAVCPointRenderer@@@@@std@@QBEABQAVCPointRenderer@@XZ 170e4700 f i c_pointrenderer.obj
 0002:0002d7c0       ??E?$_Vector_const_iterator@PAVCPointRenderer@@V?$K2VectorAllocator@PAVCPointRenderer@@@@@std@@QAEAAV01@XZ 170e47c0 f i c_pointrenderer.obj
 0002:0002d8b0       ??8?$_Vector_const_iterator@PAVCPointRenderer@@V?$K2VectorAllocator@PAVCPointRenderer@@@@@std@@QBE_NABV01@@Z 170e48b0 f i c_pointrenderer.obj
 0002:0002d8f0       ??M?$_Vector_const_iterator@PAVCPointRenderer@@V?$K2VectorAllocator@PAVCPointRenderer@@@@@std@@QBE_NABV01@@Z 170e48f0 f i c_pointrenderer.obj
 0002:0002d930       ??$unchecked_copy@PAPAVCPointRenderer@@PAPAV1@@stdext@@YAPAPAVCPointRenderer@@PAPAV1@00@Z 170e4930 f i c_pointrenderer.obj
 0002:0002d9c0       ??$_Copy_opt@PAPAVCPointRenderer@@PAPAV1@Urandom_access_iterator_tag@std@@@std@@YAPAPAVCPointRenderer@@PAPAV1@00Urandom_access_iterator_tag@0@U_Scalar_ptr_iterator_tag@0@U_Range_checked_iterator_tag@0@@Z 170e49c0 f i c_pointrenderer.obj
 0002:0002da70       ??0CRenderList@@QAE@XZ     170e4a70 f   c_renderlist.obj
 0002:0002daa0       ??1CRenderList@@QAE@XZ     170e4aa0 f   c_renderlist.obj
 0002:0002dad0       ??1?$vector@PAVIRenderer@@V?$K2VectorAllocator@PAVIRenderer@@@@@@QAE@XZ 170e4ad0 f i c_renderlist.obj
 0002:0002db00       ?Clear@CRenderList@@QAEXXZ 170e4b00 f   c_renderlist.obj
 0002:0002dbd0       ?Add@CRenderList@@QAEXPAVIRenderer@@@Z 170e4bd0 f   c_renderlist.obj
 0002:0002dc00       ?Setup@CRenderList@@QAEXW4EMaterialPhase@@@Z 170e4c00 f   c_renderlist.obj
 0002:0002dd00       ??1?$_Vector_iterator@PAVIRenderer@@V?$K2VectorAllocator@PAVIRenderer@@@@@std@@QAE@XZ 170e4d00 f i c_renderlist.obj
 0002:0002dd30       ??1?$_Vector_const_iterator@PAVIRenderer@@V?$K2VectorAllocator@PAVIRenderer@@@@@std@@QAE@XZ 170e4d30 f i c_renderlist.obj
 0002:0002dd60       ??1?$_Ranit@PAVIRenderer@@HPBQAV1@ABQAV1@@std@@QAE@XZ 170e4d60 f i c_renderlist.obj
 0002:0002dd90       ?Sort@CRenderList@@QAEXXZ  170e4d90 f   c_renderlist.obj
 0002:0002e160       ?GetRender@IRenderer@@QBE_NXZ 170e5160 f i c_renderlist.obj
 0002:0002e180       ?IsTranslucent@IRenderer@@QBE_NXZ 170e5180 f i c_renderlist.obj
 0002:0002e1a0       ?GetLayer@IRenderer@@QBEHXZ 170e51a0 f i c_renderlist.obj
 0002:0002e1c0       ?GetEffectLayer@IRenderer@@QBEHXZ 170e51c0 f i c_renderlist.obj
 0002:0002e1e0       ?GetShaderProgramInstance@IRenderer@@QBEHXZ 170e51e0 f i c_renderlist.obj
 0002:0002e200       ?GetVertexBuffer@IRenderer@@QBEIXZ 170e5200 f i c_renderlist.obj
 0002:0002e220       ?GetDepth@IRenderer@@QBEMXZ 170e5220 f i c_renderlist.obj
 0002:0002e240       ?IsRefractive@IRenderer@@QBE_NXZ 170e5240 f i c_renderlist.obj
 0002:0002e260       ?Render@CRenderList@@QAEXW4EMaterialPhase@@@Z 170e5260 f   c_renderlist.obj
 0002:0002e4f0       ??0?$vector@PAVIRenderer@@V?$K2VectorAllocator@PAVIRenderer@@@@@@QAE@XZ 170e54f0 f i c_renderlist.obj
 0002:0002e520       ??1?$vector@PAVIRenderer@@V?$K2VectorAllocator@PAVIRenderer@@@@@std@@QAE@XZ 170e5520 f i c_renderlist.obj
 0002:0002e5a0       ?begin@?$vector@PAVIRenderer@@V?$K2VectorAllocator@PAVIRenderer@@@@@std@@QAE?AV?$_Vector_iterator@PAVIRenderer@@V?$K2VectorAllocator@PAVIRenderer@@@@@2@XZ 170e55a0 f i c_renderlist.obj
 0002:0002e5f0       ?end@?$vector@PAVIRenderer@@V?$K2VectorAllocator@PAVIRenderer@@@@@std@@QAE?AV?$_Vector_iterator@PAVIRenderer@@V?$K2VectorAllocator@PAVIRenderer@@@@@2@XZ 170e55f0 f i c_renderlist.obj
 0002:0002e640       ?push_back@?$vector@PAVIRenderer@@V?$K2VectorAllocator@PAVIRenderer@@@@@std@@QAEXABQAVIRenderer@@@Z 170e5640 f i c_renderlist.obj
 0002:0002e6f0       ?clear@?$vector@PAVIRenderer@@V?$K2VectorAllocator@PAVIRenderer@@@@@std@@QAEXXZ 170e56f0 f i c_renderlist.obj
 0002:0002e7b0       ??D?$_Vector_iterator@PAVIRenderer@@V?$K2VectorAllocator@PAVIRenderer@@@@@std@@QBEAAPAVIRenderer@@XZ 170e57b0 f i c_renderlist.obj
 0002:0002e7e0       ??E?$_Vector_iterator@PAVIRenderer@@V?$K2VectorAllocator@PAVIRenderer@@@@@std@@QAEAAV01@XZ 170e57e0 f i c_renderlist.obj
 0002:0002e810       ??9?$_Vector_const_iterator@PAVIRenderer@@V?$K2VectorAllocator@PAVIRenderer@@@@@std@@QBE_NABV01@@Z 170e5810 f i c_renderlist.obj
 0002:0002e850       ??1?$_Vector_val@PAVIRenderer@@V?$K2VectorAllocator@PAVIRenderer@@@@@std@@QAE@XZ 170e5850 f i c_renderlist.obj
 0002:0002e8d0       ??0?$vector@PAVIRenderer@@V?$K2VectorAllocator@PAVIRenderer@@@@@std@@QAE@XZ 170e58d0 f i c_renderlist.obj
 0002:0002e960       ?capacity@?$vector@PAVIRenderer@@V?$K2VectorAllocator@PAVIRenderer@@@@@std@@QBEIXZ 170e5960 f i c_renderlist.obj
 0002:0002e9b0       ?size@?$vector@PAVIRenderer@@V?$K2VectorAllocator@PAVIRenderer@@@@@std@@QBEIXZ 170e59b0 f i c_renderlist.obj
 0002:0002ea00       ?insert@?$vector@PAVIRenderer@@V?$K2VectorAllocator@PAVIRenderer@@@@@std@@QAE?AV?$_Vector_iterator@PAVIRenderer@@V?$K2VectorAllocator@PAVIRenderer@@@@@2@V32@ABQAVIRenderer@@@Z 170e5a00 f i c_renderlist.obj
 0002:0002eb70       ?erase@?$vector@PAVIRenderer@@V?$K2VectorAllocator@PAVIRenderer@@@@@std@@QAE?AV?$_Vector_iterator@PAVIRenderer@@V?$K2VectorAllocator@PAVIRenderer@@@@@2@V32@0@Z 170e5b70 f i c_renderlist.obj
 0002:0002ecf0       ?_Tidy@?$vector@PAVIRenderer@@V?$K2VectorAllocator@PAVIRenderer@@@@@std@@IAEXXZ 170e5cf0 f i c_renderlist.obj
 0002:0002ed90       ?_Ufill@?$vector@PAVIRenderer@@V?$K2VectorAllocator@PAVIRenderer@@@@@std@@IAEPAPAVIRenderer@@PAPAV3@IABQAV3@@Z 170e5d90 f i c_renderlist.obj
 0002:0002ede0       ?_Orphan_range@?$vector@PAVIRenderer@@V?$K2VectorAllocator@PAVIRenderer@@@@@std@@IBEXPAPAVIRenderer@@0@Z 170e5de0 f i c_renderlist.obj
 0002:0002ee80       ??1?$K2VectorAllocator@PAVIRenderer@@@@QAE@XZ 170e5e80 f i c_renderlist.obj
 0002:0002eea0       ??0?$_Vector_iterator@PAVIRenderer@@V?$K2VectorAllocator@PAVIRenderer@@@@@std@@QAE@PAPAVIRenderer@@PBV_Container_base@1@@Z 170e5ea0 f i c_renderlist.obj
 0002:0002eee0       ??D?$_Vector_const_iterator@PAVIRenderer@@V?$K2VectorAllocator@PAVIRenderer@@@@@std@@QBEABQAVIRenderer@@XZ 170e5ee0 f i c_renderlist.obj
 0002:0002efa0       ??E?$_Vector_const_iterator@PAVIRenderer@@V?$K2VectorAllocator@PAVIRenderer@@@@@std@@QAEAAV01@XZ 170e5fa0 f i c_renderlist.obj
 0002:0002f090       ??8?$_Vector_const_iterator@PAVIRenderer@@V?$K2VectorAllocator@PAVIRenderer@@@@@std@@QBE_NABV01@@Z 170e6090 f i c_renderlist.obj
 0002:0002f0d0       ??0?$_Vector_iterator@PAVIRenderer@@V?$K2VectorAllocator@PAVIRenderer@@@@@std@@QAE@ABV01@@Z 170e60d0 f i c_renderlist.obj
 0002:0002f100       ??0?$_Vector_const_iterator@PAVIRenderer@@V?$K2VectorAllocator@PAVIRenderer@@@@@std@@QAE@ABV01@@Z 170e6100 f i c_renderlist.obj
 0002:0002f140       ??0?$_Ranit@PAVIRenderer@@HPBQAV1@ABQAV1@@std@@QAE@ABU01@@Z 170e6140 f i c_renderlist.obj
 0002:0002f170       ?_Buy@?$vector@PAVIRenderer@@V?$K2VectorAllocator@PAVIRenderer@@@@@std@@IAE_NI@Z 170e6170 f i c_renderlist.obj
 0002:0002f220       ?_Destroy@?$vector@PAVIRenderer@@V?$K2VectorAllocator@PAVIRenderer@@@@@std@@IAEXPAPAVIRenderer@@0@Z 170e6220 f i c_renderlist.obj
 0002:0002f260       ?_Insert_n@?$vector@PAVIRenderer@@V?$K2VectorAllocator@PAVIRenderer@@@@@std@@IAEXV?$_Vector_iterator@PAVIRenderer@@V?$K2VectorAllocator@PAVIRenderer@@@@@2@IABQAVIRenderer@@@Z 170e6260 f i c_renderlist.obj
 0002:0002f710       ??0?$_Vector_val@PAVIRenderer@@V?$K2VectorAllocator@PAVIRenderer@@@@@std@@IAE@V?$K2VectorAllocator@PAVIRenderer@@@@@Z 170e6710 f i c_renderlist.obj
 0002:0002f7b0       ??0?$K2VectorAllocator@PAVIRenderer@@@@QAE@XZ 170e67b0 f i c_renderlist.obj
 0002:0002f7e0       ?deallocate@?$K2VectorAllocator@PAVIRenderer@@@@QAEXPAPAVIRenderer@@I@Z 170e67e0 f i c_renderlist.obj
 0002:0002f820       ??H?$_Vector_iterator@PAVIRenderer@@V?$K2VectorAllocator@PAVIRenderer@@@@@std@@QBE?AV01@H@Z 170e6820 f i c_renderlist.obj
 0002:0002f8d0       ??G?$_Vector_iterator@PAVIRenderer@@V?$K2VectorAllocator@PAVIRenderer@@@@@std@@QBEHABV?$_Vector_const_iterator@PAVIRenderer@@V?$K2VectorAllocator@PAVIRenderer@@@@@1@@Z 170e68d0 f i c_renderlist.obj
 0002:0002f900       ??0?$_Vector_const_iterator@PAVIRenderer@@V?$K2VectorAllocator@PAVIRenderer@@@@@std@@QAE@PAPAVIRenderer@@PBV_Container_base@1@@Z 170e6900 f i c_renderlist.obj
 0002:0002fa00       ??M?$_Vector_const_iterator@PAVIRenderer@@V?$K2VectorAllocator@PAVIRenderer@@@@@std@@QBE_NABV01@@Z 170e6a00 f i c_renderlist.obj
 0002:0002fa40       ?_Compat@?$_Vector_const_iterator@PAVIRenderer@@V?$K2VectorAllocator@PAVIRenderer@@@@@std@@QBEXABV12@@Z 170e6a40 f i c_renderlist.obj
 0002:0002faf0       ??0?$_Ranit@PAVIRenderer@@HPBQAV1@ABQAV1@@std@@QAE@XZ 170e6af0 f i c_renderlist.obj
 0002:0002fb20       ?max_size@?$vector@PAVIRenderer@@V?$K2VectorAllocator@PAVIRenderer@@@@@std@@QBEIXZ 170e6b20 f i c_renderlist.obj
 0002:0002fb50       ?_Xlen@?$vector@PAVIRenderer@@V?$K2VectorAllocator@PAVIRenderer@@@@@std@@KAXXZ 170e6b50 f i c_renderlist.obj
 0002:0002fc00       ??0?$K2VectorAllocator@PAVIRenderer@@@@QAE@ABV0@@Z 170e6c00 f i c_renderlist.obj
 0002:0002fc30       ?allocate@?$K2VectorAllocator@PAVIRenderer@@@@QAEPAPAVIRenderer@@I@Z 170e6c30 f i c_renderlist.obj
 0002:0002fc80       ??0?$allocator@PAVIRenderer@@@std@@QAE@XZ 170e6c80 f i c_renderlist.obj
 0002:0002fca0       ??Y?$_Vector_iterator@PAVIRenderer@@V?$K2VectorAllocator@PAVIRenderer@@@@@std@@QAEAAV01@H@Z 170e6ca0 f i c_renderlist.obj
 0002:0002fcd0       ??G?$_Vector_const_iterator@PAVIRenderer@@V?$K2VectorAllocator@PAVIRenderer@@@@@std@@QBEHABV01@@Z 170e6cd0 f i c_renderlist.obj
 0002:0002fd10       ??0?$allocator@PAVIRenderer@@@std@@QAE@ABV01@@Z 170e6d10 f i c_renderlist.obj
 0002:0002fd30       ?max_size@?$allocator@PAVIRenderer@@@std@@QBEIXZ 170e6d30 f i c_renderlist.obj
 0002:0002fd70       ??Y?$_Vector_const_iterator@PAVIRenderer@@V?$K2VectorAllocator@PAVIRenderer@@@@@std@@QAEAAV01@H@Z 170e6d70 f i c_renderlist.obj
 0002:0002fea0       ?Reset@?$CPool@VCScenePolyRenderer@@@@QAEXXZ 170e6ea0 f i c_renderlist.obj
 0002:0002ffc0       ?Reset@?$CPool@VCTreeBranchRenderer@@@@QAEXXZ 170e6fc0 f i c_renderlist.obj
 0002:000300e0       ?Reset@?$CPool@VCTreeFrondRenderer@@@@QAEXXZ 170e70e0 f i c_renderlist.obj
 0002:00030200       ?Reset@?$CPool@VCTreeLeafRenderer@@@@QAEXXZ 170e7200 f i c_renderlist.obj
 0002:00030320       ?Reset@?$CPool@VCTreeBillboardRenderer@@@@QAEXXZ 170e7320 f i c_renderlist.obj
 0002:00030440       ?Reset@?$CPool@VCTerrainRenderer@@@@QAEXXZ 170e7440 f i c_renderlist.obj
 0002:00030560       ?Reset@?$CPool@VCSkyRenderer@@@@QAEXXZ 170e7560 f i c_renderlist.obj
 0002:00030680       ??$sort@V?$_Vector_iterator@PAVIRenderer@@V?$K2VectorAllocator@PAVIRenderer@@@@@std@@P6A_NPAVIRenderer@@0@Z@std@@YAXV?$_Vector_iterator@PAVIRenderer@@V?$K2VectorAllocator@PAVIRenderer@@@@@0@0P6A_NPAVIRenderer@@1@Z@Z 170e7680 f i c_renderlist.obj
 0002:000307e0       ??$unchecked_copy@PAPAVIRenderer@@PAPAV1@@stdext@@YAPAPAVIRenderer@@PAPAV1@00@Z 170e77e0 f i c_renderlist.obj
 0002:00030870       ??$unchecked_uninitialized_fill_n@PAPAVIRenderer@@IPAV1@V?$K2VectorAllocator@PAVIRenderer@@@@@stdext@@YAXPAPAVIRenderer@@IABQAV1@AAV?$K2VectorAllocator@PAVIRenderer@@@@@Z 170e7870 f i c_renderlist.obj
 0002:000308d0       ??$_Destroy_range@PAVIRenderer@@V?$K2VectorAllocator@PAVIRenderer@@@@@std@@YAXPAPAVIRenderer@@0AAV?$K2VectorAllocator@PAVIRenderer@@@@@Z 170e78d0 f i c_renderlist.obj
 0002:00030920       ??$_Umove@PAPAVIRenderer@@@?$vector@PAVIRenderer@@V?$K2VectorAllocator@PAVIRenderer@@@@@std@@IAEPAPAVIRenderer@@PAPAV2@00@Z 170e7920 f i c_renderlist.obj
 0002:00030960       ??$fill@PAPAVIRenderer@@PAV1@@std@@YAXPAPAVIRenderer@@0ABQAV1@@Z 170e7960 f i c_renderlist.obj
 0002:000309b0       ??$_Unchecked_move_backward@PAPAVIRenderer@@PAPAV1@@stdext@@YAPAPAVIRenderer@@PAPAV1@00@Z 170e79b0 f i c_renderlist.obj
 0002:00030a40       ??1?$_Vector_iterator@PAVCScenePolyRenderer@@V?$K2VectorAllocator@PAVCScenePolyRenderer@@@@@std@@QAE@XZ 170e7a40 f i c_renderlist.obj
 0002:00030a70       ??1?$_Vector_iterator@PAVCTreeBranchRenderer@@V?$K2VectorAllocator@PAVCTreeBranchRenderer@@@@@std@@QAE@XZ 170e7a70 f i c_renderlist.obj
 0002:00030aa0       ??1?$_Vector_iterator@PAVCTreeFrondRenderer@@V?$K2VectorAllocator@PAVCTreeFrondRenderer@@@@@std@@QAE@XZ 170e7aa0 f i c_renderlist.obj
 0002:00030ad0       ??1?$_Vector_iterator@PAVCTreeLeafRenderer@@V?$K2VectorAllocator@PAVCTreeLeafRenderer@@@@@std@@QAE@XZ 170e7ad0 f i c_renderlist.obj
 0002:00030b00       ??1?$_Vector_iterator@PAVCTreeBillboardRenderer@@V?$K2VectorAllocator@PAVCTreeBillboardRenderer@@@@@std@@QAE@XZ 170e7b00 f i c_renderlist.obj
 0002:00030b30       ??1?$_Vector_iterator@PAVCTerrainRenderer@@V?$K2VectorAllocator@PAVCTerrainRenderer@@@@@std@@QAE@XZ 170e7b30 f i c_renderlist.obj
 0002:00030b60       ??1?$_Vector_iterator@PAVCSkyRenderer@@V?$K2VectorAllocator@PAVCSkyRenderer@@@@@std@@QAE@XZ 170e7b60 f i c_renderlist.obj
 0002:00030b90       ??1?$_Vector_const_iterator@PAVCScenePolyRenderer@@V?$K2VectorAllocator@PAVCScenePolyRenderer@@@@@std@@QAE@XZ 170e7b90 f i c_renderlist.obj
 0002:00030bc0       ??1?$_Vector_const_iterator@PAVCTreeBranchRenderer@@V?$K2VectorAllocator@PAVCTreeBranchRenderer@@@@@std@@QAE@XZ 170e7bc0 f i c_renderlist.obj
 0002:00030bf0       ??1?$_Vector_const_iterator@PAVCTreeFrondRenderer@@V?$K2VectorAllocator@PAVCTreeFrondRenderer@@@@@std@@QAE@XZ 170e7bf0 f i c_renderlist.obj
 0002:00030c20       ??1?$_Vector_const_iterator@PAVCTreeLeafRenderer@@V?$K2VectorAllocator@PAVCTreeLeafRenderer@@@@@std@@QAE@XZ 170e7c20 f i c_renderlist.obj
 0002:00030c50       ??1?$_Vector_const_iterator@PAVCTreeBillboardRenderer@@V?$K2VectorAllocator@PAVCTreeBillboardRenderer@@@@@std@@QAE@XZ 170e7c50 f i c_renderlist.obj
 0002:00030c80       ??1?$_Vector_const_iterator@PAVCTerrainRenderer@@V?$K2VectorAllocator@PAVCTerrainRenderer@@@@@std@@QAE@XZ 170e7c80 f i c_renderlist.obj
 0002:00030cb0       ??1?$_Vector_const_iterator@PAVCSkyRenderer@@V?$K2VectorAllocator@PAVCSkyRenderer@@@@@std@@QAE@XZ 170e7cb0 f i c_renderlist.obj
 0002:00030ce0       ??1?$_Ranit@PAVCScenePolyRenderer@@HPBQAV1@ABQAV1@@std@@QAE@XZ 170e7ce0 f i c_renderlist.obj
 0002:00030d10       ??1?$_Ranit@PAVCTreeBranchRenderer@@HPBQAV1@ABQAV1@@std@@QAE@XZ 170e7d10 f i c_renderlist.obj
 0002:00030d40       ??1?$_Ranit@PAVCTreeFrondRenderer@@HPBQAV1@ABQAV1@@std@@QAE@XZ 170e7d40 f i c_renderlist.obj
 0002:00030d70       ??1?$_Ranit@PAVCTreeLeafRenderer@@HPBQAV1@ABQAV1@@std@@QAE@XZ 170e7d70 f i c_renderlist.obj
 0002:00030da0       ??1?$_Ranit@PAVCTreeBillboardRenderer@@HPBQAV1@ABQAV1@@std@@QAE@XZ 170e7da0 f i c_renderlist.obj
 0002:00030dd0       ??1?$_Ranit@PAVCTerrainRenderer@@HPBQAV1@ABQAV1@@std@@QAE@XZ 170e7dd0 f i c_renderlist.obj
 0002:00030e00       ??1?$_Ranit@PAVCSkyRenderer@@HPBQAV1@ABQAV1@@std@@QAE@XZ 170e7e00 f i c_renderlist.obj
 0002:00030e30       ?begin@?$vector@PAVCScenePolyRenderer@@V?$K2VectorAllocator@PAVCScenePolyRenderer@@@@@std@@QAE?AV?$_Vector_iterator@PAVCScenePolyRenderer@@V?$K2VectorAllocator@PAVCScenePolyRenderer@@@@@2@XZ 170e7e30 f i c_renderlist.obj
 0002:00030e80       ?end@?$vector@PAVCScenePolyRenderer@@V?$K2VectorAllocator@PAVCScenePolyRenderer@@@@@std@@QAE?AV?$_Vector_iterator@PAVCScenePolyRenderer@@V?$K2VectorAllocator@PAVCScenePolyRenderer@@@@@2@XZ 170e7e80 f i c_renderlist.obj
 0002:00030ed0       ?clear@?$vector@PAVCScenePolyRenderer@@V?$K2VectorAllocator@PAVCScenePolyRenderer@@@@@std@@QAEXXZ 170e7ed0 f i c_renderlist.obj
 0002:00030f90       ?begin@?$vector@PAVCTreeBranchRenderer@@V?$K2VectorAllocator@PAVCTreeBranchRenderer@@@@@std@@QAE?AV?$_Vector_iterator@PAVCTreeBranchRenderer@@V?$K2VectorAllocator@PAVCTreeBranchRenderer@@@@@2@XZ 170e7f90 f i c_renderlist.obj
 0002:00030fe0       ?end@?$vector@PAVCTreeBranchRenderer@@V?$K2VectorAllocator@PAVCTreeBranchRenderer@@@@@std@@QAE?AV?$_Vector_iterator@PAVCTreeBranchRenderer@@V?$K2VectorAllocator@PAVCTreeBranchRenderer@@@@@2@XZ 170e7fe0 f i c_renderlist.obj
 0002:00031030       ?clear@?$vector@PAVCTreeBranchRenderer@@V?$K2VectorAllocator@PAVCTreeBranchRenderer@@@@@std@@QAEXXZ 170e8030 f i c_renderlist.obj
 0002:000310f0       ?begin@?$vector@PAVCTreeFrondRenderer@@V?$K2VectorAllocator@PAVCTreeFrondRenderer@@@@@std@@QAE?AV?$_Vector_iterator@PAVCTreeFrondRenderer@@V?$K2VectorAllocator@PAVCTreeFrondRenderer@@@@@2@XZ 170e80f0 f i c_renderlist.obj
 0002:00031140       ?end@?$vector@PAVCTreeFrondRenderer@@V?$K2VectorAllocator@PAVCTreeFrondRenderer@@@@@std@@QAE?AV?$_Vector_iterator@PAVCTreeFrondRenderer@@V?$K2VectorAllocator@PAVCTreeFrondRenderer@@@@@2@XZ 170e8140 f i c_renderlist.obj
 0002:00031190       ?clear@?$vector@PAVCTreeFrondRenderer@@V?$K2VectorAllocator@PAVCTreeFrondRenderer@@@@@std@@QAEXXZ 170e8190 f i c_renderlist.obj
 0002:00031250       ?begin@?$vector@PAVCTreeLeafRenderer@@V?$K2VectorAllocator@PAVCTreeLeafRenderer@@@@@std@@QAE?AV?$_Vector_iterator@PAVCTreeLeafRenderer@@V?$K2VectorAllocator@PAVCTreeLeafRenderer@@@@@2@XZ 170e8250 f i c_renderlist.obj
 0002:000312a0       ?end@?$vector@PAVCTreeLeafRenderer@@V?$K2VectorAllocator@PAVCTreeLeafRenderer@@@@@std@@QAE?AV?$_Vector_iterator@PAVCTreeLeafRenderer@@V?$K2VectorAllocator@PAVCTreeLeafRenderer@@@@@2@XZ 170e82a0 f i c_renderlist.obj
 0002:000312f0       ?clear@?$vector@PAVCTreeLeafRenderer@@V?$K2VectorAllocator@PAVCTreeLeafRenderer@@@@@std@@QAEXXZ 170e82f0 f i c_renderlist.obj
 0002:000313b0       ?begin@?$vector@PAVCTreeBillboardRenderer@@V?$K2VectorAllocator@PAVCTreeBillboardRenderer@@@@@std@@QAE?AV?$_Vector_iterator@PAVCTreeBillboardRenderer@@V?$K2VectorAllocator@PAVCTreeBillboardRenderer@@@@@2@XZ 170e83b0 f i c_renderlist.obj
 0002:00031400       ?end@?$vector@PAVCTreeBillboardRenderer@@V?$K2VectorAllocator@PAVCTreeBillboardRenderer@@@@@std@@QAE?AV?$_Vector_iterator@PAVCTreeBillboardRenderer@@V?$K2VectorAllocator@PAVCTreeBillboardRenderer@@@@@2@XZ 170e8400 f i c_renderlist.obj
 0002:00031450       ?clear@?$vector@PAVCTreeBillboardRenderer@@V?$K2VectorAllocator@PAVCTreeBillboardRenderer@@@@@std@@QAEXXZ 170e8450 f i c_renderlist.obj
 0002:00031510       ?begin@?$vector@PAVCTerrainRenderer@@V?$K2VectorAllocator@PAVCTerrainRenderer@@@@@std@@QAE?AV?$_Vector_iterator@PAVCTerrainRenderer@@V?$K2VectorAllocator@PAVCTerrainRenderer@@@@@2@XZ 170e8510 f i c_renderlist.obj
 0002:00031560       ?end@?$vector@PAVCTerrainRenderer@@V?$K2VectorAllocator@PAVCTerrainRenderer@@@@@std@@QAE?AV?$_Vector_iterator@PAVCTerrainRenderer@@V?$K2VectorAllocator@PAVCTerrainRenderer@@@@@2@XZ 170e8560 f i c_renderlist.obj
 0002:000315b0       ?clear@?$vector@PAVCTerrainRenderer@@V?$K2VectorAllocator@PAVCTerrainRenderer@@@@@std@@QAEXXZ 170e85b0 f i c_renderlist.obj
 0002:00031670       ?begin@?$vector@PAVCSkyRenderer@@V?$K2VectorAllocator@PAVCSkyRenderer@@@@@std@@QAE?AV?$_Vector_iterator@PAVCSkyRenderer@@V?$K2VectorAllocator@PAVCSkyRenderer@@@@@2@XZ 170e8670 f i c_renderlist.obj
 0002:000316c0       ?end@?$vector@PAVCSkyRenderer@@V?$K2VectorAllocator@PAVCSkyRenderer@@@@@std@@QAE?AV?$_Vector_iterator@PAVCSkyRenderer@@V?$K2VectorAllocator@PAVCSkyRenderer@@@@@2@XZ 170e86c0 f i c_renderlist.obj
 0002:00031710       ?clear@?$vector@PAVCSkyRenderer@@V?$K2VectorAllocator@PAVCSkyRenderer@@@@@std@@QAEXXZ 170e8710 f i c_renderlist.obj
 0002:000317d0       ??D?$_Vector_iterator@PAVCScenePolyRenderer@@V?$K2VectorAllocator@PAVCScenePolyRenderer@@@@@std@@QBEAAPAVCScenePolyRenderer@@XZ 170e87d0 f i c_renderlist.obj
 0002:00031800       ??E?$_Vector_iterator@PAVCScenePolyRenderer@@V?$K2VectorAllocator@PAVCScenePolyRenderer@@@@@std@@QAEAAV01@XZ 170e8800 f i c_renderlist.obj
 0002:00031830       ??9?$_Vector_const_iterator@PAVCScenePolyRenderer@@V?$K2VectorAllocator@PAVCScenePolyRenderer@@@@@std@@QBE_NABV01@@Z 170e8830 f i c_renderlist.obj
 0002:00031870       ??D?$_Vector_iterator@PAVCTreeBranchRenderer@@V?$K2VectorAllocator@PAVCTreeBranchRenderer@@@@@std@@QBEAAPAVCTreeBranchRenderer@@XZ 170e8870 f i c_renderlist.obj
 0002:000318a0       ??E?$_Vector_iterator@PAVCTreeBranchRenderer@@V?$K2VectorAllocator@PAVCTreeBranchRenderer@@@@@std@@QAEAAV01@XZ 170e88a0 f i c_renderlist.obj
 0002:000318d0       ??9?$_Vector_const_iterator@PAVCTreeBranchRenderer@@V?$K2VectorAllocator@PAVCTreeBranchRenderer@@@@@std@@QBE_NABV01@@Z 170e88d0 f i c_renderlist.obj
 0002:00031910       ??D?$_Vector_iterator@PAVCTreeFrondRenderer@@V?$K2VectorAllocator@PAVCTreeFrondRenderer@@@@@std@@QBEAAPAVCTreeFrondRenderer@@XZ 170e8910 f i c_renderlist.obj
 0002:00031940       ??E?$_Vector_iterator@PAVCTreeFrondRenderer@@V?$K2VectorAllocator@PAVCTreeFrondRenderer@@@@@std@@QAEAAV01@XZ 170e8940 f i c_renderlist.obj
 0002:00031970       ??9?$_Vector_const_iterator@PAVCTreeFrondRenderer@@V?$K2VectorAllocator@PAVCTreeFrondRenderer@@@@@std@@QBE_NABV01@@Z 170e8970 f i c_renderlist.obj
 0002:000319b0       ??D?$_Vector_iterator@PAVCTreeLeafRenderer@@V?$K2VectorAllocator@PAVCTreeLeafRenderer@@@@@std@@QBEAAPAVCTreeLeafRenderer@@XZ 170e89b0 f i c_renderlist.obj
 0002:000319e0       ??E?$_Vector_iterator@PAVCTreeLeafRenderer@@V?$K2VectorAllocator@PAVCTreeLeafRenderer@@@@@std@@QAEAAV01@XZ 170e89e0 f i c_renderlist.obj
 0002:00031a10       ??9?$_Vector_const_iterator@PAVCTreeLeafRenderer@@V?$K2VectorAllocator@PAVCTreeLeafRenderer@@@@@std@@QBE_NABV01@@Z 170e8a10 f i c_renderlist.obj
 0002:00031a50       ??D?$_Vector_iterator@PAVCTreeBillboardRenderer@@V?$K2VectorAllocator@PAVCTreeBillboardRenderer@@@@@std@@QBEAAPAVCTreeBillboardRenderer@@XZ 170e8a50 f i c_renderlist.obj
 0002:00031a80       ??E?$_Vector_iterator@PAVCTreeBillboardRenderer@@V?$K2VectorAllocator@PAVCTreeBillboardRenderer@@@@@std@@QAEAAV01@XZ 170e8a80 f i c_renderlist.obj
 0002:00031ab0       ??9?$_Vector_const_iterator@PAVCTreeBillboardRenderer@@V?$K2VectorAllocator@PAVCTreeBillboardRenderer@@@@@std@@QBE_NABV01@@Z 170e8ab0 f i c_renderlist.obj
 0002:00031af0       ??D?$_Vector_iterator@PAVCTerrainRenderer@@V?$K2VectorAllocator@PAVCTerrainRenderer@@@@@std@@QBEAAPAVCTerrainRenderer@@XZ 170e8af0 f i c_renderlist.obj
 0002:00031b20       ??E?$_Vector_iterator@PAVCTerrainRenderer@@V?$K2VectorAllocator@PAVCTerrainRenderer@@@@@std@@QAEAAV01@XZ 170e8b20 f i c_renderlist.obj
 0002:00031b50       ??9?$_Vector_const_iterator@PAVCTerrainRenderer@@V?$K2VectorAllocator@PAVCTerrainRenderer@@@@@std@@QBE_NABV01@@Z 170e8b50 f i c_renderlist.obj
 0002:00031b90       ??D?$_Vector_iterator@PAVCSkyRenderer@@V?$K2VectorAllocator@PAVCSkyRenderer@@@@@std@@QBEAAPAVCSkyRenderer@@XZ 170e8b90 f i c_renderlist.obj
 0002:00031bc0       ??E?$_Vector_iterator@PAVCSkyRenderer@@V?$K2VectorAllocator@PAVCSkyRenderer@@@@@std@@QAEAAV01@XZ 170e8bc0 f i c_renderlist.obj
 0002:00031bf0       ??9?$_Vector_const_iterator@PAVCSkyRenderer@@V?$K2VectorAllocator@PAVCSkyRenderer@@@@@std@@QBE_NABV01@@Z 170e8bf0 f i c_renderlist.obj
 0002:00031c30       ?erase@?$vector@PAVCScenePolyRenderer@@V?$K2VectorAllocator@PAVCScenePolyRenderer@@@@@std@@QAE?AV?$_Vector_iterator@PAVCScenePolyRenderer@@V?$K2VectorAllocator@PAVCScenePolyRenderer@@@@@2@V32@0@Z 170e8c30 f i c_renderlist.obj
 0002:00031db0       ?erase@?$vector@PAVCTreeBranchRenderer@@V?$K2VectorAllocator@PAVCTreeBranchRenderer@@@@@std@@QAE?AV?$_Vector_iterator@PAVCTreeBranchRenderer@@V?$K2VectorAllocator@PAVCTreeBranchRenderer@@@@@2@V32@0@Z 170e8db0 f i c_renderlist.obj
 0002:00031f30       ?erase@?$vector@PAVCTreeFrondRenderer@@V?$K2VectorAllocator@PAVCTreeFrondRenderer@@@@@std@@QAE?AV?$_Vector_iterator@PAVCTreeFrondRenderer@@V?$K2VectorAllocator@PAVCTreeFrondRenderer@@@@@2@V32@0@Z 170e8f30 f i c_renderlist.obj
 0002:000320b0       ?erase@?$vector@PAVCTreeLeafRenderer@@V?$K2VectorAllocator@PAVCTreeLeafRenderer@@@@@std@@QAE?AV?$_Vector_iterator@PAVCTreeLeafRenderer@@V?$K2VectorAllocator@PAVCTreeLeafRenderer@@@@@2@V32@0@Z 170e90b0 f i c_renderlist.obj
 0002:00032230       ?erase@?$vector@PAVCTreeBillboardRenderer@@V?$K2VectorAllocator@PAVCTreeBillboardRenderer@@@@@std@@QAE?AV?$_Vector_iterator@PAVCTreeBillboardRenderer@@V?$K2VectorAllocator@PAVCTreeBillboardRenderer@@@@@2@V32@0@Z 170e9230 f i c_renderlist.obj
 0002:000323b0       ?erase@?$vector@PAVCTerrainRenderer@@V?$K2VectorAllocator@PAVCTerrainRenderer@@@@@std@@QAE?AV?$_Vector_iterator@PAVCTerrainRenderer@@V?$K2VectorAllocator@PAVCTerrainRenderer@@@@@2@V32@0@Z 170e93b0 f i c_renderlist.obj
 0002:00032530       ?erase@?$vector@PAVCSkyRenderer@@V?$K2VectorAllocator@PAVCSkyRenderer@@@@@std@@QAE?AV?$_Vector_iterator@PAVCSkyRenderer@@V?$K2VectorAllocator@PAVCSkyRenderer@@@@@2@V32@0@Z 170e9530 f i c_renderlist.obj
 0002:000326b0       ??0?$_Vector_iterator@PAVCScenePolyRenderer@@V?$K2VectorAllocator@PAVCScenePolyRenderer@@@@@std@@QAE@PAPAVCScenePolyRenderer@@PBV_Container_base@1@@Z 170e96b0 f i c_renderlist.obj
 0002:000326f0       ??D?$_Vector_const_iterator@PAVCScenePolyRenderer@@V?$K2VectorAllocator@PAVCScenePolyRenderer@@@@@std@@QBEABQAVCScenePolyRenderer@@XZ 170e96f0 f i c_renderlist.obj
 0002:000327b0       ??E?$_Vector_const_iterator@PAVCScenePolyRenderer@@V?$K2VectorAllocator@PAVCScenePolyRenderer@@@@@std@@QAEAAV01@XZ 170e97b0 f i c_renderlist.obj
 0002:000328a0       ??8?$_Vector_const_iterator@PAVCScenePolyRenderer@@V?$K2VectorAllocator@PAVCScenePolyRenderer@@@@@std@@QBE_NABV01@@Z 170e98a0 f i c_renderlist.obj
 0002:000328e0       ??0?$_Vector_iterator@PAVCTreeBranchRenderer@@V?$K2VectorAllocator@PAVCTreeBranchRenderer@@@@@std@@QAE@PAPAVCTreeBranchRenderer@@PBV_Container_base@1@@Z 170e98e0 f i c_renderlist.obj
 0002:00032920       ??D?$_Vector_const_iterator@PAVCTreeBranchRenderer@@V?$K2VectorAllocator@PAVCTreeBranchRenderer@@@@@std@@QBEABQAVCTreeBranchRenderer@@XZ 170e9920 f i c_renderlist.obj
 0002:000329e0       ??E?$_Vector_const_iterator@PAVCTreeBranchRenderer@@V?$K2VectorAllocator@PAVCTreeBranchRenderer@@@@@std@@QAEAAV01@XZ 170e99e0 f i c_renderlist.obj
 0002:00032ad0       ??8?$_Vector_const_iterator@PAVCTreeBranchRenderer@@V?$K2VectorAllocator@PAVCTreeBranchRenderer@@@@@std@@QBE_NABV01@@Z 170e9ad0 f i c_renderlist.obj
 0002:00032b10       ??0?$_Vector_iterator@PAVCTreeFrondRenderer@@V?$K2VectorAllocator@PAVCTreeFrondRenderer@@@@@std@@QAE@PAPAVCTreeFrondRenderer@@PBV_Container_base@1@@Z 170e9b10 f i c_renderlist.obj
 0002:00032b50       ??D?$_Vector_const_iterator@PAVCTreeFrondRenderer@@V?$K2VectorAllocator@PAVCTreeFrondRenderer@@@@@std@@QBEABQAVCTreeFrondRenderer@@XZ 170e9b50 f i c_renderlist.obj
 0002:00032c10       ??E?$_Vector_const_iterator@PAVCTreeFrondRenderer@@V?$K2VectorAllocator@PAVCTreeFrondRenderer@@@@@std@@QAEAAV01@XZ 170e9c10 f i c_renderlist.obj
 0002:00032d00       ??8?$_Vector_const_iterator@PAVCTreeFrondRenderer@@V?$K2VectorAllocator@PAVCTreeFrondRenderer@@@@@std@@QBE_NABV01@@Z 170e9d00 f i c_renderlist.obj
 0002:00032d40       ??0?$_Vector_iterator@PAVCTreeLeafRenderer@@V?$K2VectorAllocator@PAVCTreeLeafRenderer@@@@@std@@QAE@PAPAVCTreeLeafRenderer@@PBV_Container_base@1@@Z 170e9d40 f i c_renderlist.obj
 0002:00032d80       ??D?$_Vector_const_iterator@PAVCTreeLeafRenderer@@V?$K2VectorAllocator@PAVCTreeLeafRenderer@@@@@std@@QBEABQAVCTreeLeafRenderer@@XZ 170e9d80 f i c_renderlist.obj
 0002:00032e40       ??E?$_Vector_const_iterator@PAVCTreeLeafRenderer@@V?$K2VectorAllocator@PAVCTreeLeafRenderer@@@@@std@@QAEAAV01@XZ 170e9e40 f i c_renderlist.obj
 0002:00032f30       ??8?$_Vector_const_iterator@PAVCTreeLeafRenderer@@V?$K2VectorAllocator@PAVCTreeLeafRenderer@@@@@std@@QBE_NABV01@@Z 170e9f30 f i c_renderlist.obj
 0002:00032f70       ??0?$_Vector_iterator@PAVCTreeBillboardRenderer@@V?$K2VectorAllocator@PAVCTreeBillboardRenderer@@@@@std@@QAE@PAPAVCTreeBillboardRenderer@@PBV_Container_base@1@@Z 170e9f70 f i c_renderlist.obj
 0002:00032fb0       ??D?$_Vector_const_iterator@PAVCTreeBillboardRenderer@@V?$K2VectorAllocator@PAVCTreeBillboardRenderer@@@@@std@@QBEABQAVCTreeBillboardRenderer@@XZ 170e9fb0 f i c_renderlist.obj
 0002:00033070       ??E?$_Vector_const_iterator@PAVCTreeBillboardRenderer@@V?$K2VectorAllocator@PAVCTreeBillboardRenderer@@@@@std@@QAEAAV01@XZ 170ea070 f i c_renderlist.obj
 0002:00033160       ??8?$_Vector_const_iterator@PAVCTreeBillboardRenderer@@V?$K2VectorAllocator@PAVCTreeBillboardRenderer@@@@@std@@QBE_NABV01@@Z 170ea160 f i c_renderlist.obj
 0002:000331a0       ??0?$_Vector_iterator@PAVCTerrainRenderer@@V?$K2VectorAllocator@PAVCTerrainRenderer@@@@@std@@QAE@PAPAVCTerrainRenderer@@PBV_Container_base@1@@Z 170ea1a0 f i c_renderlist.obj
 0002:000331e0       ??D?$_Vector_const_iterator@PAVCTerrainRenderer@@V?$K2VectorAllocator@PAVCTerrainRenderer@@@@@std@@QBEABQAVCTerrainRenderer@@XZ 170ea1e0 f i c_renderlist.obj
 0002:000332a0       ??E?$_Vector_const_iterator@PAVCTerrainRenderer@@V?$K2VectorAllocator@PAVCTerrainRenderer@@@@@std@@QAEAAV01@XZ 170ea2a0 f i c_renderlist.obj
 0002:00033390       ??8?$_Vector_const_iterator@PAVCTerrainRenderer@@V?$K2VectorAllocator@PAVCTerrainRenderer@@@@@std@@QBE_NABV01@@Z 170ea390 f i c_renderlist.obj
 0002:000333d0       ??0?$_Vector_iterator@PAVCSkyRenderer@@V?$K2VectorAllocator@PAVCSkyRenderer@@@@@std@@QAE@PAPAVCSkyRenderer@@PBV_Container_base@1@@Z 170ea3d0 f i c_renderlist.obj
 0002:00033410       ??D?$_Vector_const_iterator@PAVCSkyRenderer@@V?$K2VectorAllocator@PAVCSkyRenderer@@@@@std@@QBEABQAVCSkyRenderer@@XZ 170ea410 f i c_renderlist.obj
 0002:000334d0       ??E?$_Vector_const_iterator@PAVCSkyRenderer@@V?$K2VectorAllocator@PAVCSkyRenderer@@@@@std@@QAEAAV01@XZ 170ea4d0 f i c_renderlist.obj
 0002:000335c0       ??8?$_Vector_const_iterator@PAVCSkyRenderer@@V?$K2VectorAllocator@PAVCSkyRenderer@@@@@std@@QBE_NABV01@@Z 170ea5c0 f i c_renderlist.obj
 0002:00033600       ?_Destroy@?$vector@PAVCScenePolyRenderer@@V?$K2VectorAllocator@PAVCScenePolyRenderer@@@@@std@@IAEXPAPAVCScenePolyRenderer@@0@Z 170ea600 f i c_renderlist.obj
 0002:00033640       ?_Orphan_range@?$vector@PAVCScenePolyRenderer@@V?$K2VectorAllocator@PAVCScenePolyRenderer@@@@@std@@IBEXPAPAVCScenePolyRenderer@@0@Z 170ea640 f i c_renderlist.obj
 0002:000336e0       ?_Destroy@?$vector@PAVCTreeBranchRenderer@@V?$K2VectorAllocator@PAVCTreeBranchRenderer@@@@@std@@IAEXPAPAVCTreeBranchRenderer@@0@Z 170ea6e0 f i c_renderlist.obj
 0002:00033720       ?_Orphan_range@?$vector@PAVCTreeBranchRenderer@@V?$K2VectorAllocator@PAVCTreeBranchRenderer@@@@@std@@IBEXPAPAVCTreeBranchRenderer@@0@Z 170ea720 f i c_renderlist.obj
 0002:000337c0       ?_Destroy@?$vector@PAVCTreeFrondRenderer@@V?$K2VectorAllocator@PAVCTreeFrondRenderer@@@@@std@@IAEXPAPAVCTreeFrondRenderer@@0@Z 170ea7c0 f i c_renderlist.obj
 0002:00033800       ?_Orphan_range@?$vector@PAVCTreeFrondRenderer@@V?$K2VectorAllocator@PAVCTreeFrondRenderer@@@@@std@@IBEXPAPAVCTreeFrondRenderer@@0@Z 170ea800 f i c_renderlist.obj
 0002:000338a0       ?_Destroy@?$vector@PAVCTreeLeafRenderer@@V?$K2VectorAllocator@PAVCTreeLeafRenderer@@@@@std@@IAEXPAPAVCTreeLeafRenderer@@0@Z 170ea8a0 f i c_renderlist.obj
 0002:000338e0       ?_Orphan_range@?$vector@PAVCTreeLeafRenderer@@V?$K2VectorAllocator@PAVCTreeLeafRenderer@@@@@std@@IBEXPAPAVCTreeLeafRenderer@@0@Z 170ea8e0 f i c_renderlist.obj
 0002:00033980       ?_Destroy@?$vector@PAVCTreeBillboardRenderer@@V?$K2VectorAllocator@PAVCTreeBillboardRenderer@@@@@std@@IAEXPAPAVCTreeBillboardRenderer@@0@Z 170ea980 f i c_renderlist.obj
 0002:000339c0       ?_Orphan_range@?$vector@PAVCTreeBillboardRenderer@@V?$K2VectorAllocator@PAVCTreeBillboardRenderer@@@@@std@@IBEXPAPAVCTreeBillboardRenderer@@0@Z 170ea9c0 f i c_renderlist.obj
 0002:00033a60       ?_Destroy@?$vector@PAVCTerrainRenderer@@V?$K2VectorAllocator@PAVCTerrainRenderer@@@@@std@@IAEXPAPAVCTerrainRenderer@@0@Z 170eaa60 f i c_renderlist.obj
 0002:00033aa0       ?_Orphan_range@?$vector@PAVCTerrainRenderer@@V?$K2VectorAllocator@PAVCTerrainRenderer@@@@@std@@IBEXPAPAVCTerrainRenderer@@0@Z 170eaaa0 f i c_renderlist.obj
 0002:00033b40       ?_Destroy@?$vector@PAVCSkyRenderer@@V?$K2VectorAllocator@PAVCSkyRenderer@@@@@std@@IAEXPAPAVCSkyRenderer@@0@Z 170eab40 f i c_renderlist.obj
 0002:00033b80       ?_Orphan_range@?$vector@PAVCSkyRenderer@@V?$K2VectorAllocator@PAVCSkyRenderer@@@@@std@@IBEXPAPAVCSkyRenderer@@0@Z 170eab80 f i c_renderlist.obj
 0002:00033c20       ??0?$_Vector_const_iterator@PAVCScenePolyRenderer@@V?$K2VectorAllocator@PAVCScenePolyRenderer@@@@@std@@QAE@PAPAVCScenePolyRenderer@@PBV_Container_base@1@@Z 170eac20 f i c_renderlist.obj
 0002:00033d20       ??M?$_Vector_const_iterator@PAVCScenePolyRenderer@@V?$K2VectorAllocator@PAVCScenePolyRenderer@@@@@std@@QBE_NABV01@@Z 170ead20 f i c_renderlist.obj
 0002:00033d60       ?_Compat@?$_Vector_const_iterator@PAVCScenePolyRenderer@@V?$K2VectorAllocator@PAVCScenePolyRenderer@@@@@std@@QBEXABV12@@Z 170ead60 f i c_renderlist.obj
 0002:00033e10       ??0?$_Vector_const_iterator@PAVCTreeBranchRenderer@@V?$K2VectorAllocator@PAVCTreeBranchRenderer@@@@@std@@QAE@PAPAVCTreeBranchRenderer@@PBV_Container_base@1@@Z 170eae10 f i c_renderlist.obj
 0002:00033f10       ??M?$_Vector_const_iterator@PAVCTreeBranchRenderer@@V?$K2VectorAllocator@PAVCTreeBranchRenderer@@@@@std@@QBE_NABV01@@Z 170eaf10 f i c_renderlist.obj
 0002:00033f50       ?_Compat@?$_Vector_const_iterator@PAVCTreeBranchRenderer@@V?$K2VectorAllocator@PAVCTreeBranchRenderer@@@@@std@@QBEXABV12@@Z 170eaf50 f i c_renderlist.obj
 0002:00034000       ??0?$_Vector_const_iterator@PAVCTreeFrondRenderer@@V?$K2VectorAllocator@PAVCTreeFrondRenderer@@@@@std@@QAE@PAPAVCTreeFrondRenderer@@PBV_Container_base@1@@Z 170eb000 f i c_renderlist.obj
 0002:00034100       ??M?$_Vector_const_iterator@PAVCTreeFrondRenderer@@V?$K2VectorAllocator@PAVCTreeFrondRenderer@@@@@std@@QBE_NABV01@@Z 170eb100 f i c_renderlist.obj
 0002:00034140       ?_Compat@?$_Vector_const_iterator@PAVCTreeFrondRenderer@@V?$K2VectorAllocator@PAVCTreeFrondRenderer@@@@@std@@QBEXABV12@@Z 170eb140 f i c_renderlist.obj
 0002:000341f0       ??0?$_Vector_const_iterator@PAVCTreeLeafRenderer@@V?$K2VectorAllocator@PAVCTreeLeafRenderer@@@@@std@@QAE@PAPAVCTreeLeafRenderer@@PBV_Container_base@1@@Z 170eb1f0 f i c_renderlist.obj
 0002:000342f0       ??M?$_Vector_const_iterator@PAVCTreeLeafRenderer@@V?$K2VectorAllocator@PAVCTreeLeafRenderer@@@@@std@@QBE_NABV01@@Z 170eb2f0 f i c_renderlist.obj
 0002:00034330       ?_Compat@?$_Vector_const_iterator@PAVCTreeLeafRenderer@@V?$K2VectorAllocator@PAVCTreeLeafRenderer@@@@@std@@QBEXABV12@@Z 170eb330 f i c_renderlist.obj
 0002:000343e0       ??0?$_Vector_const_iterator@PAVCTreeBillboardRenderer@@V?$K2VectorAllocator@PAVCTreeBillboardRenderer@@@@@std@@QAE@PAPAVCTreeBillboardRenderer@@PBV_Container_base@1@@Z 170eb3e0 f i c_renderlist.obj
 0002:000344e0       ??M?$_Vector_const_iterator@PAVCTreeBillboardRenderer@@V?$K2VectorAllocator@PAVCTreeBillboardRenderer@@@@@std@@QBE_NABV01@@Z 170eb4e0 f i c_renderlist.obj
 0002:00034520       ?_Compat@?$_Vector_const_iterator@PAVCTreeBillboardRenderer@@V?$K2VectorAllocator@PAVCTreeBillboardRenderer@@@@@std@@QBEXABV12@@Z 170eb520 f i c_renderlist.obj
 0002:000345d0       ??0?$_Vector_const_iterator@PAVCTerrainRenderer@@V?$K2VectorAllocator@PAVCTerrainRenderer@@@@@std@@QAE@PAPAVCTerrainRenderer@@PBV_Container_base@1@@Z 170eb5d0 f i c_renderlist.obj
 0002:000346d0       ??M?$_Vector_const_iterator@PAVCTerrainRenderer@@V?$K2VectorAllocator@PAVCTerrainRenderer@@@@@std@@QBE_NABV01@@Z 170eb6d0 f i c_renderlist.obj
 0002:00034710       ?_Compat@?$_Vector_const_iterator@PAVCTerrainRenderer@@V?$K2VectorAllocator@PAVCTerrainRenderer@@@@@std@@QBEXABV12@@Z 170eb710 f i c_renderlist.obj
 0002:000347c0       ??0?$_Vector_const_iterator@PAVCSkyRenderer@@V?$K2VectorAllocator@PAVCSkyRenderer@@@@@std@@QAE@PAPAVCSkyRenderer@@PBV_Container_base@1@@Z 170eb7c0 f i c_renderlist.obj
 0002:000348c0       ??M?$_Vector_const_iterator@PAVCSkyRenderer@@V?$K2VectorAllocator@PAVCSkyRenderer@@@@@std@@QBE_NABV01@@Z 170eb8c0 f i c_renderlist.obj
 0002:00034900       ?_Compat@?$_Vector_const_iterator@PAVCSkyRenderer@@V?$K2VectorAllocator@PAVCSkyRenderer@@@@@std@@QBEXABV12@@Z 170eb900 f i c_renderlist.obj
 0002:000349b0       ??0?$_Ranit@PAVCScenePolyRenderer@@HPBQAV1@ABQAV1@@std@@QAE@XZ 170eb9b0 f i c_renderlist.obj
 0002:000349e0       ??0?$_Ranit@PAVCTreeBranchRenderer@@HPBQAV1@ABQAV1@@std@@QAE@XZ 170eb9e0 f i c_renderlist.obj
 0002:00034a10       ??0?$_Ranit@PAVCTreeFrondRenderer@@HPBQAV1@ABQAV1@@std@@QAE@XZ 170eba10 f i c_renderlist.obj
 0002:00034a40       ??0?$_Ranit@PAVCTreeLeafRenderer@@HPBQAV1@ABQAV1@@std@@QAE@XZ 170eba40 f i c_renderlist.obj
 0002:00034a70       ??0?$_Ranit@PAVCTreeBillboardRenderer@@HPBQAV1@ABQAV1@@std@@QAE@XZ 170eba70 f i c_renderlist.obj
 0002:00034aa0       ??0?$_Ranit@PAVCTerrainRenderer@@HPBQAV1@ABQAV1@@std@@QAE@XZ 170ebaa0 f i c_renderlist.obj
 0002:00034ad0       ??0?$_Ranit@PAVCSkyRenderer@@HPBQAV1@ABQAV1@@std@@QAE@XZ 170ebad0 f i c_renderlist.obj
 0002:00034b00       ??$_Debug_range@V?$_Vector_iterator@PAVIRenderer@@V?$K2VectorAllocator@PAVIRenderer@@@@@std@@@std@@YAXV?$_Vector_iterator@PAVIRenderer@@V?$K2VectorAllocator@PAVIRenderer@@@@@0@0PB_WI@Z 170ebb00 f i c_renderlist.obj
 0002:00034bf0       ??$_Debug_pointer@$$A6A_NPAVIRenderer@@0@Z@std@@YAXP6A_NPAVIRenderer@@0@ZPB_WI@Z 170ebbf0 f i c_renderlist.obj
 0002:00034c30       ??$_Checked_base@V?$_Vector_iterator@PAVIRenderer@@V?$K2VectorAllocator@PAVIRenderer@@@@@std@@@std@@YA?AV?$_Vector_iterator@PAVIRenderer@@V?$K2VectorAllocator@PAVIRenderer@@@@@0@AAV10@@Z 170ebc30 f i c_renderlist.obj
 0002:00034c80       ??$_Sort@V?$_Vector_iterator@PAVIRenderer@@V?$K2VectorAllocator@PAVIRenderer@@@@@std@@HP6A_NPAVIRenderer@@0@Z@std@@YAXV?$_Vector_iterator@PAVIRenderer@@V?$K2VectorAllocator@PAVIRenderer@@@@@0@0HP6A_NPAVIRenderer@@1@Z@Z 170ebc80 f i c_renderlist.obj
 0002:00035030       ??$_Checked_base@PAPAVIRenderer@@@std@@YAPAPAVIRenderer@@AAPAPAV1@@Z 170ec030 f i c_renderlist.obj
 0002:00035060       ??$_Iter_random@PAPAVIRenderer@@PAPAV1@@std@@YA?AUrandom_access_iterator_tag@0@ABQAPAVIRenderer@@0@Z 170ec060 f i c_renderlist.obj
 0002:00035080       ??$_Ptr_cat@PAPAVIRenderer@@PAPAV1@@std@@YA?AU_Scalar_ptr_iterator_tag@0@AAPAPAVIRenderer@@0@Z 170ec080 f i c_renderlist.obj
 0002:000350a0       ??$_Copy_opt@PAPAVIRenderer@@PAPAV1@Urandom_access_iterator_tag@std@@@std@@YAPAPAVIRenderer@@PAPAV1@00Urandom_access_iterator_tag@0@U_Scalar_ptr_iterator_tag@0@U_Range_checked_iterator_tag@0@@Z 170ec0a0 f i c_renderlist.obj
 0002:00035150       ??$_Uninit_fill_n@PAPAVIRenderer@@IPAV1@V?$K2VectorAllocator@PAVIRenderer@@@@@std@@YAXPAPAVIRenderer@@IABQAV1@AAV?$K2VectorAllocator@PAVIRenderer@@@@U_Scalar_ptr_iterator_tag@0@U_Range_checked_iterator_tag@0@@Z 170ec150 f i c_renderlist.obj
 0002:00035180       ??$_Destroy_range@PAVIRenderer@@V?$K2VectorAllocator@PAVIRenderer@@@@@std@@YAXPAPAVIRenderer@@0AAV?$K2VectorAllocator@PAVIRenderer@@@@U_Scalar_ptr_iterator_tag@0@@Z 170ec180 f i c_renderlist.obj
 0002:000351a0       ??$_Unchecked_uninitialized_move@PAPAVIRenderer@@PAPAV1@V?$K2VectorAllocator@PAVIRenderer@@@@@stdext@@YAPAPAVIRenderer@@PAPAV1@00AAV?$K2VectorAllocator@PAVIRenderer@@@@@Z 170ec1a0 f i c_renderlist.obj
 0002:00035210       ??$_Fill@PAPAVIRenderer@@PAV1@@std@@YAXPAPAVIRenderer@@0ABQAV1@@Z 170ec210 f i c_renderlist.obj
 0002:00035270       ??$_Move_cat@PAPAVIRenderer@@@std@@YA?AU_Undefined_move_tag@0@ABQAPAVIRenderer@@@Z 170ec270 f i c_renderlist.obj
 0002:00035290       ??$_Move_backward_opt@PAPAVIRenderer@@PAPAV1@Urandom_access_iterator_tag@std@@U_Undefined_move_tag@3@@std@@YAPAPAVIRenderer@@PAPAV1@00Urandom_access_iterator_tag@0@U_Undefined_move_tag@0@U_Range_checked_iterator_tag@0@@Z 170ec290 f i c_renderlist.obj
 0002:000352f0       ??$unchecked_copy@PAPAVCScenePolyRenderer@@PAPAV1@@stdext@@YAPAPAVCScenePolyRenderer@@PAPAV1@00@Z 170ec2f0 f i c_renderlist.obj
 0002:00035380       ??$unchecked_copy@PAPAVCTreeBranchRenderer@@PAPAV1@@stdext@@YAPAPAVCTreeBranchRenderer@@PAPAV1@00@Z 170ec380 f i c_renderlist.obj
 0002:00035410       ??$unchecked_copy@PAPAVCTreeFrondRenderer@@PAPAV1@@stdext@@YAPAPAVCTreeFrondRenderer@@PAPAV1@00@Z 170ec410 f i c_renderlist.obj
 0002:000354a0       ??$unchecked_copy@PAPAVCTreeLeafRenderer@@PAPAV1@@stdext@@YAPAPAVCTreeLeafRenderer@@PAPAV1@00@Z 170ec4a0 f i c_renderlist.obj
 0002:00035530       ??$unchecked_copy@PAPAVCTreeBillboardRenderer@@PAPAV1@@stdext@@YAPAPAVCTreeBillboardRenderer@@PAPAV1@00@Z 170ec530 f i c_renderlist.obj
 0002:000355c0       ??$unchecked_copy@PAPAVCTerrainRenderer@@PAPAV1@@stdext@@YAPAPAVCTerrainRenderer@@PAPAV1@00@Z 170ec5c0 f i c_renderlist.obj
 0002:00035650       ??$unchecked_copy@PAPAVCSkyRenderer@@PAPAV1@@stdext@@YAPAPAVCSkyRenderer@@PAPAV1@00@Z 170ec650 f i c_renderlist.obj
 0002:000356e0       ??$_Destroy_range@PAVCScenePolyRenderer@@V?$K2VectorAllocator@PAVCScenePolyRenderer@@@@@std@@YAXPAPAVCScenePolyRenderer@@0AAV?$K2VectorAllocator@PAVCScenePolyRenderer@@@@@Z 170ec6e0 f i c_renderlist.obj
 0002:00035730       ??$_Destroy_range@PAVCTreeBranchRenderer@@V?$K2VectorAllocator@PAVCTreeBranchRenderer@@@@@std@@YAXPAPAVCTreeBranchRenderer@@0AAV?$K2VectorAllocator@PAVCTreeBranchRenderer@@@@@Z 170ec730 f i c_renderlist.obj
 0002:00035780       ??$_Destroy_range@PAVCTreeFrondRenderer@@V?$K2VectorAllocator@PAVCTreeFrondRenderer@@@@@std@@YAXPAPAVCTreeFrondRenderer@@0AAV?$K2VectorAllocator@PAVCTreeFrondRenderer@@@@@Z 170ec780 f i c_renderlist.obj
 0002:000357d0       ??$_Destroy_range@PAVCTreeLeafRenderer@@V?$K2VectorAllocator@PAVCTreeLeafRenderer@@@@@std@@YAXPAPAVCTreeLeafRenderer@@0AAV?$K2VectorAllocator@PAVCTreeLeafRenderer@@@@@Z 170ec7d0 f i c_renderlist.obj
 0002:00035820       ??$_Destroy_range@PAVCTreeBillboardRenderer@@V?$K2VectorAllocator@PAVCTreeBillboardRenderer@@@@@std@@YAXPAPAVCTreeBillboardRenderer@@0AAV?$K2VectorAllocator@PAVCTreeBillboardRenderer@@@@@Z 170ec820 f i c_renderlist.obj
 0002:00035870       ??$_Destroy_range@PAVCTerrainRenderer@@V?$K2VectorAllocator@PAVCTerrainRenderer@@@@@std@@YAXPAPAVCTerrainRenderer@@0AAV?$K2VectorAllocator@PAVCTerrainRenderer@@@@@Z 170ec870 f i c_renderlist.obj
 0002:000358c0       ??$_Destroy_range@PAVCSkyRenderer@@V?$K2VectorAllocator@PAVCSkyRenderer@@@@@std@@YAXPAPAVCSkyRenderer@@0AAV?$K2VectorAllocator@PAVCSkyRenderer@@@@@Z 170ec8c0 f i c_renderlist.obj
 0002:00035910       ??1?$pair@V?$_Vector_iterator@PAVIRenderer@@V?$K2VectorAllocator@PAVIRenderer@@@@@std@@V12@@std@@QAE@XZ 170ec910 f i c_renderlist.obj
 0002:00035990       ??4?$_Vector_iterator@PAVIRenderer@@V?$K2VectorAllocator@PAVIRenderer@@@@@std@@QAEAAV01@ABV01@@Z 170ec990 f i c_renderlist.obj
 0002:000359c0       ??4?$_Vector_const_iterator@PAVIRenderer@@V?$K2VectorAllocator@PAVIRenderer@@@@@std@@QAEAAV01@ABV01@@Z 170ec9c0 f i c_renderlist.obj
 0002:00035a00       ??4?$_Ranit@PAVIRenderer@@HPBQAV1@ABQAV1@@std@@QAEAAU01@ABU01@@Z 170eca00 f i c_renderlist.obj
 0002:00035a30       ?GetFlags@CCamera@@QBEHXZ  170eca30 f i c_renderlist.obj
 0002:00035a50       ??$_Iter_cat@V?$_Vector_iterator@PAVIRenderer@@V?$K2VectorAllocator@PAVIRenderer@@@@@std@@@std@@YA?AUrandom_access_iterator_tag@0@ABV?$_Vector_iterator@PAVIRenderer@@V?$K2VectorAllocator@PAVIRenderer@@@@@0@@Z 170eca50 f i c_renderlist.obj
 0002:00035a70       ??$_Debug_range2@V?$_Vector_iterator@PAVIRenderer@@V?$K2VectorAllocator@PAVIRenderer@@@@@std@@@std@@YAXV?$_Vector_iterator@PAVIRenderer@@V?$K2VectorAllocator@PAVIRenderer@@@@@0@0PB_WIUrandom_access_iterator_tag@0@@Z 170eca70 f i c_renderlist.obj
 0002:00035b60       ??$_Checked_base@V?$_Vector_iterator@PAVIRenderer@@V?$K2VectorAllocator@PAVIRenderer@@@@@std@@@std@@YA?AV?$_Vector_iterator@PAVIRenderer@@V?$K2VectorAllocator@PAVIRenderer@@@@@0@AAV10@U_Unchanged_checked_iterator_base_type_tag@0@@Z 170ecb60 f i c_renderlist.obj
 0002:00035ba0       ??$_Unguarded_partition@V?$_Vector_iterator@PAVIRenderer@@V?$K2VectorAllocator@PAVIRenderer@@@@@std@@P6A_NPAVIRenderer@@0@Z@std@@YA?AU?$pair@V?$_Vector_iterator@PAVIRenderer@@V?$K2VectorAllocator@PAVIRenderer@@@@@std@@V12@@0@V?$_Vector_iterator@PAVIRenderer@@V?$K2VectorAllocator@PAVIRenderer@@@@@0@0P6A_NPAVIRenderer@@1@Z@Z 170ecba0 f i c_renderlist.obj
 0002:000365f0       ??$make_heap@V?$_Vector_iterator@PAVIRenderer@@V?$K2VectorAllocator@PAVIRenderer@@@@@std@@P6A_NPAVIRenderer@@0@Z@std@@YAXV?$_Vector_iterator@PAVIRenderer@@V?$K2VectorAllocator@PAVIRenderer@@@@@0@0P6A_NPAVIRenderer@@1@Z@Z 170ed5f0 f i c_renderlist.obj
 0002:00036740       ??$sort_heap@V?$_Vector_iterator@PAVIRenderer@@V?$K2VectorAllocator@PAVIRenderer@@@@@std@@P6A_NPAVIRenderer@@0@Z@std@@YAXV?$_Vector_iterator@PAVIRenderer@@V?$K2VectorAllocator@PAVIRenderer@@@@@0@0P6A_NPAVIRenderer@@1@Z@Z 170ed740 f i c_renderlist.obj
 0002:00036870       ??$_Insertion_sort@V?$_Vector_iterator@PAVIRenderer@@V?$K2VectorAllocator@PAVIRenderer@@@@@std@@P6A_NPAVIRenderer@@0@Z@std@@YAXV?$_Vector_iterator@PAVIRenderer@@V?$K2VectorAllocator@PAVIRenderer@@@@@0@0P6A_NPAVIRenderer@@1@Z@Z 170ed870 f i c_renderlist.obj
 0002:00036be0       ??$_Checked_base@PAPAVIRenderer@@@std@@YAPAPAVIRenderer@@AAPAPAV1@U_Unchanged_checked_iterator_base_type_tag@0@@Z 170edbe0 f i c_renderlist.obj
 0002:00036c00       ??$_Debug_range@PAPAVIRenderer@@@std@@YAXPAPAVIRenderer@@0PB_WI@Z 170edc00 f i c_renderlist.obj
 0002:00036c50       ??$_Debug_pointer@PAVIRenderer@@@std@@YAXPAPAVIRenderer@@PB_WI@Z 170edc50 f i c_renderlist.obj
 0002:00036c90       ??$unchecked_fill_n@PAPAVIRenderer@@IPAV1@@stdext@@YAXPAPAVIRenderer@@IABQAV1@@Z 170edc90 f i c_renderlist.obj
 0002:00036ce0       ??$_Uninit_move@PAPAVIRenderer@@PAPAV1@V?$K2VectorAllocator@PAVIRenderer@@@@U_Undefined_move_tag@std@@@std@@YAPAPAVIRenderer@@PAPAV1@00AAV?$K2VectorAllocator@PAVIRenderer@@@@U_Undefined_move_tag@0@U_Range_checked_iterator_tag@0@@Z 170edce0 f i c_renderlist.obj
 0002:00036d20       ??$_Copy_backward_opt@PAPAVIRenderer@@PAPAV1@Urandom_access_iterator_tag@std@@@std@@YAPAPAVIRenderer@@PAPAV1@00Urandom_access_iterator_tag@0@U_Scalar_ptr_iterator_tag@0@U_Range_checked_iterator_tag@0@@Z 170edd20 f i c_renderlist.obj
 0002:00036dd0       ??$_Checked_base@PAPAVCScenePolyRenderer@@@std@@YAPAPAVCScenePolyRenderer@@AAPAPAV1@@Z 170eddd0 f i c_renderlist.obj
 0002:00036e00       ??$_Iter_random@PAPAVCScenePolyRenderer@@PAPAV1@@std@@YA?AUrandom_access_iterator_tag@0@ABQAPAVCScenePolyRenderer@@0@Z 170ede00 f i c_renderlist.obj
 0002:00036e20       ??$_Ptr_cat@PAPAVCScenePolyRenderer@@PAPAV1@@std@@YA?AU_Scalar_ptr_iterator_tag@0@AAPAPAVCScenePolyRenderer@@0@Z 170ede20 f i c_renderlist.obj
 0002:00036e40       ??$_Copy_opt@PAPAVCScenePolyRenderer@@PAPAV1@Urandom_access_iterator_tag@std@@@std@@YAPAPAVCScenePolyRenderer@@PAPAV1@00Urandom_access_iterator_tag@0@U_Scalar_ptr_iterator_tag@0@U_Range_checked_iterator_tag@0@@Z 170ede40 f i c_renderlist.obj
 0002:00036ef0       ??$_Checked_base@PAPAVCTreeBranchRenderer@@@std@@YAPAPAVCTreeBranchRenderer@@AAPAPAV1@@Z 170edef0 f i c_renderlist.obj
 0002:00036f20       ??$_Iter_random@PAPAVCTreeBranchRenderer@@PAPAV1@@std@@YA?AUrandom_access_iterator_tag@0@ABQAPAVCTreeBranchRenderer@@0@Z 170edf20 f i c_renderlist.obj
 0002:00036f40       ??$_Ptr_cat@PAPAVCTreeBranchRenderer@@PAPAV1@@std@@YA?AU_Scalar_ptr_iterator_tag@0@AAPAPAVCTreeBranchRenderer@@0@Z 170edf40 f i c_renderlist.obj
 0002:00036f60       ??$_Copy_opt@PAPAVCTreeBranchRenderer@@PAPAV1@Urandom_access_iterator_tag@std@@@std@@YAPAPAVCTreeBranchRenderer@@PAPAV1@00Urandom_access_iterator_tag@0@U_Scalar_ptr_iterator_tag@0@U_Range_checked_iterator_tag@0@@Z 170edf60 f i c_renderlist.obj
 0002:00037010       ??$_Checked_base@PAPAVCTreeFrondRenderer@@@std@@YAPAPAVCTreeFrondRenderer@@AAPAPAV1@@Z 170ee010 f i c_renderlist.obj
 0002:00037040       ??$_Iter_random@PAPAVCTreeFrondRenderer@@PAPAV1@@std@@YA?AUrandom_access_iterator_tag@0@ABQAPAVCTreeFrondRenderer@@0@Z 170ee040 f i c_renderlist.obj
 0002:00037060       ??$_Ptr_cat@PAPAVCTreeFrondRenderer@@PAPAV1@@std@@YA?AU_Scalar_ptr_iterator_tag@0@AAPAPAVCTreeFrondRenderer@@0@Z 170ee060 f i c_renderlist.obj
 0002:00037080       ??$_Copy_opt@PAPAVCTreeFrondRenderer@@PAPAV1@Urandom_access_iterator_tag@std@@@std@@YAPAPAVCTreeFrondRenderer@@PAPAV1@00Urandom_access_iterator_tag@0@U_Scalar_ptr_iterator_tag@0@U_Range_checked_iterator_tag@0@@Z 170ee080 f i c_renderlist.obj
 0002:00037130       ??$_Checked_base@PAPAVCTreeLeafRenderer@@@std@@YAPAPAVCTreeLeafRenderer@@AAPAPAV1@@Z 170ee130 f i c_renderlist.obj
 0002:00037160       ??$_Iter_random@PAPAVCTreeLeafRenderer@@PAPAV1@@std@@YA?AUrandom_access_iterator_tag@0@ABQAPAVCTreeLeafRenderer@@0@Z 170ee160 f i c_renderlist.obj
 0002:00037180       ??$_Ptr_cat@PAPAVCTreeLeafRenderer@@PAPAV1@@std@@YA?AU_Scalar_ptr_iterator_tag@0@AAPAPAVCTreeLeafRenderer@@0@Z 170ee180 f i c_renderlist.obj
 0002:000371a0       ??$_Copy_opt@PAPAVCTreeLeafRenderer@@PAPAV1@Urandom_access_iterator_tag@std@@@std@@YAPAPAVCTreeLeafRenderer@@PAPAV1@00Urandom_access_iterator_tag@0@U_Scalar_ptr_iterator_tag@0@U_Range_checked_iterator_tag@0@@Z 170ee1a0 f i c_renderlist.obj
 0002:00037250       ??$_Checked_base@PAPAVCTreeBillboardRenderer@@@std@@YAPAPAVCTreeBillboardRenderer@@AAPAPAV1@@Z 170ee250 f i c_renderlist.obj
 0002:00037280       ??$_Iter_random@PAPAVCTreeBillboardRenderer@@PAPAV1@@std@@YA?AUrandom_access_iterator_tag@0@ABQAPAVCTreeBillboardRenderer@@0@Z 170ee280 f i c_renderlist.obj
 0002:000372a0       ??$_Ptr_cat@PAPAVCTreeBillboardRenderer@@PAPAV1@@std@@YA?AU_Scalar_ptr_iterator_tag@0@AAPAPAVCTreeBillboardRenderer@@0@Z 170ee2a0 f i c_renderlist.obj
 0002:000372c0       ??$_Copy_opt@PAPAVCTreeBillboardRenderer@@PAPAV1@Urandom_access_iterator_tag@std@@@std@@YAPAPAVCTreeBillboardRenderer@@PAPAV1@00Urandom_access_iterator_tag@0@U_Scalar_ptr_iterator_tag@0@U_Range_checked_iterator_tag@0@@Z 170ee2c0 f i c_renderlist.obj
 0002:00037370       ??$_Checked_base@PAPAVCTerrainRenderer@@@std@@YAPAPAVCTerrainRenderer@@AAPAPAV1@@Z 170ee370 f i c_renderlist.obj
 0002:000373a0       ??$_Iter_random@PAPAVCTerrainRenderer@@PAPAV1@@std@@YA?AUrandom_access_iterator_tag@0@ABQAPAVCTerrainRenderer@@0@Z 170ee3a0 f i c_renderlist.obj
 0002:000373c0       ??$_Ptr_cat@PAPAVCTerrainRenderer@@PAPAV1@@std@@YA?AU_Scalar_ptr_iterator_tag@0@AAPAPAVCTerrainRenderer@@0@Z 170ee3c0 f i c_renderlist.obj
 0002:000373e0       ??$_Copy_opt@PAPAVCTerrainRenderer@@PAPAV1@Urandom_access_iterator_tag@std@@@std@@YAPAPAVCTerrainRenderer@@PAPAV1@00Urandom_access_iterator_tag@0@U_Scalar_ptr_iterator_tag@0@U_Range_checked_iterator_tag@0@@Z 170ee3e0 f i c_renderlist.obj
 0002:00037490       ??$_Checked_base@PAPAVCSkyRenderer@@@std@@YAPAPAVCSkyRenderer@@AAPAPAV1@@Z 170ee490 f i c_renderlist.obj
 0002:000374c0       ??$_Iter_random@PAPAVCSkyRenderer@@PAPAV1@@std@@YA?AUrandom_access_iterator_tag@0@ABQAPAVCSkyRenderer@@0@Z 170ee4c0 f i c_renderlist.obj
 0002:000374e0       ??$_Ptr_cat@PAPAVCSkyRenderer@@PAPAV1@@std@@YA?AU_Scalar_ptr_iterator_tag@0@AAPAPAVCSkyRenderer@@0@Z 170ee4e0 f i c_renderlist.obj
 0002:00037500       ??$_Copy_opt@PAPAVCSkyRenderer@@PAPAV1@Urandom_access_iterator_tag@std@@@std@@YAPAPAVCSkyRenderer@@PAPAV1@00Urandom_access_iterator_tag@0@U_Scalar_ptr_iterator_tag@0@U_Range_checked_iterator_tag@0@@Z 170ee500 f i c_renderlist.obj
 0002:000375b0       ??$_Destroy_range@PAVCScenePolyRenderer@@V?$K2VectorAllocator@PAVCScenePolyRenderer@@@@@std@@YAXPAPAVCScenePolyRenderer@@0AAV?$K2VectorAllocator@PAVCScenePolyRenderer@@@@U_Scalar_ptr_iterator_tag@0@@Z 170ee5b0 f i c_renderlist.obj
 0002:000375d0       ??$_Destroy_range@PAVCTreeBranchRenderer@@V?$K2VectorAllocator@PAVCTreeBranchRenderer@@@@@std@@YAXPAPAVCTreeBranchRenderer@@0AAV?$K2VectorAllocator@PAVCTreeBranchRenderer@@@@U_Scalar_ptr_iterator_tag@0@@Z 170ee5d0 f i c_renderlist.obj
 0002:000375f0       ??$_Destroy_range@PAVCTreeFrondRenderer@@V?$K2VectorAllocator@PAVCTreeFrondRenderer@@@@@std@@YAXPAPAVCTreeFrondRenderer@@0AAV?$K2VectorAllocator@PAVCTreeFrondRenderer@@@@U_Scalar_ptr_iterator_tag@0@@Z 170ee5f0 f i c_renderlist.obj
 0002:00037610       ??$_Destroy_range@PAVCTreeLeafRenderer@@V?$K2VectorAllocator@PAVCTreeLeafRenderer@@@@@std@@YAXPAPAVCTreeLeafRenderer@@0AAV?$K2VectorAllocator@PAVCTreeLeafRenderer@@@@U_Scalar_ptr_iterator_tag@0@@Z 170ee610 f i c_renderlist.obj
 0002:00037630       ??$_Destroy_range@PAVCTreeBillboardRenderer@@V?$K2VectorAllocator@PAVCTreeBillboardRenderer@@@@@std@@YAXPAPAVCTreeBillboardRenderer@@0AAV?$K2VectorAllocator@PAVCTreeBillboardRenderer@@@@U_Scalar_ptr_iterator_tag@0@@Z 170ee630 f i c_renderlist.obj
 0002:00037650       ??$_Destroy_range@PAVCTerrainRenderer@@V?$K2VectorAllocator@PAVCTerrainRenderer@@@@@std@@YAXPAPAVCTerrainRenderer@@0AAV?$K2VectorAllocator@PAVCTerrainRenderer@@@@U_Scalar_ptr_iterator_tag@0@@Z 170ee650 f i c_renderlist.obj
 0002:00037670       ??$_Destroy_range@PAVCSkyRenderer@@V?$K2VectorAllocator@PAVCSkyRenderer@@@@@std@@YAXPAPAVCSkyRenderer@@0AAV?$K2VectorAllocator@PAVCSkyRenderer@@@@U_Scalar_ptr_iterator_tag@0@@Z 170ee670 f i c_renderlist.obj
 0002:00037690       ??E?$_Vector_iterator@PAVIRenderer@@V?$K2VectorAllocator@PAVIRenderer@@@@@std@@QAE?AV01@H@Z 170ee690 f i c_renderlist.obj
 0002:00037740       ??F?$_Vector_iterator@PAVIRenderer@@V?$K2VectorAllocator@PAVIRenderer@@@@@std@@QAEAAV01@XZ 170ee740 f i c_renderlist.obj
 0002:00037770       ??G?$_Vector_iterator@PAVIRenderer@@V?$K2VectorAllocator@PAVIRenderer@@@@@std@@QBE?AV01@H@Z 170ee770 f i c_renderlist.obj
 0002:00037820       ??0?$pair@V?$_Vector_iterator@PAVIRenderer@@V?$K2VectorAllocator@PAVIRenderer@@@@@std@@V12@@std@@QAE@ABV?$_Vector_iterator@PAVIRenderer@@V?$K2VectorAllocator@PAVIRenderer@@@@@1@0@Z 170ee820 f i c_renderlist.obj
 0002:000378b0       ??Z?$_Vector_iterator@PAVIRenderer@@V?$K2VectorAllocator@PAVIRenderer@@@@@std@@QAEAAV01@H@Z 170ee8b0 f i c_renderlist.obj
 0002:000378e0       ??F?$_Vector_const_iterator@PAVIRenderer@@V?$K2VectorAllocator@PAVIRenderer@@@@@std@@QAEAAV01@XZ 170ee8e0 f i c_renderlist.obj
 0002:000379e0       ??$_Debug_pointer@V?$_Vector_iterator@PAVIRenderer@@V?$K2VectorAllocator@PAVIRenderer@@@@@std@@@std@@YAXAAV?$_Vector_iterator@PAVIRenderer@@V?$K2VectorAllocator@PAVIRenderer@@@@@0@PB_WI@Z 170ee9e0 f i c_renderlist.obj
 0002:00037a00       ??$_Median@V?$_Vector_iterator@PAVIRenderer@@V?$K2VectorAllocator@PAVIRenderer@@@@@std@@P6A_NPAVIRenderer@@0@Z@std@@YAXV?$_Vector_iterator@PAVIRenderer@@V?$K2VectorAllocator@PAVIRenderer@@@@@0@00P6A_NPAVIRenderer@@1@Z@Z 170eea00 f i c_renderlist.obj
 0002:00037de0       ??$_Debug_lt_pred@P6A_NPAVIRenderer@@0@ZPAV1@PAV1@@std@@YA_NP6A_NPAVIRenderer@@0@ZAAPAV1@2PB_WI@Z 170eede0 f i c_renderlist.obj
 0002:00037e60       ??$iter_swap@V?$_Vector_iterator@PAVIRenderer@@V?$K2VectorAllocator@PAVIRenderer@@@@@std@@V12@@std@@YAXV?$_Vector_iterator@PAVIRenderer@@V?$K2VectorAllocator@PAVIRenderer@@@@@0@0@Z 170eee60 f i c_renderlist.obj
 0002:00037f00       ??$_Dist_type@V?$_Vector_iterator@PAVIRenderer@@V?$K2VectorAllocator@PAVIRenderer@@@@@std@@@std@@YAPAHV?$_Vector_iterator@PAVIRenderer@@V?$K2VectorAllocator@PAVIRenderer@@@@@0@@Z 170eef00 f i c_renderlist.obj
 0002:00037f30       ??$_Val_type@V?$_Vector_iterator@PAVIRenderer@@V?$K2VectorAllocator@PAVIRenderer@@@@@std@@@std@@YAPAPAVIRenderer@@V?$_Vector_iterator@PAVIRenderer@@V?$K2VectorAllocator@PAVIRenderer@@@@@0@@Z 170eef30 f i c_renderlist.obj
 0002:00037f60       ??$_Make_heap@V?$_Vector_iterator@PAVIRenderer@@V?$K2VectorAllocator@PAVIRenderer@@@@@std@@HPAVIRenderer@@P6A_NPAV3@0@Z@std@@YAXV?$_Vector_iterator@PAVIRenderer@@V?$K2VectorAllocator@PAVIRenderer@@@@@0@0P6A_NPAVIRenderer@@1@ZPAHPAPAV2@@Z 170eef60 f i c_renderlist.obj
 0002:00038080       ??$_Debug_heap@V?$_Vector_iterator@PAVIRenderer@@V?$K2VectorAllocator@PAVIRenderer@@@@@std@@P6A_NPAVIRenderer@@0@Z@std@@YAXV?$_Vector_iterator@PAVIRenderer@@V?$K2VectorAllocator@PAVIRenderer@@@@@0@0P6A_NPAVIRenderer@@1@Z@Z 170ef080 f i c_renderlist.obj
 0002:000382c0       ??$_Sort_heap@V?$_Vector_iterator@PAVIRenderer@@V?$K2VectorAllocator@PAVIRenderer@@@@@std@@P6A_NPAVIRenderer@@0@Z@std@@YAXV?$_Vector_iterator@PAVIRenderer@@V?$K2VectorAllocator@PAVIRenderer@@@@@0@0P6A_NPAVIRenderer@@1@Z@Z 170ef2c0 f i c_renderlist.obj
 0002:000383b0       ??$rotate@V?$_Vector_iterator@PAVIRenderer@@V?$K2VectorAllocator@PAVIRenderer@@@@@std@@@std@@YAXV?$_Vector_iterator@PAVIRenderer@@V?$K2VectorAllocator@PAVIRenderer@@@@@0@00@Z 170ef3b0 f i c_renderlist.obj
 0002:00038500       ??$_Iter_cat@PAPAVIRenderer@@@std@@YA?AUrandom_access_iterator_tag@0@ABQAPAVIRenderer@@@Z 170ef500 f i c_renderlist.obj
 0002:00038520       ??$_Debug_range2@PAPAVIRenderer@@@std@@YAXPAPAVIRenderer@@0PB_WIUrandom_access_iterator_tag@0@@Z 170ef520 f i c_renderlist.obj
 0002:000385a0       ??$_Fill_n@PAPAVIRenderer@@IPAV1@@std@@YAXPAPAVIRenderer@@IABQAV1@Urandom_access_iterator_tag@0@U_Range_checked_iterator_tag@0@@Z 170ef5a0 f i c_renderlist.obj
 0002:00038600       ??$unchecked_uninitialized_copy@PAPAVIRenderer@@PAPAV1@V?$K2VectorAllocator@PAVIRenderer@@@@@stdext@@YAPAPAVIRenderer@@PAPAV1@00AAV?$K2VectorAllocator@PAVIRenderer@@@@@Z 170ef600 f i c_renderlist.obj
 0002:00038670       ??$_Checked_base@PAPAVCScenePolyRenderer@@@std@@YAPAPAVCScenePolyRenderer@@AAPAPAV1@U_Unchanged_checked_iterator_base_type_tag@0@@Z 170ef670 f i c_renderlist.obj
 0002:00038690       ??$_Debug_range@PAPAVCScenePolyRenderer@@@std@@YAXPAPAVCScenePolyRenderer@@0PB_WI@Z 170ef690 f i c_renderlist.obj
 0002:000386e0       ??$_Debug_pointer@PAVCScenePolyRenderer@@@std@@YAXPAPAVCScenePolyRenderer@@PB_WI@Z 170ef6e0 f i c_renderlist.obj
 0002:00038720       ??$_Checked_base@PAPAVCTreeBranchRenderer@@@std@@YAPAPAVCTreeBranchRenderer@@AAPAPAV1@U_Unchanged_checked_iterator_base_type_tag@0@@Z 170ef720 f i c_renderlist.obj
 0002:00038740       ??$_Debug_range@PAPAVCTreeBranchRenderer@@@std@@YAXPAPAVCTreeBranchRenderer@@0PB_WI@Z 170ef740 f i c_renderlist.obj
 0002:00038790       ??$_Debug_pointer@PAVCTreeBranchRenderer@@@std@@YAXPAPAVCTreeBranchRenderer@@PB_WI@Z 170ef790 f i c_renderlist.obj
 0002:000387d0       ??$_Checked_base@PAPAVCTreeFrondRenderer@@@std@@YAPAPAVCTreeFrondRenderer@@AAPAPAV1@U_Unchanged_checked_iterator_base_type_tag@0@@Z 170ef7d0 f i c_renderlist.obj
 0002:000387f0       ??$_Debug_range@PAPAVCTreeFrondRenderer@@@std@@YAXPAPAVCTreeFrondRenderer@@0PB_WI@Z 170ef7f0 f i c_renderlist.obj
 0002:00038840       ??$_Debug_pointer@PAVCTreeFrondRenderer@@@std@@YAXPAPAVCTreeFrondRenderer@@PB_WI@Z 170ef840 f i c_renderlist.obj
 0002:00038880       ??$_Checked_base@PAPAVCTreeLeafRenderer@@@std@@YAPAPAVCTreeLeafRenderer@@AAPAPAV1@U_Unchanged_checked_iterator_base_type_tag@0@@Z 170ef880 f i c_renderlist.obj
 0002:000388a0       ??$_Debug_range@PAPAVCTreeLeafRenderer@@@std@@YAXPAPAVCTreeLeafRenderer@@0PB_WI@Z 170ef8a0 f i c_renderlist.obj
 0002:000388f0       ??$_Debug_pointer@PAVCTreeLeafRenderer@@@std@@YAXPAPAVCTreeLeafRenderer@@PB_WI@Z 170ef8f0 f i c_renderlist.obj
 0002:00038930       ??$_Checked_base@PAPAVCTreeBillboardRenderer@@@std@@YAPAPAVCTreeBillboardRenderer@@AAPAPAV1@U_Unchanged_checked_iterator_base_type_tag@0@@Z 170ef930 f i c_renderlist.obj
 0002:00038950       ??$_Debug_range@PAPAVCTreeBillboardRenderer@@@std@@YAXPAPAVCTreeBillboardRenderer@@0PB_WI@Z 170ef950 f i c_renderlist.obj
 0002:000389a0       ??$_Debug_pointer@PAVCTreeBillboardRenderer@@@std@@YAXPAPAVCTreeBillboardRenderer@@PB_WI@Z 170ef9a0 f i c_renderlist.obj
 0002:000389e0       ??$_Checked_base@PAPAVCTerrainRenderer@@@std@@YAPAPAVCTerrainRenderer@@AAPAPAV1@U_Unchanged_checked_iterator_base_type_tag@0@@Z 170ef9e0 f i c_renderlist.obj
 0002:00038a00       ??$_Debug_range@PAPAVCTerrainRenderer@@@std@@YAXPAPAVCTerrainRenderer@@0PB_WI@Z 170efa00 f i c_renderlist.obj
 0002:00038a50       ??$_Debug_pointer@PAVCTerrainRenderer@@@std@@YAXPAPAVCTerrainRenderer@@PB_WI@Z 170efa50 f i c_renderlist.obj
 0002:00038a90       ??$_Checked_base@PAPAVCSkyRenderer@@@std@@YAPAPAVCSkyRenderer@@AAPAPAV1@U_Unchanged_checked_iterator_base_type_tag@0@@Z 170efa90 f i c_renderlist.obj
 0002:00038ab0       ??$_Debug_range@PAPAVCSkyRenderer@@@std@@YAXPAPAVCSkyRenderer@@0PB_WI@Z 170efab0 f i c_renderlist.obj
 0002:00038b00       ??$_Debug_pointer@PAVCSkyRenderer@@@std@@YAXPAPAVCSkyRenderer@@PB_WI@Z 170efb00 f i c_renderlist.obj
 0002:00038b40       ??$_Med3@V?$_Vector_iterator@PAVIRenderer@@V?$K2VectorAllocator@PAVIRenderer@@@@@std@@P6A_NPAVIRenderer@@0@Z@std@@YAXV?$_Vector_iterator@PAVIRenderer@@V?$K2VectorAllocator@PAVIRenderer@@@@@0@00P6A_NPAVIRenderer@@1@Z@Z 170efb40 f i c_renderlist.obj
 0002:00038d60       ??$swap@PAVIRenderer@@@std@@YAXAAPAVIRenderer@@0@Z 170efd60 f i c_renderlist.obj
 0002:00038da0       ??$_Adjust_heap@V?$_Vector_iterator@PAVIRenderer@@V?$K2VectorAllocator@PAVIRenderer@@@@@std@@HPAVIRenderer@@P6A_NPAV3@0@Z@std@@YAXV?$_Vector_iterator@PAVIRenderer@@V?$K2VectorAllocator@PAVIRenderer@@@@@0@HHPAVIRenderer@@P6A_N11@Z@Z 170efda0 f i c_renderlist.obj
 0002:000390e0       ??$pop_heap@V?$_Vector_iterator@PAVIRenderer@@V?$K2VectorAllocator@PAVIRenderer@@@@@std@@P6A_NPAVIRenderer@@0@Z@std@@YAXV?$_Vector_iterator@PAVIRenderer@@V?$K2VectorAllocator@PAVIRenderer@@@@@0@0P6A_NPAVIRenderer@@1@Z@Z 170f00e0 f i c_renderlist.obj
 0002:00039250       ??$_Rotate@V?$_Vector_iterator@PAVIRenderer@@V?$K2VectorAllocator@PAVIRenderer@@@@@std@@@std@@YAXV?$_Vector_iterator@PAVIRenderer@@V?$K2VectorAllocator@PAVIRenderer@@@@@0@00Urandom_access_iterator_tag@0@@Z 170f0250 f i c_renderlist.obj
 0002:000393a0       ??$_Fill_n@PAPAVIRenderer@@IPAV1@@std@@YAXPAPAVIRenderer@@IABQAV1@U_Range_checked_iterator_tag@0@@Z 170f03a0 f i c_renderlist.obj
 0002:000393f0       ??$_Uninit_copy@PAPAVIRenderer@@PAPAV1@V?$K2VectorAllocator@PAVIRenderer@@@@@std@@YAPAPAVIRenderer@@PAPAV1@00AAV?$K2VectorAllocator@PAVIRenderer@@@@U_Scalar_ptr_iterator_tag@0@U_Range_checked_iterator_tag@0@@Z 170f03f0 f i c_renderlist.obj
 0002:00039490       ??$_Iter_cat@PAPAVCScenePolyRenderer@@@std@@YA?AUrandom_access_iterator_tag@0@ABQAPAVCScenePolyRenderer@@@Z 170f0490 f i c_renderlist.obj
 0002:000394b0       ??$_Debug_range2@PAPAVCScenePolyRenderer@@@std@@YAXPAPAVCScenePolyRenderer@@0PB_WIUrandom_access_iterator_tag@0@@Z 170f04b0 f i c_renderlist.obj
 0002:00039530       ??$_Iter_cat@PAPAVCTreeBranchRenderer@@@std@@YA?AUrandom_access_iterator_tag@0@ABQAPAVCTreeBranchRenderer@@@Z 170f0530 f i c_renderlist.obj
 0002:00039550       ??$_Debug_range2@PAPAVCTreeBranchRenderer@@@std@@YAXPAPAVCTreeBranchRenderer@@0PB_WIUrandom_access_iterator_tag@0@@Z 170f0550 f i c_renderlist.obj
 0002:000395d0       ??$_Iter_cat@PAPAVCTreeFrondRenderer@@@std@@YA?AUrandom_access_iterator_tag@0@ABQAPAVCTreeFrondRenderer@@@Z 170f05d0 f i c_renderlist.obj
 0002:000395f0       ??$_Debug_range2@PAPAVCTreeFrondRenderer@@@std@@YAXPAPAVCTreeFrondRenderer@@0PB_WIUrandom_access_iterator_tag@0@@Z 170f05f0 f i c_renderlist.obj
 0002:00039670       ??$_Iter_cat@PAPAVCTreeLeafRenderer@@@std@@YA?AUrandom_access_iterator_tag@0@ABQAPAVCTreeLeafRenderer@@@Z 170f0670 f i c_renderlist.obj
 0002:00039690       ??$_Debug_range2@PAPAVCTreeLeafRenderer@@@std@@YAXPAPAVCTreeLeafRenderer@@0PB_WIUrandom_access_iterator_tag@0@@Z 170f0690 f i c_renderlist.obj
 0002:00039710       ??$_Iter_cat@PAPAVCTreeBillboardRenderer@@@std@@YA?AUrandom_access_iterator_tag@0@ABQAPAVCTreeBillboardRenderer@@@Z 170f0710 f i c_renderlist.obj
 0002:00039730       ??$_Debug_range2@PAPAVCTreeBillboardRenderer@@@std@@YAXPAPAVCTreeBillboardRenderer@@0PB_WIUrandom_access_iterator_tag@0@@Z 170f0730 f i c_renderlist.obj
 0002:000397b0       ??$_Iter_cat@PAPAVCTerrainRenderer@@@std@@YA?AUrandom_access_iterator_tag@0@ABQAPAVCTerrainRenderer@@@Z 170f07b0 f i c_renderlist.obj
 0002:000397d0       ??$_Debug_range2@PAPAVCTerrainRenderer@@@std@@YAXPAPAVCTerrainRenderer@@0PB_WIUrandom_access_iterator_tag@0@@Z 170f07d0 f i c_renderlist.obj
 0002:00039850       ??$_Iter_cat@PAPAVCSkyRenderer@@@std@@YA?AUrandom_access_iterator_tag@0@ABQAPAVCSkyRenderer@@@Z 170f0850 f i c_renderlist.obj
 0002:00039870       ??$_Debug_range2@PAPAVCSkyRenderer@@@std@@YAXPAPAVCSkyRenderer@@0PB_WIUrandom_access_iterator_tag@0@@Z 170f0870 f i c_renderlist.obj
 0002:000398f0       ??$_Push_heap@V?$_Vector_iterator@PAVIRenderer@@V?$K2VectorAllocator@PAVIRenderer@@@@@std@@HPAVIRenderer@@P6A_NPAV3@0@Z@std@@YAXV?$_Vector_iterator@PAVIRenderer@@V?$K2VectorAllocator@PAVIRenderer@@@@@0@HHPAVIRenderer@@P6A_N11@Z@Z 170f08f0 f i c_renderlist.obj
 0002:00039b70       ??$_Pop_heap_0@V?$_Vector_iterator@PAVIRenderer@@V?$K2VectorAllocator@PAVIRenderer@@@@@std@@PAVIRenderer@@P6A_NPAV3@0@Z@std@@YAXV?$_Vector_iterator@PAVIRenderer@@V?$K2VectorAllocator@PAVIRenderer@@@@@0@0P6A_NPAVIRenderer@@1@ZPAPAV2@@Z 170f0b70 f i c_renderlist.obj
 0002:00039ce0       ??$_Rotate@V?$_Vector_iterator@PAVIRenderer@@V?$K2VectorAllocator@PAVIRenderer@@@@@std@@HPAVIRenderer@@@std@@YAXV?$_Vector_iterator@PAVIRenderer@@V?$K2VectorAllocator@PAVIRenderer@@@@@0@00PAHPAPAVIRenderer@@@Z 170f0ce0 f i c_renderlist.obj
 0002:0003a210       ??$_Pop_heap@V?$_Vector_iterator@PAVIRenderer@@V?$K2VectorAllocator@PAVIRenderer@@@@@std@@HPAVIRenderer@@P6A_NPAV3@0@Z@std@@YAXV?$_Vector_iterator@PAVIRenderer@@V?$K2VectorAllocator@PAVIRenderer@@@@@0@00PAVIRenderer@@P6A_N11@ZPAH@Z 170f1210 f i c_renderlist.obj
 0002:0003a2f0       ??2CScenePolyRenderer@@SAPAXIPBD00F@Z 170f12f0 f   c_scenepolyrenderer.obj
 0002:0003a310       ??0CScenePolyRenderer@@QAE@IPAUSSceneFaceVert@@IH@Z 170f1310 f   c_scenepolyrenderer.obj
 0002:0003a380       ??_GCScenePolyRenderer@@UAEPAXI@Z 170f1380 f i c_scenepolyrenderer.obj
 0002:0003a380       ??_ECScenePolyRenderer@@UAEPAXI@Z 170f1380 f i c_scenepolyrenderer.obj
 0002:0003a3d0       ??3CScenePolyRenderer@@SAXPAX@Z 170f13d0 f i c_scenepolyrenderer.obj
 0002:0003a3f0       ??1CScenePolyRenderer@@UAE@XZ 170f13f0 f   c_scenepolyrenderer.obj
 0002:0003a420       ?Setup@CScenePolyRenderer@@UAEXW4EMaterialPhase@@@Z 170f1420 f   c_scenepolyrenderer.obj
 0002:0003a6d0       ?Render@CScenePolyRenderer@@UAEXW4EMaterialPhase@@@Z 170f16d0 f   c_scenepolyrenderer.obj
 0002:0003abb0       ??A?$CVec4@E@@QAEAAEH@Z    170f1bb0 f i c_scenepolyrenderer.obj
 0002:0003abe0       ?Allocate@?$CPool@VCScenePolyRenderer@@@@QAEPAVCScenePolyRenderer@@XZ 170f1be0 f i c_scenepolyrenderer.obj
 0002:0003ad70       ?push_back@?$vector@PAVCScenePolyRenderer@@V?$K2VectorAllocator@PAVCScenePolyRenderer@@@@@std@@QAEXABQAVCScenePolyRenderer@@@Z 170f1d70 f i c_scenepolyrenderer.obj
 0002:0003ae20       ?capacity@?$vector@PAVCScenePolyRenderer@@V?$K2VectorAllocator@PAVCScenePolyRenderer@@@@@std@@QBEIXZ 170f1e20 f i c_scenepolyrenderer.obj
 0002:0003ae70       ?size@?$vector@PAVCScenePolyRenderer@@V?$K2VectorAllocator@PAVCScenePolyRenderer@@@@@std@@QBEIXZ 170f1e70 f i c_scenepolyrenderer.obj
 0002:0003aec0       ?insert@?$vector@PAVCScenePolyRenderer@@V?$K2VectorAllocator@PAVCScenePolyRenderer@@@@@std@@QAE?AV?$_Vector_iterator@PAVCScenePolyRenderer@@V?$K2VectorAllocator@PAVCScenePolyRenderer@@@@@2@V32@ABQAVCScenePolyRenderer@@@Z 170f1ec0 f i c_scenepolyrenderer.obj
 0002:0003b030       ?_Ufill@?$vector@PAVCScenePolyRenderer@@V?$K2VectorAllocator@PAVCScenePolyRenderer@@@@@std@@IAEPAPAVCScenePolyRenderer@@PAPAV3@IABQAV3@@Z 170f2030 f i c_scenepolyrenderer.obj
 0002:0003b080       ??0?$_Vector_iterator@PAVCScenePolyRenderer@@V?$K2VectorAllocator@PAVCScenePolyRenderer@@@@@std@@QAE@ABV01@@Z 170f2080 f i c_scenepolyrenderer.obj
 0002:0003b0b0       ??0?$_Vector_const_iterator@PAVCScenePolyRenderer@@V?$K2VectorAllocator@PAVCScenePolyRenderer@@@@@std@@QAE@ABV01@@Z 170f20b0 f i c_scenepolyrenderer.obj
 0002:0003b0f0       ??0?$_Ranit@PAVCScenePolyRenderer@@HPBQAV1@ABQAV1@@std@@QAE@ABU01@@Z 170f20f0 f i c_scenepolyrenderer.obj
 0002:0003b120       ?_Insert_n@?$vector@PAVCScenePolyRenderer@@V?$K2VectorAllocator@PAVCScenePolyRenderer@@@@@std@@IAEXV?$_Vector_iterator@PAVCScenePolyRenderer@@V?$K2VectorAllocator@PAVCScenePolyRenderer@@@@@2@IABQAVCScenePolyRenderer@@@Z 170f2120 f i c_scenepolyrenderer.obj
 0002:0003b5d0       ?deallocate@?$K2VectorAllocator@PAVCScenePolyRenderer@@@@QAEXPAPAVCScenePolyRenderer@@I@Z 170f25d0 f i c_scenepolyrenderer.obj
 0002:0003b610       ??H?$_Vector_iterator@PAVCScenePolyRenderer@@V?$K2VectorAllocator@PAVCScenePolyRenderer@@@@@std@@QBE?AV01@H@Z 170f2610 f i c_scenepolyrenderer.obj
 0002:0003b6c0       ??G?$_Vector_iterator@PAVCScenePolyRenderer@@V?$K2VectorAllocator@PAVCScenePolyRenderer@@@@@std@@QBEHABV?$_Vector_const_iterator@PAVCScenePolyRenderer@@V?$K2VectorAllocator@PAVCScenePolyRenderer@@@@@1@@Z 170f26c0 f i c_scenepolyrenderer.obj
 0002:0003b6f0       ?max_size@?$vector@PAVCScenePolyRenderer@@V?$K2VectorAllocator@PAVCScenePolyRenderer@@@@@std@@QBEIXZ 170f26f0 f i c_scenepolyrenderer.obj
 0002:0003b720       ?_Xlen@?$vector@PAVCScenePolyRenderer@@V?$K2VectorAllocator@PAVCScenePolyRenderer@@@@@std@@KAXXZ 170f2720 f i c_scenepolyrenderer.obj
 0002:0003b7d0       ?allocate@?$K2VectorAllocator@PAVCScenePolyRenderer@@@@QAEPAPAVCScenePolyRenderer@@I@Z 170f27d0 f i c_scenepolyrenderer.obj
 0002:0003b820       ??Y?$_Vector_iterator@PAVCScenePolyRenderer@@V?$K2VectorAllocator@PAVCScenePolyRenderer@@@@@std@@QAEAAV01@H@Z 170f2820 f i c_scenepolyrenderer.obj
 0002:0003b850       ??G?$_Vector_const_iterator@PAVCScenePolyRenderer@@V?$K2VectorAllocator@PAVCScenePolyRenderer@@@@@std@@QBEHABV01@@Z 170f2850 f i c_scenepolyrenderer.obj
 0002:0003b890       ?max_size@?$allocator@PAVCScenePolyRenderer@@@std@@QBEIXZ 170f2890 f i c_scenepolyrenderer.obj
 0002:0003b8d0       ??Y?$_Vector_const_iterator@PAVCScenePolyRenderer@@V?$K2VectorAllocator@PAVCScenePolyRenderer@@@@@std@@QAEAAV01@H@Z 170f28d0 f i c_scenepolyrenderer.obj
 0002:0003ba00       ??$unchecked_uninitialized_fill_n@PAPAVCScenePolyRenderer@@IPAV1@V?$K2VectorAllocator@PAVCScenePolyRenderer@@@@@stdext@@YAXPAPAVCScenePolyRenderer@@IABQAV1@AAV?$K2VectorAllocator@PAVCScenePolyRenderer@@@@@Z 170f2a00 f i c_scenepolyrenderer.obj
 0002:0003ba60       ??$_Umove@PAPAVCScenePolyRenderer@@@?$vector@PAVCScenePolyRenderer@@V?$K2VectorAllocator@PAVCScenePolyRenderer@@@@@std@@IAEPAPAVCScenePolyRenderer@@PAPAV2@00@Z 170f2a60 f i c_scenepolyrenderer.obj
 0002:0003baa0       ??$fill@PAPAVCScenePolyRenderer@@PAV1@@std@@YAXPAPAVCScenePolyRenderer@@0ABQAV1@@Z 170f2aa0 f i c_scenepolyrenderer.obj
 0002:0003baf0       ??$_Unchecked_move_backward@PAPAVCScenePolyRenderer@@PAPAV1@@stdext@@YAPAPAVCScenePolyRenderer@@PAPAV1@00@Z 170f2af0 f i c_scenepolyrenderer.obj
 0002:0003bb80       ??$_Uninit_fill_n@PAPAVCScenePolyRenderer@@IPAV1@V?$K2VectorAllocator@PAVCScenePolyRenderer@@@@@std@@YAXPAPAVCScenePolyRenderer@@IABQAV1@AAV?$K2VectorAllocator@PAVCScenePolyRenderer@@@@U_Scalar_ptr_iterator_tag@0@U_Range_checked_iterator_tag@0@@Z 170f2b80 f i c_scenepolyrenderer.obj
 0002:0003bbb0       ??$_Unchecked_uninitialized_move@PAPAVCScenePolyRenderer@@PAPAV1@V?$K2VectorAllocator@PAVCScenePolyRenderer@@@@@stdext@@YAPAPAVCScenePolyRenderer@@PAPAV1@00AAV?$K2VectorAllocator@PAVCScenePolyRenderer@@@@@Z 170f2bb0 f i c_scenepolyrenderer.obj
 0002:0003bc20       ??$_Fill@PAPAVCScenePolyRenderer@@PAV1@@std@@YAXPAPAVCScenePolyRenderer@@0ABQAV1@@Z 170f2c20 f i c_scenepolyrenderer.obj
 0002:0003bc80       ??$_Move_cat@PAPAVCScenePolyRenderer@@@std@@YA?AU_Undefined_move_tag@0@ABQAPAVCScenePolyRenderer@@@Z 170f2c80 f i c_scenepolyrenderer.obj
 0002:0003bca0       ??$_Move_backward_opt@PAPAVCScenePolyRenderer@@PAPAV1@Urandom_access_iterator_tag@std@@U_Undefined_move_tag@3@@std@@YAPAPAVCScenePolyRenderer@@PAPAV1@00Urandom_access_iterator_tag@0@U_Undefined_move_tag@0@U_Range_checked_iterator_tag@0@@Z 170f2ca0 f i c_scenepolyrenderer.obj
 0002:0003bd00       ??$unchecked_fill_n@PAPAVCScenePolyRenderer@@IPAV1@@stdext@@YAXPAPAVCScenePolyRenderer@@IABQAV1@@Z 170f2d00 f i c_scenepolyrenderer.obj
 0002:0003bd50       ??$_Uninit_move@PAPAVCScenePolyRenderer@@PAPAV1@V?$K2VectorAllocator@PAVCScenePolyRenderer@@@@U_Undefined_move_tag@std@@@std@@YAPAPAVCScenePolyRenderer@@PAPAV1@00AAV?$K2VectorAllocator@PAVCScenePolyRenderer@@@@U_Undefined_move_tag@0@U_Range_checked_iterator_tag@0@@Z 170f2d50 f i c_scenepolyrenderer.obj
 0002:0003bd90       ??$_Copy_backward_opt@PAPAVCScenePolyRenderer@@PAPAV1@Urandom_access_iterator_tag@std@@@std@@YAPAPAVCScenePolyRenderer@@PAPAV1@00Urandom_access_iterator_tag@0@U_Scalar_ptr_iterator_tag@0@U_Range_checked_iterator_tag@0@@Z 170f2d90 f i c_scenepolyrenderer.obj
 0002:0003be40       ??$_Fill_n@PAPAVCScenePolyRenderer@@IPAV1@@std@@YAXPAPAVCScenePolyRenderer@@IABQAV1@Urandom_access_iterator_tag@0@U_Range_checked_iterator_tag@0@@Z 170f2e40 f i c_scenepolyrenderer.obj
 0002:0003bea0       ??$unchecked_uninitialized_copy@PAPAVCScenePolyRenderer@@PAPAV1@V?$K2VectorAllocator@PAVCScenePolyRenderer@@@@@stdext@@YAPAPAVCScenePolyRenderer@@PAPAV1@00AAV?$K2VectorAllocator@PAVCScenePolyRenderer@@@@@Z 170f2ea0 f i c_scenepolyrenderer.obj
 0002:0003bf10       ??$_Fill_n@PAPAVCScenePolyRenderer@@IPAV1@@std@@YAXPAPAVCScenePolyRenderer@@IABQAV1@U_Range_checked_iterator_tag@0@@Z 170f2f10 f i c_scenepolyrenderer.obj
 0002:0003bf60       ??$_Uninit_copy@PAPAVCScenePolyRenderer@@PAPAV1@V?$K2VectorAllocator@PAVCScenePolyRenderer@@@@@std@@YAPAPAVCScenePolyRenderer@@PAPAV1@00AAV?$K2VectorAllocator@PAVCScenePolyRenderer@@@@U_Scalar_ptr_iterator_tag@0@U_Range_checked_iterator_tag@0@@Z 170f2f60 f i c_scenepolyrenderer.obj
 0002:0003c000       ??0?$CPool@VCScenePolyRenderer@@@@QAE@II@Z 170f3000 f i c_scenepolyrenderer.obj
 0002:0003c0c0       ??0?$vector@PAVCScenePolyRenderer@@V?$K2VectorAllocator@PAVCScenePolyRenderer@@@@@@QAE@XZ 170f30c0 f i c_scenepolyrenderer.obj
 0002:0003c0f0       ??0?$vector@PAVCScenePolyRenderer@@V?$K2VectorAllocator@PAVCScenePolyRenderer@@@@@std@@QAE@XZ 170f30f0 f i c_scenepolyrenderer.obj
 0002:0003c180       ??1?$_Vector_val@PAVCScenePolyRenderer@@V?$K2VectorAllocator@PAVCScenePolyRenderer@@@@@std@@QAE@XZ 170f3180 f i c_scenepolyrenderer.obj
 0002:0003c200       ??1?$K2VectorAllocator@PAVCScenePolyRenderer@@@@QAE@XZ 170f3200 f i c_scenepolyrenderer.obj
 0002:0003c220       ?_Buy@?$vector@PAVCScenePolyRenderer@@V?$K2VectorAllocator@PAVCScenePolyRenderer@@@@@std@@IAE_NI@Z 170f3220 f i c_scenepolyrenderer.obj
 0002:0003c2d0       ??0?$_Vector_val@PAVCScenePolyRenderer@@V?$K2VectorAllocator@PAVCScenePolyRenderer@@@@@std@@IAE@V?$K2VectorAllocator@PAVCScenePolyRenderer@@@@@Z 170f32d0 f i c_scenepolyrenderer.obj
 0002:0003c370       ??0?$K2VectorAllocator@PAVCScenePolyRenderer@@@@QAE@XZ 170f3370 f i c_scenepolyrenderer.obj
 0002:0003c3a0       ??0?$K2VectorAllocator@PAVCScenePolyRenderer@@@@QAE@ABV0@@Z 170f33a0 f i c_scenepolyrenderer.obj
 0002:0003c3d0       ??0?$allocator@PAVCScenePolyRenderer@@@std@@QAE@XZ 170f33d0 f i c_scenepolyrenderer.obj
 0002:0003c3f0       ??0?$allocator@PAVCScenePolyRenderer@@@std@@QAE@ABV01@@Z 170f33f0 f i c_scenepolyrenderer.obj
 0002:0003c410       ??1?$CPool@VCScenePolyRenderer@@@@QAE@XZ 170f3410 f i c_scenepolyrenderer.obj
 0002:0003c4c0       ??1?$vector@PAVCScenePolyRenderer@@V?$K2VectorAllocator@PAVCScenePolyRenderer@@@@@@QAE@XZ 170f34c0 f i c_scenepolyrenderer.obj
 0002:0003c4f0       ??1?$vector@PAVCScenePolyRenderer@@V?$K2VectorAllocator@PAVCScenePolyRenderer@@@@@std@@QAE@XZ 170f34f0 f i c_scenepolyrenderer.obj
 0002:0003c570       ?_Tidy@?$vector@PAVCScenePolyRenderer@@V?$K2VectorAllocator@PAVCScenePolyRenderer@@@@@std@@IAEXXZ 170f3570 f i c_scenepolyrenderer.obj
 0002:0003c610       ??2CSkyRenderer@@SAPAXIPBD00F@Z 170f3610 f   c_skyrenderer.obj
 0002:0003c630       ??0CSkyRenderer@@QAE@XZ    170f3630 f   c_skyrenderer.obj
 0002:0003c850       ??_GCSkyRenderer@@UAEPAXI@Z 170f3850 f i c_skyrenderer.obj
 0002:0003c850       ??_ECSkyRenderer@@UAEPAXI@Z 170f3850 f i c_skyrenderer.obj
 0002:0003c8a0       ??3CSkyRenderer@@SAXPAX@Z  170f38a0 f i c_skyrenderer.obj
 0002:0003c8c0       ??1CSkyRenderer@@UAE@XZ    170f38c0 f   c_skyrenderer.obj
 0002:0003c8f0       ?Setup@CSkyRenderer@@UAEXW4EMaterialPhase@@@Z 170f38f0 f   c_skyrenderer.obj
 0002:0003cba0       ?Render@CSkyRenderer@@UAEXW4EMaterialPhase@@@Z 170f3ba0 f   c_skyrenderer.obj
 0002:0003cda0       ?Allocate@?$CPool@VCSkyRenderer@@@@QAEPAVCSkyRenderer@@XZ 170f3da0 f i c_skyrenderer.obj
 0002:0003cf30       ?push_back@?$vector@PAVCSkyRenderer@@V?$K2VectorAllocator@PAVCSkyRenderer@@@@@std@@QAEXABQAVCSkyRenderer@@@Z 170f3f30 f i c_skyrenderer.obj
 0002:0003cfe0       ?capacity@?$vector@PAVCSkyRenderer@@V?$K2VectorAllocator@PAVCSkyRenderer@@@@@std@@QBEIXZ 170f3fe0 f i c_skyrenderer.obj
 0002:0003d030       ?size@?$vector@PAVCSkyRenderer@@V?$K2VectorAllocator@PAVCSkyRenderer@@@@@std@@QBEIXZ 170f4030 f i c_skyrenderer.obj
 0002:0003d080       ?insert@?$vector@PAVCSkyRenderer@@V?$K2VectorAllocator@PAVCSkyRenderer@@@@@std@@QAE?AV?$_Vector_iterator@PAVCSkyRenderer@@V?$K2VectorAllocator@PAVCSkyRenderer@@@@@2@V32@ABQAVCSkyRenderer@@@Z 170f4080 f i c_skyrenderer.obj
 0002:0003d1f0       ?_Ufill@?$vector@PAVCSkyRenderer@@V?$K2VectorAllocator@PAVCSkyRenderer@@@@@std@@IAEPAPAVCSkyRenderer@@PAPAV3@IABQAV3@@Z 170f41f0 f i c_skyrenderer.obj
 0002:0003d240       ??0?$_Vector_iterator@PAVCSkyRenderer@@V?$K2VectorAllocator@PAVCSkyRenderer@@@@@std@@QAE@ABV01@@Z 170f4240 f i c_skyrenderer.obj
 0002:0003d270       ??0?$_Vector_const_iterator@PAVCSkyRenderer@@V?$K2VectorAllocator@PAVCSkyRenderer@@@@@std@@QAE@ABV01@@Z 170f4270 f i c_skyrenderer.obj
 0002:0003d2b0       ??0?$_Ranit@PAVCSkyRenderer@@HPBQAV1@ABQAV1@@std@@QAE@ABU01@@Z 170f42b0 f i c_skyrenderer.obj
 0002:0003d2e0       ?_Insert_n@?$vector@PAVCSkyRenderer@@V?$K2VectorAllocator@PAVCSkyRenderer@@@@@std@@IAEXV?$_Vector_iterator@PAVCSkyRenderer@@V?$K2VectorAllocator@PAVCSkyRenderer@@@@@2@IABQAVCSkyRenderer@@@Z 170f42e0 f i c_skyrenderer.obj
 0002:0003d790       ?deallocate@?$K2VectorAllocator@PAVCSkyRenderer@@@@QAEXPAPAVCSkyRenderer@@I@Z 170f4790 f i c_skyrenderer.obj
 0002:0003d7d0       ??H?$_Vector_iterator@PAVCSkyRenderer@@V?$K2VectorAllocator@PAVCSkyRenderer@@@@@std@@QBE?AV01@H@Z 170f47d0 f i c_skyrenderer.obj
 0002:0003d880       ??G?$_Vector_iterator@PAVCSkyRenderer@@V?$K2VectorAllocator@PAVCSkyRenderer@@@@@std@@QBEHABV?$_Vector_const_iterator@PAVCSkyRenderer@@V?$K2VectorAllocator@PAVCSkyRenderer@@@@@1@@Z 170f4880 f i c_skyrenderer.obj
 0002:0003d8b0       ?max_size@?$vector@PAVCSkyRenderer@@V?$K2VectorAllocator@PAVCSkyRenderer@@@@@std@@QBEIXZ 170f48b0 f i c_skyrenderer.obj
 0002:0003d8e0       ?_Xlen@?$vector@PAVCSkyRenderer@@V?$K2VectorAllocator@PAVCSkyRenderer@@@@@std@@KAXXZ 170f48e0 f i c_skyrenderer.obj
 0002:0003d990       ?allocate@?$K2VectorAllocator@PAVCSkyRenderer@@@@QAEPAPAVCSkyRenderer@@I@Z 170f4990 f i c_skyrenderer.obj
 0002:0003d9e0       ??Y?$_Vector_iterator@PAVCSkyRenderer@@V?$K2VectorAllocator@PAVCSkyRenderer@@@@@std@@QAEAAV01@H@Z 170f49e0 f i c_skyrenderer.obj
 0002:0003da10       ??G?$_Vector_const_iterator@PAVCSkyRenderer@@V?$K2VectorAllocator@PAVCSkyRenderer@@@@@std@@QBEHABV01@@Z 170f4a10 f i c_skyrenderer.obj
 0002:0003da50       ?max_size@?$allocator@PAVCSkyRenderer@@@std@@QBEIXZ 170f4a50 f i c_skyrenderer.obj
 0002:0003da90       ??Y?$_Vector_const_iterator@PAVCSkyRenderer@@V?$K2VectorAllocator@PAVCSkyRenderer@@@@@std@@QAEAAV01@H@Z 170f4a90 f i c_skyrenderer.obj
 0002:0003dbc0       ??$unchecked_uninitialized_fill_n@PAPAVCSkyRenderer@@IPAV1@V?$K2VectorAllocator@PAVCSkyRenderer@@@@@stdext@@YAXPAPAVCSkyRenderer@@IABQAV1@AAV?$K2VectorAllocator@PAVCSkyRenderer@@@@@Z 170f4bc0 f i c_skyrenderer.obj
 0002:0003dc20       ??$_Umove@PAPAVCSkyRenderer@@@?$vector@PAVCSkyRenderer@@V?$K2VectorAllocator@PAVCSkyRenderer@@@@@std@@IAEPAPAVCSkyRenderer@@PAPAV2@00@Z 170f4c20 f i c_skyrenderer.obj
 0002:0003dc60       ??$fill@PAPAVCSkyRenderer@@PAV1@@std@@YAXPAPAVCSkyRenderer@@0ABQAV1@@Z 170f4c60 f i c_skyrenderer.obj
 0002:0003dcb0       ??$_Unchecked_move_backward@PAPAVCSkyRenderer@@PAPAV1@@stdext@@YAPAPAVCSkyRenderer@@PAPAV1@00@Z 170f4cb0 f i c_skyrenderer.obj
 0002:0003dd40       ??$_Uninit_fill_n@PAPAVCSkyRenderer@@IPAV1@V?$K2VectorAllocator@PAVCSkyRenderer@@@@@std@@YAXPAPAVCSkyRenderer@@IABQAV1@AAV?$K2VectorAllocator@PAVCSkyRenderer@@@@U_Scalar_ptr_iterator_tag@0@U_Range_checked_iterator_tag@0@@Z 170f4d40 f i c_skyrenderer.obj
 0002:0003dd70       ??$_Unchecked_uninitialized_move@PAPAVCSkyRenderer@@PAPAV1@V?$K2VectorAllocator@PAVCSkyRenderer@@@@@stdext@@YAPAPAVCSkyRenderer@@PAPAV1@00AAV?$K2VectorAllocator@PAVCSkyRenderer@@@@@Z 170f4d70 f i c_skyrenderer.obj
 0002:0003dde0       ??$_Fill@PAPAVCSkyRenderer@@PAV1@@std@@YAXPAPAVCSkyRenderer@@0ABQAV1@@Z 170f4de0 f i c_skyrenderer.obj
 0002:0003de40       ??$_Move_cat@PAPAVCSkyRenderer@@@std@@YA?AU_Undefined_move_tag@0@ABQAPAVCSkyRenderer@@@Z 170f4e40 f i c_skyrenderer.obj
 0002:0003de60       ??$_Move_backward_opt@PAPAVCSkyRenderer@@PAPAV1@Urandom_access_iterator_tag@std@@U_Undefined_move_tag@3@@std@@YAPAPAVCSkyRenderer@@PAPAV1@00Urandom_access_iterator_tag@0@U_Undefined_move_tag@0@U_Range_checked_iterator_tag@0@@Z 170f4e60 f i c_skyrenderer.obj
 0002:0003dec0       ??$unchecked_fill_n@PAPAVCSkyRenderer@@IPAV1@@stdext@@YAXPAPAVCSkyRenderer@@IABQAV1@@Z 170f4ec0 f i c_skyrenderer.obj
 0002:0003df10       ??$_Uninit_move@PAPAVCSkyRenderer@@PAPAV1@V?$K2VectorAllocator@PAVCSkyRenderer@@@@U_Undefined_move_tag@std@@@std@@YAPAPAVCSkyRenderer@@PAPAV1@00AAV?$K2VectorAllocator@PAVCSkyRenderer@@@@U_Undefined_move_tag@0@U_Range_checked_iterator_tag@0@@Z 170f4f10 f i c_skyrenderer.obj
 0002:0003df50       ??$_Copy_backward_opt@PAPAVCSkyRenderer@@PAPAV1@Urandom_access_iterator_tag@std@@@std@@YAPAPAVCSkyRenderer@@PAPAV1@00Urandom_access_iterator_tag@0@U_Scalar_ptr_iterator_tag@0@U_Range_checked_iterator_tag@0@@Z 170f4f50 f i c_skyrenderer.obj
 0002:0003e000       ??$_Fill_n@PAPAVCSkyRenderer@@IPAV1@@std@@YAXPAPAVCSkyRenderer@@IABQAV1@Urandom_access_iterator_tag@0@U_Range_checked_iterator_tag@0@@Z 170f5000 f i c_skyrenderer.obj
 0002:0003e060       ??$unchecked_uninitialized_copy@PAPAVCSkyRenderer@@PAPAV1@V?$K2VectorAllocator@PAVCSkyRenderer@@@@@stdext@@YAPAPAVCSkyRenderer@@PAPAV1@00AAV?$K2VectorAllocator@PAVCSkyRenderer@@@@@Z 170f5060 f i c_skyrenderer.obj
 0002:0003e0d0       ??$_Fill_n@PAPAVCSkyRenderer@@IPAV1@@std@@YAXPAPAVCSkyRenderer@@IABQAV1@U_Range_checked_iterator_tag@0@@Z 170f50d0 f i c_skyrenderer.obj
 0002:0003e120       ??$_Uninit_copy@PAPAVCSkyRenderer@@PAPAV1@V?$K2VectorAllocator@PAVCSkyRenderer@@@@@std@@YAPAPAVCSkyRenderer@@PAPAV1@00AAV?$K2VectorAllocator@PAVCSkyRenderer@@@@U_Scalar_ptr_iterator_tag@0@U_Range_checked_iterator_tag@0@@Z 170f5120 f i c_skyrenderer.obj
 0002:0003e1c0       ?GetOrigin@CCamera@@QBEABV?$CVec3@M@@XZ 170f51c0 f i c_skyrenderer.obj
 0002:0003e1e0       ??0?$CPool@VCSkyRenderer@@@@QAE@II@Z 170f51e0 f i c_skyrenderer.obj
 0002:0003e2a0       ??0?$vector@PAVCSkyRenderer@@V?$K2VectorAllocator@PAVCSkyRenderer@@@@@@QAE@XZ 170f52a0 f i c_skyrenderer.obj
 0002:0003e2d0       ??0?$vector@PAVCSkyRenderer@@V?$K2VectorAllocator@PAVCSkyRenderer@@@@@std@@QAE@XZ 170f52d0 f i c_skyrenderer.obj
 0002:0003e360       ??1?$_Vector_val@PAVCSkyRenderer@@V?$K2VectorAllocator@PAVCSkyRenderer@@@@@std@@QAE@XZ 170f5360 f i c_skyrenderer.obj
 0002:0003e3e0       ??1?$K2VectorAllocator@PAVCSkyRenderer@@@@QAE@XZ 170f53e0 f i c_skyrenderer.obj
 0002:0003e400       ?_Buy@?$vector@PAVCSkyRenderer@@V?$K2VectorAllocator@PAVCSkyRenderer@@@@@std@@IAE_NI@Z 170f5400 f i c_skyrenderer.obj
 0002:0003e4b0       ??0?$_Vector_val@PAVCSkyRenderer@@V?$K2VectorAllocator@PAVCSkyRenderer@@@@@std@@IAE@V?$K2VectorAllocator@PAVCSkyRenderer@@@@@Z 170f54b0 f i c_skyrenderer.obj
 0002:0003e550       ??0?$K2VectorAllocator@PAVCSkyRenderer@@@@QAE@XZ 170f5550 f i c_skyrenderer.obj
 0002:0003e580       ??0?$K2VectorAllocator@PAVCSkyRenderer@@@@QAE@ABV0@@Z 170f5580 f i c_skyrenderer.obj
 0002:0003e5b0       ??0?$allocator@PAVCSkyRenderer@@@std@@QAE@XZ 170f55b0 f i c_skyrenderer.obj
 0002:0003e5d0       ??0?$allocator@PAVCSkyRenderer@@@std@@QAE@ABV01@@Z 170f55d0 f i c_skyrenderer.obj
 0002:0003e5f0       ??1?$CPool@VCSkyRenderer@@@@QAE@XZ 170f55f0 f i c_skyrenderer.obj
 0002:0003e6a0       ??1?$vector@PAVCSkyRenderer@@V?$K2VectorAllocator@PAVCSkyRenderer@@@@@@QAE@XZ 170f56a0 f i c_skyrenderer.obj
 0002:0003e6d0       ??1?$vector@PAVCSkyRenderer@@V?$K2VectorAllocator@PAVCSkyRenderer@@@@@std@@QAE@XZ 170f56d0 f i c_skyrenderer.obj
 0002:0003e750       ?_Tidy@?$vector@PAVCSkyRenderer@@V?$K2VectorAllocator@PAVCSkyRenderer@@@@@std@@IAEXXZ 170f5750 f i c_skyrenderer.obj
 0002:0003e7f0       ??2CTerrainRenderer@@SAPAXIPBD00F@Z 170f57f0 f   c_terrainrenderer.obj
 0002:0003e810       ??0CTerrainRenderer@@QAE@XZ 170f5810 f   c_terrainrenderer.obj
 0002:0003e840       ??_ECTerrainRenderer@@UAEPAXI@Z 170f5840 f i c_terrainrenderer.obj
 0002:0003e840       ??_GCTerrainRenderer@@UAEPAXI@Z 170f5840 f i c_terrainrenderer.obj
 0002:0003e890       ??3CTerrainRenderer@@SAXPAX@Z 170f5890 f i c_terrainrenderer.obj
 0002:0003e8b0       ??1CTerrainRenderer@@UAE@XZ 170f58b0 f   c_terrainrenderer.obj
 0002:0003e8e0       ?Setup@CTerrainRenderer@@UAEXW4EMaterialPhase@@@Z 170f58e0 f   c_terrainrenderer.obj
 0002:0003eeb0       ?RenderChunk@CTerrainRenderer@@AAEXW4EMaterialPhase@@HH@Z 170f5eb0 f   c_terrainrenderer.obj
 0002:0003fb30       ?GetWhiteTexture@CGfxTextures@@QAEHXZ 170f6b30 f i c_terrainrenderer.obj
 0002:0003fb50       ?GetInvisTexture@CResourceManager@@QBEIXZ 170f6b50 f i c_terrainrenderer.obj
 0002:0003fb70       ?RenderChunkNormals@CTerrainRenderer@@AAEXW4EMaterialPhase@@HH@Z 170f6b70 f   c_terrainrenderer.obj
 0002:0003fb90       ?RenderChunkCliffs@CTerrainRenderer@@AAEXW4EMaterialPhase@@HH@Z 170f6b90 f   c_terrainrenderer.obj
 0002:00040070       ?GetCliffStride@CGfxTerrain@@QBEHXZ 170f7070 f i c_terrainrenderer.obj
 0002:00040090       ?GetCliffAttributes@CGfxTerrain@@QAEAAV?$map@V?$basic_string@_WU?$char_traits@_W@std@@V?$K2StringAllocator@_W@@@std@@USVertexAttribute@@U?$less@V?$basic_string@_WU?$char_traits@_W@std@@V?$K2StringAllocator@_W@@@std@@@2@V?$K2MapAllocator@U?$pair@$$CBV?$basic_string@_WU?$char_traits@_W@std@@V?$K2StringAllocator@_W@@@std@@USVertexAttribute@@@std@@@@@@XZ 170f7090 f i c_terrainrenderer.obj
 0002:000400b0       ?Render@CTerrainRenderer@@UAEXW4EMaterialPhase@@@Z 170f70b0 f   c_terrainrenderer.obj
 0002:00040300       ?Allocate@?$CPool@VCTerrainRenderer@@@@QAEPAVCTerrainRenderer@@XZ 170f7300 f i c_terrainrenderer.obj
 0002:00040490       ?push_back@?$vector@PAVCTerrainRenderer@@V?$K2VectorAllocator@PAVCTerrainRenderer@@@@@std@@QAEXABQAVCTerrainRenderer@@@Z 170f7490 f i c_terrainrenderer.obj
 0002:00040540       ?capacity@?$vector@PAVCTerrainRenderer@@V?$K2VectorAllocator@PAVCTerrainRenderer@@@@@std@@QBEIXZ 170f7540 f i c_terrainrenderer.obj
 0002:00040590       ?size@?$vector@PAVCTerrainRenderer@@V?$K2VectorAllocator@PAVCTerrainRenderer@@@@@std@@QBEIXZ 170f7590 f i c_terrainrenderer.obj
 0002:000405e0       ?insert@?$vector@PAVCTerrainRenderer@@V?$K2VectorAllocator@PAVCTerrainRenderer@@@@@std@@QAE?AV?$_Vector_iterator@PAVCTerrainRenderer@@V?$K2VectorAllocator@PAVCTerrainRenderer@@@@@2@V32@ABQAVCTerrainRenderer@@@Z 170f75e0 f i c_terrainrenderer.obj
 0002:00040750       ?_Ufill@?$vector@PAVCTerrainRenderer@@V?$K2VectorAllocator@PAVCTerrainRenderer@@@@@std@@IAEPAPAVCTerrainRenderer@@PAPAV3@IABQAV3@@Z 170f7750 f i c_terrainrenderer.obj
 0002:000407a0       ??0?$_Vector_iterator@PAVCTerrainRenderer@@V?$K2VectorAllocator@PAVCTerrainRenderer@@@@@std@@QAE@ABV01@@Z 170f77a0 f i c_terrainrenderer.obj
 0002:000407d0       ??0?$_Vector_const_iterator@PAVCTerrainRenderer@@V?$K2VectorAllocator@PAVCTerrainRenderer@@@@@std@@QAE@ABV01@@Z 170f77d0 f i c_terrainrenderer.obj
 0002:00040810       ??0?$_Ranit@PAVCTerrainRenderer@@HPBQAV1@ABQAV1@@std@@QAE@ABU01@@Z 170f7810 f i c_terrainrenderer.obj
 0002:00040840       ?_Insert_n@?$vector@PAVCTerrainRenderer@@V?$K2VectorAllocator@PAVCTerrainRenderer@@@@@std@@IAEXV?$_Vector_iterator@PAVCTerrainRenderer@@V?$K2VectorAllocator@PAVCTerrainRenderer@@@@@2@IABQAVCTerrainRenderer@@@Z 170f7840 f i c_terrainrenderer.obj
 0002:00040cf0       ?deallocate@?$K2VectorAllocator@PAVCTerrainRenderer@@@@QAEXPAPAVCTerrainRenderer@@I@Z 170f7cf0 f i c_terrainrenderer.obj
 0002:00040d30       ??H?$_Vector_iterator@PAVCTerrainRenderer@@V?$K2VectorAllocator@PAVCTerrainRenderer@@@@@std@@QBE?AV01@H@Z 170f7d30 f i c_terrainrenderer.obj
 0002:00040de0       ??G?$_Vector_iterator@PAVCTerrainRenderer@@V?$K2VectorAllocator@PAVCTerrainRenderer@@@@@std@@QBEHABV?$_Vector_const_iterator@PAVCTerrainRenderer@@V?$K2VectorAllocator@PAVCTerrainRenderer@@@@@1@@Z 170f7de0 f i c_terrainrenderer.obj
 0002:00040e10       ?max_size@?$vector@PAVCTerrainRenderer@@V?$K2VectorAllocator@PAVCTerrainRenderer@@@@@std@@QBEIXZ 170f7e10 f i c_terrainrenderer.obj
 0002:00040e40       ?_Xlen@?$vector@PAVCTerrainRenderer@@V?$K2VectorAllocator@PAVCTerrainRenderer@@@@@std@@KAXXZ 170f7e40 f i c_terrainrenderer.obj
 0002:00040ef0       ?allocate@?$K2VectorAllocator@PAVCTerrainRenderer@@@@QAEPAPAVCTerrainRenderer@@I@Z 170f7ef0 f i c_terrainrenderer.obj
 0002:00040f40       ??Y?$_Vector_iterator@PAVCTerrainRenderer@@V?$K2VectorAllocator@PAVCTerrainRenderer@@@@@std@@QAEAAV01@H@Z 170f7f40 f i c_terrainrenderer.obj
 0002:00040f70       ??G?$_Vector_const_iterator@PAVCTerrainRenderer@@V?$K2VectorAllocator@PAVCTerrainRenderer@@@@@std@@QBEHABV01@@Z 170f7f70 f i c_terrainrenderer.obj
 0002:00040fb0       ?max_size@?$allocator@PAVCTerrainRenderer@@@std@@QBEIXZ 170f7fb0 f i c_terrainrenderer.obj
 0002:00040ff0       ??Y?$_Vector_const_iterator@PAVCTerrainRenderer@@V?$K2VectorAllocator@PAVCTerrainRenderer@@@@@std@@QAEAAV01@H@Z 170f7ff0 f i c_terrainrenderer.obj
 0002:00041120       ??$unchecked_uninitialized_fill_n@PAPAVCTerrainRenderer@@IPAV1@V?$K2VectorAllocator@PAVCTerrainRenderer@@@@@stdext@@YAXPAPAVCTerrainRenderer@@IABQAV1@AAV?$K2VectorAllocator@PAVCTerrainRenderer@@@@@Z 170f8120 f i c_terrainrenderer.obj
 0002:00041180       ??$_Umove@PAPAVCTerrainRenderer@@@?$vector@PAVCTerrainRenderer@@V?$K2VectorAllocator@PAVCTerrainRenderer@@@@@std@@IAEPAPAVCTerrainRenderer@@PAPAV2@00@Z 170f8180 f i c_terrainrenderer.obj
 0002:000411c0       ??$fill@PAPAVCTerrainRenderer@@PAV1@@std@@YAXPAPAVCTerrainRenderer@@0ABQAV1@@Z 170f81c0 f i c_terrainrenderer.obj
 0002:00041210       ??$_Unchecked_move_backward@PAPAVCTerrainRenderer@@PAPAV1@@stdext@@YAPAPAVCTerrainRenderer@@PAPAV1@00@Z 170f8210 f i c_terrainrenderer.obj
 0002:000412a0       ??$_Uninit_fill_n@PAPAVCTerrainRenderer@@IPAV1@V?$K2VectorAllocator@PAVCTerrainRenderer@@@@@std@@YAXPAPAVCTerrainRenderer@@IABQAV1@AAV?$K2VectorAllocator@PAVCTerrainRenderer@@@@U_Scalar_ptr_iterator_tag@0@U_Range_checked_iterator_tag@0@@Z 170f82a0 f i c_terrainrenderer.obj
 0002:000412d0       ??$_Unchecked_uninitialized_move@PAPAVCTerrainRenderer@@PAPAV1@V?$K2VectorAllocator@PAVCTerrainRenderer@@@@@stdext@@YAPAPAVCTerrainRenderer@@PAPAV1@00AAV?$K2VectorAllocator@PAVCTerrainRenderer@@@@@Z 170f82d0 f i c_terrainrenderer.obj
 0002:00041340       ??$_Fill@PAPAVCTerrainRenderer@@PAV1@@std@@YAXPAPAVCTerrainRenderer@@0ABQAV1@@Z 170f8340 f i c_terrainrenderer.obj
 0002:000413a0       ??$_Move_cat@PAPAVCTerrainRenderer@@@std@@YA?AU_Undefined_move_tag@0@ABQAPAVCTerrainRenderer@@@Z 170f83a0 f i c_terrainrenderer.obj
 0002:000413c0       ??$_Move_backward_opt@PAPAVCTerrainRenderer@@PAPAV1@Urandom_access_iterator_tag@std@@U_Undefined_move_tag@3@@std@@YAPAPAVCTerrainRenderer@@PAPAV1@00Urandom_access_iterator_tag@0@U_Undefined_move_tag@0@U_Range_checked_iterator_tag@0@@Z 170f83c0 f i c_terrainrenderer.obj
 0002:00041420       ??$unchecked_fill_n@PAPAVCTerrainRenderer@@IPAV1@@stdext@@YAXPAPAVCTerrainRenderer@@IABQAV1@@Z 170f8420 f i c_terrainrenderer.obj
 0002:00041470       ??$_Uninit_move@PAPAVCTerrainRenderer@@PAPAV1@V?$K2VectorAllocator@PAVCTerrainRenderer@@@@U_Undefined_move_tag@std@@@std@@YAPAPAVCTerrainRenderer@@PAPAV1@00AAV?$K2VectorAllocator@PAVCTerrainRenderer@@@@U_Undefined_move_tag@0@U_Range_checked_iterator_tag@0@@Z 170f8470 f i c_terrainrenderer.obj
 0002:000414b0       ??$_Copy_backward_opt@PAPAVCTerrainRenderer@@PAPAV1@Urandom_access_iterator_tag@std@@@std@@YAPAPAVCTerrainRenderer@@PAPAV1@00Urandom_access_iterator_tag@0@U_Scalar_ptr_iterator_tag@0@U_Range_checked_iterator_tag@0@@Z 170f84b0 f i c_terrainrenderer.obj
 0002:00041560       ??$_Fill_n@PAPAVCTerrainRenderer@@IPAV1@@std@@YAXPAPAVCTerrainRenderer@@IABQAV1@Urandom_access_iterator_tag@0@U_Range_checked_iterator_tag@0@@Z 170f8560 f i c_terrainrenderer.obj
 0002:000415c0       ??$unchecked_uninitialized_copy@PAPAVCTerrainRenderer@@PAPAV1@V?$K2VectorAllocator@PAVCTerrainRenderer@@@@@stdext@@YAPAPAVCTerrainRenderer@@PAPAV1@00AAV?$K2VectorAllocator@PAVCTerrainRenderer@@@@@Z 170f85c0 f i c_terrainrenderer.obj
 0002:00041630       ??$_Fill_n@PAPAVCTerrainRenderer@@IPAV1@@std@@YAXPAPAVCTerrainRenderer@@IABQAV1@U_Range_checked_iterator_tag@0@@Z 170f8630 f i c_terrainrenderer.obj
 0002:00041680       ??$_Uninit_copy@PAPAVCTerrainRenderer@@PAPAV1@V?$K2VectorAllocator@PAVCTerrainRenderer@@@@@std@@YAPAPAVCTerrainRenderer@@PAPAV1@00AAV?$K2VectorAllocator@PAVCTerrainRenderer@@@@U_Scalar_ptr_iterator_tag@0@U_Range_checked_iterator_tag@0@@Z 170f8680 f i c_terrainrenderer.obj
 0002:00041720       ?SetSrcBlend@CMaterialPhase@@QAEXW4eBlendMode@@@Z 170f8720 f i c_terrainrenderer.obj
 0002:00041750       ?SetDstBlend@CMaterialPhase@@QAEXW4eBlendMode@@@Z 170f8750 f i c_terrainrenderer.obj
 0002:00041780       ?SetTranslucent@CMaterialPhase@@QAEX_N@Z 170f8780 f i c_terrainrenderer.obj
 0002:000417d0       ?SetDepthWrite@CMaterialPhase@@QAEX_N@Z 170f87d0 f i c_terrainrenderer.obj
 0002:00041820       ??0?$CPool@VCTerrainRenderer@@@@QAE@II@Z 170f8820 f i c_terrainrenderer.obj
 0002:000418e0       ??0?$vector@PAVCTerrainRenderer@@V?$K2VectorAllocator@PAVCTerrainRenderer@@@@@@QAE@XZ 170f88e0 f i c_terrainrenderer.obj
 0002:00041910       ??0?$vector@PAVCTerrainRenderer@@V?$K2VectorAllocator@PAVCTerrainRenderer@@@@@std@@QAE@XZ 170f8910 f i c_terrainrenderer.obj
 0002:000419a0       ??1?$_Vector_val@PAVCTerrainRenderer@@V?$K2VectorAllocator@PAVCTerrainRenderer@@@@@std@@QAE@XZ 170f89a0 f i c_terrainrenderer.obj
 0002:00041a20       ??1?$K2VectorAllocator@PAVCTerrainRenderer@@@@QAE@XZ 170f8a20 f i c_terrainrenderer.obj
 0002:00041a40       ?_Buy@?$vector@PAVCTerrainRenderer@@V?$K2VectorAllocator@PAVCTerrainRenderer@@@@@std@@IAE_NI@Z 170f8a40 f i c_terrainrenderer.obj
 0002:00041af0       ??0?$_Vector_val@PAVCTerrainRenderer@@V?$K2VectorAllocator@PAVCTerrainRenderer@@@@@std@@IAE@V?$K2VectorAllocator@PAVCTerrainRenderer@@@@@Z 170f8af0 f i c_terrainrenderer.obj
 0002:00041b90       ??0?$K2VectorAllocator@PAVCTerrainRenderer@@@@QAE@XZ 170f8b90 f i c_terrainrenderer.obj
 0002:00041bc0       ??0?$K2VectorAllocator@PAVCTerrainRenderer@@@@QAE@ABV0@@Z 170f8bc0 f i c_terrainrenderer.obj
 0002:00041bf0       ??0?$allocator@PAVCTerrainRenderer@@@std@@QAE@XZ 170f8bf0 f i c_terrainrenderer.obj
 0002:00041c10       ??0?$allocator@PAVCTerrainRenderer@@@std@@QAE@ABV01@@Z 170f8c10 f i c_terrainrenderer.obj
 0002:00041c30       ??1?$CPool@VCTerrainRenderer@@@@QAE@XZ 170f8c30 f i c_terrainrenderer.obj
 0002:00041ce0       ??1?$vector@PAVCTerrainRenderer@@V?$K2VectorAllocator@PAVCTerrainRenderer@@@@@@QAE@XZ 170f8ce0 f i c_terrainrenderer.obj
 0002:00041d10       ??1?$vector@PAVCTerrainRenderer@@V?$K2VectorAllocator@PAVCTerrainRenderer@@@@@std@@QAE@XZ 170f8d10 f i c_terrainrenderer.obj
 0002:00041d90       ?_Tidy@?$vector@PAVCTerrainRenderer@@V?$K2VectorAllocator@PAVCTerrainRenderer@@@@@std@@IAEXXZ 170f8d90 f i c_terrainrenderer.obj
 0002:00041e30       ??2CTreeBillboardRenderer@@SAPAXIPBD00F@Z 170f8e30 f   c_treebillboardrenderer.obj
 0002:00041e50       ??0CTreeBillboardRenderer@@QAE@IKIIHM@Z 170f8e50 f   c_treebillboardrenderer.obj
 0002:00041f40       ??_GCTreeBillboardRenderer@@UAEPAXI@Z 170f8f40 f i c_treebillboardrenderer.obj
 0002:00041f40       ??_ECTreeBillboardRenderer@@UAEPAXI@Z 170f8f40 f i c_treebillboardrenderer.obj
 0002:00041f90       ??3CTreeBillboardRenderer@@SAXPAX@Z 170f8f90 f i c_treebillboardrenderer.obj
 0002:00041fb0       ??1CTreeBillboardRenderer@@UAE@XZ 170f8fb0 f   c_treebillboardrenderer.obj
 0002:00041fe0       ?Setup@CTreeBillboardRenderer@@UAEXW4EMaterialPhase@@@Z 170f8fe0 f   c_treebillboardrenderer.obj
 0002:000420d0       ?Render@CTreeBillboardRenderer@@UAEXW4EMaterialPhase@@@Z 170f90d0 f   c_treebillboardrenderer.obj
 0002:00042260       ?Allocate@?$CPool@VCTreeBillboardRenderer@@@@QAEPAVCTreeBillboardRenderer@@XZ 170f9260 f i c_treebillboardrenderer.obj
 0002:000423f0       ?push_back@?$vector@PAVCTreeBillboardRenderer@@V?$K2VectorAllocator@PAVCTreeBillboardRenderer@@@@@std@@QAEXABQAVCTreeBillboardRenderer@@@Z 170f93f0 f i c_treebillboardrenderer.obj
 0002:000424a0       ?capacity@?$vector@PAVCTreeBillboardRenderer@@V?$K2VectorAllocator@PAVCTreeBillboardRenderer@@@@@std@@QBEIXZ 170f94a0 f i c_treebillboardrenderer.obj
 0002:000424f0       ?size@?$vector@PAVCTreeBillboardRenderer@@V?$K2VectorAllocator@PAVCTreeBillboardRenderer@@@@@std@@QBEIXZ 170f94f0 f i c_treebillboardrenderer.obj
 0002:00042540       ?insert@?$vector@PAVCTreeBillboardRenderer@@V?$K2VectorAllocator@PAVCTreeBillboardRenderer@@@@@std@@QAE?AV?$_Vector_iterator@PAVCTreeBillboardRenderer@@V?$K2VectorAllocator@PAVCTreeBillboardRenderer@@@@@2@V32@ABQAVCTreeBillboardRenderer@@@Z 170f9540 f i c_treebillboardrenderer.obj
 0002:000426b0       ?_Ufill@?$vector@PAVCTreeBillboardRenderer@@V?$K2VectorAllocator@PAVCTreeBillboardRenderer@@@@@std@@IAEPAPAVCTreeBillboardRenderer@@PAPAV3@IABQAV3@@Z 170f96b0 f i c_treebillboardrenderer.obj
 0002:00042700       ??0?$_Vector_iterator@PAVCTreeBillboardRenderer@@V?$K2VectorAllocator@PAVCTreeBillboardRenderer@@@@@std@@QAE@ABV01@@Z 170f9700 f i c_treebillboardrenderer.obj
 0002:00042730       ??0?$_Vector_const_iterator@PAVCTreeBillboardRenderer@@V?$K2VectorAllocator@PAVCTreeBillboardRenderer@@@@@std@@QAE@ABV01@@Z 170f9730 f i c_treebillboardrenderer.obj
 0002:00042770       ??0?$_Ranit@PAVCTreeBillboardRenderer@@HPBQAV1@ABQAV1@@std@@QAE@ABU01@@Z 170f9770 f i c_treebillboardrenderer.obj
 0002:000427a0       ?_Insert_n@?$vector@PAVCTreeBillboardRenderer@@V?$K2VectorAllocator@PAVCTreeBillboardRenderer@@@@@std@@IAEXV?$_Vector_iterator@PAVCTreeBillboardRenderer@@V?$K2VectorAllocator@PAVCTreeBillboardRenderer@@@@@2@IABQAVCTreeBillboardRenderer@@@Z 170f97a0 f i c_treebillboardrenderer.obj
 0002:00042c50       ?deallocate@?$K2VectorAllocator@PAVCTreeBillboardRenderer@@@@QAEXPAPAVCTreeBillboardRenderer@@I@Z 170f9c50 f i c_treebillboardrenderer.obj
 0002:00042c90       ??H?$_Vector_iterator@PAVCTreeBillboardRenderer@@V?$K2VectorAllocator@PAVCTreeBillboardRenderer@@@@@std@@QBE?AV01@H@Z 170f9c90 f i c_treebillboardrenderer.obj
 0002:00042d40       ??G?$_Vector_iterator@PAVCTreeBillboardRenderer@@V?$K2VectorAllocator@PAVCTreeBillboardRenderer@@@@@std@@QBEHABV?$_Vector_const_iterator@PAVCTreeBillboardRenderer@@V?$K2VectorAllocator@PAVCTreeBillboardRenderer@@@@@1@@Z 170f9d40 f i c_treebillboardrenderer.obj
 0002:00042d70       ?max_size@?$vector@PAVCTreeBillboardRenderer@@V?$K2VectorAllocator@PAVCTreeBillboardRenderer@@@@@std@@QBEIXZ 170f9d70 f i c_treebillboardrenderer.obj
 0002:00042da0       ?_Xlen@?$vector@PAVCTreeBillboardRenderer@@V?$K2VectorAllocator@PAVCTreeBillboardRenderer@@@@@std@@KAXXZ 170f9da0 f i c_treebillboardrenderer.obj
 0002:00042e50       ?allocate@?$K2VectorAllocator@PAVCTreeBillboardRenderer@@@@QAEPAPAVCTreeBillboardRenderer@@I@Z 170f9e50 f i c_treebillboardrenderer.obj
 0002:00042ea0       ??Y?$_Vector_iterator@PAVCTreeBillboardRenderer@@V?$K2VectorAllocator@PAVCTreeBillboardRenderer@@@@@std@@QAEAAV01@H@Z 170f9ea0 f i c_treebillboardrenderer.obj
 0002:00042ed0       ??G?$_Vector_const_iterator@PAVCTreeBillboardRenderer@@V?$K2VectorAllocator@PAVCTreeBillboardRenderer@@@@@std@@QBEHABV01@@Z 170f9ed0 f i c_treebillboardrenderer.obj
 0002:00042f10       ?max_size@?$allocator@PAVCTreeBillboardRenderer@@@std@@QBEIXZ 170f9f10 f i c_treebillboardrenderer.obj
 0002:00042f50       ??Y?$_Vector_const_iterator@PAVCTreeBillboardRenderer@@V?$K2VectorAllocator@PAVCTreeBillboardRenderer@@@@@std@@QAEAAV01@H@Z 170f9f50 f i c_treebillboardrenderer.obj
 0002:00043080       ??$unchecked_uninitialized_fill_n@PAPAVCTreeBillboardRenderer@@IPAV1@V?$K2VectorAllocator@PAVCTreeBillboardRenderer@@@@@stdext@@YAXPAPAVCTreeBillboardRenderer@@IABQAV1@AAV?$K2VectorAllocator@PAVCTreeBillboardRenderer@@@@@Z 170fa080 f i c_treebillboardrenderer.obj
 0002:000430e0       ??$_Umove@PAPAVCTreeBillboardRenderer@@@?$vector@PAVCTreeBillboardRenderer@@V?$K2VectorAllocator@PAVCTreeBillboardRenderer@@@@@std@@IAEPAPAVCTreeBillboardRenderer@@PAPAV2@00@Z 170fa0e0 f i c_treebillboardrenderer.obj
 0002:00043120       ??$fill@PAPAVCTreeBillboardRenderer@@PAV1@@std@@YAXPAPAVCTreeBillboardRenderer@@0ABQAV1@@Z 170fa120 f i c_treebillboardrenderer.obj
 0002:00043170       ??$_Unchecked_move_backward@PAPAVCTreeBillboardRenderer@@PAPAV1@@stdext@@YAPAPAVCTreeBillboardRenderer@@PAPAV1@00@Z 170fa170 f i c_treebillboardrenderer.obj
 0002:00043200       ??$_Uninit_fill_n@PAPAVCTreeBillboardRenderer@@IPAV1@V?$K2VectorAllocator@PAVCTreeBillboardRenderer@@@@@std@@YAXPAPAVCTreeBillboardRenderer@@IABQAV1@AAV?$K2VectorAllocator@PAVCTreeBillboardRenderer@@@@U_Scalar_ptr_iterator_tag@0@U_Range_checked_iterator_tag@0@@Z 170fa200 f i c_treebillboardrenderer.obj
 0002:00043230       ??$_Unchecked_uninitialized_move@PAPAVCTreeBillboardRenderer@@PAPAV1@V?$K2VectorAllocator@PAVCTreeBillboardRenderer@@@@@stdext@@YAPAPAVCTreeBillboardRenderer@@PAPAV1@00AAV?$K2VectorAllocator@PAVCTreeBillboardRenderer@@@@@Z 170fa230 f i c_treebillboardrenderer.obj
 0002:000432a0       ??$_Fill@PAPAVCTreeBillboardRenderer@@PAV1@@std@@YAXPAPAVCTreeBillboardRenderer@@0ABQAV1@@Z 170fa2a0 f i c_treebillboardrenderer.obj
 0002:00043300       ??$_Move_cat@PAPAVCTreeBillboardRenderer@@@std@@YA?AU_Undefined_move_tag@0@ABQAPAVCTreeBillboardRenderer@@@Z 170fa300 f i c_treebillboardrenderer.obj
 0002:00043320       ??$_Move_backward_opt@PAPAVCTreeBillboardRenderer@@PAPAV1@Urandom_access_iterator_tag@std@@U_Undefined_move_tag@3@@std@@YAPAPAVCTreeBillboardRenderer@@PAPAV1@00Urandom_access_iterator_tag@0@U_Undefined_move_tag@0@U_Range_checked_iterator_tag@0@@Z 170fa320 f i c_treebillboardrenderer.obj
 0002:00043380       ??$unchecked_fill_n@PAPAVCTreeBillboardRenderer@@IPAV1@@stdext@@YAXPAPAVCTreeBillboardRenderer@@IABQAV1@@Z 170fa380 f i c_treebillboardrenderer.obj
 0002:000433d0       ??$_Uninit_move@PAPAVCTreeBillboardRenderer@@PAPAV1@V?$K2VectorAllocator@PAVCTreeBillboardRenderer@@@@U_Undefined_move_tag@std@@@std@@YAPAPAVCTreeBillboardRenderer@@PAPAV1@00AAV?$K2VectorAllocator@PAVCTreeBillboardRenderer@@@@U_Undefined_move_tag@0@U_Range_checked_iterator_tag@0@@Z 170fa3d0 f i c_treebillboardrenderer.obj
 0002:00043410       ??$_Copy_backward_opt@PAPAVCTreeBillboardRenderer@@PAPAV1@Urandom_access_iterator_tag@std@@@std@@YAPAPAVCTreeBillboardRenderer@@PAPAV1@00Urandom_access_iterator_tag@0@U_Scalar_ptr_iterator_tag@0@U_Range_checked_iterator_tag@0@@Z 170fa410 f i c_treebillboardrenderer.obj
 0002:000434c0       ??$_Fill_n@PAPAVCTreeBillboardRenderer@@IPAV1@@std@@YAXPAPAVCTreeBillboardRenderer@@IABQAV1@Urandom_access_iterator_tag@0@U_Range_checked_iterator_tag@0@@Z 170fa4c0 f i c_treebillboardrenderer.obj
 0002:00043520       ??$unchecked_uninitialized_copy@PAPAVCTreeBillboardRenderer@@PAPAV1@V?$K2VectorAllocator@PAVCTreeBillboardRenderer@@@@@stdext@@YAPAPAVCTreeBillboardRenderer@@PAPAV1@00AAV?$K2VectorAllocator@PAVCTreeBillboardRenderer@@@@@Z 170fa520 f i c_treebillboardrenderer.obj
 0002:00043590       ??$_Fill_n@PAPAVCTreeBillboardRenderer@@IPAV1@@std@@YAXPAPAVCTreeBillboardRenderer@@IABQAV1@U_Range_checked_iterator_tag@0@@Z 170fa590 f i c_treebillboardrenderer.obj
 0002:000435e0       ??$_Uninit_copy@PAPAVCTreeBillboardRenderer@@PAPAV1@V?$K2VectorAllocator@PAVCTreeBillboardRenderer@@@@@std@@YAPAPAVCTreeBillboardRenderer@@PAPAV1@00AAV?$K2VectorAllocator@PAVCTreeBillboardRenderer@@@@U_Scalar_ptr_iterator_tag@0@U_Range_checked_iterator_tag@0@@Z 170fa5e0 f i c_treebillboardrenderer.obj
 0002:00043680       ??0?$CPool@VCTreeBillboardRenderer@@@@QAE@II@Z 170fa680 f i c_treebillboardrenderer.obj
 0002:00043740       ??0?$vector@PAVCTreeBillboardRenderer@@V?$K2VectorAllocator@PAVCTreeBillboardRenderer@@@@@@QAE@XZ 170fa740 f i c_treebillboardrenderer.obj
 0002:00043770       ??0?$vector@PAVCTreeBillboardRenderer@@V?$K2VectorAllocator@PAVCTreeBillboardRenderer@@@@@std@@QAE@XZ 170fa770 f i c_treebillboardrenderer.obj
 0002:00043800       ??1?$_Vector_val@PAVCTreeBillboardRenderer@@V?$K2VectorAllocator@PAVCTreeBillboardRenderer@@@@@std@@QAE@XZ 170fa800 f i c_treebillboardrenderer.obj
 0002:00043880       ??1?$K2VectorAllocator@PAVCTreeBillboardRenderer@@@@QAE@XZ 170fa880 f i c_treebillboardrenderer.obj
 0002:000438a0       ?_Buy@?$vector@PAVCTreeBillboardRenderer@@V?$K2VectorAllocator@PAVCTreeBillboardRenderer@@@@@std@@IAE_NI@Z 170fa8a0 f i c_treebillboardrenderer.obj
 0002:00043950       ??0?$_Vector_val@PAVCTreeBillboardRenderer@@V?$K2VectorAllocator@PAVCTreeBillboardRenderer@@@@@std@@IAE@V?$K2VectorAllocator@PAVCTreeBillboardRenderer@@@@@Z 170fa950 f i c_treebillboardrenderer.obj
 0002:000439f0       ??0?$K2VectorAllocator@PAVCTreeBillboardRenderer@@@@QAE@XZ 170fa9f0 f i c_treebillboardrenderer.obj
 0002:00043a20       ??0?$K2VectorAllocator@PAVCTreeBillboardRenderer@@@@QAE@ABV0@@Z 170faa20 f i c_treebillboardrenderer.obj
 0002:00043a50       ??0?$allocator@PAVCTreeBillboardRenderer@@@std@@QAE@XZ 170faa50 f i c_treebillboardrenderer.obj
 0002:00043a70       ??0?$allocator@PAVCTreeBillboardRenderer@@@std@@QAE@ABV01@@Z 170faa70 f i c_treebillboardrenderer.obj
 0002:00043a90       ??1?$CPool@VCTreeBillboardRenderer@@@@QAE@XZ 170faa90 f i c_treebillboardrenderer.obj
 0002:00043b40       ??1?$vector@PAVCTreeBillboardRenderer@@V?$K2VectorAllocator@PAVCTreeBillboardRenderer@@@@@@QAE@XZ 170fab40 f i c_treebillboardrenderer.obj
 0002:00043b70       ??1?$vector@PAVCTreeBillboardRenderer@@V?$K2VectorAllocator@PAVCTreeBillboardRenderer@@@@@std@@QAE@XZ 170fab70 f i c_treebillboardrenderer.obj
 0002:00043bf0       ?_Tidy@?$vector@PAVCTreeBillboardRenderer@@V?$K2VectorAllocator@PAVCTreeBillboardRenderer@@@@@std@@IAEXXZ 170fabf0 f i c_treebillboardrenderer.obj
 0002:00043c90       ??2CTreeBranchRenderer@@SAPAXIPBD00F@Z 170fac90 f   c_treebranchrenderer.obj
 0002:00043cb0       ??0CTreeBranchRenderer@@QAE@ABVCSceneEntity@@PBVCTreeModelDef@@ABU_D3DXMATRIXA16@@22@Z 170facb0 f   c_treebranchrenderer.obj
 0002:00043dd0       ??_GCTreeBranchRenderer@@UAEPAXI@Z 170fadd0 f i c_treebranchrenderer.obj
 0002:00043dd0       ??_ECTreeBranchRenderer@@UAEPAXI@Z 170fadd0 f i c_treebranchrenderer.obj
 0002:00043e20       ??3CTreeBranchRenderer@@SAXPAX@Z 170fae20 f i c_treebranchrenderer.obj
 0002:00043e40       ??1CTreeBranchRenderer@@UAE@XZ 170fae40 f   c_treebranchrenderer.obj
 0002:00043e70       ?Setup@CTreeBranchRenderer@@UAEXW4EMaterialPhase@@@Z 170fae70 f   c_treebranchrenderer.obj
 0002:00044530       ?HasBranchGeometry@CTreeModelDef@@QBE_NXZ 170fb530 f i c_treebranchrenderer.obj
 0002:00044570       ?HasBranchLOD@CTreeModelDef@@QBE_NH@Z 170fb570 f i c_treebranchrenderer.obj
 0002:00044650       ?GetBranchMaterial@CTreeModelDef@@QBEIXZ 170fb650 f i c_treebranchrenderer.obj
 0002:00044670       ?GetBranchGeometry@CTreeModelDef@@QBEABUSTreeGeometryBuffers@@H@Z 170fb670 f i c_treebranchrenderer.obj
 0002:00044720       ??1const_iterator@?$_Tree@V?$_Tmap_traits@HUSTreeGeometryBuffers@@U?$less@H@std@@V?$K2MapAllocator@U?$pair@$$CBHUSTreeGeometryBuffers@@@std@@@@$0A@@std@@@std@@QAE@XZ 170fb720 f i c_treebranchrenderer.obj
 0002:00044750       ??1?$_Bidit@U?$pair@$$CBHUSTreeGeometryBuffers@@@std@@HPBU12@ABU12@@std@@QAE@XZ 170fb750 f i c_treebranchrenderer.obj
 0002:00044780       ?Render@CTreeBranchRenderer@@UAEXW4EMaterialPhase@@@Z 170fb780 f   c_treebranchrenderer.obj
 0002:00044ab0       ??A?$vector@HV?$K2VectorAllocator@H@@@std@@QBEABHI@Z 170fbab0 f i c_treebranchrenderer.obj
 0002:00044bd0       ??A?$vector@IV?$K2VectorAllocator@I@@@std@@QBEABII@Z 170fbbd0 f i c_treebranchrenderer.obj
 0002:00044cf0       ?end@?$_Tree@V?$_Tmap_traits@HUSTreeGeometryBuffers@@U?$less@H@std@@V?$K2MapAllocator@U?$pair@$$CBHUSTreeGeometryBuffers@@@std@@@@$0A@@std@@@std@@QBE?AVconst_iterator@12@XZ 170fbcf0 f i c_treebranchrenderer.obj
 0002:00044d40       ?empty@?$_Tree@V?$_Tmap_traits@HUSTreeGeometryBuffers@@U?$less@H@std@@V?$K2MapAllocator@U?$pair@$$CBHUSTreeGeometryBuffers@@@std@@@@$0A@@std@@@std@@QBE_NXZ 170fbd40 f i c_treebranchrenderer.obj
 0002:00044d70       ?find@?$_Tree@V?$_Tmap_traits@HUSTreeGeometryBuffers@@U?$less@H@std@@V?$K2MapAllocator@U?$pair@$$CBHUSTreeGeometryBuffers@@@std@@@@$0A@@std@@@std@@QBE?AVconst_iterator@12@ABH@Z 170fbd70 f i c_treebranchrenderer.obj
 0002:00044f50       ??Cconst_iterator@?$_Tree@V?$_Tmap_traits@HUSTreeGeometryBuffers@@U?$less@H@std@@V?$K2MapAllocator@U?$pair@$$CBHUSTreeGeometryBuffers@@@std@@@@$0A@@std@@@std@@QBEPBU?$pair@$$CBHUSTreeGeometryBuffers@@@2@XZ 170fbf50 f i c_treebranchrenderer.obj
 0002:00044f80       ??9const_iterator@?$_Tree@V?$_Tmap_traits@HUSTreeGeometryBuffers@@U?$less@H@std@@V?$K2MapAllocator@U?$pair@$$CBHUSTreeGeometryBuffers@@@std@@@@$0A@@std@@@std@@QBE_NABV012@@Z 170fbf80 f i c_treebranchrenderer.obj
 0002:00044fc0       ??0const_iterator@?$_Tree@V?$_Tmap_traits@HUSTreeGeometryBuffers@@U?$less@H@std@@V?$K2MapAllocator@U?$pair@$$CBHUSTreeGeometryBuffers@@@std@@@@$0A@@std@@@std@@QAE@ABV012@@Z 170fbfc0 f i c_treebranchrenderer.obj
 0002:00045000       ??0?$_Bidit@U?$pair@$$CBHUSTreeGeometryBuffers@@@std@@HPBU12@ABU12@@std@@QAE@ABU01@@Z 170fc000 f i c_treebranchrenderer.obj
 0002:00045030       ?_Key@?$_Tree@V?$_Tmap_traits@HUSTreeGeometryBuffers@@U?$less@H@std@@V?$K2MapAllocator@U?$pair@$$CBHUSTreeGeometryBuffers@@@std@@@@$0A@@std@@@std@@KAABHPAU_Node@?$_Tree_nod@V?$_Tmap_traits@HUSTreeGeometryBuffers@@U?$less@H@std@@V?$K2MapAllocator@U?$pair@$$CBHUSTreeGeometryBuffers@@@std@@@@$0A@@std@@@2@@Z 170fc030 f i c_treebranchrenderer.obj
 0002:00045060       ?size@?$_Tree@V?$_Tmap_traits@HUSTreeGeometryBuffers@@U?$less@H@std@@V?$K2MapAllocator@U?$pair@$$CBHUSTreeGeometryBuffers@@@std@@@@$0A@@std@@@std@@QBEIXZ 170fc060 f i c_treebranchrenderer.obj
 0002:00045080       ?lower_bound@?$_Tree@V?$_Tmap_traits@HUSTreeGeometryBuffers@@U?$less@H@std@@V?$K2MapAllocator@U?$pair@$$CBHUSTreeGeometryBuffers@@@std@@@@$0A@@std@@@std@@QBE?AVconst_iterator@12@ABH@Z 170fc080 f i c_treebranchrenderer.obj
 0002:000450e0       ??0const_iterator@?$_Tree@V?$_Tmap_traits@HUSTreeGeometryBuffers@@U?$less@H@std@@V?$K2MapAllocator@U?$pair@$$CBHUSTreeGeometryBuffers@@@std@@@@$0A@@std@@@std@@QAE@PAU_Node@?$_Tree_nod@V?$_Tmap_traits@HUSTreeGeometryBuffers@@U?$less@H@std@@V?$K2MapAllocator@U?$pair@$$CBHUSTreeGeometryBuffers@@@std@@@@$0A@@std@@@2@PBV12@@Z 170fc0e0 f i c_treebranchrenderer.obj
 0002:00045170       ??Dconst_iterator@?$_Tree@V?$_Tmap_traits@HUSTreeGeometryBuffers@@U?$less@H@std@@V?$K2MapAllocator@U?$pair@$$CBHUSTreeGeometryBuffers@@@std@@@@$0A@@std@@@std@@QBEABU?$pair@$$CBHUSTreeGeometryBuffers@@@2@XZ 170fc170 f i c_treebranchrenderer.obj
 0002:00045230       ??8const_iterator@?$_Tree@V?$_Tmap_traits@HUSTreeGeometryBuffers@@U?$less@H@std@@V?$K2MapAllocator@U?$pair@$$CBHUSTreeGeometryBuffers@@@std@@@@$0A@@std@@@std@@QBE_NABV012@@Z 170fc230 f i c_treebranchrenderer.obj
 0002:000452f0       ?_Mynode@const_iterator@?$_Tree@V?$_Tmap_traits@HUSTreeGeometryBuffers@@U?$less@H@std@@V?$K2MapAllocator@U?$pair@$$CBHUSTreeGeometryBuffers@@@std@@@@$0A@@std@@@std@@QBEPAU_Node@?$_Tree_nod@V?$_Tmap_traits@HUSTreeGeometryBuffers@@U?$less@H@std@@V?$K2MapAllocator@U?$pair@$$CBHUSTreeGeometryBuffers@@@std@@@@$0A@@std@@@3@XZ 170fc2f0 f i c_treebranchrenderer.obj
 0002:00045310       ??0?$_Bidit@U?$pair@$$CBHUSTreeGeometryBuffers@@@std@@HPBU12@ABU12@@std@@QAE@XZ 170fc310 f i c_treebranchrenderer.obj
 0002:00045340       ?_Myval@?$_Tree@V?$_Tmap_traits@HUSTreeGeometryBuffers@@U?$less@H@std@@V?$K2MapAllocator@U?$pair@$$CBHUSTreeGeometryBuffers@@@std@@@@$0A@@std@@@std@@KAAAU?$pair@$$CBHUSTreeGeometryBuffers@@@2@PAU_Node@?$_Tree_nod@V?$_Tmap_traits@HUSTreeGeometryBuffers@@U?$less@H@std@@V?$K2MapAllocator@U?$pair@$$CBHUSTreeGeometryBuffers@@@std@@@@$0A@@std@@@2@@Z 170fc340 f i c_treebranchrenderer.obj
 0002:00045360       ?_Lbound@?$_Tree@V?$_Tmap_traits@HUSTreeGeometryBuffers@@U?$less@H@std@@V?$K2MapAllocator@U?$pair@$$CBHUSTreeGeometryBuffers@@@std@@@@$0A@@std@@@std@@IBEPAU_Node@?$_Tree_nod@V?$_Tmap_traits@HUSTreeGeometryBuffers@@U?$less@H@std@@V?$K2MapAllocator@U?$pair@$$CBHUSTreeGeometryBuffers@@@std@@@@$0A@@std@@@2@ABH@Z 170fc360 f i c_treebranchrenderer.obj
 0002:00045430       ?_Left@?$_Tree@V?$_Tmap_traits@HUSTreeGeometryBuffers@@U?$less@H@std@@V?$K2MapAllocator@U?$pair@$$CBHUSTreeGeometryBuffers@@@std@@@@$0A@@std@@@std@@KAAAPAU_Node@?$_Tree_nod@V?$_Tmap_traits@HUSTreeGeometryBuffers@@U?$less@H@std@@V?$K2MapAllocator@U?$pair@$$CBHUSTreeGeometryBuffers@@@std@@@@$0A@@std@@@2@PAU342@@Z 170fc430 f i c_treebranchrenderer.obj
 0002:00045450       ?_Right@?$_Tree@V?$_Tmap_traits@HUSTreeGeometryBuffers@@U?$less@H@std@@V?$K2MapAllocator@U?$pair@$$CBHUSTreeGeometryBuffers@@@std@@@@$0A@@std@@@std@@KAAAPAU_Node@?$_Tree_nod@V?$_Tmap_traits@HUSTreeGeometryBuffers@@U?$less@H@std@@V?$K2MapAllocator@U?$pair@$$CBHUSTreeGeometryBuffers@@@std@@@@$0A@@std@@@2@PAU342@@Z 170fc450 f i c_treebranchrenderer.obj
 0002:00045470       ?_Kfn@?$_Tmap_traits@HUSTreeGeometryBuffers@@U?$less@H@std@@V?$K2MapAllocator@U?$pair@$$CBHUSTreeGeometryBuffers@@@std@@@@$0A@@std@@SAABHABU?$pair@$$CBHUSTreeGeometryBuffers@@@2@@Z 170fc470 f i c_treebranchrenderer.obj
 0002:00045490       ?_Isnil@?$_Tree@V?$_Tmap_traits@HUSTreeGeometryBuffers@@U?$less@H@std@@V?$K2MapAllocator@U?$pair@$$CBHUSTreeGeometryBuffers@@@std@@@@$0A@@std@@@std@@KAAADPAU_Node@?$_Tree_nod@V?$_Tmap_traits@HUSTreeGeometryBuffers@@U?$less@H@std@@V?$K2MapAllocator@U?$pair@$$CBHUSTreeGeometryBuffers@@@std@@@@$0A@@std@@@2@@Z 170fc490 f i c_treebranchrenderer.obj
 0002:000454b0       ?_Root@?$_Tree@V?$_Tmap_traits@HUSTreeGeometryBuffers@@U?$less@H@std@@V?$K2MapAllocator@U?$pair@$$CBHUSTreeGeometryBuffers@@@std@@@@$0A@@std@@@std@@IBEAAPAU_Node@?$_Tree_nod@V?$_Tmap_traits@HUSTreeGeometryBuffers@@U?$less@H@std@@V?$K2MapAllocator@U?$pair@$$CBHUSTreeGeometryBuffers@@@std@@@@$0A@@std@@@2@XZ 170fc4b0 f i c_treebranchrenderer.obj
 0002:000454e0       ?_Parent@?$_Tree@V?$_Tmap_traits@HUSTreeGeometryBuffers@@U?$less@H@std@@V?$K2MapAllocator@U?$pair@$$CBHUSTreeGeometryBuffers@@@std@@@@$0A@@std@@@std@@KAAAPAU_Node@?$_Tree_nod@V?$_Tmap_traits@HUSTreeGeometryBuffers@@U?$less@H@std@@V?$K2MapAllocator@U?$pair@$$CBHUSTreeGeometryBuffers@@@std@@@@$0A@@std@@@2@PAU342@@Z 170fc4e0 f i c_treebranchrenderer.obj
 0002:00045500       ?Allocate@?$CPool@VCTreeBranchRenderer@@@@QAEPAVCTreeBranchRenderer@@XZ 170fc500 f i c_treebranchrenderer.obj
 0002:00045690       ??$_Debug_lt_pred@U?$less@H@std@@HH@std@@YA_NU?$less@H@0@ABH1PB_WI@Z 170fc690 f i c_treebranchrenderer.obj
 0002:00045710       ??R?$less@H@std@@QBE_NABH0@Z 170fc710 f i c_treebranchrenderer.obj
 0002:00045740       ?push_back@?$vector@PAVCTreeBranchRenderer@@V?$K2VectorAllocator@PAVCTreeBranchRenderer@@@@@std@@QAEXABQAVCTreeBranchRenderer@@@Z 170fc740 f i c_treebranchrenderer.obj
 0002:000457f0       ?capacity@?$vector@PAVCTreeBranchRenderer@@V?$K2VectorAllocator@PAVCTreeBranchRenderer@@@@@std@@QBEIXZ 170fc7f0 f i c_treebranchrenderer.obj
 0002:00045840       ?size@?$vector@PAVCTreeBranchRenderer@@V?$K2VectorAllocator@PAVCTreeBranchRenderer@@@@@std@@QBEIXZ 170fc840 f i c_treebranchrenderer.obj
 0002:00045890       ?insert@?$vector@PAVCTreeBranchRenderer@@V?$K2VectorAllocator@PAVCTreeBranchRenderer@@@@@std@@QAE?AV?$_Vector_iterator@PAVCTreeBranchRenderer@@V?$K2VectorAllocator@PAVCTreeBranchRenderer@@@@@2@V32@ABQAVCTreeBranchRenderer@@@Z 170fc890 f i c_treebranchrenderer.obj
 0002:00045a00       ?_Ufill@?$vector@PAVCTreeBranchRenderer@@V?$K2VectorAllocator@PAVCTreeBranchRenderer@@@@@std@@IAEPAPAVCTreeBranchRenderer@@PAPAV3@IABQAV3@@Z 170fca00 f i c_treebranchrenderer.obj
 0002:00045a50       ??0?$_Vector_iterator@PAVCTreeBranchRenderer@@V?$K2VectorAllocator@PAVCTreeBranchRenderer@@@@@std@@QAE@ABV01@@Z 170fca50 f i c_treebranchrenderer.obj
 0002:00045a80       ??0?$_Vector_const_iterator@PAVCTreeBranchRenderer@@V?$K2VectorAllocator@PAVCTreeBranchRenderer@@@@@std@@QAE@ABV01@@Z 170fca80 f i c_treebranchrenderer.obj
 0002:00045ac0       ??0?$_Ranit@PAVCTreeBranchRenderer@@HPBQAV1@ABQAV1@@std@@QAE@ABU01@@Z 170fcac0 f i c_treebranchrenderer.obj
 0002:00045af0       ?_Insert_n@?$vector@PAVCTreeBranchRenderer@@V?$K2VectorAllocator@PAVCTreeBranchRenderer@@@@@std@@IAEXV?$_Vector_iterator@PAVCTreeBranchRenderer@@V?$K2VectorAllocator@PAVCTreeBranchRenderer@@@@@2@IABQAVCTreeBranchRenderer@@@Z 170fcaf0 f i c_treebranchrenderer.obj
 0002:00045fa0       ?deallocate@?$K2VectorAllocator@PAVCTreeBranchRenderer@@@@QAEXPAPAVCTreeBranchRenderer@@I@Z 170fcfa0 f i c_treebranchrenderer.obj
 0002:00045fe0       ??H?$_Vector_iterator@PAVCTreeBranchRenderer@@V?$K2VectorAllocator@PAVCTreeBranchRenderer@@@@@std@@QBE?AV01@H@Z 170fcfe0 f i c_treebranchrenderer.obj
 0002:00046090       ??G?$_Vector_iterator@PAVCTreeBranchRenderer@@V?$K2VectorAllocator@PAVCTreeBranchRenderer@@@@@std@@QBEHABV?$_Vector_const_iterator@PAVCTreeBranchRenderer@@V?$K2VectorAllocator@PAVCTreeBranchRenderer@@@@@1@@Z 170fd090 f i c_treebranchrenderer.obj
 0002:000460c0       ?max_size@?$vector@PAVCTreeBranchRenderer@@V?$K2VectorAllocator@PAVCTreeBranchRenderer@@@@@std@@QBEIXZ 170fd0c0 f i c_treebranchrenderer.obj
 0002:000460f0       ?_Xlen@?$vector@PAVCTreeBranchRenderer@@V?$K2VectorAllocator@PAVCTreeBranchRenderer@@@@@std@@KAXXZ 170fd0f0 f i c_treebranchrenderer.obj
 0002:000461a0       ?allocate@?$K2VectorAllocator@PAVCTreeBranchRenderer@@@@QAEPAPAVCTreeBranchRenderer@@I@Z 170fd1a0 f i c_treebranchrenderer.obj
 0002:000461f0       ??Y?$_Vector_iterator@PAVCTreeBranchRenderer@@V?$K2VectorAllocator@PAVCTreeBranchRenderer@@@@@std@@QAEAAV01@H@Z 170fd1f0 f i c_treebranchrenderer.obj
 0002:00046220       ??G?$_Vector_const_iterator@PAVCTreeBranchRenderer@@V?$K2VectorAllocator@PAVCTreeBranchRenderer@@@@@std@@QBEHABV01@@Z 170fd220 f i c_treebranchrenderer.obj
 0002:00046260       ?max_size@?$allocator@PAVCTreeBranchRenderer@@@std@@QBEIXZ 170fd260 f i c_treebranchrenderer.obj
 0002:000462a0       ??Y?$_Vector_const_iterator@PAVCTreeBranchRenderer@@V?$K2VectorAllocator@PAVCTreeBranchRenderer@@@@@std@@QAEAAV01@H@Z 170fd2a0 f i c_treebranchrenderer.obj
 0002:000463d0       ??$unchecked_uninitialized_fill_n@PAPAVCTreeBranchRenderer@@IPAV1@V?$K2VectorAllocator@PAVCTreeBranchRenderer@@@@@stdext@@YAXPAPAVCTreeBranchRenderer@@IABQAV1@AAV?$K2VectorAllocator@PAVCTreeBranchRenderer@@@@@Z 170fd3d0 f i c_treebranchrenderer.obj
 0002:00046430       ??$_Umove@PAPAVCTreeBranchRenderer@@@?$vector@PAVCTreeBranchRenderer@@V?$K2VectorAllocator@PAVCTreeBranchRenderer@@@@@std@@IAEPAPAVCTreeBranchRenderer@@PAPAV2@00@Z 170fd430 f i c_treebranchrenderer.obj
 0002:00046470       ??$fill@PAPAVCTreeBranchRenderer@@PAV1@@std@@YAXPAPAVCTreeBranchRenderer@@0ABQAV1@@Z 170fd470 f i c_treebranchrenderer.obj
 0002:000464c0       ??$_Unchecked_move_backward@PAPAVCTreeBranchRenderer@@PAPAV1@@stdext@@YAPAPAVCTreeBranchRenderer@@PAPAV1@00@Z 170fd4c0 f i c_treebranchrenderer.obj
 0002:00046550       ??$_Uninit_fill_n@PAPAVCTreeBranchRenderer@@IPAV1@V?$K2VectorAllocator@PAVCTreeBranchRenderer@@@@@std@@YAXPAPAVCTreeBranchRenderer@@IABQAV1@AAV?$K2VectorAllocator@PAVCTreeBranchRenderer@@@@U_Scalar_ptr_iterator_tag@0@U_Range_checked_iterator_tag@0@@Z 170fd550 f i c_treebranchrenderer.obj
 0002:00046580       ??$_Unchecked_uninitialized_move@PAPAVCTreeBranchRenderer@@PAPAV1@V?$K2VectorAllocator@PAVCTreeBranchRenderer@@@@@stdext@@YAPAPAVCTreeBranchRenderer@@PAPAV1@00AAV?$K2VectorAllocator@PAVCTreeBranchRenderer@@@@@Z 170fd580 f i c_treebranchrenderer.obj
 0002:000465f0       ??$_Fill@PAPAVCTreeBranchRenderer@@PAV1@@std@@YAXPAPAVCTreeBranchRenderer@@0ABQAV1@@Z 170fd5f0 f i c_treebranchrenderer.obj
 0002:00046650       ??$_Move_cat@PAPAVCTreeBranchRenderer@@@std@@YA?AU_Undefined_move_tag@0@ABQAPAVCTreeBranchRenderer@@@Z 170fd650 f i c_treebranchrenderer.obj
 0002:00046670       ??$_Move_backward_opt@PAPAVCTreeBranchRenderer@@PAPAV1@Urandom_access_iterator_tag@std@@U_Undefined_move_tag@3@@std@@YAPAPAVCTreeBranchRenderer@@PAPAV1@00Urandom_access_iterator_tag@0@U_Undefined_move_tag@0@U_Range_checked_iterator_tag@0@@Z 170fd670 f i c_treebranchrenderer.obj
 0002:000466d0       ??$unchecked_fill_n@PAPAVCTreeBranchRenderer@@IPAV1@@stdext@@YAXPAPAVCTreeBranchRenderer@@IABQAV1@@Z 170fd6d0 f i c_treebranchrenderer.obj
 0002:00046720       ??$_Uninit_move@PAPAVCTreeBranchRenderer@@PAPAV1@V?$K2VectorAllocator@PAVCTreeBranchRenderer@@@@U_Undefined_move_tag@std@@@std@@YAPAPAVCTreeBranchRenderer@@PAPAV1@00AAV?$K2VectorAllocator@PAVCTreeBranchRenderer@@@@U_Undefined_move_tag@0@U_Range_checked_iterator_tag@0@@Z 170fd720 f i c_treebranchrenderer.obj
 0002:00046760       ??$_Copy_backward_opt@PAPAVCTreeBranchRenderer@@PAPAV1@Urandom_access_iterator_tag@std@@@std@@YAPAPAVCTreeBranchRenderer@@PAPAV1@00Urandom_access_iterator_tag@0@U_Scalar_ptr_iterator_tag@0@U_Range_checked_iterator_tag@0@@Z 170fd760 f i c_treebranchrenderer.obj
 0002:00046810       ??$_Fill_n@PAPAVCTreeBranchRenderer@@IPAV1@@std@@YAXPAPAVCTreeBranchRenderer@@IABQAV1@Urandom_access_iterator_tag@0@U_Range_checked_iterator_tag@0@@Z 170fd810 f i c_treebranchrenderer.obj
 0002:00046870       ??$unchecked_uninitialized_copy@PAPAVCTreeBranchRenderer@@PAPAV1@V?$K2VectorAllocator@PAVCTreeBranchRenderer@@@@@stdext@@YAPAPAVCTreeBranchRenderer@@PAPAV1@00AAV?$K2VectorAllocator@PAVCTreeBranchRenderer@@@@@Z 170fd870 f i c_treebranchrenderer.obj
 0002:000468e0       ??$_Fill_n@PAPAVCTreeBranchRenderer@@IPAV1@@std@@YAXPAPAVCTreeBranchRenderer@@IABQAV1@U_Range_checked_iterator_tag@0@@Z 170fd8e0 f i c_treebranchrenderer.obj
 0002:00046930       ??$_Uninit_copy@PAPAVCTreeBranchRenderer@@PAPAV1@V?$K2VectorAllocator@PAVCTreeBranchRenderer@@@@@std@@YAPAPAVCTreeBranchRenderer@@PAPAV1@00AAV?$K2VectorAllocator@PAVCTreeBranchRenderer@@@@U_Scalar_ptr_iterator_tag@0@U_Range_checked_iterator_tag@0@@Z 170fd930 f i c_treebranchrenderer.obj
 0002:000469d0       ??0SLODData@@QAE@XZ        170fd9d0 f i c_treebranchrenderer.obj
 0002:000469f0       ?size@?$vector@IV?$K2VectorAllocator@I@@@std@@QBEIXZ 170fd9f0 f i c_treebranchrenderer.obj
 0002:00046a40       ??0?$CPool@VCTreeBranchRenderer@@@@QAE@II@Z 170fda40 f i c_treebranchrenderer.obj
 0002:00046b00       ??0?$vector@PAVCTreeBranchRenderer@@V?$K2VectorAllocator@PAVCTreeBranchRenderer@@@@@@QAE@XZ 170fdb00 f i c_treebranchrenderer.obj
 0002:00046b30       ??0?$vector@PAVCTreeBranchRenderer@@V?$K2VectorAllocator@PAVCTreeBranchRenderer@@@@@std@@QAE@XZ 170fdb30 f i c_treebranchrenderer.obj
 0002:00046bc0       ??1?$_Vector_val@PAVCTreeBranchRenderer@@V?$K2VectorAllocator@PAVCTreeBranchRenderer@@@@@std@@QAE@XZ 170fdbc0 f i c_treebranchrenderer.obj
 0002:00046c40       ??1?$K2VectorAllocator@PAVCTreeBranchRenderer@@@@QAE@XZ 170fdc40 f i c_treebranchrenderer.obj
 0002:00046c60       ?_Buy@?$vector@PAVCTreeBranchRenderer@@V?$K2VectorAllocator@PAVCTreeBranchRenderer@@@@@std@@IAE_NI@Z 170fdc60 f i c_treebranchrenderer.obj
 0002:00046d10       ??0?$_Vector_val@PAVCTreeBranchRenderer@@V?$K2VectorAllocator@PAVCTreeBranchRenderer@@@@@std@@IAE@V?$K2VectorAllocator@PAVCTreeBranchRenderer@@@@@Z 170fdd10 f i c_treebranchrenderer.obj
 0002:00046db0       ??0?$K2VectorAllocator@PAVCTreeBranchRenderer@@@@QAE@XZ 170fddb0 f i c_treebranchrenderer.obj
 0002:00046de0       ??0?$K2VectorAllocator@PAVCTreeBranchRenderer@@@@QAE@ABV0@@Z 170fdde0 f i c_treebranchrenderer.obj
 0002:00046e10       ??0?$allocator@PAVCTreeBranchRenderer@@@std@@QAE@XZ 170fde10 f i c_treebranchrenderer.obj
 0002:00046e30       ??0?$allocator@PAVCTreeBranchRenderer@@@std@@QAE@ABV01@@Z 170fde30 f i c_treebranchrenderer.obj
 0002:00046e50       ??1?$CPool@VCTreeBranchRenderer@@@@QAE@XZ 170fde50 f i c_treebranchrenderer.obj
 0002:00046f00       ??1?$vector@PAVCTreeBranchRenderer@@V?$K2VectorAllocator@PAVCTreeBranchRenderer@@@@@@QAE@XZ 170fdf00 f i c_treebranchrenderer.obj
 0002:00046f30       ??1?$vector@PAVCTreeBranchRenderer@@V?$K2VectorAllocator@PAVCTreeBranchRenderer@@@@@std@@QAE@XZ 170fdf30 f i c_treebranchrenderer.obj
 0002:00046fb0       ?_Tidy@?$vector@PAVCTreeBranchRenderer@@V?$K2VectorAllocator@PAVCTreeBranchRenderer@@@@@std@@IAEXXZ 170fdfb0 f i c_treebranchrenderer.obj
 0002:00047050       ??2CTreeFrondRenderer@@SAPAXIPBD00F@Z 170fe050 f   c_treefrondrenderer.obj
 0002:00047070       ??0CTreeFrondRenderer@@QAE@ABVCSceneEntity@@PBVCTreeModelDef@@ABU_D3DXMATRIXA16@@22@Z 170fe070 f   c_treefrondrenderer.obj
 0002:00047190       ??_GCTreeFrondRenderer@@UAEPAXI@Z 170fe190 f i c_treefrondrenderer.obj
 0002:00047190       ??_ECTreeFrondRenderer@@UAEPAXI@Z 170fe190 f i c_treefrondrenderer.obj
 0002:000471e0       ??3CTreeFrondRenderer@@SAXPAX@Z 170fe1e0 f i c_treefrondrenderer.obj
 0002:00047200       ??1CTreeFrondRenderer@@UAE@XZ 170fe200 f   c_treefrondrenderer.obj
 0002:00047230       ?Setup@CTreeFrondRenderer@@UAEXW4EMaterialPhase@@@Z 170fe230 f   c_treefrondrenderer.obj
 0002:000478c0       ?HasFrondGeometry@CTreeModelDef@@QBE_NXZ 170fe8c0 f i c_treefrondrenderer.obj
 0002:00047900       ?HasFrondLOD@CTreeModelDef@@QBE_NH@Z 170fe900 f i c_treefrondrenderer.obj
 0002:000479e0       ?GetFrondMaterial@CTreeModelDef@@QBEIXZ 170fe9e0 f i c_treefrondrenderer.obj
 0002:00047a10       ?GetFrondGeometry@CTreeModelDef@@QBEABUSTreeGeometryBuffers@@H@Z 170fea10 f i c_treefrondrenderer.obj
 0002:00047ac0       ?Render@CTreeFrondRenderer@@UAEXW4EMaterialPhase@@@Z 170feac0 f   c_treefrondrenderer.obj
 0002:00047e20       ?Allocate@?$CPool@VCTreeFrondRenderer@@@@QAEPAVCTreeFrondRenderer@@XZ 170fee20 f i c_treefrondrenderer.obj
 0002:00047fb0       ?push_back@?$vector@PAVCTreeFrondRenderer@@V?$K2VectorAllocator@PAVCTreeFrondRenderer@@@@@std@@QAEXABQAVCTreeFrondRenderer@@@Z 170fefb0 f i c_treefrondrenderer.obj
 0002:00048060       ?capacity@?$vector@PAVCTreeFrondRenderer@@V?$K2VectorAllocator@PAVCTreeFrondRenderer@@@@@std@@QBEIXZ 170ff060 f i c_treefrondrenderer.obj
 0002:000480b0       ?size@?$vector@PAVCTreeFrondRenderer@@V?$K2VectorAllocator@PAVCTreeFrondRenderer@@@@@std@@QBEIXZ 170ff0b0 f i c_treefrondrenderer.obj
 0002:00048100       ?insert@?$vector@PAVCTreeFrondRenderer@@V?$K2VectorAllocator@PAVCTreeFrondRenderer@@@@@std@@QAE?AV?$_Vector_iterator@PAVCTreeFrondRenderer@@V?$K2VectorAllocator@PAVCTreeFrondRenderer@@@@@2@V32@ABQAVCTreeFrondRenderer@@@Z 170ff100 f i c_treefrondrenderer.obj
 0002:00048270       ?_Ufill@?$vector@PAVCTreeFrondRenderer@@V?$K2VectorAllocator@PAVCTreeFrondRenderer@@@@@std@@IAEPAPAVCTreeFrondRenderer@@PAPAV3@IABQAV3@@Z 170ff270 f i c_treefrondrenderer.obj
 0002:000482c0       ??0?$_Vector_iterator@PAVCTreeFrondRenderer@@V?$K2VectorAllocator@PAVCTreeFrondRenderer@@@@@std@@QAE@ABV01@@Z 170ff2c0 f i c_treefrondrenderer.obj
 0002:000482f0       ??0?$_Vector_const_iterator@PAVCTreeFrondRenderer@@V?$K2VectorAllocator@PAVCTreeFrondRenderer@@@@@std@@QAE@ABV01@@Z 170ff2f0 f i c_treefrondrenderer.obj
 0002:00048330       ??0?$_Ranit@PAVCTreeFrondRenderer@@HPBQAV1@ABQAV1@@std@@QAE@ABU01@@Z 170ff330 f i c_treefrondrenderer.obj
 0002:00048360       ?_Insert_n@?$vector@PAVCTreeFrondRenderer@@V?$K2VectorAllocator@PAVCTreeFrondRenderer@@@@@std@@IAEXV?$_Vector_iterator@PAVCTreeFrondRenderer@@V?$K2VectorAllocator@PAVCTreeFrondRenderer@@@@@2@IABQAVCTreeFrondRenderer@@@Z 170ff360 f i c_treefrondrenderer.obj
 0002:00048810       ?deallocate@?$K2VectorAllocator@PAVCTreeFrondRenderer@@@@QAEXPAPAVCTreeFrondRenderer@@I@Z 170ff810 f i c_treefrondrenderer.obj
 0002:00048850       ??H?$_Vector_iterator@PAVCTreeFrondRenderer@@V?$K2VectorAllocator@PAVCTreeFrondRenderer@@@@@std@@QBE?AV01@H@Z 170ff850 f i c_treefrondrenderer.obj
 0002:00048900       ??G?$_Vector_iterator@PAVCTreeFrondRenderer@@V?$K2VectorAllocator@PAVCTreeFrondRenderer@@@@@std@@QBEHABV?$_Vector_const_iterator@PAVCTreeFrondRenderer@@V?$K2VectorAllocator@PAVCTreeFrondRenderer@@@@@1@@Z 170ff900 f i c_treefrondrenderer.obj
 0002:00048930       ?max_size@?$vector@PAVCTreeFrondRenderer@@V?$K2VectorAllocator@PAVCTreeFrondRenderer@@@@@std@@QBEIXZ 170ff930 f i c_treefrondrenderer.obj
 0002:00048960       ?_Xlen@?$vector@PAVCTreeFrondRenderer@@V?$K2VectorAllocator@PAVCTreeFrondRenderer@@@@@std@@KAXXZ 170ff960 f i c_treefrondrenderer.obj
 0002:00048a10       ?allocate@?$K2VectorAllocator@PAVCTreeFrondRenderer@@@@QAEPAPAVCTreeFrondRenderer@@I@Z 170ffa10 f i c_treefrondrenderer.obj
 0002:00048a60       ??Y?$_Vector_iterator@PAVCTreeFrondRenderer@@V?$K2VectorAllocator@PAVCTreeFrondRenderer@@@@@std@@QAEAAV01@H@Z 170ffa60 f i c_treefrondrenderer.obj
 0002:00048a90       ??G?$_Vector_const_iterator@PAVCTreeFrondRenderer@@V?$K2VectorAllocator@PAVCTreeFrondRenderer@@@@@std@@QBEHABV01@@Z 170ffa90 f i c_treefrondrenderer.obj
 0002:00048ad0       ?max_size@?$allocator@PAVCTreeFrondRenderer@@@std@@QBEIXZ 170ffad0 f i c_treefrondrenderer.obj
 0002:00048b10       ??Y?$_Vector_const_iterator@PAVCTreeFrondRenderer@@V?$K2VectorAllocator@PAVCTreeFrondRenderer@@@@@std@@QAEAAV01@H@Z 170ffb10 f i c_treefrondrenderer.obj
 0002:00048c40       ??$unchecked_uninitialized_fill_n@PAPAVCTreeFrondRenderer@@IPAV1@V?$K2VectorAllocator@PAVCTreeFrondRenderer@@@@@stdext@@YAXPAPAVCTreeFrondRenderer@@IABQAV1@AAV?$K2VectorAllocator@PAVCTreeFrondRenderer@@@@@Z 170ffc40 f i c_treefrondrenderer.obj
 0002:00048ca0       ??$_Umove@PAPAVCTreeFrondRenderer@@@?$vector@PAVCTreeFrondRenderer@@V?$K2VectorAllocator@PAVCTreeFrondRenderer@@@@@std@@IAEPAPAVCTreeFrondRenderer@@PAPAV2@00@Z 170ffca0 f i c_treefrondrenderer.obj
 0002:00048ce0       ??$fill@PAPAVCTreeFrondRenderer@@PAV1@@std@@YAXPAPAVCTreeFrondRenderer@@0ABQAV1@@Z 170ffce0 f i c_treefrondrenderer.obj
 0002:00048d30       ??$_Unchecked_move_backward@PAPAVCTreeFrondRenderer@@PAPAV1@@stdext@@YAPAPAVCTreeFrondRenderer@@PAPAV1@00@Z 170ffd30 f i c_treefrondrenderer.obj
 0002:00048dc0       ??$_Uninit_fill_n@PAPAVCTreeFrondRenderer@@IPAV1@V?$K2VectorAllocator@PAVCTreeFrondRenderer@@@@@std@@YAXPAPAVCTreeFrondRenderer@@IABQAV1@AAV?$K2VectorAllocator@PAVCTreeFrondRenderer@@@@U_Scalar_ptr_iterator_tag@0@U_Range_checked_iterator_tag@0@@Z 170ffdc0 f i c_treefrondrenderer.obj
 0002:00048df0       ??$_Unchecked_uninitialized_move@PAPAVCTreeFrondRenderer@@PAPAV1@V?$K2VectorAllocator@PAVCTreeFrondRenderer@@@@@stdext@@YAPAPAVCTreeFrondRenderer@@PAPAV1@00AAV?$K2VectorAllocator@PAVCTreeFrondRenderer@@@@@Z 170ffdf0 f i c_treefrondrenderer.obj
 0002:00048e60       ??$_Fill@PAPAVCTreeFrondRenderer@@PAV1@@std@@YAXPAPAVCTreeFrondRenderer@@0ABQAV1@@Z 170ffe60 f i c_treefrondrenderer.obj
 0002:00048ec0       ??$_Move_cat@PAPAVCTreeFrondRenderer@@@std@@YA?AU_Undefined_move_tag@0@ABQAPAVCTreeFrondRenderer@@@Z 170ffec0 f i c_treefrondrenderer.obj
 0002:00048ee0       ??$_Move_backward_opt@PAPAVCTreeFrondRenderer@@PAPAV1@Urandom_access_iterator_tag@std@@U_Undefined_move_tag@3@@std@@YAPAPAVCTreeFrondRenderer@@PAPAV1@00Urandom_access_iterator_tag@0@U_Undefined_move_tag@0@U_Range_checked_iterator_tag@0@@Z 170ffee0 f i c_treefrondrenderer.obj
 0002:00048f40       ??$unchecked_fill_n@PAPAVCTreeFrondRenderer@@IPAV1@@stdext@@YAXPAPAVCTreeFrondRenderer@@IABQAV1@@Z 170fff40 f i c_treefrondrenderer.obj
 0002:00048f90       ??$_Uninit_move@PAPAVCTreeFrondRenderer@@PAPAV1@V?$K2VectorAllocator@PAVCTreeFrondRenderer@@@@U_Undefined_move_tag@std@@@std@@YAPAPAVCTreeFrondRenderer@@PAPAV1@00AAV?$K2VectorAllocator@PAVCTreeFrondRenderer@@@@U_Undefined_move_tag@0@U_Range_checked_iterator_tag@0@@Z 170fff90 f i c_treefrondrenderer.obj
 0002:00048fd0       ??$_Copy_backward_opt@PAPAVCTreeFrondRenderer@@PAPAV1@Urandom_access_iterator_tag@std@@@std@@YAPAPAVCTreeFrondRenderer@@PAPAV1@00Urandom_access_iterator_tag@0@U_Scalar_ptr_iterator_tag@0@U_Range_checked_iterator_tag@0@@Z 170fffd0 f i c_treefrondrenderer.obj
 0002:00049080       ??$_Fill_n@PAPAVCTreeFrondRenderer@@IPAV1@@std@@YAXPAPAVCTreeFrondRenderer@@IABQAV1@Urandom_access_iterator_tag@0@U_Range_checked_iterator_tag@0@@Z 17100080 f i c_treefrondrenderer.obj
 0002:000490e0       ??$unchecked_uninitialized_copy@PAPAVCTreeFrondRenderer@@PAPAV1@V?$K2VectorAllocator@PAVCTreeFrondRenderer@@@@@stdext@@YAPAPAVCTreeFrondRenderer@@PAPAV1@00AAV?$K2VectorAllocator@PAVCTreeFrondRenderer@@@@@Z 171000e0 f i c_treefrondrenderer.obj
 0002:00049150       ??$_Fill_n@PAPAVCTreeFrondRenderer@@IPAV1@@std@@YAXPAPAVCTreeFrondRenderer@@IABQAV1@U_Range_checked_iterator_tag@0@@Z 17100150 f i c_treefrondrenderer.obj
 0002:000491a0       ??$_Uninit_copy@PAPAVCTreeFrondRenderer@@PAPAV1@V?$K2VectorAllocator@PAVCTreeFrondRenderer@@@@@std@@YAPAPAVCTreeFrondRenderer@@PAPAV1@00AAV?$K2VectorAllocator@PAVCTreeFrondRenderer@@@@U_Scalar_ptr_iterator_tag@0@U_Range_checked_iterator_tag@0@@Z 171001a0 f i c_treefrondrenderer.obj
 0002:00049240       ??0?$CPool@VCTreeFrondRenderer@@@@QAE@II@Z 17100240 f i c_treefrondrenderer.obj
 0002:00049300       ??0?$vector@PAVCTreeFrondRenderer@@V?$K2VectorAllocator@PAVCTreeFrondRenderer@@@@@@QAE@XZ 17100300 f i c_treefrondrenderer.obj
 0002:00049330       ??0?$vector@PAVCTreeFrondRenderer@@V?$K2VectorAllocator@PAVCTreeFrondRenderer@@@@@std@@QAE@XZ 17100330 f i c_treefrondrenderer.obj
 0002:000493c0       ??1?$_Vector_val@PAVCTreeFrondRenderer@@V?$K2VectorAllocator@PAVCTreeFrondRenderer@@@@@std@@QAE@XZ 171003c0 f i c_treefrondrenderer.obj
 0002:00049440       ??1?$K2VectorAllocator@PAVCTreeFrondRenderer@@@@QAE@XZ 17100440 f i c_treefrondrenderer.obj
 0002:00049460       ?_Buy@?$vector@PAVCTreeFrondRenderer@@V?$K2VectorAllocator@PAVCTreeFrondRenderer@@@@@std@@IAE_NI@Z 17100460 f i c_treefrondrenderer.obj
 0002:00049510       ??0?$_Vector_val@PAVCTreeFrondRenderer@@V?$K2VectorAllocator@PAVCTreeFrondRenderer@@@@@std@@IAE@V?$K2VectorAllocator@PAVCTreeFrondRenderer@@@@@Z 17100510 f i c_treefrondrenderer.obj
 0002:000495b0       ??0?$K2VectorAllocator@PAVCTreeFrondRenderer@@@@QAE@XZ 171005b0 f i c_treefrondrenderer.obj
 0002:000495e0       ??0?$K2VectorAllocator@PAVCTreeFrondRenderer@@@@QAE@ABV0@@Z 171005e0 f i c_treefrondrenderer.obj
 0002:00049610       ??0?$allocator@PAVCTreeFrondRenderer@@@std@@QAE@XZ 17100610 f i c_treefrondrenderer.obj
 0002:00049630       ??0?$allocator@PAVCTreeFrondRenderer@@@std@@QAE@ABV01@@Z 17100630 f i c_treefrondrenderer.obj
 0002:00049650       ??1?$CPool@VCTreeFrondRenderer@@@@QAE@XZ 17100650 f i c_treefrondrenderer.obj
 0002:00049700       ??1?$vector@PAVCTreeFrondRenderer@@V?$K2VectorAllocator@PAVCTreeFrondRenderer@@@@@@QAE@XZ 17100700 f i c_treefrondrenderer.obj
 0002:00049730       ??1?$vector@PAVCTreeFrondRenderer@@V?$K2VectorAllocator@PAVCTreeFrondRenderer@@@@@std@@QAE@XZ 17100730 f i c_treefrondrenderer.obj
 0002:000497b0       ?_Tidy@?$vector@PAVCTreeFrondRenderer@@V?$K2VectorAllocator@PAVCTreeFrondRenderer@@@@@std@@IAEXXZ 171007b0 f i c_treefrondrenderer.obj
 0002:00049850       ??2CTreeLeafRenderer@@SAPAXIPBD00F@Z 17100850 f   c_treeleafrenderer.obj
 0002:00049870       ??0CTreeLeafRenderer@@QAE@ABVCSceneEntity@@PBVCTreeModelDef@@ABU_D3DXMATRIXA16@@22@Z 17100870 f   c_treeleafrenderer.obj
 0002:00049a50       ??_GCTreeLeafRenderer@@UAEPAXI@Z 17100a50 f i c_treeleafrenderer.obj
 0002:00049a50       ??_ECTreeLeafRenderer@@UAEPAXI@Z 17100a50 f i c_treeleafrenderer.obj
 0002:00049aa0       ??3CTreeLeafRenderer@@SAXPAX@Z 17100aa0 f i c_treeleafrenderer.obj
 0002:00049ac0       ??1CTreeLeafRenderer@@UAE@XZ 17100ac0 f   c_treeleafrenderer.obj
 0002:00049af0       ?Setup@CTreeLeafRenderer@@UAEXW4EMaterialPhase@@@Z 17100af0 f   c_treeleafrenderer.obj
 0002:0004a170       ?HasLeafGeometry@CTreeModelDef@@QBE_NXZ 17101170 f i c_treeleafrenderer.obj
 0002:0004a1b0       ?GetLeafMaterial@CTreeModelDef@@QBEIXZ 171011b0 f i c_treeleafrenderer.obj
 0002:0004a1e0       ?GetLeafGeometry@CTreeModelDef@@QBEABUSLeafGeometryBuffers@@H@Z 171011e0 f i c_treeleafrenderer.obj
 0002:0004a290       ??1const_iterator@?$_Tree@V?$_Tmap_traits@HUSLeafGeometryBuffers@@U?$less@H@std@@V?$K2MapAllocator@U?$pair@$$CBHUSLeafGeometryBuffers@@@std@@@@$0A@@std@@@std@@QAE@XZ 17101290 f i c_treeleafrenderer.obj
 0002:0004a2c0       ??1?$_Bidit@U?$pair@$$CBHUSLeafGeometryBuffers@@@std@@HPBU12@ABU12@@std@@QAE@XZ 171012c0 f i c_treeleafrenderer.obj
 0002:0004a2f0       ?Render@CTreeLeafRenderer@@UAEXW4EMaterialPhase@@@Z 171012f0 f   c_treeleafrenderer.obj
 0002:0004a650       ?empty@?$_Tree@V?$_Tmap_traits@HUSLeafGeometryBuffers@@U?$less@H@std@@V?$K2MapAllocator@U?$pair@$$CBHUSLeafGeometryBuffers@@@std@@@@$0A@@std@@@std@@QBE_NXZ 17101650 f i c_treeleafrenderer.obj
 0002:0004a680       ?find@?$_Tree@V?$_Tmap_traits@HUSLeafGeometryBuffers@@U?$less@H@std@@V?$K2MapAllocator@U?$pair@$$CBHUSLeafGeometryBuffers@@@std@@@@$0A@@std@@@std@@QBE?AVconst_iterator@12@ABH@Z 17101680 f i c_treeleafrenderer.obj
 0002:0004a860       ?end@?$_Tree@V?$_Tmap_traits@HUSLeafGeometryBuffers@@U?$less@H@std@@V?$K2MapAllocator@U?$pair@$$CBHUSLeafGeometryBuffers@@@std@@@@$0A@@std@@@std@@QBE?AVconst_iterator@12@XZ 17101860 f i c_treeleafrenderer.obj
 0002:0004a8b0       ??Cconst_iterator@?$_Tree@V?$_Tmap_traits@HUSLeafGeometryBuffers@@U?$less@H@std@@V?$K2MapAllocator@U?$pair@$$CBHUSLeafGeometryBuffers@@@std@@@@$0A@@std@@@std@@QBEPBU?$pair@$$CBHUSLeafGeometryBuffers@@@2@XZ 171018b0 f i c_treeleafrenderer.obj
 0002:0004a8e0       ??0const_iterator@?$_Tree@V?$_Tmap_traits@HUSLeafGeometryBuffers@@U?$less@H@std@@V?$K2MapAllocator@U?$pair@$$CBHUSLeafGeometryBuffers@@@std@@@@$0A@@std@@@std@@QAE@ABV012@@Z 171018e0 f i c_treeleafrenderer.obj
 0002:0004a920       ??0?$_Bidit@U?$pair@$$CBHUSLeafGeometryBuffers@@@std@@HPBU12@ABU12@@std@@QAE@ABU01@@Z 17101920 f i c_treeleafrenderer.obj
 0002:0004a950       ?_Key@?$_Tree@V?$_Tmap_traits@HUSLeafGeometryBuffers@@U?$less@H@std@@V?$K2MapAllocator@U?$pair@$$CBHUSLeafGeometryBuffers@@@std@@@@$0A@@std@@@std@@KAABHPAU_Node@?$_Tree_nod@V?$_Tmap_traits@HUSLeafGeometryBuffers@@U?$less@H@std@@V?$K2MapAllocator@U?$pair@$$CBHUSLeafGeometryBuffers@@@std@@@@$0A@@std@@@2@@Z 17101950 f i c_treeleafrenderer.obj
 0002:0004a980       ?size@?$_Tree@V?$_Tmap_traits@HUSLeafGeometryBuffers@@U?$less@H@std@@V?$K2MapAllocator@U?$pair@$$CBHUSLeafGeometryBuffers@@@std@@@@$0A@@std@@@std@@QBEIXZ 17101980 f i c_treeleafrenderer.obj
 0002:0004a9a0       ?lower_bound@?$_Tree@V?$_Tmap_traits@HUSLeafGeometryBuffers@@U?$less@H@std@@V?$K2MapAllocator@U?$pair@$$CBHUSLeafGeometryBuffers@@@std@@@@$0A@@std@@@std@@QBE?AVconst_iterator@12@ABH@Z 171019a0 f i c_treeleafrenderer.obj
 0002:0004aa00       ??0const_iterator@?$_Tree@V?$_Tmap_traits@HUSLeafGeometryBuffers@@U?$less@H@std@@V?$K2MapAllocator@U?$pair@$$CBHUSLeafGeometryBuffers@@@std@@@@$0A@@std@@@std@@QAE@PAU_Node@?$_Tree_nod@V?$_Tmap_traits@HUSLeafGeometryBuffers@@U?$less@H@std@@V?$K2MapAllocator@U?$pair@$$CBHUSLeafGeometryBuffers@@@std@@@@$0A@@std@@@2@PBV12@@Z 17101a00 f i c_treeleafrenderer.obj
 0002:0004aa90       ??Dconst_iterator@?$_Tree@V?$_Tmap_traits@HUSLeafGeometryBuffers@@U?$less@H@std@@V?$K2MapAllocator@U?$pair@$$CBHUSLeafGeometryBuffers@@@std@@@@$0A@@std@@@std@@QBEABU?$pair@$$CBHUSLeafGeometryBuffers@@@2@XZ 17101a90 f i c_treeleafrenderer.obj
 0002:0004ab50       ??8const_iterator@?$_Tree@V?$_Tmap_traits@HUSLeafGeometryBuffers@@U?$less@H@std@@V?$K2MapAllocator@U?$pair@$$CBHUSLeafGeometryBuffers@@@std@@@@$0A@@std@@@std@@QBE_NABV012@@Z 17101b50 f i c_treeleafrenderer.obj
 0002:0004ac10       ?_Mynode@const_iterator@?$_Tree@V?$_Tmap_traits@HUSLeafGeometryBuffers@@U?$less@H@std@@V?$K2MapAllocator@U?$pair@$$CBHUSLeafGeometryBuffers@@@std@@@@$0A@@std@@@std@@QBEPAU_Node@?$_Tree_nod@V?$_Tmap_traits@HUSLeafGeometryBuffers@@U?$less@H@std@@V?$K2MapAllocator@U?$pair@$$CBHUSLeafGeometryBuffers@@@std@@@@$0A@@std@@@3@XZ 17101c10 f i c_treeleafrenderer.obj
 0002:0004ac30       ??0?$_Bidit@U?$pair@$$CBHUSLeafGeometryBuffers@@@std@@HPBU12@ABU12@@std@@QAE@XZ 17101c30 f i c_treeleafrenderer.obj
 0002:0004ac60       ?_Myval@?$_Tree@V?$_Tmap_traits@HUSLeafGeometryBuffers@@U?$less@H@std@@V?$K2MapAllocator@U?$pair@$$CBHUSLeafGeometryBuffers@@@std@@@@$0A@@std@@@std@@KAAAU?$pair@$$CBHUSLeafGeometryBuffers@@@2@PAU_Node@?$_Tree_nod@V?$_Tmap_traits@HUSLeafGeometryBuffers@@U?$less@H@std@@V?$K2MapAllocator@U?$pair@$$CBHUSLeafGeometryBuffers@@@std@@@@$0A@@std@@@2@@Z 17101c60 f i c_treeleafrenderer.obj
 0002:0004ac80       ?_Lbound@?$_Tree@V?$_Tmap_traits@HUSLeafGeometryBuffers@@U?$less@H@std@@V?$K2MapAllocator@U?$pair@$$CBHUSLeafGeometryBuffers@@@std@@@@$0A@@std@@@std@@IBEPAU_Node@?$_Tree_nod@V?$_Tmap_traits@HUSLeafGeometryBuffers@@U?$less@H@std@@V?$K2MapAllocator@U?$pair@$$CBHUSLeafGeometryBuffers@@@std@@@@$0A@@std@@@2@ABH@Z 17101c80 f i c_treeleafrenderer.obj
 0002:0004ad50       ?_Left@?$_Tree@V?$_Tmap_traits@HUSLeafGeometryBuffers@@U?$less@H@std@@V?$K2MapAllocator@U?$pair@$$CBHUSLeafGeometryBuffers@@@std@@@@$0A@@std@@@std@@KAAAPAU_Node@?$_Tree_nod@V?$_Tmap_traits@HUSLeafGeometryBuffers@@U?$less@H@std@@V?$K2MapAllocator@U?$pair@$$CBHUSLeafGeometryBuffers@@@std@@@@$0A@@std@@@2@PAU342@@Z 17101d50 f i c_treeleafrenderer.obj
 0002:0004ad70       ?_Right@?$_Tree@V?$_Tmap_traits@HUSLeafGeometryBuffers@@U?$less@H@std@@V?$K2MapAllocator@U?$pair@$$CBHUSLeafGeometryBuffers@@@std@@@@$0A@@std@@@std@@KAAAPAU_Node@?$_Tree_nod@V?$_Tmap_traits@HUSLeafGeometryBuffers@@U?$less@H@std@@V?$K2MapAllocator@U?$pair@$$CBHUSLeafGeometryBuffers@@@std@@@@$0A@@std@@@2@PAU342@@Z 17101d70 f i c_treeleafrenderer.obj
 0002:0004ad90       ?_Kfn@?$_Tmap_traits@HUSLeafGeometryBuffers@@U?$less@H@std@@V?$K2MapAllocator@U?$pair@$$CBHUSLeafGeometryBuffers@@@std@@@@$0A@@std@@SAABHABU?$pair@$$CBHUSLeafGeometryBuffers@@@2@@Z 17101d90 f i c_treeleafrenderer.obj
 0002:0004adb0       ?_Isnil@?$_Tree@V?$_Tmap_traits@HUSLeafGeometryBuffers@@U?$less@H@std@@V?$K2MapAllocator@U?$pair@$$CBHUSLeafGeometryBuffers@@@std@@@@$0A@@std@@@std@@KAAADPAU_Node@?$_Tree_nod@V?$_Tmap_traits@HUSLeafGeometryBuffers@@U?$less@H@std@@V?$K2MapAllocator@U?$pair@$$CBHUSLeafGeometryBuffers@@@std@@@@$0A@@std@@@2@@Z 17101db0 f i c_treeleafrenderer.obj
 0002:0004add0       ?_Root@?$_Tree@V?$_Tmap_traits@HUSLeafGeometryBuffers@@U?$less@H@std@@V?$K2MapAllocator@U?$pair@$$CBHUSLeafGeometryBuffers@@@std@@@@$0A@@std@@@std@@IBEAAPAU_Node@?$_Tree_nod@V?$_Tmap_traits@HUSLeafGeometryBuffers@@U?$less@H@std@@V?$K2MapAllocator@U?$pair@$$CBHUSLeafGeometryBuffers@@@std@@@@$0A@@std@@@2@XZ 17101dd0 f i c_treeleafrenderer.obj
 0002:0004ae00       ?_Parent@?$_Tree@V?$_Tmap_traits@HUSLeafGeometryBuffers@@U?$less@H@std@@V?$K2MapAllocator@U?$pair@$$CBHUSLeafGeometryBuffers@@@std@@@@$0A@@std@@@std@@KAAAPAU_Node@?$_Tree_nod@V?$_Tmap_traits@HUSLeafGeometryBuffers@@U?$less@H@std@@V?$K2MapAllocator@U?$pair@$$CBHUSLeafGeometryBuffers@@@std@@@@$0A@@std@@@2@PAU342@@Z 17101e00 f i c_treeleafrenderer.obj
 0002:0004ae20       ?Copy@CMemManager@@SAPAXPAXPBXI@Z 17101e20 f i c_treeleafrenderer.obj
 0002:0004ae50       ?Allocate@?$CPool@VCTreeLeafRenderer@@@@QAEPAVCTreeLeafRenderer@@XZ 17101e50 f i c_treeleafrenderer.obj
 0002:0004afe0       ?push_back@?$vector@PAVCTreeLeafRenderer@@V?$K2VectorAllocator@PAVCTreeLeafRenderer@@@@@std@@QAEXABQAVCTreeLeafRenderer@@@Z 17101fe0 f i c_treeleafrenderer.obj
 0002:0004b090       ?capacity@?$vector@PAVCTreeLeafRenderer@@V?$K2VectorAllocator@PAVCTreeLeafRenderer@@@@@std@@QBEIXZ 17102090 f i c_treeleafrenderer.obj
 0002:0004b0e0       ?size@?$vector@PAVCTreeLeafRenderer@@V?$K2VectorAllocator@PAVCTreeLeafRenderer@@@@@std@@QBEIXZ 171020e0 f i c_treeleafrenderer.obj
 0002:0004b130       ?insert@?$vector@PAVCTreeLeafRenderer@@V?$K2VectorAllocator@PAVCTreeLeafRenderer@@@@@std@@QAE?AV?$_Vector_iterator@PAVCTreeLeafRenderer@@V?$K2VectorAllocator@PAVCTreeLeafRenderer@@@@@2@V32@ABQAVCTreeLeafRenderer@@@Z 17102130 f i c_treeleafrenderer.obj
 0002:0004b2a0       ?_Ufill@?$vector@PAVCTreeLeafRenderer@@V?$K2VectorAllocator@PAVCTreeLeafRenderer@@@@@std@@IAEPAPAVCTreeLeafRenderer@@PAPAV3@IABQAV3@@Z 171022a0 f i c_treeleafrenderer.obj
 0002:0004b2f0       ??0?$_Vector_iterator@PAVCTreeLeafRenderer@@V?$K2VectorAllocator@PAVCTreeLeafRenderer@@@@@std@@QAE@ABV01@@Z 171022f0 f i c_treeleafrenderer.obj
 0002:0004b320       ??0?$_Vector_const_iterator@PAVCTreeLeafRenderer@@V?$K2VectorAllocator@PAVCTreeLeafRenderer@@@@@std@@QAE@ABV01@@Z 17102320 f i c_treeleafrenderer.obj
 0002:0004b360       ??0?$_Ranit@PAVCTreeLeafRenderer@@HPBQAV1@ABQAV1@@std@@QAE@ABU01@@Z 17102360 f i c_treeleafrenderer.obj
 0002:0004b390       ?_Insert_n@?$vector@PAVCTreeLeafRenderer@@V?$K2VectorAllocator@PAVCTreeLeafRenderer@@@@@std@@IAEXV?$_Vector_iterator@PAVCTreeLeafRenderer@@V?$K2VectorAllocator@PAVCTreeLeafRenderer@@@@@2@IABQAVCTreeLeafRenderer@@@Z 17102390 f i c_treeleafrenderer.obj
 0002:0004b840       ?deallocate@?$K2VectorAllocator@PAVCTreeLeafRenderer@@@@QAEXPAPAVCTreeLeafRenderer@@I@Z 17102840 f i c_treeleafrenderer.obj
 0002:0004b880       ??H?$_Vector_iterator@PAVCTreeLeafRenderer@@V?$K2VectorAllocator@PAVCTreeLeafRenderer@@@@@std@@QBE?AV01@H@Z 17102880 f i c_treeleafrenderer.obj
 0002:0004b930       ??G?$_Vector_iterator@PAVCTreeLeafRenderer@@V?$K2VectorAllocator@PAVCTreeLeafRenderer@@@@@std@@QBEHABV?$_Vector_const_iterator@PAVCTreeLeafRenderer@@V?$K2VectorAllocator@PAVCTreeLeafRenderer@@@@@1@@Z 17102930 f i c_treeleafrenderer.obj
 0002:0004b960       ?max_size@?$vector@PAVCTreeLeafRenderer@@V?$K2VectorAllocator@PAVCTreeLeafRenderer@@@@@std@@QBEIXZ 17102960 f i c_treeleafrenderer.obj
 0002:0004b990       ?_Xlen@?$vector@PAVCTreeLeafRenderer@@V?$K2VectorAllocator@PAVCTreeLeafRenderer@@@@@std@@KAXXZ 17102990 f i c_treeleafrenderer.obj
 0002:0004ba40       ?allocate@?$K2VectorAllocator@PAVCTreeLeafRenderer@@@@QAEPAPAVCTreeLeafRenderer@@I@Z 17102a40 f i c_treeleafrenderer.obj
 0002:0004ba90       ??Y?$_Vector_iterator@PAVCTreeLeafRenderer@@V?$K2VectorAllocator@PAVCTreeLeafRenderer@@@@@std@@QAEAAV01@H@Z 17102a90 f i c_treeleafrenderer.obj
 0002:0004bac0       ??G?$_Vector_const_iterator@PAVCTreeLeafRenderer@@V?$K2VectorAllocator@PAVCTreeLeafRenderer@@@@@std@@QBEHABV01@@Z 17102ac0 f i c_treeleafrenderer.obj
 0002:0004bb00       ?max_size@?$allocator@PAVCTreeLeafRenderer@@@std@@QBEIXZ 17102b00 f i c_treeleafrenderer.obj
 0002:0004bb40       ??Y?$_Vector_const_iterator@PAVCTreeLeafRenderer@@V?$K2VectorAllocator@PAVCTreeLeafRenderer@@@@@std@@QAEAAV01@H@Z 17102b40 f i c_treeleafrenderer.obj
 0002:0004bc70       ??_H@YGXPAXIHP6EPAX0@Z@Z   17102c70 f i c_treeleafrenderer.obj
 0002:0004bcb0       ??$unchecked_uninitialized_fill_n@PAPAVCTreeLeafRenderer@@IPAV1@V?$K2VectorAllocator@PAVCTreeLeafRenderer@@@@@stdext@@YAXPAPAVCTreeLeafRenderer@@IABQAV1@AAV?$K2VectorAllocator@PAVCTreeLeafRenderer@@@@@Z 17102cb0 f i c_treeleafrenderer.obj
 0002:0004bd10       ??$_Umove@PAPAVCTreeLeafRenderer@@@?$vector@PAVCTreeLeafRenderer@@V?$K2VectorAllocator@PAVCTreeLeafRenderer@@@@@std@@IAEPAPAVCTreeLeafRenderer@@PAPAV2@00@Z 17102d10 f i c_treeleafrenderer.obj
 0002:0004bd50       ??$fill@PAPAVCTreeLeafRenderer@@PAV1@@std@@YAXPAPAVCTreeLeafRenderer@@0ABQAV1@@Z 17102d50 f i c_treeleafrenderer.obj
 0002:0004bda0       ??$_Unchecked_move_backward@PAPAVCTreeLeafRenderer@@PAPAV1@@stdext@@YAPAPAVCTreeLeafRenderer@@PAPAV1@00@Z 17102da0 f i c_treeleafrenderer.obj
 0002:0004be30       ??$_Uninit_fill_n@PAPAVCTreeLeafRenderer@@IPAV1@V?$K2VectorAllocator@PAVCTreeLeafRenderer@@@@@std@@YAXPAPAVCTreeLeafRenderer@@IABQAV1@AAV?$K2VectorAllocator@PAVCTreeLeafRenderer@@@@U_Scalar_ptr_iterator_tag@0@U_Range_checked_iterator_tag@0@@Z 17102e30 f i c_treeleafrenderer.obj
 0002:0004be60       ??$_Unchecked_uninitialized_move@PAPAVCTreeLeafRenderer@@PAPAV1@V?$K2VectorAllocator@PAVCTreeLeafRenderer@@@@@stdext@@YAPAPAVCTreeLeafRenderer@@PAPAV1@00AAV?$K2VectorAllocator@PAVCTreeLeafRenderer@@@@@Z 17102e60 f i c_treeleafrenderer.obj
 0002:0004bed0       ??$_Fill@PAPAVCTreeLeafRenderer@@PAV1@@std@@YAXPAPAVCTreeLeafRenderer@@0ABQAV1@@Z 17102ed0 f i c_treeleafrenderer.obj
 0002:0004bf30       ??$_Move_cat@PAPAVCTreeLeafRenderer@@@std@@YA?AU_Undefined_move_tag@0@ABQAPAVCTreeLeafRenderer@@@Z 17102f30 f i c_treeleafrenderer.obj
 0002:0004bf50       ??$_Move_backward_opt@PAPAVCTreeLeafRenderer@@PAPAV1@Urandom_access_iterator_tag@std@@U_Undefined_move_tag@3@@std@@YAPAPAVCTreeLeafRenderer@@PAPAV1@00Urandom_access_iterator_tag@0@U_Undefined_move_tag@0@U_Range_checked_iterator_tag@0@@Z 17102f50 f i c_treeleafrenderer.obj
 0002:0004bfb0       ??$unchecked_fill_n@PAPAVCTreeLeafRenderer@@IPAV1@@stdext@@YAXPAPAVCTreeLeafRenderer@@IABQAV1@@Z 17102fb0 f i c_treeleafrenderer.obj
 0002:0004c000       ??$_Uninit_move@PAPAVCTreeLeafRenderer@@PAPAV1@V?$K2VectorAllocator@PAVCTreeLeafRenderer@@@@U_Undefined_move_tag@std@@@std@@YAPAPAVCTreeLeafRenderer@@PAPAV1@00AAV?$K2VectorAllocator@PAVCTreeLeafRenderer@@@@U_Undefined_move_tag@0@U_Range_checked_iterator_tag@0@@Z 17103000 f i c_treeleafrenderer.obj
 0002:0004c040       ??$_Copy_backward_opt@PAPAVCTreeLeafRenderer@@PAPAV1@Urandom_access_iterator_tag@std@@@std@@YAPAPAVCTreeLeafRenderer@@PAPAV1@00Urandom_access_iterator_tag@0@U_Scalar_ptr_iterator_tag@0@U_Range_checked_iterator_tag@0@@Z 17103040 f i c_treeleafrenderer.obj
 0002:0004c0f0       ??$_Fill_n@PAPAVCTreeLeafRenderer@@IPAV1@@std@@YAXPAPAVCTreeLeafRenderer@@IABQAV1@Urandom_access_iterator_tag@0@U_Range_checked_iterator_tag@0@@Z 171030f0 f i c_treeleafrenderer.obj
 0002:0004c150       ??$unchecked_uninitialized_copy@PAPAVCTreeLeafRenderer@@PAPAV1@V?$K2VectorAllocator@PAVCTreeLeafRenderer@@@@@stdext@@YAPAPAVCTreeLeafRenderer@@PAPAV1@00AAV?$K2VectorAllocator@PAVCTreeLeafRenderer@@@@@Z 17103150 f i c_treeleafrenderer.obj
 0002:0004c1c0       ??$_Fill_n@PAPAVCTreeLeafRenderer@@IPAV1@@std@@YAXPAPAVCTreeLeafRenderer@@IABQAV1@U_Range_checked_iterator_tag@0@@Z 171031c0 f i c_treeleafrenderer.obj
 0002:0004c210       ??$_Uninit_copy@PAPAVCTreeLeafRenderer@@PAPAV1@V?$K2VectorAllocator@PAVCTreeLeafRenderer@@@@@std@@YAPAPAVCTreeLeafRenderer@@PAPAV1@00AAV?$K2VectorAllocator@PAVCTreeLeafRenderer@@@@U_Scalar_ptr_iterator_tag@0@U_Range_checked_iterator_tag@0@@Z 17103210 f i c_treeleafrenderer.obj
 0002:0004c2b0       ??0?$CPool@VCTreeLeafRenderer@@@@QAE@II@Z 171032b0 f i c_treeleafrenderer.obj
 0002:0004c370       ??0?$vector@PAVCTreeLeafRenderer@@V?$K2VectorAllocator@PAVCTreeLeafRenderer@@@@@@QAE@XZ 17103370 f i c_treeleafrenderer.obj
 0002:0004c3a0       ??0?$vector@PAVCTreeLeafRenderer@@V?$K2VectorAllocator@PAVCTreeLeafRenderer@@@@@std@@QAE@XZ 171033a0 f i c_treeleafrenderer.obj
 0002:0004c430       ??1?$_Vector_val@PAVCTreeLeafRenderer@@V?$K2VectorAllocator@PAVCTreeLeafRenderer@@@@@std@@QAE@XZ 17103430 f i c_treeleafrenderer.obj
 0002:0004c4b0       ??1?$K2VectorAllocator@PAVCTreeLeafRenderer@@@@QAE@XZ 171034b0 f i c_treeleafrenderer.obj
 0002:0004c4d0       ?_Buy@?$vector@PAVCTreeLeafRenderer@@V?$K2VectorAllocator@PAVCTreeLeafRenderer@@@@@std@@IAE_NI@Z 171034d0 f i c_treeleafrenderer.obj
 0002:0004c580       ??0?$_Vector_val@PAVCTreeLeafRenderer@@V?$K2VectorAllocator@PAVCTreeLeafRenderer@@@@@std@@IAE@V?$K2VectorAllocator@PAVCTreeLeafRenderer@@@@@Z 17103580 f i c_treeleafrenderer.obj
 0002:0004c620       ??0?$K2VectorAllocator@PAVCTreeLeafRenderer@@@@QAE@XZ 17103620 f i c_treeleafrenderer.obj
 0002:0004c650       ??0?$K2VectorAllocator@PAVCTreeLeafRenderer@@@@QAE@ABV0@@Z 17103650 f i c_treeleafrenderer.obj
 0002:0004c680       ??0?$allocator@PAVCTreeLeafRenderer@@@std@@QAE@XZ 17103680 f i c_treeleafrenderer.obj
 0002:0004c6a0       ??0?$allocator@PAVCTreeLeafRenderer@@@std@@QAE@ABV01@@Z 171036a0 f i c_treeleafrenderer.obj
 0002:0004c6c0       ??1?$CPool@VCTreeLeafRenderer@@@@QAE@XZ 171036c0 f i c_treeleafrenderer.obj
 0002:0004c770       ??1?$vector@PAVCTreeLeafRenderer@@V?$K2VectorAllocator@PAVCTreeLeafRenderer@@@@@@QAE@XZ 17103770 f i c_treeleafrenderer.obj
 0002:0004c7a0       ??1?$vector@PAVCTreeLeafRenderer@@V?$K2VectorAllocator@PAVCTreeLeafRenderer@@@@@std@@QAE@XZ 171037a0 f i c_treeleafrenderer.obj
 0002:0004c820       ?_Tidy@?$vector@PAVCTreeLeafRenderer@@V?$K2VectorAllocator@PAVCTreeLeafRenderer@@@@@std@@IAEXXZ 17103820 f i c_treeleafrenderer.obj
 0002:0004c8c0       ??0IDebugRenderer@@QAE@XZ  171038c0 f   i_debugrenderer.obj
 0002:0004c9b0       ??_EIDebugRenderer@@UAEPAXI@Z 171039b0 f i i_debugrenderer.obj
 0002:0004c9b0       ??_GIDebugRenderer@@UAEPAXI@Z 171039b0 f i i_debugrenderer.obj
 0002:0004ca00       ??1IDebugRenderer@@UAE@XZ  17103a00 f   i_debugrenderer.obj
 0002:0004ca30       ?Setup@IDebugRenderer@@UAEXW4EMaterialPhase@@@Z 17103a30 f   i_debugrenderer.obj
 0002:0004cba0       ??0IEffectRenderer@@QAE@IIIHM@Z 17103ba0 f   i_effectrenderer.obj
 0002:0004cca0       ??_GIEffectRenderer@@UAEPAXI@Z 17103ca0 f i i_effectrenderer.obj
 0002:0004cca0       ??_EIEffectRenderer@@UAEPAXI@Z 17103ca0 f i i_effectrenderer.obj
 0002:0004ccf0       ??1IEffectRenderer@@UAE@XZ 17103cf0 f   i_effectrenderer.obj
 0002:0004cd20       ?Setup@IEffectRenderer@@UAEXW4EMaterialPhase@@@Z 17103d20 f   i_effectrenderer.obj
 0002:0004cf30       ??0IRenderer@@QAE@XZ       17103f30 f   i_renderer.obj
 0002:0004d0e0       ??_EIRenderer@@UAEPAXI@Z   171040e0 f i i_renderer.obj
 0002:0004d0e0       ??_GIRenderer@@UAEPAXI@Z   171040e0 f i i_renderer.obj
 0002:0004d130       ??1IRenderer@@UAE@XZ       17104130 f   i_renderer.obj
 0002:0004d160       ?SetShaderVars@IRenderer@@QAEXXZ 17104160 f   i_renderer.obj
 0002:0004d420       ??0CFogofWar@@QAE@XZ       17104420 f   c_fogofwar.obj
 0002:0004d4d0       ??1CFogofWar@@QAE@XZ       171044d0 f   c_fogofwar.obj
 0002:0004d4f0       ?Initialize@CFogofWar@@QAEXXZ 171044f0 f   c_fogofwar.obj
 0002:0004e510       ?Release@CFogofWar@@QAEXXZ 17105510 f   c_fogofwar.obj
 0002:0004e6c0       ?Render@CFogofWar@@QAEXM_NM@Z 171056c0 f   c_fogofwar.obj
 0002:0004ee20       ?Update@CFogofWar@@QAEXABVCBitmap@@@Z 17105e20 f   c_fogofwar.obj
 0002:0004f1f0       ?DrawTexture@CFogofWar@@AAEXM@Z 171061f0 f   c_fogofwar.obj
 0002:0004fa30       ??0SGuiVertex@@QAE@XZ      17106a30 f i c_fogofwar.obj
 0002:0004fa60       ??$TOGGLE@H@@YAHH@Z        17106a60 f i c_fogofwar.obj
 0002:0004fa80       ?XtoW@@YA?AV?$basic_string@_WU?$char_traits@_W@std@@V?$K2StringAllocator@_W@@@std@@IHHH@Z 17106a80 f i c_fogofwar.obj
 0002:0004fad0       ??6CConsoleStream@@QAEAAV0@PBD@Z 17106ad0 f i c_fogofwar.obj
 0002:0004fb60       ?AddOutputHistory@CConsoleStream@@AAEXABV?$basic_string@DU?$char_traits@D@std@@V?$K2StringAllocator@D@@@std@@@Z 17106b60 f i c_fogofwar.obj
 0002:0004fc00       ??6CConsoleStream@@QAEAAV0@ABV?$basic_string@DU?$char_traits@D@std@@V?$K2StringAllocator@D@@@std@@@Z 17106c00 f i c_fogofwar.obj
 0002:0004fc30       ??6CConsoleStream@@QAEAAV0@J@Z 17106c30 f i c_fogofwar.obj
 0002:0004fce0       ?XtoW@@YA?AV?$basic_string@_WU?$char_traits@_W@std@@V?$K2StringAllocator@_W@@@std@@JHHH@Z 17106ce0 f i c_fogofwar.obj
 0002:0004fd30       ?SetIndex@CTexture@@QAEXH@Z 17106d30 f i c_fogofwar.obj
 0002:0004fd60       ?SetTexture@CMaterialSampler@@QAEXI@Z 17106d60 f i c_fogofwar.obj
 0002:0004fd90       ?SetCullMode@CMaterialPhase@@QAEXW4eCullMode@@@Z 17106d90 f i c_fogofwar.obj
 0002:0004fdc0       ?GetWorldWidth@CWorld@@QBEMXZ 17106dc0 f i c_fogofwar.obj
 0002:0004fe00       ?GetWorldHeight@CWorld@@QBEMXZ 17106e00 f i c_fogofwar.obj
 0002:0004fe40       ??0?$basic_string@DU?$char_traits@D@std@@V?$K2StringAllocator@D@@@std@@QAE@PBD@Z 17106e40 f i c_fogofwar.obj
 0002:0004fef0       ??1?$basic_string@DU?$char_traits@D@std@@V?$K2StringAllocator@D@@@std@@QAE@XZ 17106ef0 f i c_fogofwar.obj
 0002:0004ff70       ??1?$_String_val@DV?$K2StringAllocator@D@@@std@@QAE@XZ 17106f70 f i c_fogofwar.obj
 0002:0004fff0       ?assign@?$basic_string@DU?$char_traits@D@std@@V?$K2StringAllocator@D@@@std@@QAEAAV12@PBD@Z 17106ff0 f i c_fogofwar.obj
 0002:00050030       ?_Tidy@?$basic_string@DU?$char_traits@D@std@@V?$K2StringAllocator@D@@@std@@IAEX_NI@Z 17107030 f i c_fogofwar.obj
 0002:000500d0       ??0?$_String_val@DV?$K2StringAllocator@D@@@std@@IAE@V?$K2StringAllocator@D@@@Z 171070d0 f i c_fogofwar.obj
 0002:00050170       ??0?$K2StringAllocator@D@@QAE@XZ 17107170 f i c_fogofwar.obj
 0002:000501a0       ??1?$K2StringAllocator@D@@QAE@XZ 171071a0 f i c_fogofwar.obj
 0002:000501c0       ?assign@?$basic_string@DU?$char_traits@D@std@@V?$K2StringAllocator@D@@@std@@QAEAAV12@PBDI@Z 171071c0 f i c_fogofwar.obj
 0002:00050270       ?assign@?$basic_string@DU?$char_traits@D@std@@V?$K2StringAllocator@D@@@std@@QAEAAV12@ABV12@II@Z 17107270 f i c_fogofwar.obj
 0002:00050360       ?_Myptr@?$basic_string@DU?$char_traits@D@std@@V?$K2StringAllocator@D@@@std@@IBEPBDXZ 17107360 f i c_fogofwar.obj
 0002:000503a0       ?erase@?$basic_string@DU?$char_traits@D@std@@V?$K2StringAllocator@D@@@std@@QAEAAV12@II@Z 171073a0 f i c_fogofwar.obj
 0002:00050470       ?size@?$basic_string@DU?$char_traits@D@std@@V?$K2StringAllocator@D@@@std@@QBEIXZ 17107470 f i c_fogofwar.obj
 0002:00050490       ?_Eos@?$basic_string@DU?$char_traits@D@std@@V?$K2StringAllocator@D@@@std@@IAEXI@Z 17107490 f i c_fogofwar.obj
 0002:000504e0       ?_Grow@?$basic_string@DU?$char_traits@D@std@@V?$K2StringAllocator@D@@@std@@IAE_NI_N@Z 171074e0 f i c_fogofwar.obj
 0002:000505b0       ?_Myptr@?$basic_string@DU?$char_traits@D@std@@V?$K2StringAllocator@D@@@std@@IAEPADXZ 171075b0 f i c_fogofwar.obj
 0002:000505f0       ??0?$K2StringAllocator@D@@QAE@ABV0@@Z 171075f0 f i c_fogofwar.obj
 0002:00050620       ?deallocate@?$K2StringAllocator@D@@QAEXPADI@Z 17107620 f i c_fogofwar.obj
 0002:00050660       ?max_size@?$basic_string@DU?$char_traits@D@std@@V?$K2StringAllocator@D@@@std@@QBEIXZ 17107660 f i c_fogofwar.obj
 0002:000506b0       ?_Copy@?$basic_string@DU?$char_traits@D@std@@V?$K2StringAllocator@D@@@std@@IAEXII@Z 171076b0 f i c_fogofwar.obj
 0002:000508a0       ?_Inside@?$basic_string@DU?$char_traits@D@std@@V?$K2StringAllocator@D@@@std@@IAE_NPBD@Z 171078a0 f i c_fogofwar.obj
 0002:00050910       ?allocate@?$K2StringAllocator@D@@QAEPADI@Z 17107910 f i c_fogofwar.obj
 0002:00050960       ??$_Debug_pointer@D@std@@YAXPBDPB_WI@Z 17107960 f i c_fogofwar.obj
 0002:000509a0       ??$_ItoW@J@@YA?AV?$basic_string@_WU?$char_traits@_W@std@@V?$K2StringAllocator@_W@@@std@@JHHH@Z 171079a0 f i c_fogofwar.obj
 0002:00050aa0       ??$ABS@J@@YAJJ@Z           17107aa0 f i c_fogofwar.obj
 0002:00050ae0       ??$_UItoW@I@@YA?AV?$basic_string@_WU?$char_traits@_W@std@@V?$K2StringAllocator@_W@@@std@@IHHH@Z 17107ae0 f i c_fogofwar.obj
 0002:00050bc0       ??$copy_s@U?$char_traits@D@std@@@_Traits_helper@std@@YAPADPADIPBDI@Z 17107bc0 f i c_fogofwar.obj
 0002:00050c10       ??$_Char_traits_cat@U?$char_traits@D@std@@@std@@YA?AU_Secure_char_traits_tag@0@XZ 17107c10 f i c_fogofwar.obj
 0002:00050c30       ??$copy_s@U?$char_traits@D@std@@@_Traits_helper@std@@YAPADPADIPBDIU_Secure_char_traits_tag@1@@Z 17107c30 f i c_fogofwar.obj
 0002:00050c70       ??$move_s@U?$char_traits@D@std@@@_Traits_helper@std@@YAPADPADIPBDI@Z 17107c70 f i c_fogofwar.obj
 0002:00050cc0       ??$move_s@U?$char_traits@D@std@@@_Traits_helper@std@@YAPADPADIPBDIU_Secure_char_traits_tag@1@@Z 17107cc0 f i c_fogofwar.obj
 0002:00050d00       ?Release@CGfx2D@@SAXXZ     17107d00 f   c_gfx2d.obj
 0002:00050d90       ??_GCGfx2D@@QAEPAXI@Z      17107d90 f i c_gfx2d.obj
 0002:00050de0       ??1CGfx2D@@QAE@XZ          17107de0 f   c_gfx2d.obj
 0002:00050e10       ??0CGfx2D@@AAE@XZ          17107e10 f   c_gfx2d.obj
 0002:00050e50       ?Init@CGfx2D@@QAEXXZ       17107e50 f   c_gfx2d.obj
 0002:00050ec0       ?AddRect@CGfx2D@@QAEXMMMMMMMMIH@Z 17107ec0 f   c_gfx2d.obj
 0002:00051200       ?AddLine@CGfx2D@@QAEXABV?$CVec2@M@@0ABV?$CVec4@M@@1H@Z 17108200 f   c_gfx2d.obj
 0002:00051410       ?AddQuad@CGfx2D@@QAEXABV?$CVec2@M@@0000000IH@Z 17108410 f   c_gfx2d.obj
 0002:00051720       ?Draw@CGfx2D@@QAEXXZ       17108720 f   c_gfx2d.obj
 0002:00052840       ?GetWhiteTexture@CResourceManager@@QBEIXZ 17109840 f i c_gfx2d.obj
 0002:00052860       ?ForceEmpty@CGfx2D@@QAEXXZ 17109860 f   c_gfx2d.obj
 0002:00052890       ?Shutdown@CGfx2D@@QAEXXZ   17109890 f   c_gfx2d.obj
 0002:00052b40       ?GetTextureFlags@CTexture@@QBEHXZ 17109b40 f i c_gfx2d.obj
 0002:00052b70       ?AddFlags@CMaterialSampler@@QAEXH@Z 17109b70 f i c_gfx2d.obj
 0002:00052ba0       ?ClearFlags@CMaterialSampler@@QAEXH@Z 17109ba0 f i c_gfx2d.obj
 0002:00052bd0       ?GetShaderTime@CSceneManager@@QAEMXZ 17109bd0 f i c_gfx2d.obj
 0002:00052bf0       ?GetInstance@CGfx2D@@SAPAV1@XZ 17109bf0 f i c_gfx2d.obj
 0002:00052d00       ??0?$const_string@_WU?$char_traits@_W@std@@V?$K2StringAllocator@_W@@@@QAE@QB_WI@Z 17109d00 f i c_gfx2d.obj
 0002:00052d60       ??1?$const_string@_WU?$char_traits@_W@std@@V?$K2StringAllocator@_W@@@@QAE@XZ 17109d60 f i c_gfx2d.obj
 0002:00052d90       ?Release@CGfx3D@@SAXXZ     17109d90 f   c_gfx3d.obj
 0002:00052e20       ??_GCGfx3D@@QAEPAXI@Z      17109e20 f i c_gfx3d.obj
 0002:00052e70       ??1CGfx3D@@QAE@XZ          17109e70 f   c_gfx3d.obj
 0002:00052f30       ??1SBillboard@@QAE@XZ      17109f30 f i c_gfx3d.obj
 0002:00052f60       ??1SBox@@QAE@XZ            17109f60 f i c_gfx3d.obj
 0002:00052f90       ??0CGfx3D@@AAE@XZ          17109f90 f   c_gfx3d.obj
 0002:000531f0       ??0SEffectTriangle@@QAE@XZ 1710a1f0 f i c_gfx3d.obj
 0002:00053230       ??0STreeBillboards@@QAE@XZ 1710a230 f i c_gfx3d.obj
 0002:00053270       ??0SBillboard@@QAE@XZ      1710a270 f i c_gfx3d.obj
 0002:000532d0       ??0SBeam@@QAE@XZ           1710a2d0 f i c_gfx3d.obj
 0002:00053330       ??0SBox@@QAE@XZ            1710a330 f i c_gfx3d.obj
 0002:000533c0       ??0SPoint@@QAE@XZ          1710a3c0 f i c_gfx3d.obj
 0002:00053400       ??0SLine@@QAE@XZ           1710a400 f i c_gfx3d.obj
 0002:00053450       ??0SEffectVertex@@QAE@XZ   1710a450 f i c_gfx3d.obj
 0002:00053490       ??0STreeBillboardVertex@@QAE@XZ 1710a490 f i c_gfx3d.obj
 0002:000534d0       ?Draw@CGfx3D@@QAEXAAVCCamera@@@Z 1710a4d0 f   c_gfx3d.obj
 0002:00053e10       ?GetActive@CShadowmap@@QAE_NXZ 1710ae10 f i c_gfx3d.obj
 0002:00053e30       ?Clear@CGfx3D@@QAEXXZ      1710ae30 f   c_gfx3d.obj
 0002:00053ef0       ?Init@CGfx3D@@QAEXXZ       1710aef0 f   c_gfx3d.obj
 0002:000546a0       ?AddBoxBatches@CGfx3D@@IAEXXZ 1710b6a0 f   c_gfx3d.obj
 0002:00054e80       ?GL_Color@@YAIABV?$CVec4@M@@@Z 1710be80 f i c_gfx3d.obj
 0002:00054fc0       ??3CBoxRenderer@@SAXPAXPBD11F@Z 1710bfc0 f i c_gfx3d.obj
 0002:00054fe0       ?AddBox@CGfx3D@@QAEXABV?$CBoundingBox@M@@ABV?$CVec4@M@@ABU_D3DXMATRIXA16@@@Z 1710bfe0 f   c_gfx3d.obj
 0002:000550e0       ?AddPointBatches@CGfx3D@@IAEXXZ 1710c0e0 f   c_gfx3d.obj
 0002:000552a0       ??3CPointRenderer@@SAXPAXPBD11F@Z 1710c2a0 f i c_gfx3d.obj
 0002:000552c0       ?AddPoint@CGfx3D@@QAEXABV?$CVec3@M@@ABV?$CVec4@M@@@Z 1710c2c0 f   c_gfx3d.obj
 0002:00055380       ?AddLineBatches@CGfx3D@@IAEXXZ 1710c380 f   c_gfx3d.obj
 0002:000555a0       ??3CLineRenderer@@SAXPAXPBD11F@Z 1710c5a0 f i c_gfx3d.obj
 0002:000555c0       ?AddLine@CGfx3D@@QAEXABV?$CVec3@M@@0ABV?$CVec4@M@@@Z 1710c5c0 f   c_gfx3d.obj
 0002:000556b0       ?Setup3D@CGfx3D@@IAEXXZ    1710c6b0 f   c_gfx3d.obj
 0002:000557c0       ?SetupCamera@CGfx3D@@QAEXABVCCamera@@@Z 1710c7c0 f   c_gfx3d.obj
 0002:00056370       ?Exit3D@CGfx3D@@IAEXXZ     1710d370 f   c_gfx3d.obj
 0002:000563e0       ?AddSky@CGfx3D@@IAEXXZ     1710d3e0 f   c_gfx3d.obj
 0002:000567c0       ??3CSkyRenderer@@SAXPAXPBD11F@Z 1710d7c0 f i c_gfx3d.obj
 0002:000567e0       ??1?$_Vector_iterator@PAUSSceneEntityEntry@@V?$K2VectorAllocator@PAUSSceneEntityEntry@@@@@std@@QAE@XZ 1710d7e0 f i c_gfx3d.obj
 0002:00056810       ??1?$_Vector_const_iterator@PAUSSceneEntityEntry@@V?$K2VectorAllocator@PAUSSceneEntityEntry@@@@@std@@QAE@XZ 1710d810 f i c_gfx3d.obj
 0002:00056840       ??1?$_Ranit@PAUSSceneEntityEntry@@HPBQAU1@ABQAU1@@std@@QAE@XZ 1710d840 f i c_gfx3d.obj
 0002:00056870       ?AddWorld@CGfx3D@@QAEXW4EMaterialPhase@@@Z 1710d870 f   c_gfx3d.obj
 0002:00056d70       ?AddBillboardBatches@CGfx3D@@IAEXW4EMaterialPhase@@@Z 1710dd70 f   c_gfx3d.obj
 0002:00058c10       ??3CBillboardRenderer@@SAXPAXPBD11F@Z 1710fc10 f i c_gfx3d.obj
 0002:00058c30       ?AddBillboard@CGfx3D@@QAEXABV?$CVec3@M@@MMMMMMMMMIIMMMHMABV?$CVec4@M@@@Z 1710fc30 f   c_gfx3d.obj
 0002:00058eb0       ?AddBeam@CGfx3D@@QAEXABV?$CVec3@M@@0MMMIABV?$CVec4@M@@@Z 1710feb0 f   c_gfx3d.obj
 0002:000590b0       ?AddEffectTriangleBatches@CGfx3D@@IAEXW4EMaterialPhase@@@Z 171100b0 f   c_gfx3d.obj
 0002:00059350       ??3CEffectTriangleRenderer@@SAXPAXPBD11F@Z 17110350 f i c_gfx3d.obj
 0002:00059370       ?AddEffectTriangle@CGfx3D@@QAEXABUSEffectTriangle@@@Z 17110370 f   c_gfx3d.obj
 0002:000593e0       ?AddTreeBillboardBatches@CGfx3D@@IAEXW4EMaterialPhase@@@Z 171103e0 f   c_gfx3d.obj
 0002:000596a0       ??3CTreeBillboardRenderer@@SAXPAXPBD11F@Z 171106a0 f i c_gfx3d.obj
 0002:000596c0       ?AddTreeBillboard@CGfx3D@@QAEXABV?$CVec3@M@@000KKKKABV?$CVec2@M@@111IKABU_D3DXMATRIXA16@@@Z 171106c0 f   c_gfx3d.obj
 0002:00059960       ?AddScenePolys@CGfx3D@@IAEXW4EMaterialPhase@@@Z 17110960 f   c_gfx3d.obj
 0002:00059af0       ??3CScenePolyRenderer@@SAXPAXPBD11F@Z 17110af0 f i c_gfx3d.obj
 0002:00059b10       ??1?$_Const_iterator@$00@?$list@USSceneFaceEntry@@V?$K2ListAllocator@USSceneFaceEntry@@@@@std@@QAE@XZ 17110b10 f i c_gfx3d.obj
 0002:00059b40       ??1?$_Bidit@USSceneFaceEntry@@HPBU1@ABU1@@std@@QAE@XZ 17110b40 f i c_gfx3d.obj
 0002:00059b70       ?AddGroundSprite@CGfx3D@@QAEXABV?$CVec3@M@@MM0ABV?$CVec4@M@@MMIHM@Z 17110b70 f   c_gfx3d.obj
 0002:0005b730       ??1CConvexPolygon2@@QAE@XZ 17112730 f i c_gfx3d.obj
 0002:0005b750       ??0CConvexPolygon2@@QAE@XZ 17112750 f i c_gfx3d.obj
 0002:0005b790       ?GetNumVerts@CConvexPolygon2@@QBEIXZ 17112790 f i c_gfx3d.obj
 0002:0005b7b0       ?GetVertex@CConvexPolygon2@@QBEABV?$CVec2@M@@I@Z 171127b0 f i c_gfx3d.obj
 0002:0005b7e0       ?AddVertex@CConvexPolygon2@@QAEXABV?$CVec2@M@@@Z 171127e0 f i c_gfx3d.obj
 0002:0005b840       ?ClipPosX@CConvexPolygon2@@QAEXM@Z 17112840 f i c_gfx3d.obj
 0002:0005c1d0       ?ClipPosY@CConvexPolygon2@@QAEXM@Z 171131d0 f i c_gfx3d.obj
 0002:0005cb70       ?ClipNegX@CConvexPolygon2@@QAEXM@Z 17113b70 f i c_gfx3d.obj
 0002:0005d500       ?ClipNegY@CConvexPolygon2@@QAEXM@Z 17114500 f i c_gfx3d.obj
 0002:0005dea0       ?AddSceneEntity@CGfx3D@@IAEXAAVIEmitter@@HM_N@Z 17114ea0 f   c_gfx3d.obj
 0002:0005e150       ?AddParticleSystemSceneEntities@CGfx3D@@IAEX_N@Z 17115150 f   c_gfx3d.obj
 0002:0005e490       ??1?$_Vector_iterator@PAUSSceneParticleSystemEntry@@V?$K2VectorAllocator@PAUSSceneParticleSystemEntry@@@@@std@@QAE@XZ 17115490 f i c_gfx3d.obj
 0002:0005e4c0       ??1?$_Vector_const_iterator@PAVIEmitter@@V?$K2VectorAllocator@PAVIEmitter@@@@@std@@QAE@XZ 171154c0 f i c_gfx3d.obj
 0002:0005e4f0       ??1?$_Vector_const_iterator@PAUSSceneParticleSystemEntry@@V?$K2VectorAllocator@PAUSSceneParticleSystemEntry@@@@@std@@QAE@XZ 171154f0 f i c_gfx3d.obj
 0002:0005e520       ??1?$_Ranit@PAVIEmitter@@HPBQAV1@ABQAV1@@std@@QAE@XZ 17115520 f i c_gfx3d.obj
 0002:0005e550       ??1?$_Ranit@PAUSSceneParticleSystemEntry@@HPBQAU1@ABQAU1@@std@@QAE@XZ 17115550 f i c_gfx3d.obj
 0002:0005e580       ?AddEmitter@CGfx3D@@IAEXAAVIEmitter@@HM@Z 17115580 f   c_gfx3d.obj
 0002:0005e8c0       ?BGRAtoRGBA@CGfxUtils@@QAEXAAK@Z 171158c0 f i c_gfx3d.obj
 0002:0005e930       ?AddParticleSystems@CGfx3D@@IAEXXZ 17115930 f   c_gfx3d.obj
 0002:0005ec60       ?ObjectBounds@CGfx3D@@QAEXAAV?$CBoundingBox@M@@@Z 17115c60 f   c_gfx3d.obj
 0002:0005eef0       ?SetFowProj@CGfx3D@@IAEXXZ 17115ef0 f   c_gfx3d.obj
 0002:0005efa0       ?SetCloudProj@CGfx3D@@IAEXM@Z 17115fa0 f   c_gfx3d.obj
 0002:0005f400       ?Shutdown@CGfx3D@@QAEXXZ   17116400 f   c_gfx3d.obj
 0002:0005f850       ??0?$vector@V?$CVec3@M@@V?$K2VectorAllocator@V?$CVec3@M@@@@@@QAE@I@Z 17116850 f i c_gfx3d.obj
 0002:0005f880       ??A?$vector@V?$CVec3@M@@V?$K2VectorAllocator@V?$CVec3@M@@@@@std@@QAEAAV?$CVec3@M@@I@Z 17116880 f i c_gfx3d.obj
 0002:0005f9a0       ?lt@?$CRect@M@@QAEAAV?$CVec2@M@@XZ 171169a0 f i c_gfx3d.obj
 0002:0005f9c0       ?rb@?$CRect@M@@QAEAAV?$CVec2@M@@XZ 171169c0 f i c_gfx3d.obj
 0002:0005f9e0       ?AddPoint@?$CRect@M@@QAEXABV?$CVec2@M@@@Z 171169e0 f i c_gfx3d.obj
 0002:0005fa90       ?begin@?$vector@PAUSSceneEntityEntry@@V?$K2VectorAllocator@PAUSSceneEntityEntry@@@@@std@@QAE?AV?$_Vector_iterator@PAUSSceneEntityEntry@@V?$K2VectorAllocator@PAUSSceneEntityEntry@@@@@2@XZ 17116a90 f i c_gfx3d.obj
 0002:0005fae0       ?begin@?$vector@PAUSSceneEntityEntry@@V?$K2VectorAllocator@PAUSSceneEntityEntry@@@@@std@@QBE?AV?$_Vector_const_iterator@PAUSSceneEntityEntry@@V?$K2VectorAllocator@PAUSSceneEntityEntry@@@@@2@XZ 17116ae0 f i c_gfx3d.obj
 0002:0005fb30       ?end@?$vector@PAUSSceneEntityEntry@@V?$K2VectorAllocator@PAUSSceneEntityEntry@@@@@std@@QAE?AV?$_Vector_iterator@PAUSSceneEntityEntry@@V?$K2VectorAllocator@PAUSSceneEntityEntry@@@@@2@XZ 17116b30 f i c_gfx3d.obj
 0002:0005fb80       ?end@?$vector@PAUSSceneEntityEntry@@V?$K2VectorAllocator@PAUSSceneEntityEntry@@@@@std@@QBE?AV?$_Vector_const_iterator@PAUSSceneEntityEntry@@V?$K2VectorAllocator@PAUSSceneEntityEntry@@@@@2@XZ 17116b80 f i c_gfx3d.obj
 0002:0005fbd0       ?begin@?$vector@PAUSSceneParticleSystemEntry@@V?$K2VectorAllocator@PAUSSceneParticleSystemEntry@@@@@std@@QAE?AV?$_Vector_iterator@PAUSSceneParticleSystemEntry@@V?$K2VectorAllocator@PAUSSceneParticleSystemEntry@@@@@2@XZ 17116bd0 f i c_gfx3d.obj
 0002:0005fc20       ?end@?$vector@PAUSSceneParticleSystemEntry@@V?$K2VectorAllocator@PAUSSceneParticleSystemEntry@@@@@std@@QAE?AV?$_Vector_iterator@PAUSSceneParticleSystemEntry@@V?$K2VectorAllocator@PAUSSceneParticleSystemEntry@@@@@2@XZ 17116c20 f i c_gfx3d.obj
 0002:0005fc70       ?begin@?$list@USSceneFaceEntry@@V?$K2ListAllocator@USSceneFaceEntry@@@@@std@@QBE?AV?$_Const_iterator@$00@12@XZ 17116c70 f i c_gfx3d.obj
 0002:0005fcd0       ?end@?$list@USSceneFaceEntry@@V?$K2ListAllocator@USSceneFaceEntry@@@@@std@@QBE?AV?$_Const_iterator@$00@12@XZ 17116cd0 f i c_gfx3d.obj
 0002:0005fd20       ?begin@?$vector@PAVIEmitter@@V?$K2VectorAllocator@PAVIEmitter@@@@@std@@QBE?AV?$_Vector_const_iterator@PAVIEmitter@@V?$K2VectorAllocator@PAVIEmitter@@@@@2@XZ 17116d20 f i c_gfx3d.obj
 0002:0005fd70       ?end@?$vector@PAVIEmitter@@V?$K2VectorAllocator@PAVIEmitter@@@@@std@@QBE?AV?$_Vector_const_iterator@PAVIEmitter@@V?$K2VectorAllocator@PAVIEmitter@@@@@2@XZ 17116d70 f i c_gfx3d.obj
 0002:0005fdc0       ?tan@@YAMM@Z               17116dc0 f i c_gfx3d.obj
 0002:0005fdf0       _tanf                      17116df0 f i c_gfx3d.obj
 0002:0005fe20       ??D?$_Vector_iterator@PAUSSceneEntityEntry@@V?$K2VectorAllocator@PAUSSceneEntityEntry@@@@@std@@QBEAAPAUSSceneEntityEntry@@XZ 17116e20 f i c_gfx3d.obj
 0002:0005fe50       ??E?$_Vector_iterator@PAUSSceneEntityEntry@@V?$K2VectorAllocator@PAUSSceneEntityEntry@@@@@std@@QAEAAV01@XZ 17116e50 f i c_gfx3d.obj
 0002:0005fe80       ??D?$_Vector_const_iterator@PAUSSceneEntityEntry@@V?$K2VectorAllocator@PAUSSceneEntityEntry@@@@@std@@QBEABQAUSSceneEntityEntry@@XZ 17116e80 f i c_gfx3d.obj
 0002:0005ff40       ??E?$_Vector_const_iterator@PAUSSceneEntityEntry@@V?$K2VectorAllocator@PAUSSceneEntityEntry@@@@@std@@QAEAAV01@XZ 17116f40 f i c_gfx3d.obj
 0002:00060030       ??9?$_Vector_const_iterator@PAUSSceneEntityEntry@@V?$K2VectorAllocator@PAUSSceneEntityEntry@@@@@std@@QBE_NABV01@@Z 17117030 f i c_gfx3d.obj
 0002:00060070       ??C?$_Const_iterator@$00@?$list@USSceneFaceEntry@@V?$K2ListAllocator@USSceneFaceEntry@@@@@std@@QBEPBUSSceneFaceEntry@@XZ 17117070 f i c_gfx3d.obj
 0002:000600a0       ??E?$_Const_iterator@$00@?$list@USSceneFaceEntry@@V?$K2ListAllocator@USSceneFaceEntry@@@@@std@@QAEAAV012@XZ 171170a0 f i c_gfx3d.obj
 0002:00060180       ??9?$_Const_iterator@$00@?$list@USSceneFaceEntry@@V?$K2ListAllocator@USSceneFaceEntry@@@@@std@@QBE_NABV012@@Z 17117180 f i c_gfx3d.obj
 0002:000601c0       ??D?$_Vector_iterator@PAUSSceneParticleSystemEntry@@V?$K2VectorAllocator@PAUSSceneParticleSystemEntry@@@@@std@@QBEAAPAUSSceneParticleSystemEntry@@XZ 171171c0 f i c_gfx3d.obj
 0002:000601f0       ??E?$_Vector_iterator@PAUSSceneParticleSystemEntry@@V?$K2VectorAllocator@PAUSSceneParticleSystemEntry@@@@@std@@QAEAAV01@XZ 171171f0 f i c_gfx3d.obj
 0002:00060220       ??9?$_Vector_const_iterator@PAUSSceneParticleSystemEntry@@V?$K2VectorAllocator@PAUSSceneParticleSystemEntry@@@@@std@@QBE_NABV01@@Z 17117220 f i c_gfx3d.obj
 0002:00060260       ??D?$_Vector_const_iterator@PAVIEmitter@@V?$K2VectorAllocator@PAVIEmitter@@@@@std@@QBEABQAVIEmitter@@XZ 17117260 f i c_gfx3d.obj
 0002:00060320       ??E?$_Vector_const_iterator@PAVIEmitter@@V?$K2VectorAllocator@PAVIEmitter@@@@@std@@QAEAAV01@XZ 17117320 f i c_gfx3d.obj
 0002:00060410       ??9?$_Vector_const_iterator@PAVIEmitter@@V?$K2VectorAllocator@PAVIEmitter@@@@@std@@QBE_NABV01@@Z 17117410 f i c_gfx3d.obj
 0002:00060450       ??0?$vector@V?$CVec3@M@@V?$K2VectorAllocator@V?$CVec3@M@@@@@std@@QAE@I@Z 17117450 f i c_gfx3d.obj
 0002:000604f0       ?_Nextnode@?$list@USSceneFaceEntry@@V?$K2ListAllocator@USSceneFaceEntry@@@@@std@@KAAAPAU_Node@?$_List_nod@USSceneFaceEntry@@V?$K2ListAllocator@USSceneFaceEntry@@@@@2@PAU342@@Z 171174f0 f i c_gfx3d.obj
 0002:00060510       ?INT_CEIL@@YAHM@Z          17117510 f i c_gfx3d.obj
 0002:00060540       ?ceil@@YAMM@Z              17117540 f i c_gfx3d.obj
 0002:00060570       _ceilf                     17117570 f i c_gfx3d.obj
 0002:000605b0       ??0?$_Vector_iterator@PAUSSceneEntityEntry@@V?$K2VectorAllocator@PAUSSceneEntityEntry@@@@@std@@QAE@PAPAUSSceneEntityEntry@@PBV_Container_base@1@@Z 171175b0 f i c_gfx3d.obj
 0002:000605f0       ??0?$_Vector_const_iterator@PAUSSceneEntityEntry@@V?$K2VectorAllocator@PAUSSceneEntityEntry@@@@@std@@QAE@PAPAUSSceneEntityEntry@@PBV_Container_base@1@@Z 171175f0 f i c_gfx3d.obj
 0002:000606f0       ??8?$_Vector_const_iterator@PAUSSceneEntityEntry@@V?$K2VectorAllocator@PAUSSceneEntityEntry@@@@@std@@QBE_NABV01@@Z 171176f0 f i c_gfx3d.obj
 0002:00060730       ??0?$_Const_iterator@$00@?$list@USSceneFaceEntry@@V?$K2ListAllocator@USSceneFaceEntry@@@@@std@@QAE@PAU_Node@?$_List_nod@USSceneFaceEntry@@V?$K2ListAllocator@USSceneFaceEntry@@@@@2@PBV12@@Z 17117730 f i c_gfx3d.obj
 0002:000607c0       ??D?$_Const_iterator@$00@?$list@USSceneFaceEntry@@V?$K2ListAllocator@USSceneFaceEntry@@@@@std@@QBEABUSSceneFaceEntry@@XZ 171177c0 f i c_gfx3d.obj
 0002:00060890       ??8?$_Const_iterator@$00@?$list@USSceneFaceEntry@@V?$K2ListAllocator@USSceneFaceEntry@@@@@std@@QBE_NABV012@@Z 17117890 f i c_gfx3d.obj
 0002:000608d0       ??0?$_Vector_iterator@PAUSSceneParticleSystemEntry@@V?$K2VectorAllocator@PAUSSceneParticleSystemEntry@@@@@std@@QAE@PAPAUSSceneParticleSystemEntry@@PBV_Container_base@1@@Z 171178d0 f i c_gfx3d.obj
 0002:00060910       ??D?$_Vector_const_iterator@PAUSSceneParticleSystemEntry@@V?$K2VectorAllocator@PAUSSceneParticleSystemEntry@@@@@std@@QBEABQAUSSceneParticleSystemEntry@@XZ 17117910 f i c_gfx3d.obj
 0002:000609d0       ??E?$_Vector_const_iterator@PAUSSceneParticleSystemEntry@@V?$K2VectorAllocator@PAUSSceneParticleSystemEntry@@@@@std@@QAEAAV01@XZ 171179d0 f i c_gfx3d.obj
 0002:00060ac0       ??8?$_Vector_const_iterator@PAUSSceneParticleSystemEntry@@V?$K2VectorAllocator@PAUSSceneParticleSystemEntry@@@@@std@@QBE_NABV01@@Z 17117ac0 f i c_gfx3d.obj
 0002:00060b00       ??0?$_Vector_const_iterator@PAVIEmitter@@V?$K2VectorAllocator@PAVIEmitter@@@@@std@@QAE@PAPAVIEmitter@@PBV_Container_base@1@@Z 17117b00 f i c_gfx3d.obj
 0002:00060c00       ??8?$_Vector_const_iterator@PAVIEmitter@@V?$K2VectorAllocator@PAVIEmitter@@@@@std@@QBE_NABV01@@Z 17117c00 f i c_gfx3d.obj
 0002:00060c40       ??0?$_Ranit@PAUSSceneEntityEntry@@HPBQAU1@ABQAU1@@std@@QAE@XZ 17117c40 f i c_gfx3d.obj
 0002:00060c70       ??0?$_Bidit@USSceneFaceEntry@@HPBU1@ABU1@@std@@QAE@XZ 17117c70 f i c_gfx3d.obj
 0002:00060ca0       ??0?$_Ranit@PAVIEmitter@@HPBQAV1@ABQAV1@@std@@QAE@XZ 17117ca0 f i c_gfx3d.obj
 0002:00060cd0       ?_Construct_n@?$vector@V?$CVec3@M@@V?$K2VectorAllocator@V?$CVec3@M@@@@@std@@QAEXIABV?$CVec3@M@@@Z 17117cd0 f i c_gfx3d.obj
 0002:00060da0       ?_Myval@?$list@USSceneFaceEntry@@V?$K2ListAllocator@USSceneFaceEntry@@@@@std@@KAAAUSSceneFaceEntry@@PAU_Node@?$_List_nod@USSceneFaceEntry@@V?$K2ListAllocator@USSceneFaceEntry@@@@@2@@Z 17117da0 f i c_gfx3d.obj
 0002:00060dc0       ??1CAxis@@QAE@XZ           17117dc0 f i c_gfx3d.obj
 0002:00060de0       ??0CAxis@@QAE@XZ           17117de0 f i c_gfx3d.obj
 0002:00060e20       ??0CAxis@@QAE@ABV?$CVec3@M@@@Z 17117e20 f i c_gfx3d.obj
 0002:00060e70       ??ACAxis@@QAEAAV?$CVec3@M@@H@Z 17117e70 f i c_gfx3d.obj
 0002:00060ea0       ?Right@CAxis@@QAEAAV?$CVec3@M@@XZ 17117ea0 f i c_gfx3d.obj
 0002:00060ec0       ?Up@CAxis@@QAEAAV?$CVec3@M@@XZ 17117ec0 f i c_gfx3d.obj
 0002:00060ee0       ?Set@CAxis@@QAEXABV?$CVec3@M@@@Z 17117ee0 f i c_gfx3d.obj
 0002:00060f50       ?Set@CAxis@@QAEXMMM@Z      17117f50 f i c_gfx3d.obj
 0002:00061160       ?SetFromForwardVec@CAxis@@QAEXABV?$CVec3@M@@@Z 17118160 f i c_gfx3d.obj
 0002:000612a0       ?_Compat@?$_Vector_const_iterator@PAUSSceneEntityEntry@@V?$K2VectorAllocator@PAUSSceneEntityEntry@@@@@std@@QBEXABV12@@Z 171182a0 f i c_gfx3d.obj
 0002:00061350       ?_Compat@?$_Const_iterator@$00@?$list@USSceneFaceEntry@@V?$K2ListAllocator@USSceneFaceEntry@@@@@std@@QBEXABV123@@Z 17118350 f i c_gfx3d.obj
 0002:00061410       ??0?$_Vector_const_iterator@PAUSSceneParticleSystemEntry@@V?$K2VectorAllocator@PAUSSceneParticleSystemEntry@@@@@std@@QAE@PAPAUSSceneParticleSystemEntry@@PBV_Container_base@1@@Z 17118410 f i c_gfx3d.obj
 0002:00061510       ?_Compat@?$_Vector_const_iterator@PAUSSceneParticleSystemEntry@@V?$K2VectorAllocator@PAUSSceneParticleSystemEntry@@@@@std@@QBEXABV12@@Z 17118510 f i c_gfx3d.obj
 0002:000615c0       ?_Compat@?$_Vector_const_iterator@PAVIEmitter@@V?$K2VectorAllocator@PAVIEmitter@@@@@std@@QBEXABV12@@Z 171185c0 f i c_gfx3d.obj
 0002:00061670       ??0?$_Ranit@PAUSSceneParticleSystemEntry@@HPBQAU1@ABQAU1@@std@@QAE@XZ 17118670 f i c_gfx3d.obj
 0002:000616a0       ?_Ufill@?$vector@V?$CVec3@M@@V?$K2VectorAllocator@V?$CVec3@M@@@@@std@@IAEPAV?$CVec3@M@@PAV3@IABV3@@Z 171186a0 f i c_gfx3d.obj
 0002:000616f0       ?Project@CPlane@@QBE?AV?$CVec3@M@@ABV?$CVec2@M@@@Z 171186f0 f i c_gfx3d.obj
 0002:00061770       ?M_SinCos@@YAXMAAM0@Z      17118770 f i c_gfx3d.obj
 0002:000617a0       ??$DotProduct@M@@YAMABV?$CVec2@M@@0@Z 171187a0 f i c_gfx3d.obj
 0002:000617e0       ??$LERP@V?$CVec2@M@@@@YA?AV?$CVec2@M@@MV0@0@Z 171187e0 f i c_gfx3d.obj
 0002:00061850       ??$MIN@M@@YAABMABM0@Z      17118850 f i c_gfx3d.obj
 0002:000618a0       ??$MAX@M@@YAABMABM0@Z      171188a0 f i c_gfx3d.obj
 0002:000618f0       ??$unchecked_uninitialized_fill_n@PAV?$CVec3@M@@IV1@V?$K2VectorAllocator@V?$CVec3@M@@@@@stdext@@YAXPAV?$CVec3@M@@IABV1@AAV?$K2VectorAllocator@V?$CVec3@M@@@@@Z 171188f0 f i c_gfx3d.obj
 0002:00061950       ??$_Ptr_cat@PAV?$CVec3@M@@PAV1@@std@@YA?AU_Nonscalar_ptr_iterator_tag@0@AAPAV?$CVec3@M@@0@Z 17118950 f i c_gfx3d.obj
 0002:00061970       ??$_Uninit_fill_n@PAV?$CVec3@M@@IV1@V?$K2VectorAllocator@V?$CVec3@M@@@@@std@@YAXPAV?$CVec3@M@@IABV1@AAV?$K2VectorAllocator@V?$CVec3@M@@@@U_Nonscalar_ptr_iterator_tag@0@U_Range_checked_iterator_tag@0@@Z 17118970 f i c_gfx3d.obj
 0002:00061a60       ?destroy@?$allocator@V?$CVec3@M@@@std@@QAEXPAV?$CVec3@M@@@Z 17118a60 f i c_gfx3d.obj
 0002:00061a90       ??$_Destroy@V?$CVec3@M@@@std@@YAXPAV?$CVec3@M@@@Z 17118a90 f i c_gfx3d.obj
 0002:00061ab0       ?construct@?$allocator@V?$CVec3@M@@@std@@QAEXPAV?$CVec3@M@@ABV3@@Z 17118ab0 f i c_gfx3d.obj
 0002:00061ae0       ??1CCamera@@QAE@XZ         17118ae0 f i c_gfx3d.obj
 0002:00061b10       ??0CCamera@@QAE@XZ         17118b10 f i c_gfx3d.obj
 0002:00061ca0       ??0CAxis@@QAE@MMM@Z        17118ca0 f i c_gfx3d.obj
 0002:00061d00       ??0CPlane@@QAE@MMMM@Z      17118d00 f i c_gfx3d.obj
 0002:00061d50       ?GetX@CCamera@@QBEMXZ      17118d50 f i c_gfx3d.obj
 0002:00061d70       ?GetY@CCamera@@QBEMXZ      17118d70 f i c_gfx3d.obj
 0002:00061d90       ?GetWidth@CCamera@@QBEMXZ  17118d90 f i c_gfx3d.obj
 0002:00061db0       ?GetHeight@CCamera@@QBEMXZ 17118db0 f i c_gfx3d.obj
 0002:00061dd0       ?GetFovX@CCamera@@QBEMXZ   17118dd0 f i c_gfx3d.obj
 0002:00061df0       ?GetFovY@CCamera@@QBEMXZ   17118df0 f i c_gfx3d.obj
 0002:00061e10       ?GetAspect@CCamera@@QBEMXZ 17118e10 f i c_gfx3d.obj
 0002:00061e30       ?GetZNear@CCamera@@QBEMXZ  17118e30 f i c_gfx3d.obj
 0002:00061e50       ?GetZFar@CCamera@@QBEMXZ   17118e50 f i c_gfx3d.obj
 0002:00061e70       ?GetOrthoWidth@CCamera@@QBEMXZ 17118e70 f i c_gfx3d.obj
 0002:00061e90       ?GetOrthoHeight@CCamera@@QBEMXZ 17118e90 f i c_gfx3d.obj
 0002:00061eb0       ?GetOrigin@CCamera@@QBEMW4EVectorComponent@@@Z 17118eb0 f i c_gfx3d.obj
 0002:00061ee0       ?HasFlags@CCamera@@QBE_NH@Z 17118ee0 f i c_gfx3d.obj
 0002:00061f10       ??1?$vector@V?$CVec3@M@@V?$K2VectorAllocator@V?$CVec3@M@@@@@@QAE@XZ 17118f10 f i c_gfx3d.obj
 0002:00061f40       ?GetBounds@IModel@@QAEAAV?$CBoundingBox@M@@XZ 17118f40 f i c_gfx3d.obj
 0002:00061f60       ?GetModelFile@CModel@@QAEPAVIModel@@XZ 17118f60 f i c_gfx3d.obj
 0002:00061f90       ??$_Construct@V?$CVec3@M@@V1@@std@@YAXPAV?$CVec3@M@@ABV1@@Z 17118f90 f i c_gfx3d.obj
 0002:00062000       ??1CSceneLight@@QAE@XZ     17119000 f i c_gfx3d.obj
 0002:00062020       ??0CSceneLight@@QAE@ABV?$CVec3@M@@0MM@Z 17119020 f i c_gfx3d.obj
 0002:00062090       ?GetEntityList@CSceneManager@@QAEAAV?$vector@PAUSSceneEntityEntry@@V?$K2VectorAllocator@PAUSSceneEntityEntry@@@@@@XZ 17119090 f i c_gfx3d.obj
 0002:000620c0       ?GetSkyEntityList@CSceneManager@@QAEAAV?$vector@PAUSSceneEntityEntry@@V?$K2VectorAllocator@PAUSSceneEntityEntry@@@@@@XZ 171190c0 f i c_gfx3d.obj
 0002:000620f0       ?GetFaceList@CSceneManager@@QAEAAV?$list@USSceneFaceEntry@@V?$K2ListAllocator@USSceneFaceEntry@@@@@@XZ 171190f0 f i c_gfx3d.obj
 0002:00062120       ?GetParticleSystemList@CSceneManager@@QAEAAV?$vector@PAUSSceneParticleSystemEntry@@V?$K2VectorAllocator@PAUSSceneParticleSystemEntry@@@@@@XZ 17119120 f i c_gfx3d.obj
 0002:00062150       ?GetSunPos@CSceneManager@@QAEABV?$CVec3@M@@XZ 17119150 f i c_gfx3d.obj
 0002:00062180       ?GetTileWidth@CWorld@@QBEHXZ 17119180 f i c_gfx3d.obj
 0002:000621b0       ?GetTileHeight@CWorld@@QBEHXZ 171191b0 f i c_gfx3d.obj
 0002:000621e0       ?GetTilePlane@CWorld@@QBEABVCPlane@@HHW4EGridTriangles@@@Z 171191e0 f i c_gfx3d.obj
 0002:00062220       ?GetSplitMap@CWorld@@QBEPAEXZ 17119220 f i c_gfx3d.obj
 0002:00062250       ?GetSplitMap@CTileSplitMap@@QBEPAEXZ 17119250 f i c_gfx3d.obj
 0002:00062270       ?GetNextEmitter@IEmitter@@QBEPAV1@XZ 17119270 f i c_gfx3d.obj
 0002:00062290       ?GetEmitterList@CParticleSystem@@QBEABV?$vector@PAVIEmitter@@V?$K2VectorAllocator@PAVIEmitter@@@@@@XZ 17119290 f i c_gfx3d.obj
 0002:000622b0       ??0D3DXMATRIX@@QAE@MMMMMMMMMMMMMMMM@Z 171192b0 f i c_gfx3d.obj
 0002:00062380       ?D3DXMatrixIdentity@@YAPAUD3DXMATRIX@@PAU1@@Z 17119380 f i c_gfx3d.obj
 0002:00062440       ??1?$vector@V?$CVec3@M@@V?$K2VectorAllocator@V?$CVec3@M@@@@@std@@QAE@XZ 17119440 f i c_gfx3d.obj
 0002:000624c0       ?size@?$vector@V?$CVec3@M@@V?$K2VectorAllocator@V?$CVec3@M@@@@@std@@QBEIXZ 171194c0 f i c_gfx3d.obj
 0002:00062510       ??1?$CRect@M@@QAE@XZ       17119510 f i c_gfx3d.obj
 0002:00062530       ??0?$CRect@M@@QAE@MMMM@Z   17119530 f i c_gfx3d.obj
 0002:00062580       ??1?$_Vector_val@V?$CVec3@M@@V?$K2VectorAllocator@V?$CVec3@M@@@@@std@@QAE@XZ 17119580 f i c_gfx3d.obj
 0002:00062600       ?_Tidy@?$vector@V?$CVec3@M@@V?$K2VectorAllocator@V?$CVec3@M@@@@@std@@IAEXXZ 17119600 f i c_gfx3d.obj
 0002:000626a0       ?_Destroy@?$vector@V?$CVec3@M@@V?$K2VectorAllocator@V?$CVec3@M@@@@@std@@IAEXPAV?$CVec3@M@@0@Z 171196a0 f i c_gfx3d.obj
 0002:000626e0       ??1?$K2VectorAllocator@V?$CVec3@M@@@@QAE@XZ 171196e0 f i c_gfx3d.obj
 0002:00062700       ?deallocate@?$K2VectorAllocator@V?$CVec3@M@@@@QAEXPAV?$CVec3@M@@I@Z 17119700 f i c_gfx3d.obj
 0002:00062740       ?_Buy@?$vector@V?$CVec3@M@@V?$K2VectorAllocator@V?$CVec3@M@@@@@std@@IAE_NI@Z 17119740 f i c_gfx3d.obj
 0002:000627f0       ?max_size@?$vector@V?$CVec3@M@@V?$K2VectorAllocator@V?$CVec3@M@@@@@std@@QBEIXZ 171197f0 f i c_gfx3d.obj
 0002:00062820       ?_Xlen@?$vector@V?$CVec3@M@@V?$K2VectorAllocator@V?$CVec3@M@@@@@std@@KAXXZ 17119820 f i c_gfx3d.obj
 0002:000628d0       ?allocate@?$K2VectorAllocator@V?$CVec3@M@@@@QAEPAV?$CVec3@M@@I@Z 171198d0 f i c_gfx3d.obj
 0002:00062920       ??0?$_Vector_val@V?$CVec3@M@@V?$K2VectorAllocator@V?$CVec3@M@@@@@std@@IAE@V?$K2VectorAllocator@V?$CVec3@M@@@@@Z 17119920 f i c_gfx3d.obj
 0002:000629c0       ??0?$K2VectorAllocator@V?$CVec3@M@@@@QAE@XZ 171199c0 f i c_gfx3d.obj
 0002:000629f0       ?max_size@?$allocator@V?$CVec3@M@@@std@@QBEIXZ 171199f0 f i c_gfx3d.obj
 0002:00062a30       ??0?$K2VectorAllocator@V?$CVec3@M@@@@QAE@ABV0@@Z 17119a30 f i c_gfx3d.obj
 0002:00062a60       ??0?$allocator@V?$CVec3@M@@@std@@QAE@XZ 17119a60 f i c_gfx3d.obj
 0002:00062a80       ??0?$allocator@V?$CVec3@M@@@std@@QAE@ABV01@@Z 17119a80 f i c_gfx3d.obj
 0002:00062aa0       ??$CLAMP@H@@YAHHHH@Z       17119aa0 f i c_gfx3d.obj
 0002:00062af0       ??$CrossProduct@M@@YA?AV?$CVec3@M@@ABV0@0@Z 17119af0 f i c_gfx3d.obj
 0002:00062ba0       ??$Normalize@M@@YA?AV?$CVec3@M@@ABV0@@Z 17119ba0 f i c_gfx3d.obj
 0002:00062c90       ??$_Destroy_range@V?$CVec3@M@@V?$K2VectorAllocator@V?$CVec3@M@@@@@std@@YAXPAV?$CVec3@M@@0AAV?$K2VectorAllocator@V?$CVec3@M@@@@@Z 17119c90 f i c_gfx3d.obj
 0002:00062ce0       ??$_Destroy_range@V?$CVec3@M@@V?$K2VectorAllocator@V?$CVec3@M@@@@@std@@YAXPAV?$CVec3@M@@0AAV?$K2VectorAllocator@V?$CVec3@M@@@@U_Nonscalar_ptr_iterator_tag@0@@Z 17119ce0 f i c_gfx3d.obj
 0002:00062d20       ?GetInstance@CGfx3D@@SAPAV1@XZ 17119d20 f i c_gfx3d.obj
 0002:00062e30       ??0?$CCvar@V?$CVec3@M@@M@@QAE@ABV?$basic_string@_WU?$char_traits@_W@std@@V?$K2StringAllocator@_W@@@std@@V?$CVec3@M@@HP6A_NPAVCConsoleElement@@ABV?$vector@V?$basic_string@_WU?$char_traits@_W@std@@V?$K2StringAllocator@_W@@@std@@V?$K2VectorAllocator@V?$basic_string@_WU?$char_traits@_W@std@@V?$K2StringAllocator@_W@@@std@@@@@@@Z@Z 17119e30 f i c_gfx3d.obj
 0002:00062fa0       ?UpdateChildren@?$CCvar@V?$CVec3@M@@M@@QAEXXZ 17119fa0 f i c_gfx3d.obj
 0002:00063150       ?Set@?$CCvar@V?$CVec3@M@@M@@UAEXABV?$basic_string@_WU?$char_traits@_W@std@@V?$K2StringAllocator@_W@@@std@@@Z 1711a150 f i c_gfx3d.obj
 0002:000631e0       ??_G?$CCvar@V?$CVec3@M@@M@@UAEPAXI@Z 1711a1e0 f i c_gfx3d.obj
 0002:000631e0       ??_E?$CCvar@V?$CVec3@M@@M@@UAEPAXI@Z 1711a1e0 f i c_gfx3d.obj
 0002:00063230       ?SetIndex@?$CCvar@V?$CVec3@M@@M@@UAEXIABV?$basic_string@_WU?$char_traits@_W@std@@V?$K2StringAllocator@_W@@@std@@@Z 1711a230 f i c_gfx3d.obj
 0002:00063380       ?AtoF@@YAMABV?$basic_string@_WU?$char_traits@_W@std@@V?$K2StringAllocator@_W@@@std@@@Z 1711a380 f i c_gfx3d.obj
 0002:000633b0       ??6CConsoleStream@@QAEAAV0@I@Z 1711a3b0 f i c_gfx3d.obj
 0002:00063460       ??1?$CCvar@V?$CVec3@M@@M@@UAE@XZ 1711a460 f i c_gfx3d.obj
 0002:00063490       ?Reset@?$CCvar@V?$CVec3@M@@M@@UAEXXZ 1711a490 f i c_gfx3d.obj
 0002:00063510       ?IsDefault@?$CCvar@V?$CVec3@M@@M@@UBE_NXZ 1711a510 f i c_gfx3d.obj
 0002:00063550       ?StoreValue@?$CCvar@V?$CVec3@M@@M@@UAEXXZ 1711a550 f i c_gfx3d.obj
 0002:000635a0       ?RestoreStored@?$CCvar@V?$CVec3@M@@M@@UAEXXZ 1711a5a0 f i c_gfx3d.obj
 0002:000635f0       ?GetString@?$CCvar@V?$CVec3@M@@M@@UBE?AV?$basic_string@_WU?$char_traits@_W@std@@V?$K2StringAllocator@_W@@@std@@XZ 1711a5f0 f i c_gfx3d.obj
 0002:00063650       ?Inc@?$CCvar@V?$CVec3@M@@M@@UAEXABV?$basic_string@_WU?$char_traits@_W@std@@V?$K2StringAllocator@_W@@@std@@@Z 1711a650 f i c_gfx3d.obj
 0002:00063670       ?Toggle@?$CCvar@V?$CVec3@M@@M@@UAEXXZ 1711a670 f i c_gfx3d.obj
 0002:00063690       ?GetRangeString@?$CCvar@V?$CVec3@M@@M@@UBE?AV?$basic_string@_WU?$char_traits@_W@std@@V?$K2StringAllocator@_W@@@std@@XZ 1711a690 f i c_gfx3d.obj
 0002:000638f0       ??$QuoteStr@V?$basic_string@_WU?$char_traits@_W@std@@V?$K2StringAllocator@_W@@@std@@@@YA?AV?$basic_string@_WU?$char_traits@_W@std@@V?$K2StringAllocator@_W@@@std@@V01@@Z 1711a8f0 f i c_gfx3d.obj
 0002:000639d0       ?XtoW@@YAABV?$basic_string@_WU?$char_traits@_W@std@@V?$K2StringAllocator@_W@@@std@@ABV12@@Z 1711a9d0 f i c_gfx3d.obj
 0002:000639f0       ??0?$CCvar@MM@@QAE@ABV?$basic_string@_WU?$char_traits@_W@std@@V?$K2StringAllocator@_W@@@std@@MHP6A_NPAVCConsoleElement@@ABV?$vector@V?$basic_string@_WU?$char_traits@_W@std@@V?$K2StringAllocator@_W@@@std@@V?$K2VectorAllocator@V?$basic_string@_WU?$char_traits@_W@std@@V?$K2StringAllocator@_W@@@std@@@@@@@Z@Z 1711a9f0 f i c_gfx3d.obj
 0002:00063b00       ??_G?$CCvar@MM@@UAEPAXI@Z  1711ab00 f i c_gfx3d.obj
 0002:00063b00       ??_E?$CCvar@MM@@UAEPAXI@Z  1711ab00 f i c_gfx3d.obj
 0002:00063b50       ?Set@?$CCvar@MM@@UAEXABV?$basic_string@_WU?$char_traits@_W@std@@V?$K2StringAllocator@_W@@@std@@@Z 1711ab50 f i c_gfx3d.obj
 0002:00063d50       ??6CConsoleStream@@QAEAAV0@M@Z 1711ad50 f i c_gfx3d.obj
 0002:00063e00       ?XtoW@@YA?AV?$basic_string@_WU?$char_traits@_W@std@@V?$K2StringAllocator@_W@@@std@@MHHH@Z 1711ae00 f i c_gfx3d.obj
 0002:00063ee0       ?Inc@?$CCvar@MM@@UAEXABV?$basic_string@_WU?$char_traits@_W@std@@V?$K2StringAllocator@_W@@@std@@@Z 1711aee0 f i c_gfx3d.obj
 0002:00063f60       ?Toggle@?$CCvar@MM@@UAEXXZ 1711af60 f i c_gfx3d.obj
 0002:00063fc0       ??1?$CCvar@MM@@UAE@XZ      1711afc0 f i c_gfx3d.obj
 0002:00063ff0       ?Reset@?$CCvar@MM@@UAEXXZ  1711aff0 f i c_gfx3d.obj
 0002:00064050       ?IsDefault@?$CCvar@MM@@UBE_NXZ 1711b050 f i c_gfx3d.obj
 0002:000640b0       ?StoreValue@?$CCvar@MM@@UAEXXZ 1711b0b0 f i c_gfx3d.obj
 0002:000640e0       ?RestoreStored@?$CCvar@MM@@UAEXXZ 1711b0e0 f i c_gfx3d.obj
 0002:00064110       ?GetString@?$CCvar@MM@@UBE?AV?$basic_string@_WU?$char_traits@_W@std@@V?$K2StringAllocator@_W@@@std@@XZ 1711b110 f i c_gfx3d.obj
 0002:00064170       ?SetIndex@?$CCvar@MM@@UAEXIABV?$basic_string@_WU?$char_traits@_W@std@@V?$K2StringAllocator@_W@@@std@@@Z 1711b170 f i c_gfx3d.obj
 0002:00064190       ?SetValueIndex@?$CCvar@V?$CVec3@M@@M@@QAEXIM@Z 1711b190 f i c_gfx3d.obj
 0002:000641e0       ?SetValueIndex@?$CCvar@V?$CVec4@M@@M@@QAEXIM@Z 1711b1e0 f i c_gfx3d.obj
 0002:00064230       ?GetRangeString@?$CCvar@MM@@UBE?AV?$basic_string@_WU?$char_traits@_W@std@@V?$K2StringAllocator@_W@@@std@@XZ 1711b230 f i c_gfx3d.obj
 0002:000644a0       ??0?$CCvar@V?$basic_string@_WU?$char_traits@_W@std@@V?$K2StringAllocator@_W@@@std@@V12@@@QAE@ABV?$basic_string@_WU?$char_traits@_W@std@@V?$K2StringAllocator@_W@@@std@@0HP6A_NPAVCConsoleElement@@ABV?$vector@V?$basic_string@_WU?$char_traits@_W@std@@V?$K2StringAllocator@_W@@@std@@V?$K2VectorAllocator@V?$basic_string@_WU?$char_traits@_W@std@@V?$K2StringAllocator@_W@@@std@@@@@@@Z@Z 1711b4a0 f i c_gfx3d.obj
 0002:000645e0       ?Reset@?$CCvar@V?$basic_string@_WU?$char_traits@_W@std@@V?$K2StringAllocator@_W@@@std@@V12@@@UAEXXZ 1711b5e0 f i c_gfx3d.obj
 0002:00064650       ?IsDefault@?$CCvar@V?$basic_string@_WU?$char_traits@_W@std@@V?$K2StringAllocator@_W@@@std@@V12@@@UBE_NXZ 1711b650 f i c_gfx3d.obj
 0002:00064690       ?StoreValue@?$CCvar@V?$basic_string@_WU?$char_traits@_W@std@@V?$K2StringAllocator@_W@@@std@@V12@@@UAEXXZ 1711b690 f i c_gfx3d.obj
 0002:000646d0       ?RestoreStored@?$CCvar@V?$basic_string@_WU?$char_traits@_W@std@@V?$K2StringAllocator@_W@@@std@@V12@@@UAEXXZ 1711b6d0 f i c_gfx3d.obj
 0002:00064710       ?GetString@?$CCvar@V?$basic_string@_WU?$char_traits@_W@std@@V?$K2StringAllocator@_W@@@std@@V12@@@UBE?AV?$basic_string@_WU?$char_traits@_W@std@@V?$K2StringAllocator@_W@@@std@@XZ 1711b710 f i c_gfx3d.obj
 0002:00064760       ?SetIndex@?$CCvar@V?$basic_string@_WU?$char_traits@_W@std@@V?$K2StringAllocator@_W@@@std@@V12@@@UAEXIABV?$basic_string@_WU?$char_traits@_W@std@@V?$K2StringAllocator@_W@@@std@@@Z 1711b760 f i c_gfx3d.obj
 0002:00064780       ?GetRangeString@?$CCvar@V?$basic_string@_WU?$char_traits@_W@std@@V?$K2StringAllocator@_W@@@std@@V12@@@UBE?AV?$basic_string@_WU?$char_traits@_W@std@@V?$K2StringAllocator@_W@@@std@@XZ 1711b780 f i c_gfx3d.obj
 0002:000647d0       ??_E?$CCvar@V?$basic_string@_WU?$char_traits@_W@std@@V?$K2StringAllocator@_W@@@std@@V12@@@UAEPAXI@Z 1711b7d0 f i c_gfx3d.obj
 0002:000647d0       ??_G?$CCvar@V?$basic_string@_WU?$char_traits@_W@std@@V?$K2StringAllocator@_W@@@std@@V12@@@UAEPAXI@Z 1711b7d0 f i c_gfx3d.obj
 0002:00064820       ??1?$CCvar@V?$basic_string@_WU?$char_traits@_W@std@@V?$K2StringAllocator@_W@@@std@@V12@@@UAE@XZ 1711b820 f i c_gfx3d.obj
 0002:000648e0       ?Set@?$CCvar@V?$basic_string@_WU?$char_traits@_W@std@@V?$K2StringAllocator@_W@@@std@@V12@@@UAEXABV?$basic_string@_WU?$char_traits@_W@std@@V?$K2StringAllocator@_W@@@std@@@Z 1711b8e0 f i c_gfx3d.obj
 0002:000649d0       ?Inc@?$CCvar@V?$basic_string@_WU?$char_traits@_W@std@@V?$K2StringAllocator@_W@@@std@@V12@@@UAEXABV?$basic_string@_WU?$char_traits@_W@std@@V?$K2StringAllocator@_W@@@std@@@Z 1711b9d0 f i c_gfx3d.obj
 0002:00064b90       ?Toggle@?$CCvar@V?$basic_string@_WU?$char_traits@_W@std@@V?$K2StringAllocator@_W@@@std@@V12@@@UAEXXZ 1711bb90 f i c_gfx3d.obj
 0002:00064be0       ??$?8_WU?$char_traits@_W@std@@V?$K2StringAllocator@_W@@@std@@YA_NABV?$basic_string@_WU?$char_traits@_W@std@@V?$K2StringAllocator@_W@@@0@0@Z 1711bbe0 f i c_gfx3d.obj
 0002:00064c10       ?compare@?$basic_string@_WU?$char_traits@_W@std@@V?$K2StringAllocator@_W@@@std@@QBEHABV12@@Z 1711bc10 f i c_gfx3d.obj
 0002:00064c60       ??$?9_WU?$char_traits@_W@std@@V?$K2StringAllocator@_W@@@std@@YA_NABV?$basic_string@_WU?$char_traits@_W@std@@V?$K2StringAllocator@_W@@@0@0@Z 1711bc60 f i c_gfx3d.obj
 0002:00064ca0       ?Release@CGfxInit@@SAXXZ   1711bca0 f   c_gfxinit.obj
 0002:00064d30       ??_GCGfxInit@@QAEPAXI@Z    1711bd30 f i c_gfxinit.obj
 0002:00064d80       ??0CGfxInit@@AAE@XZ        1711bd80 f   c_gfxinit.obj
 0002:00064da0       ??1CGfxInit@@QAE@XZ        1711bda0 f   c_gfxinit.obj
 0002:00064dc0       ?Init@CGfxInit@@QAEXXZ     1711bdc0 f   c_gfxinit.obj
 0002:00064df0       ?Start@CGfxInit@@QAEXXZ    1711bdf0 f   c_gfxinit.obj
 0002:000656e0       ?AtoF@@YAMABV?$basic_string@DU?$char_traits@D@std@@V?$K2StringAllocator@D@@@std@@@Z 1711c6e0 f i c_gfxinit.obj
 0002:00065720       ?c_str@?$basic_string@DU?$char_traits@D@std@@V?$K2StringAllocator@D@@@std@@QBEPBDXZ 1711c720 f i c_gfxinit.obj
 0002:00065750       ?GetInstance@CGfxInit@@SAPAV1@XZ 1711c750 f i c_gfxinit.obj
 0002:00065860       ?Release@CGfxMaterials@@SAXXZ 1711c860 f   c_gfxmaterials.obj
 0002:000658f0       ??_GCGfxMaterials@@QAEPAXI@Z 1711c8f0 f i c_gfxmaterials.obj
 0002:00065940       ??1CGfxMaterials@@QAE@XZ   1711c940 f   c_gfxmaterials.obj
 0002:00065960       ??0CGfxMaterials@@AAE@XZ   1711c960 f   c_gfxmaterials.obj
 0002:00065980       ?Init@CGfxMaterials@@QAEXXZ 1711c980 f   c_gfxmaterials.obj
 0002:000667b0       ?SelectMaterial@CGfxMaterials@@QAE_NABVCMaterial@@W4EMaterialPhase@@M_N@Z 1711d7b0 f   c_gfxmaterials.obj
 0002:000674b0       ?Get@CShaderVar@@QAE_NIH@Z 1711e4b0 f i c_gfxmaterials.obj
 0002:000674f0       ?GetType@CShadowmap@@QAE?AW4EShadowmapType@@XZ 1711e4f0 f i c_gfxmaterials.obj
 0002:00067510       ?GetType@IMaterialParameter@@QBE?AW4EMatertialParamType@@XZ 1711e510 f i c_gfxmaterials.obj
 0002:00067530       ?SetSampler@CGfxMaterials@@AAEXHIABVCMaterialSampler@@I@Z 1711e530 f   c_gfxmaterials.obj
 0002:000679c0       ?BindAttributes@CGfxMaterials@@QAEXABV?$map@V?$basic_string@_WU?$char_traits@_W@std@@V?$K2StringAllocator@_W@@@std@@USVertexAttribute@@U?$less@V?$basic_string@_WU?$char_traits@_W@std@@V?$K2StringAllocator@_W@@@std@@@2@V?$K2MapAllocator@U?$pair@$$CBV?$basic_string@_WU?$char_traits@_W@std@@V?$K2StringAllocator@_W@@@std@@USVertexAttribute@@@std@@@@@@H@Z 1711e9c0 f   c_gfxmaterials.obj
 0002:00067b60       ??1const_iterator@?$_Tree@V?$_Tmap_traits@V?$basic_string@_WU?$char_traits@_W@std@@V?$K2StringAllocator@_W@@@std@@USVertexAttribute@@U?$less@V?$basic_string@_WU?$char_traits@_W@std@@V?$K2StringAllocator@_W@@@std@@@2@V?$K2MapAllocator@U?$pair@$$CBV?$basic_string@_WU?$char_traits@_W@std@@V?$K2StringAllocator@_W@@@std@@USVertexAttribute@@@std@@@@$0A@@std@@@std@@QAE@XZ 1711eb60 f i c_gfxmaterials.obj
 0002:00067b90       ??1?$_Bidit@U?$pair@$$CBV?$basic_string@_WU?$char_traits@_W@std@@V?$K2StringAllocator@_W@@@std@@USVertexAttribute@@@std@@HPBU12@ABU12@@std@@QAE@XZ 1711eb90 f i c_gfxmaterials.obj
 0002:00067bc0       ?UnbindAttributes@CGfxMaterials@@QAEXXZ 1711ebc0 f   c_gfxmaterials.obj
 0002:00067c40       ?GetTextureStage@CGfxMaterials@@QAEHABV?$basic_string@_WU?$char_traits@_W@std@@V?$K2StringAllocator@_W@@@std@@@Z 1711ec40 f   c_gfxmaterials.obj
 0002:00067cf0       ?UpdateShaderTexture@CGfxMaterials@@QAE_NHII@Z 1711ecf0 f   c_gfxmaterials.obj
 0002:00067dc0       ?UpdateShaderTexture@CGfxMaterials@@QAE_NABV?$basic_string@_WU?$char_traits@_W@std@@V?$K2StringAllocator@_W@@@std@@III@Z 1711edc0 f   c_gfxmaterials.obj
 0002:000682a0       ?UpdateShaderParams@CGfxMaterials@@QAE_NABVCMaterial@@M@Z 1711f2a0 f   c_gfxmaterials.obj
 0002:000685c0       ?end@?$_Tree@V?$_Tmap_traits@V?$basic_string@_WU?$char_traits@_W@std@@V?$K2StringAllocator@_W@@@std@@USVertexAttribute@@U?$less@V?$basic_string@_WU?$char_traits@_W@std@@V?$K2StringAllocator@_W@@@std@@@2@V?$K2MapAllocator@U?$pair@$$CBV?$basic_string@_WU?$char_traits@_W@std@@V?$K2StringAllocator@_W@@@std@@USVertexAttribute@@@std@@@@$0A@@std@@@std@@QBE?AVconst_iterator@12@XZ 1711f5c0 f i c_gfxmaterials.obj
 0002:00068610       ?find@?$_Tree@V?$_Tmap_traits@V?$basic_string@_WU?$char_traits@_W@std@@V?$K2StringAllocator@_W@@@std@@USVertexAttribute@@U?$less@V?$basic_string@_WU?$char_traits@_W@std@@V?$K2StringAllocator@_W@@@std@@@2@V?$K2MapAllocator@U?$pair@$$CBV?$basic_string@_WU?$char_traits@_W@std@@V?$K2StringAllocator@_W@@@std@@USVertexAttribute@@@std@@@@$0A@@std@@@std@@QBE?AVconst_iterator@12@ABV?$basic_string@_WU?$char_traits@_W@std@@V?$K2StringAllocator@_W@@@2@@Z 1711f610 f i c_gfxmaterials.obj
 0002:000687f0       ?size@?$vector@USShaderUniform@@V?$K2VectorAllocator@USShaderUniform@@@@@std@@QBEIXZ 1711f7f0 f i c_gfxmaterials.obj
 0002:00068840       ??A?$vector@USShaderUniform@@V?$K2VectorAllocator@USShaderUniform@@@@@std@@QAEAAUSShaderUniform@@I@Z 1711f840 f i c_gfxmaterials.obj
 0002:00068960       ??Cconst_iterator@?$_Tree@V?$_Tmap_traits@V?$basic_string@_WU?$char_traits@_W@std@@V?$K2StringAllocator@_W@@@std@@USVertexAttribute@@U?$less@V?$basic_string@_WU?$char_traits@_W@std@@V?$K2StringAllocator@_W@@@std@@@2@V?$K2MapAllocator@U?$pair@$$CBV?$basic_string@_WU?$char_traits@_W@std@@V?$K2StringAllocator@_W@@@std@@USVertexAttribute@@@std@@@@$0A@@std@@@std@@QBEPBU?$pair@$$CBV?$basic_string@_WU?$char_traits@_W@std@@V?$K2StringAllocator@_W@@@std@@USVertexAttribute@@@2@XZ 1711f960 f i c_gfxmaterials.obj
 0002:00068990       ??9const_iterator@?$_Tree@V?$_Tmap_traits@V?$basic_string@_WU?$char_traits@_W@std@@V?$K2StringAllocator@_W@@@std@@USVertexAttribute@@U?$less@V?$basic_string@_WU?$char_traits@_W@std@@V?$K2StringAllocator@_W@@@std@@@2@V?$K2MapAllocator@U?$pair@$$CBV?$basic_string@_WU?$char_traits@_W@std@@V?$K2StringAllocator@_W@@@std@@USVertexAttribute@@@std@@@@$0A@@std@@@std@@QBE_NABV012@@Z 1711f990 f i c_gfxmaterials.obj
 0002:000689d0       ??0const_iterator@?$_Tree@V?$_Tmap_traits@V?$basic_string@_WU?$char_traits@_W@std@@V?$K2StringAllocator@_W@@@std@@USVertexAttribute@@U?$less@V?$basic_string@_WU?$char_traits@_W@std@@V?$K2StringAllocator@_W@@@std@@@2@V?$K2MapAllocator@U?$pair@$$CBV?$basic_string@_WU?$char_traits@_W@std@@V?$K2StringAllocator@_W@@@std@@USVertexAttribute@@@std@@@@$0A@@std@@@std@@QAE@ABV012@@Z 1711f9d0 f i c_gfxmaterials.obj
 0002:00068a10       ??0?$_Bidit@U?$pair@$$CBV?$basic_string@_WU?$char_traits@_W@std@@V?$K2StringAllocator@_W@@@std@@USVertexAttribute@@@std@@HPBU12@ABU12@@std@@QAE@ABU01@@Z 1711fa10 f i c_gfxmaterials.obj
 0002:00068a40       ?_Key@?$_Tree@V?$_Tmap_traits@V?$basic_string@_WU?$char_traits@_W@std@@V?$K2StringAllocator@_W@@@std@@USVertexAttribute@@U?$less@V?$basic_string@_WU?$char_traits@_W@std@@V?$K2StringAllocator@_W@@@std@@@2@V?$K2MapAllocator@U?$pair@$$CBV?$basic_string@_WU?$char_traits@_W@std@@V?$K2StringAllocator@_W@@@std@@USVertexAttribute@@@std@@@@$0A@@std@@@std@@KAABV?$basic_string@_WU?$char_traits@_W@std@@V?$K2StringAllocator@_W@@@2@PAU_Node@?$_Tree_nod@V?$_Tmap_traits@V?$basic_string@_WU?$char_traits@_W@std@@V?$K2StringAllocator@_W@@@std@@USVertexAttribute@@U?$less@V?$basic_string@_WU?$char_traits@_W@std@@V?$K2StringAllocator@_W@@@std@@@2@V?$K2MapAllocator@U?$pair@$$CBV?$basic_string@_WU?$char_traits@_W@std@@V?$K2StringAllocator@_W@@@std@@USVertexAttribute@@@std@@@@$0A@@std@@@2@@Z 1711fa40 f i c_gfxmaterials.obj
 0002:00068a70       ?lower_bound@?$_Tree@V?$_Tmap_traits@V?$basic_string@_WU?$char_traits@_W@std@@V?$K2StringAllocator@_W@@@std@@USVertexAttribute@@U?$less@V?$basic_string@_WU?$char_traits@_W@std@@V?$K2StringAllocator@_W@@@std@@@2@V?$K2MapAllocator@U?$pair@$$CBV?$basic_string@_WU?$char_traits@_W@std@@V?$K2StringAllocator@_W@@@std@@USVertexAttribute@@@std@@@@$0A@@std@@@std@@QBE?AVconst_iterator@12@ABV?$basic_string@_WU?$char_traits@_W@std@@V?$K2StringAllocator@_W@@@2@@Z 1711fa70 f i c_gfxmaterials.obj
 0002:00068ad0       ??0const_iterator@?$_Tree@V?$_Tmap_traits@V?$basic_string@_WU?$char_traits@_W@std@@V?$K2StringAllocator@_W@@@std@@USVertexAttribute@@U?$less@V?$basic_string@_WU?$char_traits@_W@std@@V?$K2StringAllocator@_W@@@std@@@2@V?$K2MapAllocator@U?$pair@$$CBV?$basic_string@_WU?$char_traits@_W@std@@V?$K2StringAllocator@_W@@@std@@USVertexAttribute@@@std@@@@$0A@@std@@@std@@QAE@PAU_Node@?$_Tree_nod@V?$_Tmap_traits@V?$basic_string@_WU?$char_traits@_W@std@@V?$K2StringAllocator@_W@@@std@@USVertexAttribute@@U?$less@V?$basic_string@_WU?$char_traits@_W@std@@V?$K2StringAllocator@_W@@@std@@@2@V?$K2MapAllocator@U?$pair@$$CBV?$basic_string@_WU?$char_traits@_W@std@@V?$K2StringAllocator@_W@@@std@@USVertexAttribute@@@std@@@@$0A@@std@@@2@PBV12@@Z 1711fad0 f i c_gfxmaterials.obj
 0002:00068b60       ??Dconst_iterator@?$_Tree@V?$_Tmap_traits@V?$basic_string@_WU?$char_traits@_W@std@@V?$K2StringAllocator@_W@@@std@@USVertexAttribute@@U?$less@V?$basic_string@_WU?$char_traits@_W@std@@V?$K2StringAllocator@_W@@@std@@@2@V?$K2MapAllocator@U?$pair@$$CBV?$basic_string@_WU?$char_traits@_W@std@@V?$K2StringAllocator@_W@@@std@@USVertexAttribute@@@std@@@@$0A@@std@@@std@@QBEABU?$pair@$$CBV?$basic_string@_WU?$char_traits@_W@std@@V?$K2StringAllocator@_W@@@std@@USVertexAttribute@@@2@XZ 1711fb60 f i c_gfxmaterials.obj
 0002:00068c20       ??8const_iterator@?$_Tree@V?$_Tmap_traits@V?$basic_string@_WU?$char_traits@_W@std@@V?$K2StringAllocator@_W@@@std@@USVertexAttribute@@U?$less@V?$basic_string@_WU?$char_traits@_W@std@@V?$K2StringAllocator@_W@@@std@@@2@V?$K2MapAllocator@U?$pair@$$CBV?$basic_string@_WU?$char_traits@_W@std@@V?$K2StringAllocator@_W@@@std@@USVertexAttribute@@@std@@@@$0A@@std@@@std@@QBE_NABV012@@Z 1711fc20 f i c_gfxmaterials.obj
 0002:00068ce0       ?_Mynode@const_iterator@?$_Tree@V?$_Tmap_traits@V?$basic_string@_WU?$char_traits@_W@std@@V?$K2StringAllocator@_W@@@std@@USVertexAttribute@@U?$less@V?$basic_string@_WU?$char_traits@_W@std@@V?$K2StringAllocator@_W@@@std@@@2@V?$K2MapAllocator@U?$pair@$$CBV?$basic_string@_WU?$char_traits@_W@std@@V?$K2StringAllocator@_W@@@std@@USVertexAttribute@@@std@@@@$0A@@std@@@std@@QBEPAU_Node@?$_Tree_nod@V?$_Tmap_traits@V?$basic_string@_WU?$char_traits@_W@std@@V?$K2StringAllocator@_W@@@std@@USVertexAttribute@@U?$less@V?$basic_string@_WU?$char_traits@_W@std@@V?$K2StringAllocator@_W@@@std@@@2@V?$K2MapAllocator@U?$pair@$$CBV?$basic_string@_WU?$char_traits@_W@std@@V?$K2StringAllocator@_W@@@std@@USVertexAttribute@@@std@@@@$0A@@std@@@3@XZ 1711fce0 f i c_gfxmaterials.obj
 0002:00068d00       ??0?$_Bidit@U?$pair@$$CBV?$basic_string@_WU?$char_traits@_W@std@@V?$K2StringAllocator@_W@@@std@@USVertexAttribute@@@std@@HPBU12@ABU12@@std@@QAE@XZ 1711fd00 f i c_gfxmaterials.obj
 0002:00068d30       ?_Myval@?$_Tree@V?$_Tmap_traits@V?$basic_string@_WU?$char_traits@_W@std@@V?$K2StringAllocator@_W@@@std@@USVertexAttribute@@U?$less@V?$basic_string@_WU?$char_traits@_W@std@@V?$K2StringAllocator@_W@@@std@@@2@V?$K2MapAllocator@U?$pair@$$CBV?$basic_string@_WU?$char_traits@_W@std@@V?$K2StringAllocator@_W@@@std@@USVertexAttribute@@@std@@@@$0A@@std@@@std@@KAAAU?$pair@$$CBV?$basic_string@_WU?$char_traits@_W@std@@V?$K2StringAllocator@_W@@@std@@USVertexAttribute@@@2@PAU_Node@?$_Tree_nod@V?$_Tmap_traits@V?$basic_string@_WU?$char_traits@_W@std@@V?$K2StringAllocator@_W@@@std@@USVertexAttribute@@U?$less@V?$basic_string@_WU?$char_traits@_W@std@@V?$K2StringAllocator@_W@@@std@@@2@V?$K2MapAllocator@U?$pair@$$CBV?$basic_string@_WU?$char_traits@_W@std@@V?$K2StringAllocator@_W@@@std@@USVertexAttribute@@@std@@@@$0A@@std@@@2@@Z 1711fd30 f i c_gfxmaterials.obj
 0002:00068d50       ?_Lbound@?$_Tree@V?$_Tmap_traits@V?$basic_string@_WU?$char_traits@_W@std@@V?$K2StringAllocator@_W@@@std@@USVertexAttribute@@U?$less@V?$basic_string@_WU?$char_traits@_W@std@@V?$K2StringAllocator@_W@@@std@@@2@V?$K2MapAllocator@U?$pair@$$CBV?$basic_string@_WU?$char_traits@_W@std@@V?$K2StringAllocator@_W@@@std@@USVertexAttribute@@@std@@@@$0A@@std@@@std@@IBEPAU_Node@?$_Tree_nod@V?$_Tmap_traits@V?$basic_string@_WU?$char_traits@_W@std@@V?$K2StringAllocator@_W@@@std@@USVertexAttribute@@U?$less@V?$basic_string@_WU?$char_traits@_W@std@@V?$K2StringAllocator@_W@@@std@@@2@V?$K2MapAllocator@U?$pair@$$CBV?$basic_string@_WU?$char_traits@_W@std@@V?$K2StringAllocator@_W@@@std@@USVertexAttribute@@@std@@@@$0A@@std@@@2@ABV?$basic_string@_WU?$char_traits@_W@std@@V?$K2StringAllocator@_W@@@2@@Z 1711fd50 f i c_gfxmaterials.obj
 0002:00068e20       ?_Kfn@?$_Tmap_traits@V?$basic_string@_WU?$char_traits@_W@std@@V?$K2StringAllocator@_W@@@std@@USVertexAttribute@@U?$less@V?$basic_string@_WU?$char_traits@_W@std@@V?$K2StringAllocator@_W@@@std@@@2@V?$K2MapAllocator@U?$pair@$$CBV?$basic_string@_WU?$char_traits@_W@std@@V?$K2StringAllocator@_W@@@std@@USVertexAttribute@@@std@@@@$0A@@std@@SAABV?$basic_string@_WU?$char_traits@_W@std@@V?$K2StringAllocator@_W@@@2@ABU?$pair@$$CBV?$basic_string@_WU?$char_traits@_W@std@@V?$K2StringAllocator@_W@@@std@@USVertexAttribute@@@2@@Z 1711fe20 f i c_gfxmaterials.obj
 0002:00068e40       ?_Isnil@?$_Tree@V?$_Tmap_traits@V?$basic_string@_WU?$char_traits@_W@std@@V?$K2StringAllocator@_W@@@std@@USVertexAttribute@@U?$less@V?$basic_string@_WU?$char_traits@_W@std@@V?$K2StringAllocator@_W@@@std@@@2@V?$K2MapAllocator@U?$pair@$$CBV?$basic_string@_WU?$char_traits@_W@std@@V?$K2StringAllocator@_W@@@std@@USVertexAttribute@@@std@@@@$0A@@std@@@std@@KAAADPAU_Node@?$_Tree_nod@V?$_Tmap_traits@V?$basic_string@_WU?$char_traits@_W@std@@V?$K2StringAllocator@_W@@@std@@USVertexAttribute@@U?$less@V?$basic_string@_WU?$char_traits@_W@std@@V?$K2StringAllocator@_W@@@std@@@2@V?$K2MapAllocator@U?$pair@$$CBV?$basic_string@_WU?$char_traits@_W@std@@V?$K2StringAllocator@_W@@@std@@USVertexAttribute@@@std@@@@$0A@@std@@@2@@Z 1711fe40 f i c_gfxmaterials.obj
 0002:00068e60       ?_Left@?$_Tree@V?$_Tmap_traits@V?$basic_string@_WU?$char_traits@_W@std@@V?$K2StringAllocator@_W@@@std@@USVertexAttribute@@U?$less@V?$basic_string@_WU?$char_traits@_W@std@@V?$K2StringAllocator@_W@@@std@@@2@V?$K2MapAllocator@U?$pair@$$CBV?$basic_string@_WU?$char_traits@_W@std@@V?$K2StringAllocator@_W@@@std@@USVertexAttribute@@@std@@@@$0A@@std@@@std@@KAAAPAU_Node@?$_Tree_nod@V?$_Tmap_traits@V?$basic_string@_WU?$char_traits@_W@std@@V?$K2StringAllocator@_W@@@std@@USVertexAttribute@@U?$less@V?$basic_string@_WU?$char_traits@_W@std@@V?$K2StringAllocator@_W@@@std@@@2@V?$K2MapAllocator@U?$pair@$$CBV?$basic_string@_WU?$char_traits@_W@std@@V?$K2StringAllocator@_W@@@std@@USVertexAttribute@@@std@@@@$0A@@std@@@2@PAU342@@Z 1711fe60 f i c_gfxmaterials.obj
 0002:00068e80       ?_Right@?$_Tree@V?$_Tmap_traits@V?$basic_string@_WU?$char_traits@_W@std@@V?$K2StringAllocator@_W@@@std@@USVertexAttribute@@U?$less@V?$basic_string@_WU?$char_traits@_W@std@@V?$K2StringAllocator@_W@@@std@@@2@V?$K2MapAllocator@U?$pair@$$CBV?$basic_string@_WU?$char_traits@_W@std@@V?$K2StringAllocator@_W@@@std@@USVertexAttribute@@@std@@@@$0A@@std@@@std@@KAAAPAU_Node@?$_Tree_nod@V?$_Tmap_traits@V?$basic_string@_WU?$char_traits@_W@std@@V?$K2StringAllocator@_W@@@std@@USVertexAttribute@@U?$less@V?$basic_string@_WU?$char_traits@_W@std@@V?$K2StringAllocator@_W@@@std@@@2@V?$K2MapAllocator@U?$pair@$$CBV?$basic_string@_WU?$char_traits@_W@std@@V?$K2StringAllocator@_W@@@std@@USVertexAttribute@@@std@@@@$0A@@std@@@2@PAU342@@Z 1711fe80 f i c_gfxmaterials.obj
 0002:00068ea0       ?_Root@?$_Tree@V?$_Tmap_traits@V?$basic_string@_WU?$char_traits@_W@std@@V?$K2StringAllocator@_W@@@std@@USVertexAttribute@@U?$less@V?$basic_string@_WU?$char_traits@_W@std@@V?$K2StringAllocator@_W@@@std@@@2@V?$K2MapAllocator@U?$pair@$$CBV?$basic_string@_WU?$char_traits@_W@std@@V?$K2StringAllocator@_W@@@std@@USVertexAttribute@@@std@@@@$0A@@std@@@std@@IBEAAPAU_Node@?$_Tree_nod@V?$_Tmap_traits@V?$basic_string@_WU?$char_traits@_W@std@@V?$K2StringAllocator@_W@@@std@@USVertexAttribute@@U?$less@V?$basic_string@_WU?$char_traits@_W@std@@V?$K2StringAllocator@_W@@@std@@@2@V?$K2MapAllocator@U?$pair@$$CBV?$basic_string@_WU?$char_traits@_W@std@@V?$K2StringAllocator@_W@@@std@@USVertexAttribute@@@std@@@@$0A@@std@@@2@XZ 1711fea0 f i c_gfxmaterials.obj
 0002:00068ed0       ?_Parent@?$_Tree@V?$_Tmap_traits@V?$basic_string@_WU?$char_traits@_W@std@@V?$K2StringAllocator@_W@@@std@@USVertexAttribute@@U?$less@V?$basic_string@_WU?$char_traits@_W@std@@V?$K2StringAllocator@_W@@@std@@@2@V?$K2MapAllocator@U?$pair@$$CBV?$basic_string@_WU?$char_traits@_W@std@@V?$K2StringAllocator@_W@@@std@@USVertexAttribute@@@std@@@@$0A@@std@@@std@@KAAAPAU_Node@?$_Tree_nod@V?$_Tmap_traits@V?$basic_string@_WU?$char_traits@_W@std@@V?$K2StringAllocator@_W@@@std@@USVertexAttribute@@U?$less@V?$basic_string@_WU?$char_traits@_W@std@@V?$K2StringAllocator@_W@@@std@@@2@V?$K2MapAllocator@U?$pair@$$CBV?$basic_string@_WU?$char_traits@_W@std@@V?$K2StringAllocator@_W@@@std@@USVertexAttribute@@@std@@@@$0A@@std@@@2@PAU342@@Z 1711fed0 f i c_gfxmaterials.obj
 0002:00068ef0       ??$SingleQuoteStr@V?$basic_string@_WU?$char_traits@_W@std@@V?$K2StringAllocator@_W@@@std@@@@YA?AV?$basic_string@_WU?$char_traits@_W@std@@V?$K2StringAllocator@_W@@@std@@V01@@Z 1711fef0 f i c_gfxmaterials.obj
 0002:00068fd0       ?GetIndex@CTexture@@QBEHXZ 1711ffd0 f i c_gfxmaterials.obj
 0002:00069000       ?GetIndex2@CTexture@@QBEHXZ 17120000 f i c_gfxmaterials.obj
 0002:00069030       ?GetTexture@CMaterialSampler@@QBEIXZ 17120030 f i c_gfxmaterials.obj
 0002:00069050       ?HasFlags@CMaterialSampler@@QBE_NH@Z 17120050 f i c_gfxmaterials.obj
 0002:00069080       ?GetSrcBlend@CMaterialPhase@@QBE?AW4eBlendMode@@XZ 17120080 f i c_gfxmaterials.obj
 0002:000690a0       ?GetDstBlend@CMaterialPhase@@QBE?AW4eBlendMode@@XZ 171200a0 f i c_gfxmaterials.obj
 0002:000690c0       ?GetCullMode@CMaterialPhase@@QBE?AW4eCullMode@@XZ 171200c0 f i c_gfxmaterials.obj
 0002:000690e0       ?GetDepthWrite@CMaterialPhase@@QBE_NXZ 171200e0 f i c_gfxmaterials.obj
 0002:00069110       ?GetDepthRead@CMaterialPhase@@QBE_NXZ 17120110 f i c_gfxmaterials.obj
 0002:00069140       ?GetDepthBias@CMaterialPhase@@QBEHXZ 17120140 f i c_gfxmaterials.obj
 0002:00069160       ?GetDepthSlopeBias@CMaterialPhase@@QBE_NXZ 17120160 f i c_gfxmaterials.obj
 0002:00069190       ?GetColorWrite@CMaterialPhase@@QBE_NXZ 17120190 f i c_gfxmaterials.obj
 0002:000691c0       ?GetAlphaWrite@CMaterialPhase@@QBE_NXZ 171201c0 f i c_gfxmaterials.obj
 0002:000691f0       ?GetPhase@CMaterial@@QBEABVCMaterialPhase@@W4EMaterialPhase@@@Z 171201f0 f i c_gfxmaterials.obj
 0002:00069270       ?SetDiffuseColor@CMaterial@@QAEXABV?$CVec3@M@@@Z 17120270 f i c_gfxmaterials.obj
 0002:000692b0       ?SetOpacity@CMaterial@@QAEXM@Z 171202b0 f i c_gfxmaterials.obj
 0002:000692e0       ?SetSpecularLevel@CMaterial@@QAEXM@Z 171202e0 f i c_gfxmaterials.obj
 0002:00069310       ?SetReflect@CMaterial@@QAEXM@Z 17120310 f i c_gfxmaterials.obj
 0002:00069340       ?SetGlossiness@CMaterial@@QAEXM@Z 17120340 f i c_gfxmaterials.obj
 0002:000693a0       ?SetBumpLevel@CMaterial@@QAEXM@Z 171203a0 f i c_gfxmaterials.obj
 0002:00069470       ??A?$vector@VCMaterialPhase@@V?$K2VectorAllocator@VCMaterialPhase@@@@@std@@QBEABVCMaterialPhase@@I@Z 17120470 f i c_gfxmaterials.obj
 0002:00069590       ??$_Debug_lt_pred@U?$less@V?$basic_string@_WU?$char_traits@_W@std@@V?$K2StringAllocator@_W@@@std@@@std@@V?$basic_string@_WU?$char_traits@_W@std@@V?$K2StringAllocator@_W@@@2@V32@@std@@YA_NU?$less@V?$basic_string@_WU?$char_traits@_W@std@@V?$K2StringAllocator@_W@@@std@@@0@ABV?$basic_string@_WU?$char_traits@_W@std@@V?$K2StringAllocator@_W@@@0@1PB_WI@Z 17120590 f i c_gfxmaterials.obj
 0002:00069610       ??R?$less@V?$basic_string@_WU?$char_traits@_W@std@@V?$K2StringAllocator@_W@@@std@@@std@@QBE_NABV?$basic_string@_WU?$char_traits@_W@std@@V?$K2StringAllocator@_W@@@1@0@Z 17120610 f i c_gfxmaterials.obj
 0002:00069640       ??$?M_WU?$char_traits@_W@std@@V?$K2StringAllocator@_W@@@std@@YA_NABV?$basic_string@_WU?$char_traits@_W@std@@V?$K2StringAllocator@_W@@@0@0@Z 17120640 f i c_gfxmaterials.obj
 0002:00069670       ?GetInstance@CGfxMaterials@@SAPAV1@XZ 17120670 f i c_gfxmaterials.obj
 0002:00069780       ?Release@CGfxModels@@SAXXZ 17120780 f   c_gfxmodels.obj
 0002:00069810       ??_GCGfxModels@@QAEPAXI@Z  17120810 f i c_gfxmodels.obj
 0002:00069860       ??1CGfxModels@@QAE@XZ      17120860 f   c_gfxmodels.obj
 0002:000698f0       ??1CBoneList@@QAE@XZ       171208f0 f i c_gfxmodels.obj
 0002:00069970       ??1?$vector@HV?$K2VectorAllocator@H@@@@QAE@XZ 17120970 f i c_gfxmodels.obj
 0002:000699a0       ??1?$list@V?$vector@HV?$K2VectorAllocator@H@@@@V?$K2ListAllocator@V?$vector@HV?$K2VectorAllocator@H@@@@@@@@QAE@XZ 171209a0 f i c_gfxmodels.obj
 0002:000699d0       ??0CGfxModels@@AAE@XZ      171209d0 f   c_gfxmodels.obj
 0002:00069ad0       ??0CBoneList@@QAE@XZ       17120ad0 f i c_gfxmodels.obj
 0002:00069b60       ?AddK2ModelToLists@CGfxModels@@IAE_NPAVCK2Model@@ABVCSceneEntity@@W4EMaterialPhase@@@Z 17120b60 f   c_gfxmodels.obj
 0002:0006acb0       ??3CMeshRenderer@@SAXPAXPBD11F@Z 17121cb0 f i c_gfxmodels.obj
 0002:0006acd0       ?GetParentIndex@CBone@@QBEIXZ 17121cd0 f i c_gfxmodels.obj
 0002:0006acf0       ?GetLodDistance@CK2Model@@QBEMXZ 17121cf0 f i c_gfxmodels.obj
 0002:0006ad20       ?GetBaseLod@CK2Model@@QBEPAV1@XZ 17121d20 f i c_gfxmodels.obj
 0002:0006ad50       ?GetNumBones@CK2Model@@QBEIXZ 17121d50 f i c_gfxmodels.obj
 0002:0006ad80       ?GetLod@CK2Model@@QAEPAV1@I@Z 17121d80 f i c_gfxmodels.obj
 0002:0006adc0       ?GetBoneName@CK2Model@@QAEABV?$basic_string@_WU?$char_traits@_W@std@@V?$K2StringAllocator@_W@@@std@@I@Z 17121dc0 f i c_gfxmodels.obj
 0002:0006ae10       ?GetName@CBone@@QBEABV?$basic_string@_WU?$char_traits@_W@std@@V?$K2StringAllocator@_W@@@std@@XZ 17121e10 f i c_gfxmodels.obj
 0002:0006ae30       ?GetModel@CSkeleton@@QAEIXZ 17121e30 f i c_gfxmodels.obj
 0002:0006ae50       ?GetMaterial@CSkin@@QAEII@Z 17121e50 f i c_gfxmodels.obj
 0002:0006ae80       ?AddTreeModelToLists@CGfxModels@@IAE_NPAVCTreeModel@@ABVCSceneEntity@@W4EMaterialPhase@@@Z 17121e80 f   c_gfxmodels.obj
 0002:0006bdd0       ?GetBillboardMaterial@CTreeModelDef@@QBEIXZ 17122dd0 f i c_gfxmodels.obj
 0002:0006be00       ??3CTreeBranchRenderer@@SAXPAXPBD11F@Z 17122e00 f i c_gfxmodels.obj
 0002:0006be20       ??3CTreeFrondRenderer@@SAXPAXPBD11F@Z 17122e20 f i c_gfxmodels.obj
 0002:0006be40       ??3CTreeLeafRenderer@@SAXPAXPBD11F@Z 17122e40 f i c_gfxmodels.obj
 0002:0006be60       ?RegisterModel@CGfxModels@@QAEHPAVCModel@@@Z 17122e60 f   c_gfxmodels.obj
 0002:0006bf10       ?UnregisterModel@CGfxModels@@QAEXPAVCModel@@@Z 17122f10 f   c_gfxmodels.obj
 0002:0006bfc0       ?AddModelToLists@CGfxModels@@QAE_NABVCSceneEntity@@W4EMaterialPhase@@@Z 17122fc0 f   c_gfxmodels.obj
 0002:0006c2b0       ?RegisterK2Model@CGfxModels@@IAE_NPAVCK2Model@@@Z 171232b0 f   c_gfxmodels.obj
 0002:0006db30       ?AddBoneInstance@CBoneList@@QAEXH@Z 17124b30 f i c_gfxmodels.obj
 0002:0006dba0       ?GetBoneRemappedIndex@CBoneList@@QAEHH@Z 17124ba0 f i c_gfxmodels.obj
 0002:0006dbd0       ?SetNumModelBones@CBoneList@@QAEXI@Z 17124bd0 f i c_gfxmodels.obj
 0002:0006dc40       ?UnregisterK2Model@CGfxModels@@IAEXPAVCK2Model@@@Z 17124c40 f   c_gfxmodels.obj
 0002:0006dd70       ?Clear@CBoneList@@QAEXXZ   17124d70 f i c_gfxmodels.obj
 0002:0006ddb0       ?RegisterTreeModel@CGfxModels@@IAEHPAVCTreeModel@@@Z 17124db0 f   c_gfxmodels.obj
 0002:0006e080       ?IsValid@CTreeModelDef@@QAE_NXZ 17125080 f i c_gfxmodels.obj
 0002:0006e0a0       ??_GCTreeModelDef@@QAEPAXI@Z 171250a0 f i c_gfxmodels.obj
 0002:0006e0f0       ?UnregisterTreeModel@CGfxModels@@IAEXPAVCTreeModel@@@Z 171250f0 f   c_gfxmodels.obj
 0002:0006e190       ?Shutdown@CGfxModels@@QAEXXZ 17125190 f   c_gfxmodels.obj
 0002:0006e560       ??0?$vector@HV?$K2VectorAllocator@H@@@@QAE@XZ 17125560 f i c_gfxmodels.obj
 0002:0006e590       ??1?$vector@HV?$K2VectorAllocator@H@@@std@@QAE@XZ 17125590 f i c_gfxmodels.obj
 0002:0006e610       ?resize@?$vector@HV?$K2VectorAllocator@H@@@std@@QAEXI@Z 17125610 f i c_gfxmodels.obj
 0002:0006e640       ?push_back@?$vector@HV?$K2VectorAllocator@H@@@std@@QAEXABH@Z 17125640 f i c_gfxmodels.obj
 0002:0006e6f0       ?clear@?$vector@HV?$K2VectorAllocator@H@@@std@@QAEXXZ 171256f0 f i c_gfxmodels.obj
 0002:0006e7b0       ??A?$map@V?$basic_string@_WU?$char_traits@_W@std@@V?$K2StringAllocator@_W@@@std@@USVertexAttribute@@U?$less@V?$basic_string@_WU?$char_traits@_W@std@@V?$K2StringAllocator@_W@@@std@@@2@V?$K2MapAllocator@U?$pair@$$CBV?$basic_string@_WU?$char_traits@_W@std@@V?$K2StringAllocator@_W@@@std@@USVertexAttribute@@@std@@@@@std@@QAEAAUSVertexAttribute@@ABV?$basic_string@_WU?$char_traits@_W@std@@V?$K2StringAllocator@_W@@@1@@Z 171257b0 f i c_gfxmodels.obj
 0002:0006ea00       ??0?$list@V?$vector@HV?$K2VectorAllocator@H@@@@V?$K2ListAllocator@V?$vector@HV?$K2VectorAllocator@H@@@@@@@@QAE@XZ 17125a00 f i c_gfxmodels.obj
 0002:0006ea30       ??1?$list@V?$vector@HV?$K2VectorAllocator@H@@@@V?$K2ListAllocator@V?$vector@HV?$K2VectorAllocator@H@@@@@@@std@@QAE@XZ 17125a30 f i c_gfxmodels.obj
 0002:0006eab0       ?back@?$list@V?$vector@HV?$K2VectorAllocator@H@@@@V?$K2ListAllocator@V?$vector@HV?$K2VectorAllocator@H@@@@@@@std@@QAEAAV?$vector@HV?$K2VectorAllocator@H@@@@XZ 17125ab0 f i c_gfxmodels.obj
 0002:0006eb50       ?push_back@?$list@V?$vector@HV?$K2VectorAllocator@H@@@@V?$K2ListAllocator@V?$vector@HV?$K2VectorAllocator@H@@@@@@@std@@QAEXABV?$vector@HV?$K2VectorAllocator@H@@@@@Z 17125b50 f i c_gfxmodels.obj
 0002:0006eba0       ?size@?$vector@VCBone@@V?$K2VectorAllocator@VCBone@@@@@std@@QBEIXZ 17125ba0 f i c_gfxmodels.obj
 0002:0006ebf0       ??A?$vector@USSkinReference@@V?$K2VectorAllocator@USSkinReference@@@@@std@@QAEAAUSSkinReference@@I@Z 17125bf0 f i c_gfxmodels.obj
 0002:0006ed10       ??1?$_Vector_val@HV?$K2VectorAllocator@H@@@std@@QAE@XZ 17125d10 f i c_gfxmodels.obj
 0002:0006ed90       ??1?$_Vector_iterator@HV?$K2VectorAllocator@H@@@std@@QAE@XZ 17125d90 f i c_gfxmodels.obj
 0002:0006edc0       ??1iterator@?$_Tree@V?$_Tmap_traits@V?$basic_string@_WU?$char_traits@_W@std@@V?$K2StringAllocator@_W@@@std@@USVertexAttribute@@U?$less@V?$basic_string@_WU?$char_traits@_W@std@@V?$K2StringAllocator@_W@@@std@@@2@V?$K2MapAllocator@U?$pair@$$CBV?$basic_string@_WU?$char_traits@_W@std@@V?$K2StringAllocator@_W@@@std@@USVertexAttribute@@@std@@@@$0A@@std@@@std@@QAE@XZ 17125dc0 f i c_gfxmodels.obj
 0002:0006edf0       ??1?$pair@$$CBV?$basic_string@_WU?$char_traits@_W@std@@V?$K2StringAllocator@_W@@@std@@USVertexAttribute@@@std@@QAE@XZ 17125df0 f i c_gfxmodels.obj
 0002:0006ee20       ??0iterator@?$_Tree@V?$_Tmap_traits@V?$basic_string@_WU?$char_traits@_W@std@@V?$K2StringAllocator@_W@@@std@@USVertexAttribute@@U?$less@V?$basic_string@_WU?$char_traits@_W@std@@V?$K2StringAllocator@_W@@@std@@@2@V?$K2MapAllocator@U?$pair@$$CBV?$basic_string@_WU?$char_traits@_W@std@@V?$K2StringAllocator@_W@@@std@@USVertexAttribute@@@std@@@@$0A@@std@@@std@@QAE@ABV012@@Z 17125e20 f i c_gfxmodels.obj
 0002:0006ee50       ??4iterator@?$_Tree@V?$_Tmap_traits@V?$basic_string@_WU?$char_traits@_W@std@@V?$K2StringAllocator@_W@@@std@@USVertexAttribute@@U?$less@V?$basic_string@_WU?$char_traits@_W@std@@V?$K2StringAllocator@_W@@@std@@@2@V?$K2MapAllocator@U?$pair@$$CBV?$basic_string@_WU?$char_traits@_W@std@@V?$K2StringAllocator@_W@@@std@@USVertexAttribute@@@std@@@@$0A@@std@@@std@@QAEAAV012@ABV012@@Z 17125e50 f i c_gfxmodels.obj
 0002:0006ee80       ??1?$_List_val@V?$vector@HV?$K2VectorAllocator@H@@@@V?$K2ListAllocator@V?$vector@HV?$K2VectorAllocator@H@@@@@@@std@@QAE@XZ 17125e80 f i c_gfxmodels.obj
 0002:0006ef00       ??1?$_Iterator@$00@?$list@V?$vector@HV?$K2VectorAllocator@H@@@@V?$K2ListAllocator@V?$vector@HV?$K2VectorAllocator@H@@@@@@@std@@QAE@XZ 17125f00 f i c_gfxmodels.obj
 0002:0006ef30       ??1?$_Vector_const_iterator@HV?$K2VectorAllocator@H@@@std@@QAE@XZ 17125f30 f i c_gfxmodels.obj
 0002:0006ef60       ??4const_iterator@?$_Tree@V?$_Tmap_traits@V?$basic_string@_WU?$char_traits@_W@std@@V?$K2StringAllocator@_W@@@std@@USVertexAttribute@@U?$less@V?$basic_string@_WU?$char_traits@_W@std@@V?$K2StringAllocator@_W@@@std@@@2@V?$K2MapAllocator@U?$pair@$$CBV?$basic_string@_WU?$char_traits@_W@std@@V?$K2StringAllocator@_W@@@std@@USVertexAttribute@@@std@@@@$0A@@std@@@std@@QAEAAV012@ABV012@@Z 17125f60 f i c_gfxmodels.obj
 0002:0006efa0       ??1?$_List_ptr@V?$vector@HV?$K2VectorAllocator@H@@@@V?$K2ListAllocator@V?$vector@HV?$K2VectorAllocator@H@@@@@@@std@@QAE@XZ 17125fa0 f i c_gfxmodels.obj
 0002:0006f020       ??1?$_Const_iterator@$00@?$list@V?$vector@HV?$K2VectorAllocator@H@@@@V?$K2ListAllocator@V?$vector@HV?$K2VectorAllocator@H@@@@@@@std@@QAE@XZ 17126020 f i c_gfxmodels.obj
 0002:0006f050       ??1?$_Ranit@HHPBHABH@std@@QAE@XZ 17126050 f i c_gfxmodels.obj
 0002:0006f080       ??4?$_Bidit@U?$pair@$$CBV?$basic_string@_WU?$char_traits@_W@std@@V?$K2StringAllocator@_W@@@std@@USVertexAttribute@@@std@@HPBU12@ABU12@@std@@QAEAAU01@ABU01@@Z 17126080 f i c_gfxmodels.obj
 0002:0006f0b0       ??1?$_List_nod@V?$vector@HV?$K2VectorAllocator@H@@@@V?$K2ListAllocator@V?$vector@HV?$K2VectorAllocator@H@@@@@@@std@@QAE@XZ 171260b0 f i c_gfxmodels.obj
 0002:0006f130       ??1?$_Bidit@V?$vector@HV?$K2VectorAllocator@H@@@@HPBV1@ABV1@@std@@QAE@XZ 17126130 f i c_gfxmodels.obj
 0002:0006f160       ??0?$vector@HV?$K2VectorAllocator@H@@@std@@QAE@XZ 17126160 f i c_gfxmodels.obj
 0002:0006f1f0       ?capacity@?$vector@HV?$K2VectorAllocator@H@@@std@@QBEIXZ 171261f0 f i c_gfxmodels.obj
 0002:0006f240       ?begin@?$vector@HV?$K2VectorAllocator@H@@@std@@QAE?AV?$_Vector_iterator@HV?$K2VectorAllocator@H@@@2@XZ 17126240 f i c_gfxmodels.obj
 0002:0006f290       ?end@?$vector@HV?$K2VectorAllocator@H@@@std@@QAE?AV?$_Vector_iterator@HV?$K2VectorAllocator@H@@@2@XZ 17126290 f i c_gfxmodels.obj
 0002:0006f2e0       ?resize@?$vector@HV?$K2VectorAllocator@H@@@std@@QAEXIH@Z 171262e0 f i c_gfxmodels.obj
 0002:0006f450       ?insert@?$vector@HV?$K2VectorAllocator@H@@@std@@QAE?AV?$_Vector_iterator@HV?$K2VectorAllocator@H@@@2@V32@ABH@Z 17126450 f i c_gfxmodels.obj
 0002:0006f5c0       ?erase@?$vector@HV?$K2VectorAllocator@H@@@std@@QAE?AV?$_Vector_iterator@HV?$K2VectorAllocator@H@@@2@V32@0@Z 171265c0 f i c_gfxmodels.obj
 0002:0006f740       ?_Tidy@?$vector@HV?$K2VectorAllocator@H@@@std@@IAEXXZ 17126740 f i c_gfxmodels.obj
 0002:0006f7e0       ?_Ufill@?$vector@HV?$K2VectorAllocator@H@@@std@@IAEPAHPAHIABH@Z 171267e0 f i c_gfxmodels.obj
 0002:0006f830       ?_Orphan_range@?$vector@HV?$K2VectorAllocator@H@@@std@@IBEXPAH0@Z 17126830 f i c_gfxmodels.obj
 0002:0006f8d0       ??1?$K2VectorAllocator@H@@QAE@XZ 171268d0 f i c_gfxmodels.obj
 0002:0006f8f0       ?end@?$_Tree@V?$_Tmap_traits@V?$basic_string@_WU?$char_traits@_W@std@@V?$K2StringAllocator@_W@@@std@@USVertexAttribute@@U?$less@V?$basic_string@_WU?$char_traits@_W@std@@V?$K2StringAllocator@_W@@@std@@@2@V?$K2MapAllocator@U?$pair@$$CBV?$basic_string@_WU?$char_traits@_W@std@@V?$K2StringAllocator@_W@@@std@@USVertexAttribute@@@std@@@@$0A@@std@@@std@@QAE?AViterator@12@XZ 171268f0 f i c_gfxmodels.obj
 0002:0006f940       ?insert@?$_Tree@V?$_Tmap_traits@V?$basic_string@_WU?$char_traits@_W@std@@V?$K2StringAllocator@_W@@@std@@USVertexAttribute@@U?$less@V?$basic_string@_WU?$char_traits@_W@std@@V?$K2StringAllocator@_W@@@std@@@2@V?$K2MapAllocator@U?$pair@$$CBV?$basic_string@_WU?$char_traits@_W@std@@V?$K2StringAllocator@_W@@@std@@USVertexAttribute@@@std@@@@$0A@@std@@@std@@QAE?AViterator@12@V312@ABU?$pair@$$CBV?$basic_string@_WU?$char_traits@_W@std@@V?$K2StringAllocator@_W@@@std@@USVertexAttribute@@@2@@Z 17126940 f i c_gfxmodels.obj
 0002:00070700       ?lower_bound@?$_Tree@V?$_Tmap_traits@V?$basic_string@_WU?$char_traits@_W@std@@V?$K2StringAllocator@_W@@@std@@USVertexAttribute@@U?$less@V?$basic_string@_WU?$char_traits@_W@std@@V?$K2StringAllocator@_W@@@std@@@2@V?$K2MapAllocator@U?$pair@$$CBV?$basic_string@_WU?$char_traits@_W@std@@V?$K2StringAllocator@_W@@@std@@USVertexAttribute@@@std@@@@$0A@@std@@@std@@QAE?AViterator@12@ABV?$basic_string@_WU?$char_traits@_W@std@@V?$K2StringAllocator@_W@@@2@@Z 17127700 f i c_gfxmodels.obj
 0002:00070760       ??0?$list@V?$vector@HV?$K2VectorAllocator@H@@@@V?$K2ListAllocator@V?$vector@HV?$K2VectorAllocator@H@@@@@@@std@@QAE@XZ 17127760 f i c_gfxmodels.obj
 0002:00070800       ?end@?$list@V?$vector@HV?$K2VectorAllocator@H@@@@V?$K2ListAllocator@V?$vector@HV?$K2VectorAllocator@H@@@@@@@std@@QAE?AV?$_Iterator@$00@12@XZ 17127800 f i c_gfxmodels.obj
 0002:00070850       ?_Insert@?$list@V?$vector@HV?$K2VectorAllocator@H@@@@V?$K2ListAllocator@V?$vector@HV?$K2VectorAllocator@H@@@@@@@std@@QAEXV?$_Iterator@$00@12@ABV?$vector@HV?$K2VectorAllocator@H@@@@@Z 17127850 f i c_gfxmodels.obj
 0002:00070960       ?_Tidy@?$list@V?$vector@HV?$K2VectorAllocator@H@@@@V?$K2ListAllocator@V?$vector@HV?$K2VectorAllocator@H@@@@@@@std@@IAEXXZ 17127960 f i c_gfxmodels.obj
 0002:000709f0       ??1?$K2ListAllocator@V?$vector@HV?$K2VectorAllocator@H@@@@@@QAE@XZ 171279f0 f i c_gfxmodels.obj
 0002:00070a10       ??1?$K2ListAllocator@U_Node@?$_List_nod@V?$vector@HV?$K2VectorAllocator@H@@@@V?$K2ListAllocator@V?$vector@HV?$K2VectorAllocator@H@@@@@@@std@@@@QAE@XZ 17127a10 f i c_gfxmodels.obj
 0002:00070a30       ??1?$K2ListAllocator@PAU_Node@?$_List_nod@V?$vector@HV?$K2VectorAllocator@H@@@@V?$K2ListAllocator@V?$vector@HV?$K2VectorAllocator@H@@@@@@@std@@@@QAE@XZ 17127a30 f i c_gfxmodels.obj
 0002:00070a50       ?size@?$vector@USSkinReference@@V?$K2VectorAllocator@USSkinReference@@@@@std@@QBEIXZ 17127a50 f i c_gfxmodels.obj
 0002:00070aa0       ??Diterator@?$_Tree@V?$_Tmap_traits@V?$basic_string@_WU?$char_traits@_W@std@@V?$K2StringAllocator@_W@@@std@@USVertexAttribute@@U?$less@V?$basic_string@_WU?$char_traits@_W@std@@V?$K2StringAllocator@_W@@@std@@@2@V?$K2MapAllocator@U?$pair@$$CBV?$basic_string@_WU?$char_traits@_W@std@@V?$K2StringAllocator@_W@@@std@@USVertexAttribute@@@std@@@@$0A@@std@@@std@@QBEAAU?$pair@$$CBV?$basic_string@_WU?$char_traits@_W@std@@V?$K2StringAllocator@_W@@@std@@USVertexAttribute@@@2@XZ 17127aa0 f i c_gfxmodels.obj
 0002:00070ad0       ??0?$pair@$$CBV?$basic_string@_WU?$char_traits@_W@std@@V?$K2StringAllocator@_W@@@std@@USVertexAttribute@@@std@@QAE@ABV?$basic_string@_WU?$char_traits@_W@std@@V?$K2StringAllocator@_W@@@1@ABUSVertexAttribute@@@Z 17127ad0 f i c_gfxmodels.obj
 0002:00070b30       ??D?$_Iterator@$00@?$list@V?$vector@HV?$K2VectorAllocator@H@@@@V?$K2ListAllocator@V?$vector@HV?$K2VectorAllocator@H@@@@@@@std@@QBEAAV?$vector@HV?$K2VectorAllocator@H@@@@XZ 17127b30 f i c_gfxmodels.obj
 0002:00070b60       ??F?$_Iterator@$00@?$list@V?$vector@HV?$K2VectorAllocator@H@@@@V?$K2ListAllocator@V?$vector@HV?$K2VectorAllocator@H@@@@@@@std@@QAEAAV012@XZ 17127b60 f i c_gfxmodels.obj
 0002:00070b90       ??0?$_Vector_iterator@HV?$K2VectorAllocator@H@@@std@@QAE@ABV01@@Z 17127b90 f i c_gfxmodels.obj
 0002:00070bc0       ??1?$pair@Viterator@?$_Tree@V?$_Tmap_traits@V?$basic_string@_WU?$char_traits@_W@std@@V?$K2StringAllocator@_W@@@std@@USVertexAttribute@@U?$less@V?$basic_string@_WU?$char_traits@_W@std@@V?$K2StringAllocator@_W@@@std@@@2@V?$K2MapAllocator@U?$pair@$$CBV?$basic_string@_WU?$char_traits@_W@std@@V?$K2StringAllocator@_W@@@std@@USVertexAttribute@@@std@@@@$0A@@std@@@std@@_N@std@@QAE@XZ 17127bc0 f i c_gfxmodels.obj
 0002:00070bf0       ??0?$_Vector_const_iterator@HV?$K2VectorAllocator@H@@@std@@QAE@ABV01@@Z 17127bf0 f i c_gfxmodels.obj
 0002:00070c30       ??0?$_Ranit@HHPBHABH@std@@QAE@ABU01@@Z 17127c30 f i c_gfxmodels.obj
 0002:00070c60       ?_Buy@?$vector@HV?$K2VectorAllocator@H@@@std@@IAE_NI@Z 17127c60 f i c_gfxmodels.obj
 0002:00070d10       ?_Destroy@?$vector@HV?$K2VectorAllocator@H@@@std@@IAEXPAH0@Z 17127d10 f i c_gfxmodels.obj
 0002:00070d50       ?_Insert_n@?$vector@HV?$K2VectorAllocator@H@@@std@@IAEXV?$_Vector_iterator@HV?$K2VectorAllocator@H@@@2@IABH@Z 17127d50 f i c_gfxmodels.obj
 0002:00071200       ??0?$_Vector_val@HV?$K2VectorAllocator@H@@@std@@IAE@V?$K2VectorAllocator@H@@@Z 17128200 f i c_gfxmodels.obj
 0002:000712a0       ??0?$K2VectorAllocator@H@@QAE@XZ 171282a0 f i c_gfxmodels.obj
 0002:000712d0       ?deallocate@?$K2VectorAllocator@H@@QAEXPAHI@Z 171282d0 f i c_gfxmodels.obj
 0002:00071310       ?begin@?$_Tree@V?$_Tmap_traits@V?$basic_string@_WU?$char_traits@_W@std@@V?$K2StringAllocator@_W@@@std@@USVertexAttribute@@U?$less@V?$basic_string@_WU?$char_traits@_W@std@@V?$K2StringAllocator@_W@@@std@@@2@V?$K2MapAllocator@U?$pair@$$CBV?$basic_string@_WU?$char_traits@_W@std@@V?$K2StringAllocator@_W@@@std@@USVertexAttribute@@@std@@@@$0A@@std@@@std@@QAE?AViterator@12@XZ 17128310 f i c_gfxmodels.obj
 0002:00071360       ?size@?$_Tree@V?$_Tmap_traits@V?$basic_string@_WU?$char_traits@_W@std@@V?$K2StringAllocator@_W@@@std@@USVertexAttribute@@U?$less@V?$basic_string@_WU?$char_traits@_W@std@@V?$K2StringAllocator@_W@@@std@@@2@V?$K2MapAllocator@U?$pair@$$CBV?$basic_string@_WU?$char_traits@_W@std@@V?$K2StringAllocator@_W@@@std@@USVertexAttribute@@@std@@@@$0A@@std@@@std@@QBEIXZ 17128360 f i c_gfxmodels.obj
 0002:00071380       ?insert@?$_Tree@V?$_Tmap_traits@V?$basic_string@_WU?$char_traits@_W@std@@V?$K2StringAllocator@_W@@@std@@USVertexAttribute@@U?$less@V?$basic_string@_WU?$char_traits@_W@std@@V?$K2StringAllocator@_W@@@std@@@2@V?$K2MapAllocator@U?$pair@$$CBV?$basic_string@_WU?$char_traits@_W@std@@V?$K2StringAllocator@_W@@@std@@USVertexAttribute@@@std@@@@$0A@@std@@@std@@QAE?AU?$pair@Viterator@?$_Tree@V?$_Tmap_traits@V?$basic_string@_WU?$char_traits@_W@std@@V?$K2StringAllocator@_W@@@std@@USVertexAttribute@@U?$less@V?$basic_string@_WU?$char_traits@_W@std@@V?$K2StringAllocator@_W@@@std@@@2@V?$K2MapAllocator@U?$pair@$$CBV?$basic_string@_WU?$char_traits@_W@std@@V?$K2StringAllocator@_W@@@std@@USVertexAttribute@@@std@@@@$0A@@std@@@std@@_N@2@ABU?$pair@$$CBV?$basic_string@_WU?$char_traits@_W@std@@V?$K2StringAllocator@_W@@@std@@USVertexAttribute@@@2@@Z 17128380 f i c_gfxmodels.obj
 0002:000717a0       ?_Insert@?$_Tree@V?$_Tmap_traits@V?$basic_string@_WU?$char_traits@_W@std@@V?$K2StringAllocator@_W@@@std@@USVertexAttribute@@U?$less@V?$basic_string@_WU?$char_traits@_W@std@@V?$K2StringAllocator@_W@@@std@@@2@V?$K2MapAllocator@U?$pair@$$CBV?$basic_string@_WU?$char_traits@_W@std@@V?$K2StringAllocator@_W@@@std@@USVertexAttribute@@@std@@@@$0A@@std@@@std@@IAE?AViterator@12@_NPAU_Node@?$_Tree_nod@V?$_Tmap_traits@V?$basic_string@_WU?$char_traits@_W@std@@V?$K2StringAllocator@_W@@@std@@USVertexAttribute@@U?$less@V?$basic_string@_WU?$char_traits@_W@std@@V?$K2StringAllocator@_W@@@std@@@2@V?$K2MapAllocator@U?$pair@$$CBV?$basic_string@_WU?$char_traits@_W@std@@V?$K2StringAllocator@_W@@@std@@USVertexAttribute@@@std@@@@$0A@@std@@@2@ABU?$pair@$$CBV?$basic_string@_WU?$char_traits@_W@std@@V?$K2StringAllocator@_W@@@std@@USVertexAttribute@@@2@@Z 171287a0 f i c_gfxmodels.obj
 0002:00071d60       ?_Rmost@?$_Tree@V?$_Tmap_traits@V?$basic_string@_WU?$char_traits@_W@std@@V?$K2StringAllocator@_W@@@std@@USVertexAttribute@@U?$less@V?$basic_string@_WU?$char_traits@_W@std@@V?$K2StringAllocator@_W@@@std@@@2@V?$K2MapAllocator@U?$pair@$$CBV?$basic_string@_WU?$char_traits@_W@std@@V?$K2StringAllocator@_W@@@std@@USVertexAttribute@@@std@@@@$0A@@std@@@std@@IBEAAPAU_Node@?$_Tree_nod@V?$_Tmap_traits@V?$basic_string@_WU?$char_traits@_W@std@@V?$K2StringAllocator@_W@@@std@@USVertexAttribute@@U?$less@V?$basic_string@_WU?$char_traits@_W@std@@V?$K2StringAllocator@_W@@@std@@@2@V?$K2MapAllocator@U?$pair@$$CBV?$basic_string@_WU?$char_traits@_W@std@@V?$K2StringAllocator@_W@@@std@@USVertexAttribute@@@std@@@@$0A@@std@@@2@XZ 17128d60 f i c_gfxmodels.obj
 0002:00071d90       ?_Nextnode@?$list@V?$vector@HV?$K2VectorAllocator@H@@@@V?$K2ListAllocator@V?$vector@HV?$K2VectorAllocator@H@@@@@@@std@@KAAAPAU_Node@?$_List_nod@V?$vector@HV?$K2VectorAllocator@H@@@@V?$K2ListAllocator@V?$vector@HV?$K2VectorAllocator@H@@@@@@@2@PAU342@@Z 17128d90 f i c_gfxmodels.obj
 0002:00071db0       ?_Prevnode@?$list@V?$vector@HV?$K2VectorAllocator@H@@@@V?$K2ListAllocator@V?$vector@HV?$K2VectorAllocator@H@@@@@@@std@@KAAAPAU_Node@?$_List_nod@V?$vector@HV?$K2VectorAllocator@H@@@@V?$K2ListAllocator@V?$vector@HV?$K2VectorAllocator@H@@@@@@@2@PAU342@@Z 17128db0 f i c_gfxmodels.obj
 0002:00071dd0       ?clear@?$list@V?$vector@HV?$K2VectorAllocator@H@@@@V?$K2ListAllocator@V?$vector@HV?$K2VectorAllocator@H@@@@@@@std@@QAEXXZ 17128dd0 f i c_gfxmodels.obj
 0002:00071eb0       ?_Buynode@?$list@V?$vector@HV?$K2VectorAllocator@H@@@@V?$K2ListAllocator@V?$vector@HV?$K2VectorAllocator@H@@@@@@@std@@IAEPAU_Node@?$_List_nod@V?$vector@HV?$K2VectorAllocator@H@@@@V?$K2ListAllocator@V?$vector@HV?$K2VectorAllocator@H@@@@@@@2@XZ 17128eb0 f i c_gfxmodels.obj
 0002:00071ff0       ?_Buynode@?$list@V?$vector@HV?$K2VectorAllocator@H@@@@V?$K2ListAllocator@V?$vector@HV?$K2VectorAllocator@H@@@@@@@std@@IAEPAU_Node@?$_List_nod@V?$vector@HV?$K2VectorAllocator@H@@@@V?$K2ListAllocator@V?$vector@HV?$K2VectorAllocator@H@@@@@@@2@PAU342@0ABV?$vector@HV?$K2VectorAllocator@H@@@@@Z 17128ff0 f i c_gfxmodels.obj
 0002:00072190       ?_Incsize@?$list@V?$vector@HV?$K2VectorAllocator@H@@@@V?$K2ListAllocator@V?$vector@HV?$K2VectorAllocator@H@@@@@@@std@@IAEXI@Z 17129190 f i c_gfxmodels.obj
 0002:00072270       ?log@@YAMM@Z               17129270 f i c_gfxmodels.obj
 0002:000722a0       _logf                      171292a0 f i c_gfxmodels.obj
 0002:000722d0       ??0?$_List_val@V?$vector@HV?$K2VectorAllocator@H@@@@V?$K2ListAllocator@V?$vector@HV?$K2VectorAllocator@H@@@@@@@std@@QAE@V?$K2ListAllocator@V?$vector@HV?$K2VectorAllocator@H@@@@@@@Z 171292d0 f i c_gfxmodels.obj
 0002:00072380       ??0?$K2ListAllocator@V?$vector@HV?$K2VectorAllocator@H@@@@@@QAE@XZ 17129380 f i c_gfxmodels.obj
 0002:000723b0       ?deallocate@?$K2ListAllocator@U_Node@?$_List_nod@V?$vector@HV?$K2VectorAllocator@H@@@@V?$K2ListAllocator@V?$vector@HV?$K2VectorAllocator@H@@@@@@@std@@@@QAEXPAU_Node@?$_List_nod@V?$vector@HV?$K2VectorAllocator@H@@@@V?$K2ListAllocator@V?$vector@HV?$K2VectorAllocator@H@@@@@@@std@@I@Z 171293b0 f i c_gfxmodels.obj
 0002:000723f0       ?destroy@?$allocator@PAU_Node@?$_List_nod@V?$vector@HV?$K2VectorAllocator@H@@@@V?$K2ListAllocator@V?$vector@HV?$K2VectorAllocator@H@@@@@@@std@@@std@@QAEXPAPAU_Node@?$_List_nod@V?$vector@HV?$K2VectorAllocator@H@@@@V?$K2ListAllocator@V?$vector@HV?$K2VectorAllocator@H@@@@@@@2@@Z 171293f0 f i c_gfxmodels.obj
 0002:00072420       ??0?$_Vector_iterator@HV?$K2VectorAllocator@H@@@std@@QAE@PAHPBV_Container_base@1@@Z 17129420 f i c_gfxmodels.obj
 0002:00072460       ??H?$_Vector_iterator@HV?$K2VectorAllocator@H@@@std@@QBE?AV01@H@Z 17129460 f i c_gfxmodels.obj
 0002:00072510       ??G?$_Vector_iterator@HV?$K2VectorAllocator@H@@@std@@QBEHABV?$_Vector_const_iterator@HV?$K2VectorAllocator@H@@@1@@Z 17129510 f i c_gfxmodels.obj
 0002:00072540       ??9?$_Vector_const_iterator@HV?$K2VectorAllocator@H@@@std@@QBE_NABV01@@Z 17129540 f i c_gfxmodels.obj
 0002:00072580       ??M?$_Vector_const_iterator@HV?$K2VectorAllocator@H@@@std@@QBE_NABV01@@Z 17129580 f i c_gfxmodels.obj
 0002:000725c0       ??0iterator@?$_Tree@V?$_Tmap_traits@V?$basic_string@_WU?$char_traits@_W@std@@V?$K2StringAllocator@_W@@@std@@USVertexAttribute@@U?$less@V?$basic_string@_WU?$char_traits@_W@std@@V?$K2StringAllocator@_W@@@std@@@2@V?$K2MapAllocator@U?$pair@$$CBV?$basic_string@_WU?$char_traits@_W@std@@V?$K2StringAllocator@_W@@@std@@USVertexAttribute@@@std@@@@$0A@@std@@@std@@QAE@XZ 171295c0 f i c_gfxmodels.obj
 0002:000725f0       ??0iterator@?$_Tree@V?$_Tmap_traits@V?$basic_string@_WU?$char_traits@_W@std@@V?$K2StringAllocator@_W@@@std@@USVertexAttribute@@U?$less@V?$basic_string@_WU?$char_traits@_W@std@@V?$K2StringAllocator@_W@@@std@@@2@V?$K2MapAllocator@U?$pair@$$CBV?$basic_string@_WU?$char_traits@_W@std@@V?$K2StringAllocator@_W@@@std@@USVertexAttribute@@@std@@@@$0A@@std@@@std@@QAE@PAU_Node@?$_Tree_nod@V?$_Tmap_traits@V?$basic_string@_WU?$char_traits@_W@std@@V?$K2StringAllocator@_W@@@std@@USVertexAttribute@@U?$less@V?$basic_string@_WU?$char_traits@_W@std@@V?$K2StringAllocator@_W@@@std@@@2@V?$K2MapAllocator@U?$pair@$$CBV?$basic_string@_WU?$char_traits@_W@std@@V?$K2StringAllocator@_W@@@std@@USVertexAttribute@@@std@@@@$0A@@std@@@2@PBV12@@Z 171295f0 f i c_gfxmodels.obj
 0002:00072630       ??Eiterator@?$_Tree@V?$_Tmap_traits@V?$basic_string@_WU?$char_traits@_W@std@@V?$K2StringAllocator@_W@@@std@@USVertexAttribute@@U?$less@V?$basic_string@_WU?$char_traits@_W@std@@V?$K2StringAllocator@_W@@@std@@@2@V?$K2MapAllocator@U?$pair@$$CBV?$basic_string@_WU?$char_traits@_W@std@@V?$K2StringAllocator@_W@@@std@@USVertexAttribute@@@std@@@@$0A@@std@@@std@@QAEAAV012@XZ 17129630 f i c_gfxmodels.obj
 0002:00072660       ??Fiterator@?$_Tree@V?$_Tmap_traits@V?$basic_string@_WU?$char_traits@_W@std@@V?$K2StringAllocator@_W@@@std@@USVertexAttribute@@U?$less@V?$basic_string@_WU?$char_traits@_W@std@@V?$K2StringAllocator@_W@@@std@@@2@V?$K2MapAllocator@U?$pair@$$CBV?$basic_string@_WU?$char_traits@_W@std@@V?$K2StringAllocator@_W@@@std@@USVertexAttribute@@@std@@@@$0A@@std@@@std@@QAEAAV012@XZ 17129660 f i c_gfxmodels.obj
 0002:00072690       ??0?$_Iterator@$00@?$list@V?$vector@HV?$K2VectorAllocator@H@@@@V?$K2ListAllocator@V?$vector@HV?$K2VectorAllocator@H@@@@@@@std@@QAE@PAU_Node@?$_List_nod@V?$vector@HV?$K2VectorAllocator@H@@@@V?$K2ListAllocator@V?$vector@HV?$K2VectorAllocator@H@@@@@@@2@PBV12@@Z 17129690 f i c_gfxmodels.obj
 0002:000726d0       ??D?$_Const_iterator@$00@?$list@V?$vector@HV?$K2VectorAllocator@H@@@@V?$K2ListAllocator@V?$vector@HV?$K2VectorAllocator@H@@@@@@@std@@QBEABV?$vector@HV?$K2VectorAllocator@H@@@@XZ 171296d0 f i c_gfxmodels.obj
 0002:000727a0       ??F?$_Const_iterator@$00@?$list@V?$vector@HV?$K2VectorAllocator@H@@@@V?$K2ListAllocator@V?$vector@HV?$K2VectorAllocator@H@@@@@@@std@@QAEAAV012@XZ 171297a0 f i c_gfxmodels.obj
 0002:00072880       ?_Mynode@?$_Const_iterator@$00@?$list@V?$vector@HV?$K2VectorAllocator@H@@@@V?$K2ListAllocator@V?$vector@HV?$K2VectorAllocator@H@@@@@@@std@@QBEPAU_Node@?$_List_nod@V?$vector@HV?$K2VectorAllocator@H@@@@V?$K2ListAllocator@V?$vector@HV?$K2VectorAllocator@H@@@@@@@3@XZ 17129880 f i c_gfxmodels.obj
 0002:000728a0       ?max_size@?$vector@HV?$K2VectorAllocator@H@@@std@@QBEIXZ 171298a0 f i c_gfxmodels.obj
 0002:000728d0       ?_Xlen@?$vector@HV?$K2VectorAllocator@H@@@std@@KAXXZ 171298d0 f i c_gfxmodels.obj
 0002:00072980       ??0?$K2VectorAllocator@H@@QAE@ABV0@@Z 17129980 f i c_gfxmodels.obj
 0002:000729b0       ?allocate@?$K2VectorAllocator@H@@QAEPAHI@Z 171299b0 f i c_gfxmodels.obj
 0002:00072a00       ??0?$allocator@H@std@@QAE@XZ 17129a00 f i c_gfxmodels.obj
 0002:00072a20       ?_Color@?$_Tree@V?$_Tmap_traits@V?$basic_string@_WU?$char_traits@_W@std@@V?$K2StringAllocator@_W@@@std@@USVertexAttribute@@U?$less@V?$basic_string@_WU?$char_traits@_W@std@@V?$K2StringAllocator@_W@@@std@@@2@V?$K2MapAllocator@U?$pair@$$CBV?$basic_string@_WU?$char_traits@_W@std@@V?$K2StringAllocator@_W@@@std@@USVertexAttribute@@@std@@@@$0A@@std@@@std@@KAAADPAU_Node@?$_Tree_nod@V?$_Tmap_traits@V?$basic_string@_WU?$char_traits@_W@std@@V?$K2StringAllocator@_W@@@std@@USVertexAttribute@@U?$less@V?$basic_string@_WU?$char_traits@_W@std@@V?$K2StringAllocator@_W@@@std@@@2@V?$K2MapAllocator@U?$pair@$$CBV?$basic_string@_WU?$char_traits@_W@std@@V?$K2StringAllocator@_W@@@std@@USVertexAttribute@@@std@@@@$0A@@std@@@2@@Z 17129a20 f i c_gfxmodels.obj
 0002:00072a40       ?max_size@?$_Tree@V?$_Tmap_traits@V?$basic_string@_WU?$char_traits@_W@std@@V?$K2StringAllocator@_W@@@std@@USVertexAttribute@@U?$less@V?$basic_string@_WU?$char_traits@_W@std@@V?$K2StringAllocator@_W@@@std@@@2@V?$K2MapAllocator@U?$pair@$$CBV?$basic_string@_WU?$char_traits@_W@std@@V?$K2StringAllocator@_W@@@std@@USVertexAttribute@@@std@@@@$0A@@std@@@std@@QBEIXZ 17129a40 f i c_gfxmodels.obj
 0002:00072a70       ?_Lmost@?$_Tree@V?$_Tmap_traits@V?$basic_string@_WU?$char_traits@_W@std@@V?$K2StringAllocator@_W@@@std@@USVertexAttribute@@U?$less@V?$basic_string@_WU?$char_traits@_W@std@@V?$K2StringAllocator@_W@@@std@@@2@V?$K2MapAllocator@U?$pair@$$CBV?$basic_string@_WU?$char_traits@_W@std@@V?$K2StringAllocator@_W@@@std@@USVertexAttribute@@@std@@@@$0A@@std@@@std@@IBEAAPAU_Node@?$_Tree_nod@V?$_Tmap_traits@V?$basic_string@_WU?$char_traits@_W@std@@V?$K2StringAllocator@_W@@@std@@USVertexAttribute@@U?$less@V?$basic_string@_WU?$char_traits@_W@std@@V?$K2StringAllocator@_W@@@std@@@2@V?$K2MapAllocator@U?$pair@$$CBV?$basic_string@_WU?$char_traits@_W@std@@V?$K2StringAllocator@_W@@@std@@USVertexAttribute@@@std@@@@$0A@@std@@@2@XZ 17129a70 f i c_gfxmodels.obj
 0002:00072aa0       ?_Lrotate@?$_Tree@V?$_Tmap_traits@V?$basic_string@_WU?$char_traits@_W@std@@V?$K2StringAllocator@_W@@@std@@USVertexAttribute@@U?$less@V?$basic_string@_WU?$char_traits@_W@std@@V?$K2StringAllocator@_W@@@std@@@2@V?$K2MapAllocator@U?$pair@$$CBV?$basic_string@_WU?$char_traits@_W@std@@V?$K2StringAllocator@_W@@@std@@USVertexAttribute@@@std@@@@$0A@@std@@@std@@IAEXPAU_Node@?$_Tree_nod@V?$_Tmap_traits@V?$basic_string@_WU?$char_traits@_W@std@@V?$K2StringAllocator@_W@@@std@@USVertexAttribute@@U?$less@V?$basic_string@_WU?$char_traits@_W@std@@V?$K2StringAllocator@_W@@@std@@@2@V?$K2MapAllocator@U?$pair@$$CBV?$basic_string@_WU?$char_traits@_W@std@@V?$K2StringAllocator@_W@@@std@@USVertexAttribute@@@std@@@@$0A@@std@@@2@@Z 17129aa0 f i c_gfxmodels.obj
 0002:00072c30       ?_Rrotate@?$_Tree@V?$_Tmap_traits@V?$basic_string@_WU?$char_traits@_W@std@@V?$K2StringAllocator@_W@@@std@@USVertexAttribute@@U?$less@V?$basic_string@_WU?$char_traits@_W@std@@V?$K2StringAllocator@_W@@@std@@@2@V?$K2MapAllocator@U?$pair@$$CBV?$basic_string@_WU?$char_traits@_W@std@@V?$K2StringAllocator@_W@@@std@@USVertexAttribute@@@std@@@@$0A@@std@@@std@@IAEXPAU_Node@?$_Tree_nod@V?$_Tmap_traits@V?$basic_string@_WU?$char_traits@_W@std@@V?$K2StringAllocator@_W@@@std@@USVertexAttribute@@U?$less@V?$basic_string@_WU?$char_traits@_W@std@@V?$K2StringAllocator@_W@@@std@@@2@V?$K2MapAllocator@U?$pair@$$CBV?$basic_string@_WU?$char_traits@_W@std@@V?$K2StringAllocator@_W@@@std@@USVertexAttribute@@@std@@@@$0A@@std@@@2@@Z 17129c30 f i c_gfxmodels.obj
 0002:00072dc0       ?_Buynode@?$_Tree@V?$_Tmap_traits@V?$basic_string@_WU?$char_traits@_W@std@@V?$K2StringAllocator@_W@@@std@@USVertexAttribute@@U?$less@V?$basic_string@_WU?$char_traits@_W@std@@V?$K2StringAllocator@_W@@@std@@@2@V?$K2MapAllocator@U?$pair@$$CBV?$basic_string@_WU?$char_traits@_W@std@@V?$K2StringAllocator@_W@@@std@@USVertexAttribute@@@std@@@@$0A@@std@@@std@@IAEPAU_Node@?$_Tree_nod@V?$_Tmap_traits@V?$basic_string@_WU?$char_traits@_W@std@@V?$K2StringAllocator@_W@@@std@@USVertexAttribute@@U?$less@V?$basic_string@_WU?$char_traits@_W@std@@V?$K2StringAllocator@_W@@@std@@@2@V?$K2MapAllocator@U?$pair@$$CBV?$basic_string@_WU?$char_traits@_W@std@@V?$K2StringAllocator@_W@@@std@@USVertexAttribute@@@std@@@@$0A@@std@@@2@PAU342@00ABU?$pair@$$CBV?$basic_string@_WU?$char_traits@_W@std@@V?$K2StringAllocator@_W@@@std@@USVertexAttribute@@@2@D@Z 17129dc0 f i c_gfxmodels.obj
 0002:00072ee0       ?_Myval@?$list@V?$vector@HV?$K2VectorAllocator@H@@@@V?$K2ListAllocator@V?$vector@HV?$K2VectorAllocator@H@@@@@@@std@@KAAAV?$vector@HV?$K2VectorAllocator@H@@@@PAU_Node@?$_List_nod@V?$vector@HV?$K2VectorAllocator@H@@@@V?$K2ListAllocator@V?$vector@HV?$K2VectorAllocator@H@@@@@@@2@@Z 17129ee0 f i c_gfxmodels.obj
 0002:00072f00       ?max_size@?$list@V?$vector@HV?$K2VectorAllocator@H@@@@V?$K2ListAllocator@V?$vector@HV?$K2VectorAllocator@H@@@@@@@std@@QBEIXZ 17129f00 f i c_gfxmodels.obj
 0002:00072f30       ?_Orphan_ptr@?$list@V?$vector@HV?$K2VectorAllocator@H@@@@V?$K2ListAllocator@V?$vector@HV?$K2VectorAllocator@H@@@@@@@std@@IBEXAAV12@PAU_Node@?$_List_nod@V?$vector@HV?$K2VectorAllocator@H@@@@V?$K2ListAllocator@V?$vector@HV?$K2VectorAllocator@H@@@@@@@2@@Z 17129f30 f i c_gfxmodels.obj
 0002:00072fe0       ??0?$_List_ptr@V?$vector@HV?$K2VectorAllocator@H@@@@V?$K2ListAllocator@V?$vector@HV?$K2VectorAllocator@H@@@@@@@std@@IAE@V?$K2ListAllocator@V?$vector@HV?$K2VectorAllocator@H@@@@@@@Z 17129fe0 f i c_gfxmodels.obj
 0002:00073090       ??0?$K2ListAllocator@V?$vector@HV?$K2VectorAllocator@H@@@@@@QAE@ABV0@@Z 1712a090 f i c_gfxmodels.obj
 0002:000730c0       ??0?$allocator@V?$vector@HV?$K2VectorAllocator@H@@@@@std@@QAE@XZ 1712a0c0 f i c_gfxmodels.obj
 0002:000730e0       ?construct@?$allocator@V?$vector@HV?$K2VectorAllocator@H@@@@@std@@QAEXPAV?$vector@HV?$K2VectorAllocator@H@@@@ABV3@@Z 1712a0e0 f i c_gfxmodels.obj
 0002:00073110       ?allocate@?$K2ListAllocator@U_Node@?$_List_nod@V?$vector@HV?$K2VectorAllocator@H@@@@V?$K2ListAllocator@V?$vector@HV?$K2VectorAllocator@H@@@@@@@std@@@@QAEPAU_Node@?$_List_nod@V?$vector@HV?$K2VectorAllocator@H@@@@V?$K2ListAllocator@V?$vector@HV?$K2VectorAllocator@H@@@@@@@std@@I@Z 1712a110 f i c_gfxmodels.obj
 0002:00073160       ?destroy@?$allocator@U_Node@?$_List_nod@V?$vector@HV?$K2VectorAllocator@H@@@@V?$K2ListAllocator@V?$vector@HV?$K2VectorAllocator@H@@@@@@@std@@@std@@QAEXPAU_Node@?$_List_nod@V?$vector@HV?$K2VectorAllocator@H@@@@V?$K2ListAllocator@V?$vector@HV?$K2VectorAllocator@H@@@@@@@2@@Z 1712a160 f i c_gfxmodels.obj
 0002:00073190       ?construct@?$allocator@PAU_Node@?$_List_nod@V?$vector@HV?$K2VectorAllocator@H@@@@V?$K2ListAllocator@V?$vector@HV?$K2VectorAllocator@H@@@@@@@std@@@std@@QAEXPAPAU_Node@?$_List_nod@V?$vector@HV?$K2VectorAllocator@H@@@@V?$K2ListAllocator@V?$vector@HV?$K2VectorAllocator@H@@@@@@@2@ABQAU342@@Z 1712a190 f i c_gfxmodels.obj
 0002:000731c0       ?BYTE_ROUND@@YAEM@Z        1712a1c0 f i c_gfxmodels.obj
 0002:00073200       ??Y?$_Vector_iterator@HV?$K2VectorAllocator@H@@@std@@QAEAAV01@H@Z 1712a200 f i c_gfxmodels.obj
 0002:00073230       ??0?$_Vector_const_iterator@HV?$K2VectorAllocator@H@@@std@@QAE@PAHPBV_Container_base@1@@Z 1712a230 f i c_gfxmodels.obj
 0002:00073330       ??G?$_Vector_const_iterator@HV?$K2VectorAllocator@H@@@std@@QBEHABV01@@Z 1712a330 f i c_gfxmodels.obj
 0002:00073370       ??8?$_Vector_const_iterator@HV?$K2VectorAllocator@H@@@std@@QBE_NABV01@@Z 1712a370 f i c_gfxmodels.obj
 0002:000733b0       ?_Compat@?$_Vector_const_iterator@HV?$K2VectorAllocator@H@@@std@@QBEXABV12@@Z 1712a3b0 f i c_gfxmodels.obj
 0002:00073460       ??0const_iterator@?$_Tree@V?$_Tmap_traits@V?$basic_string@_WU?$char_traits@_W@std@@V?$K2StringAllocator@_W@@@std@@USVertexAttribute@@U?$less@V?$basic_string@_WU?$char_traits@_W@std@@V?$K2StringAllocator@_W@@@std@@@2@V?$K2MapAllocator@U?$pair@$$CBV?$basic_string@_WU?$char_traits@_W@std@@V?$K2StringAllocator@_W@@@std@@USVertexAttribute@@@std@@@@$0A@@std@@@std@@QAE@XZ 1712a460 f i c_gfxmodels.obj
 0002:000734a0       ??Econst_iterator@?$_Tree@V?$_Tmap_traits@V?$basic_string@_WU?$char_traits@_W@std@@V?$K2StringAllocator@_W@@@std@@USVertexAttribute@@U?$less@V?$basic_string@_WU?$char_traits@_W@std@@V?$K2StringAllocator@_W@@@std@@@2@V?$K2MapAllocator@U?$pair@$$CBV?$basic_string@_WU?$char_traits@_W@std@@V?$K2StringAllocator@_W@@@std@@USVertexAttribute@@@std@@@@$0A@@std@@@std@@QAEAAV012@XZ 1712a4a0 f i c_gfxmodels.obj
 0002:000734d0       ??Fconst_iterator@?$_Tree@V?$_Tmap_traits@V?$basic_string@_WU?$char_traits@_W@std@@V?$K2StringAllocator@_W@@@std@@USVertexAttribute@@U?$less@V?$basic_string@_WU?$char_traits@_W@std@@V?$K2StringAllocator@_W@@@std@@@2@V?$K2MapAllocator@U?$pair@$$CBV?$basic_string@_WU?$char_traits@_W@std@@V?$K2StringAllocator@_W@@@std@@USVertexAttribute@@@std@@@@$0A@@std@@@std@@QAEAAV012@XZ 1712a4d0 f i c_gfxmodels.obj
 0002:00073500       ??0?$_Const_iterator@$00@?$list@V?$vector@HV?$K2VectorAllocator@H@@@@V?$K2ListAllocator@V?$vector@HV?$K2VectorAllocator@H@@@@@@@std@@QAE@PAU_Node@?$_List_nod@V?$vector@HV?$K2VectorAllocator@H@@@@V?$K2ListAllocator@V?$vector@HV?$K2VectorAllocator@H@@@@@@@2@PBV12@@Z 1712a500 f i c_gfxmodels.obj
 0002:00073590       ??0?$pair@Viterator@?$_Tree@V?$_Tmap_traits@V?$basic_string@_WU?$char_traits@_W@std@@V?$K2StringAllocator@_W@@@std@@USVertexAttribute@@U?$less@V?$basic_string@_WU?$char_traits@_W@std@@V?$K2StringAllocator@_W@@@std@@@2@V?$K2MapAllocator@U?$pair@$$CBV?$basic_string@_WU?$char_traits@_W@std@@V?$K2StringAllocator@_W@@@std@@USVertexAttribute@@@std@@@@$0A@@std@@@std@@_N@std@@QAE@ABViterator@?$_Tree@V?$_Tmap_traits@V?$basic_string@_WU?$char_traits@_W@std@@V?$K2StringAllocator@_W@@@std@@USVertexAttribute@@U?$less@V?$basic_string@_WU?$char_traits@_W@std@@V?$K2StringAllocator@_W@@@std@@@2@V?$K2MapAllocator@U?$pair@$$CBV?$basic_string@_WU?$char_traits@_W@std@@V?$K2StringAllocator@_W@@@std@@USVertexAttribute@@@std@@@@$0A@@std@@@1@AB_N@Z 1712a590 f i c_gfxmodels.obj
 0002:000735d0       ??0?$_Ranit@HHPBHABH@std@@QAE@XZ 1712a5d0 f i c_gfxmodels.obj
 0002:00073600       ??0?$_Bidit@V?$vector@HV?$K2VectorAllocator@H@@@@HPBV1@ABV1@@std@@QAE@XZ 1712a600 f i c_gfxmodels.obj
 0002:00073630       ??0?$allocator@H@std@@QAE@ABV01@@Z 1712a630 f i c_gfxmodels.obj
 0002:00073650       ?max_size@?$allocator@H@std@@QBEIXZ 1712a650 f i c_gfxmodels.obj
 0002:00073690       ?max_size@?$allocator@U?$pair@$$CBV?$basic_string@_WU?$char_traits@_W@std@@V?$K2StringAllocator@_W@@@std@@USVertexAttribute@@@std@@@std@@QBEIXZ 1712a690 f i c_gfxmodels.obj
 0002:000736d0       ?allocate@?$K2MapAllocator@U_Node@?$_Tree_nod@V?$_Tmap_traits@V?$basic_string@_WU?$char_traits@_W@std@@V?$K2StringAllocator@_W@@@std@@USVertexAttribute@@U?$less@V?$basic_string@_WU?$char_traits@_W@std@@V?$K2StringAllocator@_W@@@std@@@2@V?$K2MapAllocator@U?$pair@$$CBV?$basic_string@_WU?$char_traits@_W@std@@V?$K2StringAllocator@_W@@@std@@USVertexAttribute@@@std@@@@$0A@@std@@@std@@@@QAEPAU_Node@?$_Tree_nod@V?$_Tmap_traits@V?$basic_string@_WU?$char_traits@_W@std@@V?$K2StringAllocator@_W@@@std@@USVertexAttribute@@U?$less@V?$basic_string@_WU?$char_traits@_W@std@@V?$K2StringAllocator@_W@@@std@@@2@V?$K2MapAllocator@U?$pair@$$CBV?$basic_string@_WU?$char_traits@_W@std@@V?$K2StringAllocator@_W@@@std@@USVertexAttribute@@@std@@@@$0A@@std@@@std@@I@Z 1712a6d0 f i c_gfxmodels.obj
 0002:00073720       ?deallocate@?$K2MapAllocator@U_Node@?$_Tree_nod@V?$_Tmap_traits@V?$basic_string@_WU?$char_traits@_W@std@@V?$K2StringAllocator@_W@@@std@@USVertexAttribute@@U?$less@V?$basic_string@_WU?$char_traits@_W@std@@V?$K2StringAllocator@_W@@@std@@@2@V?$K2MapAllocator@U?$pair@$$CBV?$basic_string@_WU?$char_traits@_W@std@@V?$K2StringAllocator@_W@@@std@@USVertexAttribute@@@std@@@@$0A@@std@@@std@@@@QAEXPAU_Node@?$_Tree_nod@V?$_Tmap_traits@V?$basic_string@_WU?$char_traits@_W@std@@V?$K2StringAllocator@_W@@@std@@USVertexAttribute@@U?$less@V?$basic_string@_WU?$char_traits@_W@std@@V?$K2StringAllocator@_W@@@std@@@2@V?$K2MapAllocator@U?$pair@$$CBV?$basic_string@_WU?$char_traits@_W@std@@V?$K2StringAllocator@_W@@@std@@USVertexAttribute@@@std@@@@$0A@@std@@@std@@I@Z 1712a720 f i c_gfxmodels.obj
 0002:00073760       ??0?$_List_nod@V?$vector@HV?$K2VectorAllocator@H@@@@V?$K2ListAllocator@V?$vector@HV?$K2VectorAllocator@H@@@@@@@std@@IAE@V?$K2ListAllocator@V?$vector@HV?$K2VectorAllocator@H@@@@@@@Z 1712a760 f i c_gfxmodels.obj
 0002:00073800       ??0?$allocator@V?$vector@HV?$K2VectorAllocator@H@@@@@std@@QAE@ABV01@@Z 1712a800 f i c_gfxmodels.obj
 0002:00073820       ?max_size@?$allocator@V?$vector@HV?$K2VectorAllocator@H@@@@@std@@QBEIXZ 1712a820 f i c_gfxmodels.obj
 0002:00073860       ??Y?$_Vector_const_iterator@HV?$K2VectorAllocator@H@@@std@@QAEAAV01@H@Z 1712a860 f i c_gfxmodels.obj
 0002:00073990       ?_Dec@const_iterator@?$_Tree@V?$_Tmap_traits@V?$basic_string@_WU?$char_traits@_W@std@@V?$K2StringAllocator@_W@@@std@@USVertexAttribute@@U?$less@V?$basic_string@_WU?$char_traits@_W@std@@V?$K2StringAllocator@_W@@@std@@@2@V?$K2MapAllocator@U?$pair@$$CBV?$basic_string@_WU?$char_traits@_W@std@@V?$K2StringAllocator@_W@@@std@@USVertexAttribute@@@std@@@@$0A@@std@@@std@@QAEXXZ 1712a990 f i c_gfxmodels.obj
 0002:00073c50       ?_Inc@const_iterator@?$_Tree@V?$_Tmap_traits@V?$basic_string@_WU?$char_traits@_W@std@@V?$K2StringAllocator@_W@@@std@@USVertexAttribute@@U?$less@V?$basic_string@_WU?$char_traits@_W@std@@V?$K2StringAllocator@_W@@@std@@@2@V?$K2MapAllocator@U?$pair@$$CBV?$basic_string@_WU?$char_traits@_W@std@@V?$K2StringAllocator@_W@@@std@@USVertexAttribute@@@std@@@@$0A@@std@@@std@@QAEXXZ 1712ac50 f i c_gfxmodels.obj
 0002:00073dc0       ??0_Node@?$_Tree_nod@V?$_Tmap_traits@V?$basic_string@_WU?$char_traits@_W@std@@V?$K2StringAllocator@_W@@@std@@USVertexAttribute@@U?$less@V?$basic_string@_WU?$char_traits@_W@std@@V?$K2StringAllocator@_W@@@std@@@2@V?$K2MapAllocator@U?$pair@$$CBV?$basic_string@_WU?$char_traits@_W@std@@V?$K2StringAllocator@_W@@@std@@USVertexAttribute@@@std@@@@$0A@@std@@@std@@QAE@PAU012@00ABU?$pair@$$CBV?$basic_string@_WU?$char_traits@_W@std@@V?$K2StringAllocator@_W@@@std@@USVertexAttribute@@@2@D@Z 1712adc0 f i c_gfxmodels.obj
 0002:00073e30       ??0?$pair@$$CBV?$basic_string@_WU?$char_traits@_W@std@@V?$K2StringAllocator@_W@@@std@@USVertexAttribute@@@std@@QAE@ABU01@@Z 1712ae30 f i c_gfxmodels.obj
 0002:00073e90       ?_Max@?$_Tree@V?$_Tmap_traits@V?$basic_string@_WU?$char_traits@_W@std@@V?$K2StringAllocator@_W@@@std@@USVertexAttribute@@U?$less@V?$basic_string@_WU?$char_traits@_W@std@@V?$K2StringAllocator@_W@@@std@@@2@V?$K2MapAllocator@U?$pair@$$CBV?$basic_string@_WU?$char_traits@_W@std@@V?$K2StringAllocator@_W@@@std@@USVertexAttribute@@@std@@@@$0A@@std@@@std@@KAPAU_Node@?$_Tree_nod@V?$_Tmap_traits@V?$basic_string@_WU?$char_traits@_W@std@@V?$K2StringAllocator@_W@@@std@@USVertexAttribute@@U?$less@V?$basic_string@_WU?$char_traits@_W@std@@V?$K2StringAllocator@_W@@@std@@@2@V?$K2MapAllocator@U?$pair@$$CBV?$basic_string@_WU?$char_traits@_W@std@@V?$K2StringAllocator@_W@@@std@@USVertexAttribute@@@std@@@@$0A@@std@@@2@PAU342@@Z 1712ae90 f i c_gfxmodels.obj
 0002:00073ef0       ?_Min@?$_Tree@V?$_Tmap_traits@V?$basic_string@_WU?$char_traits@_W@std@@V?$K2StringAllocator@_W@@@std@@USVertexAttribute@@U?$less@V?$basic_string@_WU?$char_traits@_W@std@@V?$K2StringAllocator@_W@@@std@@@2@V?$K2MapAllocator@U?$pair@$$CBV?$basic_string@_WU?$char_traits@_W@std@@V?$K2StringAllocator@_W@@@std@@USVertexAttribute@@@std@@@@$0A@@std@@@std@@KAPAU_Node@?$_Tree_nod@V?$_Tmap_traits@V?$basic_string@_WU?$char_traits@_W@std@@V?$K2StringAllocator@_W@@@std@@USVertexAttribute@@U?$less@V?$basic_string@_WU?$char_traits@_W@std@@V?$K2StringAllocator@_W@@@std@@@2@V?$K2MapAllocator@U?$pair@$$CBV?$basic_string@_WU?$char_traits@_W@std@@V?$K2StringAllocator@_W@@@std@@USVertexAttribute@@@std@@@@$0A@@std@@@2@PAU342@@Z 1712aef0 f i c_gfxmodels.obj
 0002:00073f50       ?M_SetVec4@@YAXQAMMMMM@Z   1712af50 f i c_gfxmodels.obj
 0002:00073f90       ??$Distance@M@@YAMABV?$CVec3@M@@0@Z 1712af90 f i c_gfxmodels.obj
 0002:00074010       ??$MAX@H@@YAABHABH0@Z      1712b010 f i c_gfxmodels.obj
 0002:00074050       ??$ParenStr@V?$basic_string@_WU?$char_traits@_W@std@@V?$K2StringAllocator@_W@@@std@@@@YA?AV?$basic_string@_WU?$char_traits@_W@std@@V?$K2StringAllocator@_W@@@std@@V01@@Z 1712b050 f i c_gfxmodels.obj
 0002:00074130       ??$unchecked_copy@PAHPAH@stdext@@YAPAHPAH00@Z 1712b130 f i c_gfxmodels.obj
 0002:000741c0       ??$unchecked_uninitialized_fill_n@PAHIHV?$K2VectorAllocator@H@@@stdext@@YAXPAHIABHAAV?$K2VectorAllocator@H@@@Z 1712b1c0 f i c_gfxmodels.obj
 0002:00074220       ??$_Destroy_range@HV?$K2VectorAllocator@H@@@std@@YAXPAH0AAV?$K2VectorAllocator@H@@@Z 1712b220 f i c_gfxmodels.obj
 0002:00074270       ??$_Umove@PAH@?$vector@HV?$K2VectorAllocator@H@@@std@@IAEPAHPAH00@Z 1712b270 f i c_gfxmodels.obj
 0002:000742b0       ??$fill@PAHH@std@@YAXPAH0ABH@Z 1712b2b0 f i c_gfxmodels.obj
 0002:00074300       ??$_Unchecked_move_backward@PAHPAH@stdext@@YAPAHPAH00@Z 1712b300 f i c_gfxmodels.obj
 0002:00074390       ??$_Destroy@PAU_Node@?$_List_nod@V?$vector@HV?$K2VectorAllocator@H@@@@V?$K2ListAllocator@V?$vector@HV?$K2VectorAllocator@H@@@@@@@std@@@std@@YAXPAPAU_Node@?$_List_nod@V?$vector@HV?$K2VectorAllocator@H@@@@V?$K2ListAllocator@V?$vector@HV?$K2VectorAllocator@H@@@@@@@0@@Z 1712b390 f i c_gfxmodels.obj
 0002:000743b0       ??$?0V?$vector@HV?$K2VectorAllocator@H@@@@@?$K2ListAllocator@PAU_Node@?$_List_nod@V?$vector@HV?$K2VectorAllocator@H@@@@V?$K2ListAllocator@V?$vector@HV?$K2VectorAllocator@H@@@@@@@std@@@@QAE@ABV?$K2ListAllocator@V?$vector@HV?$K2VectorAllocator@H@@@@@@@Z 1712b3b0 f i c_gfxmodels.obj
 0002:000743e0       ??$_Construct@V?$vector@HV?$K2VectorAllocator@H@@@@V1@@std@@YAXPAV?$vector@HV?$K2VectorAllocator@H@@@@ABV1@@Z 1712b3e0 f i c_gfxmodels.obj
 0002:00074490       ??$_Destroy@U_Node@?$_List_nod@V?$vector@HV?$K2VectorAllocator@H@@@@V?$K2ListAllocator@V?$vector@HV?$K2VectorAllocator@H@@@@@@@std@@@std@@YAXPAU_Node@?$_List_nod@V?$vector@HV?$K2VectorAllocator@H@@@@V?$K2ListAllocator@V?$vector@HV?$K2VectorAllocator@H@@@@@@@0@@Z 1712b490 f i c_gfxmodels.obj
 0002:000744b0       ??$_Construct@PAU_Node@?$_List_nod@V?$vector@HV?$K2VectorAllocator@H@@@@V?$K2ListAllocator@V?$vector@HV?$K2VectorAllocator@H@@@@@@@std@@PAU123@@std@@YAXPAPAU_Node@?$_List_nod@V?$vector@HV?$K2VectorAllocator@H@@@@V?$K2ListAllocator@V?$vector@HV?$K2VectorAllocator@H@@@@@@@0@ABQAU120@@Z 1712b4b0 f i c_gfxmodels.obj
 0002:00074510       ??$?0V?$vector@HV?$K2VectorAllocator@H@@@@@?$K2ListAllocator@U_Node@?$_List_nod@V?$vector@HV?$K2VectorAllocator@H@@@@V?$K2ListAllocator@V?$vector@HV?$K2VectorAllocator@H@@@@@@@std@@@@QAE@ABV?$K2ListAllocator@V?$vector@HV?$K2VectorAllocator@H@@@@@@@Z 1712b510 f i c_gfxmodels.obj
 0002:00074540       ??_G_Node@?$_List_nod@V?$vector@HV?$K2VectorAllocator@H@@@@V?$K2ListAllocator@V?$vector@HV?$K2VectorAllocator@H@@@@@@@std@@QAEPAXI@Z 1712b540 f i c_gfxmodels.obj
 0002:00074590       ??1_Node@?$_List_nod@V?$vector@HV?$K2VectorAllocator@H@@@@V?$K2ListAllocator@V?$vector@HV?$K2VectorAllocator@H@@@@@@@std@@QAE@XZ 1712b590 f i c_gfxmodels.obj
 0002:000745c0       ??0?$vector@HV?$K2VectorAllocator@H@@@@QAE@ABV0@@Z 1712b5c0 f i c_gfxmodels.obj
 0002:000745f0       ??0?$allocator@U_Node@?$_List_nod@V?$vector@HV?$K2VectorAllocator@H@@@@V?$K2ListAllocator@V?$vector@HV?$K2VectorAllocator@H@@@@@@@std@@@std@@QAE@XZ 1712b5f0 f i c_gfxmodels.obj
 0002:00074610       ??0?$allocator@PAU_Node@?$_List_nod@V?$vector@HV?$K2VectorAllocator@H@@@@V?$K2ListAllocator@V?$vector@HV?$K2VectorAllocator@H@@@@@@@std@@@std@@QAE@XZ 1712b610 f i c_gfxmodels.obj
 0002:00074630       ??0?$vector@HV?$K2VectorAllocator@H@@@std@@QAE@ABV01@@Z 1712b630 f i c_gfxmodels.obj
 0002:00074780       ?begin@?$vector@HV?$K2VectorAllocator@H@@@std@@QBE?AV?$_Vector_const_iterator@HV?$K2VectorAllocator@H@@@2@XZ 1712b780 f i c_gfxmodels.obj
 0002:000747d0       ?end@?$vector@HV?$K2VectorAllocator@H@@@std@@QBE?AV?$_Vector_const_iterator@HV?$K2VectorAllocator@H@@@2@XZ 1712b7d0 f i c_gfxmodels.obj
 0002:00074820       ??$_Checked_base@PAH@std@@YAPAHAAPAH@Z 1712b820 f i c_gfxmodels.obj
 0002:00074850       ??$_Iter_random@PAHPAH@std@@YA?AUrandom_access_iterator_tag@0@ABQAH0@Z 1712b850 f i c_gfxmodels.obj
 0002:00074870       ??$_Ptr_cat@PAHPAH@std@@YA?AU_Scalar_ptr_iterator_tag@0@AAPAH0@Z 1712b870 f i c_gfxmodels.obj
 0002:00074890       ??$_Copy_opt@PAHPAHUrandom_access_iterator_tag@std@@@std@@YAPAHPAH00Urandom_access_iterator_tag@0@U_Scalar_ptr_iterator_tag@0@U_Range_checked_iterator_tag@0@@Z 1712b890 f i c_gfxmodels.obj
 0002:00074940       ??$_Uninit_fill_n@PAHIHV?$K2VectorAllocator@H@@@std@@YAXPAHIABHAAV?$K2VectorAllocator@H@@U_Scalar_ptr_iterator_tag@0@U_Range_checked_iterator_tag@0@@Z 1712b940 f i c_gfxmodels.obj
 0002:00074970       ??$_Destroy_range@HV?$K2VectorAllocator@H@@@std@@YAXPAH0AAV?$K2VectorAllocator@H@@U_Scalar_ptr_iterator_tag@0@@Z 1712b970 f i c_gfxmodels.obj
 0002:00074990       ??$_Unchecked_uninitialized_move@PAHPAHV?$K2VectorAllocator@H@@@stdext@@YAPAHPAH00AAV?$K2VectorAllocator@H@@@Z 1712b990 f i c_gfxmodels.obj
 0002:00074a00       ??$_Fill@PAHH@std@@YAXPAH0ABH@Z 1712ba00 f i c_gfxmodels.obj
 0002:00074a60       ??$_Move_cat@PAH@std@@YA?AU_Undefined_move_tag@0@ABQAH@Z 1712ba60 f i c_gfxmodels.obj
 0002:00074a80       ??$_Move_backward_opt@PAHPAHUrandom_access_iterator_tag@std@@U_Undefined_move_tag@2@@std@@YAPAHPAH00Urandom_access_iterator_tag@0@U_Undefined_move_tag@0@U_Range_checked_iterator_tag@0@@Z 1712ba80 f i c_gfxmodels.obj
 0002:00074ae0       ??$_Ucopy@V?$_Vector_const_iterator@HV?$K2VectorAllocator@H@@@std@@@?$vector@HV?$K2VectorAllocator@H@@@std@@IAEPAHV?$_Vector_const_iterator@HV?$K2VectorAllocator@H@@@1@0PAH@Z 1712bae0 f i c_gfxmodels.obj
 0002:00074bd0       ??0SVertexAttribute@@QAE@XZ 1712bbd0 f i c_gfxmodels.obj
 0002:00074bf0       ??0SVertexAttribute@@QAE@IHH_N@Z 1712bbf0 f i c_gfxmodels.obj
 0002:00074c40       ?GetLodDistance@CCamera@@QBEMXZ 1712bc40 f i c_gfxmodels.obj
 0002:00074c60       ??$_Checked_base@PAH@std@@YAPAHAAPAHU_Unchanged_checked_iterator_base_type_tag@0@@Z 1712bc60 f i c_gfxmodels.obj
 0002:00074c80       ??$_Debug_range@PAH@std@@YAXPAH0PB_WI@Z 1712bc80 f i c_gfxmodels.obj
 0002:00074cd0       ??$_Debug_pointer@H@std@@YAXPAHPB_WI@Z 1712bcd0 f i c_gfxmodels.obj
 0002:00074d10       ??$unchecked_fill_n@PAHIH@stdext@@YAXPAHIABH@Z 1712bd10 f i c_gfxmodels.obj
 0002:00074d60       ??$_Uninit_move@PAHPAHV?$K2VectorAllocator@H@@U_Undefined_move_tag@std@@@std@@YAPAHPAH00AAV?$K2VectorAllocator@H@@U_Undefined_move_tag@0@U_Range_checked_iterator_tag@0@@Z 1712bd60 f i c_gfxmodels.obj
 0002:00074da0       ??$_Copy_backward_opt@PAHPAHUrandom_access_iterator_tag@std@@@std@@YAPAHPAH00Urandom_access_iterator_tag@0@U_Scalar_ptr_iterator_tag@0@U_Range_checked_iterator_tag@0@@Z 1712bda0 f i c_gfxmodels.obj
 0002:00074e50       ??$unchecked_uninitialized_copy@V?$_Vector_const_iterator@HV?$K2VectorAllocator@H@@@std@@PAHV?$K2VectorAllocator@H@@@stdext@@YAPAHV?$_Vector_const_iterator@HV?$K2VectorAllocator@H@@@std@@0PAHAAV?$K2VectorAllocator@H@@@Z 1712be50 f i c_gfxmodels.obj
 0002:00074f60       ?GetType@IModel@@QBE?AW4EModelType@@XZ 1712bf60 f i c_gfxmodels.obj
 0002:00074f80       ?GetNumLods@IModel@@QAEIXZ 1712bf80 f i c_gfxmodels.obj
 0002:00074fb0       ?GetSkin@IModel@@QAEPAVCSkin@@I@Z 1712bfb0 f i c_gfxmodels.obj
 0002:00074fe0       ?NumSkins@IModel@@QBEIXZ   1712bfe0 f i c_gfxmodels.obj
 0002:00075010       ??$_Iter_cat@PAH@std@@YA?AUrandom_access_iterator_tag@0@ABQAH@Z 1712c010 f i c_gfxmodels.obj
 0002:00075030       ??$_Debug_range2@PAH@std@@YAXPAH0PB_WIUrandom_access_iterator_tag@0@@Z 1712c030 f i c_gfxmodels.obj
 0002:000750b0       ??$_Fill_n@PAHIH@std@@YAXPAHIABHUrandom_access_iterator_tag@0@U_Range_checked_iterator_tag@0@@Z 1712c0b0 f i c_gfxmodels.obj
 0002:00075110       ??$unchecked_uninitialized_copy@PAHPAHV?$K2VectorAllocator@H@@@stdext@@YAPAHPAH00AAV?$K2VectorAllocator@H@@@Z 1712c110 f i c_gfxmodels.obj
 0002:00075180       ??$_Checked_base@V?$_Vector_const_iterator@HV?$K2VectorAllocator@H@@@std@@@std@@YA?AV?$_Vector_const_iterator@HV?$K2VectorAllocator@H@@@0@AAV10@@Z 1712c180 f i c_gfxmodels.obj
 0002:000751d0       ??$_Ptr_cat@V?$_Vector_const_iterator@HV?$K2VectorAllocator@H@@@std@@PAH@std@@YA?AU_Scalar_ptr_iterator_tag@0@AAV?$_Vector_const_iterator@HV?$K2VectorAllocator@H@@@0@AAPAH@Z 1712c1d0 f i c_gfxmodels.obj
 0002:000751f0       ??$_Uninit_copy@V?$_Vector_const_iterator@HV?$K2VectorAllocator@H@@@std@@PAHV?$K2VectorAllocator@H@@@std@@YAPAHV?$_Vector_const_iterator@HV?$K2VectorAllocator@H@@@0@0PAHAAV?$K2VectorAllocator@H@@U_Scalar_ptr_iterator_tag@0@U_Range_checked_iterator_tag@0@@Z 1712c1f0 f i c_gfxmodels.obj
 0002:00075340       ??D?$_Vector_const_iterator@HV?$K2VectorAllocator@H@@@std@@QBEABHXZ 1712c340 f i c_gfxmodels.obj
 0002:00075400       ?GetCameraPos@CSceneManager@@QAEABV?$CVec3@M@@XZ 1712c400 f i c_gfxmodels.obj
 0002:00075430       ?GetCameraDir@CSceneManager@@QAEABV?$CVec3@M@@XZ 1712c430 f i c_gfxmodels.obj
 0002:00075460       ?Forward@CAxis@@QBEABV?$CVec3@M@@XZ 1712c460 f i c_gfxmodels.obj
 0002:00075480       ?GetViewAxis@CCamera@@QBEABVCAxis@@XZ 1712c480 f i c_gfxmodels.obj
 0002:000754a0       ??$_Fill_n@PAHIH@std@@YAXPAHIABHU_Range_checked_iterator_tag@0@@Z 1712c4a0 f i c_gfxmodels.obj
 0002:000754f0       ??$_Uninit_copy@PAHPAHV?$K2VectorAllocator@H@@@std@@YAPAHPAH00AAV?$K2VectorAllocator@H@@U_Scalar_ptr_iterator_tag@0@U_Range_checked_iterator_tag@0@@Z 1712c4f0 f i c_gfxmodels.obj
 0002:00075590       ??$_Checked_base@V?$_Vector_const_iterator@HV?$K2VectorAllocator@H@@@std@@@std@@YA?AV?$_Vector_const_iterator@HV?$K2VectorAllocator@H@@@0@AAV10@U_Unchanged_checked_iterator_base_type_tag@0@@Z 1712c590 f i c_gfxmodels.obj
 0002:000755d0       ??$_Debug_range@V?$_Vector_const_iterator@HV?$K2VectorAllocator@H@@@std@@@std@@YAXV?$_Vector_const_iterator@HV?$K2VectorAllocator@H@@@0@0PB_WI@Z 1712c5d0 f i c_gfxmodels.obj
 0002:000756c0       ??$_Iter_cat@V?$_Vector_const_iterator@HV?$K2VectorAllocator@H@@@std@@@std@@YA?AUrandom_access_iterator_tag@0@ABV?$_Vector_const_iterator@HV?$K2VectorAllocator@H@@@0@@Z 1712c6c0 f i c_gfxmodels.obj
 0002:000756e0       ??$_Debug_range2@V?$_Vector_const_iterator@HV?$K2VectorAllocator@H@@@std@@@std@@YAXV?$_Vector_const_iterator@HV?$K2VectorAllocator@H@@@0@0PB_WIUrandom_access_iterator_tag@0@@Z 1712c6e0 f i c_gfxmodels.obj
 0002:000757d0       ??$_Debug_pointer@V?$_Vector_const_iterator@HV?$K2VectorAllocator@H@@@std@@@std@@YAXAAV?$_Vector_const_iterator@HV?$K2VectorAllocator@H@@@0@PB_WI@Z 1712c7d0 f i c_gfxmodels.obj
 0002:000757f0       ??0STreeBillboardData@@QAE@XZ 1712c7f0 f i c_gfxmodels.obj
 0002:00075810       ?SetVidDefIndex@CTreeModel@@QAEXI@Z 1712c810 f i c_gfxmodels.obj
 0002:00075840       ?GetVidDefIndex@CTreeModel@@QBEIXZ 1712c840 f i c_gfxmodels.obj
 0002:00075870       ??0D3DXVECTOR3@@QAE@MMM@Z  1712c870 f i c_gfxmodels.obj
 0002:000758b0       ??BD3DXVECTOR3@@QAEPAMXZ   1712c8b0 f i c_gfxmodels.obj
 0002:000758d0       ??0D3DXVECTOR4@@QAE@MMMM@Z 1712c8d0 f i c_gfxmodels.obj
 0002:00075920       ??BD3DXVECTOR4@@QAEPAMXZ   1712c920 f i c_gfxmodels.obj
 0002:00075940       ??0_D3DXMATRIXA16@@QAE@ABU_D3DMATRIX@@@Z 1712c940 f i c_gfxmodels.obj
 0002:00075970       ??0D3DXMATRIX@@QAE@ABU_D3DMATRIX@@@Z 1712c970 f i c_gfxmodels.obj
 0002:000759b0       ??0_D3DXMATRIXA16@@QAE@MMMMMMMMMMMMMMMM@Z 1712c9b0 f i c_gfxmodels.obj
 0002:00075a70       ?size@?$vector@PAVCSkin@@V?$K2VectorAllocator@PAVCSkin@@@@@std@@QBEIXZ 1712ca70 f i c_gfxmodels.obj
 0002:00075ac0       ??A?$vector@PAVCSkin@@V?$K2VectorAllocator@PAVCSkin@@@@@std@@QAEAAPAVCSkin@@I@Z 1712cac0 f i c_gfxmodels.obj
 0002:00075be0       ?size@?$vector@PAVIModel@@V?$K2VectorAllocator@PAVIModel@@@@@std@@QBEIXZ 1712cbe0 f i c_gfxmodels.obj
 0002:00075c30       ??A?$vector@PAVIModel@@V?$K2VectorAllocator@PAVIModel@@@@@std@@QAEAAPAVIModel@@I@Z 1712cc30 f i c_gfxmodels.obj
 0002:00075d50       ?GetInstance@CGfxModels@@SAPAV1@XZ 1712cd50 f i c_gfxmodels.obj
 0002:00075e60       ?Release@CGfxShaders@@SAXXZ 1712ce60 f   c_gfxshaders.obj
 0002:00075ef0       ??_GCGfxShaders@@QAEPAXI@Z 1712cef0 f i c_gfxshaders.obj
 0002:00075f40       ??1CGfxShaders@@QAE@XZ     1712cf40 f   c_gfxshaders.obj
 0002:00075f60       ??0CGfxShaders@@AAE@XZ     1712cf60 f   c_gfxshaders.obj
 0002:00075f90       ?LoadVertexShader@CGfxShaders@@QAE_NABV?$basic_string@_WU?$char_traits@_W@std@@V?$K2StringAllocator@_W@@@std@@AAH@Z 1712cf90 f   c_gfxshaders.obj
 0002:00076ad0       ??0CVertexShaderFileCallback@@QAE@ABV?$basic_string@_WU?$char_traits@_W@std@@V?$K2StringAllocator@_W@@@std@@H@Z 1712dad0 f i c_gfxshaders.obj
 0002:00076b20       ?Execute@CVertexShaderFileCallback@@UAEXXZ 1712db20 f i c_gfxshaders.obj
 0002:00076b50       ?GetInstance@CGfxShaders@@SAPAV1@XZ 1712db50 f i c_gfxshaders.obj
 0002:00076c60       ??_GCVertexShaderFileCallback@@UAEPAXI@Z 1712dc60 f i c_gfxshaders.obj
 0002:00076c60       ??_ECVertexShaderFileCallback@@UAEPAXI@Z 1712dc60 f i c_gfxshaders.obj
 0002:00076cb0       ??1CVertexShaderFileCallback@@UAE@XZ 1712dcb0 f i c_gfxshaders.obj
 0002:00076ce0       ??0CGLSLPreprocessor@@QAE@XZ 1712dce0 f i c_gfxshaders.obj
 0002:00076db0       ??1CGLSLPreprocessor@@QAE@XZ 1712ddb0 f i c_gfxshaders.obj
 0002:00076e60       ??0CBranchTracker@@QAE@XZ  1712de60 f i c_gfxshaders.obj
 0002:00076e90       ??1CBranchTracker@@QAE@XZ  1712de90 f i c_gfxshaders.obj
 0002:00076ec0       ??1?$map@V?$basic_string@DU?$char_traits@D@std@@V?$K2StringAllocator@D@@@std@@V12@U?$less@V?$basic_string@DU?$char_traits@D@std@@V?$K2StringAllocator@D@@@std@@@2@V?$K2MapAllocator@U?$pair@$$CBV?$basic_string@DU?$char_traits@D@std@@V?$K2StringAllocator@D@@@std@@V12@@std@@@@@@QAE@XZ 1712dec0 f i c_gfxshaders.obj
 0002:00076ef0       ??1?$vector@DV?$K2VectorAllocator@D@@@@QAE@XZ 1712def0 f i c_gfxshaders.obj
 0002:00076f20       ??1?$vector@EV?$K2VectorAllocator@E@@@@QAE@XZ 1712df20 f i c_gfxshaders.obj
 0002:00076f50       ??1?$map@V?$basic_string@DU?$char_traits@D@std@@V?$K2StringAllocator@D@@@std@@V12@U?$less@V?$basic_string@DU?$char_traits@D@std@@V?$K2StringAllocator@D@@@std@@@2@V?$K2MapAllocator@U?$pair@$$CBV?$basic_string@DU?$char_traits@D@std@@V?$K2StringAllocator@D@@@std@@V12@@std@@@@@std@@QAE@XZ 1712df50 f i c_gfxshaders.obj
 0002:00076f80       ?FreeVertexShader@CGfxShaders@@QAEXH@Z 1712df80 f   c_gfxshaders.obj
 0002:00077090       ?LoadPixelShader@CGfxShaders@@QAE_NABV?$basic_string@_WU?$char_traits@_W@std@@V?$K2StringAllocator@_W@@@std@@AAH@Z 1712e090 f   c_gfxshaders.obj
 0002:00077c40       ??0CPixelShaderFileCallback@@QAE@ABV?$basic_string@_WU?$char_traits@_W@std@@V?$K2StringAllocator@_W@@@std@@H@Z 1712ec40 f i c_gfxshaders.obj
 0002:00077c90       ?Execute@CPixelShaderFileCallback@@UAEXXZ 1712ec90 f i c_gfxshaders.obj
 0002:00077cc0       ??_GCPixelShaderFileCallback@@UAEPAXI@Z 1712ecc0 f i c_gfxshaders.obj
 0002:00077cc0       ??_ECPixelShaderFileCallback@@UAEPAXI@Z 1712ecc0 f i c_gfxshaders.obj
 0002:00077d10       ??1CPixelShaderFileCallback@@UAE@XZ 1712ed10 f i c_gfxshaders.obj
 0002:00077d40       ?FreePixelShader@CGfxShaders@@QAEXH@Z 1712ed40 f   c_gfxshaders.obj
 0002:00077e50       ?FreeShaderProgram@CGfxShaders@@QAEXH@Z 1712ee50 f   c_gfxshaders.obj
 0002:00077f40       ?RegisterVertexShader@CGfxShaders@@QAEHPAVCVertexShader@@@Z 1712ef40 f   c_gfxshaders.obj
 0002:00077fa0       ?SetIndex@CVertexShader@@QAEXH@Z 1712efa0 f i c_gfxshaders.obj
 0002:00077fd0       ?GetShaderFlags@CVertexShader@@QBEHXZ 1712efd0 f i c_gfxshaders.obj
 0002:00078000       ?UnregisterVertexShader@CGfxShaders@@QAEXPAVCVertexShader@@@Z 1712f000 f   c_gfxshaders.obj
 0002:00078040       ?RegisterPixelShader@CGfxShaders@@QAEHPAVCPixelShader@@@Z 1712f040 f   c_gfxshaders.obj
 0002:000780a0       ?SetIndex@CPixelShader@@QAEXH@Z 1712f0a0 f i c_gfxshaders.obj
 0002:000780d0       ?GetShaderFlags@CPixelShader@@QBEHXZ 1712f0d0 f i c_gfxshaders.obj
 0002:00078100       ?UnregisterPixelShader@CGfxShaders@@QAEXPAVCPixelShader@@@Z 1712f100 f   c_gfxshaders.obj
 0002:00078140       ?RegisterShaderPair@CGfxShaders@@QAEXPAVCVertexShader@@PAVCPixelShader@@@Z 1712f140 f   c_gfxshaders.obj
 0002:00078180       ?GetIndex@CVertexShader@@QAEHXZ 1712f180 f i c_gfxshaders.obj
 0002:000781b0       ?GetIndex@CPixelShader@@QAEHXZ 1712f1b0 f i c_gfxshaders.obj
 0002:000781e0       ?LinkShaderProgram@CGfxShaders@@QAE_NHHAAH@Z 1712f1e0 f   c_gfxshaders.obj
 0002:00079390       ?GetShaderVar@CShaderVarRegistry@@QAEPAVCShaderVar@@ABV?$basic_string@_WU?$char_traits@_W@std@@V?$K2StringAllocator@_W@@@std@@@Z 17130390 f i c_gfxshaders.obj
 0002:000794b0       ??1iterator@?$_Tree@V?$_Tmap_traits@V?$basic_string@_WU?$char_traits@_W@std@@V?$K2StringAllocator@_W@@@std@@PAVCShaderVar@@U?$less@V?$basic_string@_WU?$char_traits@_W@std@@V?$K2StringAllocator@_W@@@std@@@2@V?$K2MapAllocator@U?$pair@$$CBV?$basic_string@_WU?$char_traits@_W@std@@V?$K2StringAllocator@_W@@@std@@PAVCShaderVar@@@std@@@@$0A@@std@@@std@@QAE@XZ 171304b0 f i c_gfxshaders.obj
 0002:000794e0       ??1const_iterator@?$_Tree@V?$_Tmap_traits@V?$basic_string@_WU?$char_traits@_W@std@@V?$K2StringAllocator@_W@@@std@@PAVCShaderVar@@U?$less@V?$basic_string@_WU?$char_traits@_W@std@@V?$K2StringAllocator@_W@@@std@@@2@V?$K2MapAllocator@U?$pair@$$CBV?$basic_string@_WU?$char_traits@_W@std@@V?$K2StringAllocator@_W@@@std@@PAVCShaderVar@@@std@@@@$0A@@std@@@std@@QAE@XZ 171304e0 f i c_gfxshaders.obj
 0002:00079510       ??1?$_Bidit@U?$pair@$$CBV?$basic_string@_WU?$char_traits@_W@std@@V?$K2StringAllocator@_W@@@std@@PAVCShaderVar@@@std@@HPBU12@ABU12@@std@@QAE@XZ 17130510 f i c_gfxshaders.obj
 0002:00079540       ?GetShaderSampler@CShaderSamplerRegistry@@QAEPAVCShaderSampler@@ABV?$basic_string@_WU?$char_traits@_W@std@@V?$K2StringAllocator@_W@@@std@@@Z 17130540 f i c_gfxshaders.obj
 0002:00079660       ??1iterator@?$_Tree@V?$_Tmap_traits@V?$basic_string@_WU?$char_traits@_W@std@@V?$K2StringAllocator@_W@@@std@@PAVCShaderSampler@@U?$less@V?$basic_string@_WU?$char_traits@_W@std@@V?$K2StringAllocator@_W@@@std@@@2@V?$K2MapAllocator@U?$pair@$$CBV?$basic_string@_WU?$char_traits@_W@std@@V?$K2StringAllocator@_W@@@std@@PAVCShaderSampler@@@std@@@@$0A@@std@@@std@@QAE@XZ 17130660 f i c_gfxshaders.obj
 0002:00079690       ??1const_iterator@?$_Tree@V?$_Tmap_traits@V?$basic_string@_WU?$char_traits@_W@std@@V?$K2StringAllocator@_W@@@std@@PAVCShaderSampler@@U?$less@V?$basic_string@_WU?$char_traits@_W@std@@V?$K2StringAllocator@_W@@@std@@@2@V?$K2MapAllocator@U?$pair@$$CBV?$basic_string@_WU?$char_traits@_W@std@@V?$K2StringAllocator@_W@@@std@@PAVCShaderSampler@@@std@@@@$0A@@std@@@std@@QAE@XZ 17130690 f i c_gfxshaders.obj
 0002:000796c0       ??1?$_Bidit@U?$pair@$$CBV?$basic_string@_WU?$char_traits@_W@std@@V?$K2StringAllocator@_W@@@std@@PAVCShaderSampler@@@std@@HPBU12@ABU12@@std@@QAE@XZ 171306c0 f i c_gfxshaders.obj
 0002:000796f0       ?GetPath@IFileChangeCallback@@QAEABV?$basic_string@_WU?$char_traits@_W@std@@V?$K2StringAllocator@_W@@@std@@XZ 171306f0 f i c_gfxshaders.obj
 0002:00079710       ??0SShaderAttribute@@QAE@XZ 17130710 f i c_gfxshaders.obj
 0002:00079750       ??1SShaderAttribute@@QAE@XZ 17130750 f i c_gfxshaders.obj
 0002:00079780       ??0SShaderUniform@@QAE@XZ  17130780 f i c_gfxshaders.obj
 0002:000797c0       ??1SShaderUniform@@QAE@XZ  171307c0 f i c_gfxshaders.obj
 0002:000797f0       ?Frame@CGfxShaders@@QAEXXZ 171307f0 f   c_gfxshaders.obj
 0002:00079d40       ?Init@CGfxShaders@@QAEXXZ  17130d40 f   c_gfxshaders.obj
 0002:0007ae40       ?UpdateDefineCvarInt@CGfxShaders@@AAEXPAVICvar@@ABV?$basic_string@DU?$char_traits@D@std@@V?$K2StringAllocator@D@@@std@@@Z 17131e40 f   c_gfxshaders.obj
 0002:0007af70       ?UpdateDefineCvarBool@CGfxShaders@@AAEXPAV?$CCvar@_N_N@@ABV?$basic_string@DU?$char_traits@D@std@@V?$K2StringAllocator@D@@@std@@@Z 17131f70 f   c_gfxshaders.obj
 0002:0007b060       ?Shutdown@CGfxShaders@@QAEXXZ 17132060 f   c_gfxshaders.obj
 0002:0007b480       ??0?$vector@EV?$K2VectorAllocator@E@@@@QAE@XZ 17132480 f i c_gfxshaders.obj
 0002:0007b4b0       ??1?$vector@EV?$K2VectorAllocator@E@@@std@@QAE@XZ 171324b0 f i c_gfxshaders.obj
 0002:0007b530       ?substr@?$basic_string@_WU?$char_traits@_W@std@@V?$K2StringAllocator@_W@@@std@@QBE?AV12@II@Z 17132530 f i c_gfxshaders.obj
 0002:0007b580       ??0?$map@V?$basic_string@DU?$char_traits@D@std@@V?$K2StringAllocator@D@@@std@@V12@U?$less@V?$basic_string@DU?$char_traits@D@std@@V?$K2StringAllocator@D@@@std@@@2@V?$K2MapAllocator@U?$pair@$$CBV?$basic_string@DU?$char_traits@D@std@@V?$K2StringAllocator@D@@@std@@V12@@std@@@@@@QAE@XZ 17132580 f i c_gfxshaders.obj
 0002:0007b5b0       ??1?$_Tree@V?$_Tmap_traits@V?$basic_string@DU?$char_traits@D@std@@V?$K2StringAllocator@D@@@std@@V12@U?$less@V?$basic_string@DU?$char_traits@D@std@@V?$K2StringAllocator@D@@@std@@@2@V?$K2MapAllocator@U?$pair@$$CBV?$basic_string@DU?$char_traits@D@std@@V?$K2StringAllocator@D@@@std@@V12@@std@@@@$0A@@std@@@std@@QAE@XZ 171325b0 f i c_gfxshaders.obj
 0002:0007b630       ?back@?$vector@USShaderAttribute@@V?$K2VectorAllocator@USShaderAttribute@@@@@std@@QAEAAUSShaderAttribute@@XZ 17132630 f i c_gfxshaders.obj
 0002:0007b700       ?push_back@?$vector@USShaderAttribute@@V?$K2VectorAllocator@USShaderAttribute@@@@@std@@QAEXABUSShaderAttribute@@@Z 17132700 f i c_gfxshaders.obj
 0002:0007b7b0       ?clear@?$vector@USShaderAttribute@@V?$K2VectorAllocator@USShaderAttribute@@@@@std@@QAEXXZ 171327b0 f i c_gfxshaders.obj
 0002:0007b870       ?back@?$vector@USShaderUniform@@V?$K2VectorAllocator@USShaderUniform@@@@@std@@QAEAAUSShaderUniform@@XZ 17132870 f i c_gfxshaders.obj
 0002:0007b940       ?push_back@?$vector@USShaderUniform@@V?$K2VectorAllocator@USShaderUniform@@@@@std@@QAEXABUSShaderUniform@@@Z 17132940 f i c_gfxshaders.obj
 0002:0007b9f0       ?clear@?$vector@USShaderUniform@@V?$K2VectorAllocator@USShaderUniform@@@@@std@@QAEXXZ 171329f0 f i c_gfxshaders.obj
 0002:0007bab0       ??0?$vector@DV?$K2VectorAllocator@D@@@@QAE@XZ 17132ab0 f i c_gfxshaders.obj
 0002:0007bae0       ??1?$vector@DV?$K2VectorAllocator@D@@@std@@QAE@XZ 17132ae0 f i c_gfxshaders.obj
 0002:0007bb60       ?end@?$_Tree@V?$_Tmap_traits@V?$basic_string@_WU?$char_traits@_W@std@@V?$K2StringAllocator@_W@@@std@@PAVCShaderVar@@U?$less@V?$basic_string@_WU?$char_traits@_W@std@@V?$K2StringAllocator@_W@@@std@@@2@V?$K2MapAllocator@U?$pair@$$CBV?$basic_string@_WU?$char_traits@_W@std@@V?$K2StringAllocator@_W@@@std@@PAVCShaderVar@@@std@@@@$0A@@std@@@std@@QAE?AViterator@12@XZ 17132b60 f i c_gfxshaders.obj
 0002:0007bbb0       ?find@?$_Tree@V?$_Tmap_traits@V?$basic_string@_WU?$char_traits@_W@std@@V?$K2StringAllocator@_W@@@std@@PAVCShaderVar@@U?$less@V?$basic_string@_WU?$char_traits@_W@std@@V?$K2StringAllocator@_W@@@std@@@2@V?$K2MapAllocator@U?$pair@$$CBV?$basic_string@_WU?$char_traits@_W@std@@V?$K2StringAllocator@_W@@@std@@PAVCShaderVar@@@std@@@@$0A@@std@@@std@@QAE?AViterator@12@ABV?$basic_string@_WU?$char_traits@_W@std@@V?$K2StringAllocator@_W@@@2@@Z 17132bb0 f i c_gfxshaders.obj
 0002:0007bd90       ??Citerator@?$_Tree@V?$_Tmap_traits@V?$basic_string@_WU?$char_traits@_W@std@@V?$K2StringAllocator@_W@@@std@@PAVCShaderVar@@U?$less@V?$basic_string@_WU?$char_traits@_W@std@@V?$K2StringAllocator@_W@@@std@@@2@V?$K2MapAllocator@U?$pair@$$CBV?$basic_string@_WU?$char_traits@_W@std@@V?$K2StringAllocator@_W@@@std@@PAVCShaderVar@@@std@@@@$0A@@std@@@std@@QBEPAU?$pair@$$CBV?$basic_string@_WU?$char_traits@_W@std@@V?$K2StringAllocator@_W@@@std@@PAVCShaderVar@@@2@XZ 17132d90 f i c_gfxshaders.obj
 0002:0007bdc0       ??8const_iterator@?$_Tree@V?$_Tmap_traits@V?$basic_string@_WU?$char_traits@_W@std@@V?$K2StringAllocator@_W@@@std@@PAVCShaderVar@@U?$less@V?$basic_string@_WU?$char_traits@_W@std@@V?$K2StringAllocator@_W@@@std@@@2@V?$K2MapAllocator@U?$pair@$$CBV?$basic_string@_WU?$char_traits@_W@std@@V?$K2StringAllocator@_W@@@std@@PAVCShaderVar@@@std@@@@$0A@@std@@@std@@QBE_NABV012@@Z 17132dc0 f i c_gfxshaders.obj
 0002:0007be80       ?end@?$_Tree@V?$_Tmap_traits@V?$basic_string@_WU?$char_traits@_W@std@@V?$K2StringAllocator@_W@@@std@@PAVCShaderSampler@@U?$less@V?$basic_string@_WU?$char_traits@_W@std@@V?$K2StringAllocator@_W@@@std@@@2@V?$K2MapAllocator@U?$pair@$$CBV?$basic_string@_WU?$char_traits@_W@std@@V?$K2StringAllocator@_W@@@std@@PAVCShaderSampler@@@std@@@@$0A@@std@@@std@@QAE?AViterator@12@XZ 17132e80 f i c_gfxshaders.obj
 0002:0007bed0       ?find@?$_Tree@V?$_Tmap_traits@V?$basic_string@_WU?$char_traits@_W@std@@V?$K2StringAllocator@_W@@@std@@PAVCShaderSampler@@U?$less@V?$basic_string@_WU?$char_traits@_W@std@@V?$K2StringAllocator@_W@@@std@@@2@V?$K2MapAllocator@U?$pair@$$CBV?$basic_string@_WU?$char_traits@_W@std@@V?$K2StringAllocator@_W@@@std@@PAVCShaderSampler@@@std@@@@$0A@@std@@@std@@QAE?AViterator@12@ABV?$basic_string@_WU?$char_traits@_W@std@@V?$K2StringAllocator@_W@@@2@@Z 17132ed0 f i c_gfxshaders.obj
 0002:0007c0b0       ??Citerator@?$_Tree@V?$_Tmap_traits@V?$basic_string@_WU?$char_traits@_W@std@@V?$K2StringAllocator@_W@@@std@@PAVCShaderSampler@@U?$less@V?$basic_string@_WU?$char_traits@_W@std@@V?$K2StringAllocator@_W@@@std@@@2@V?$K2MapAllocator@U?$pair@$$CBV?$basic_string@_WU?$char_traits@_W@std@@V?$K2StringAllocator@_W@@@std@@PAVCShaderSampler@@@std@@@@$0A@@std@@@std@@QBEPAU?$pair@$$CBV?$basic_string@_WU?$char_traits@_W@std@@V?$K2StringAllocator@_W@@@std@@PAVCShaderSampler@@@2@XZ 171330b0 f i c_gfxshaders.obj
 0002:0007c0e0       ??8const_iterator@?$_Tree@V?$_Tmap_traits@V?$basic_string@_WU?$char_traits@_W@std@@V?$K2StringAllocator@_W@@@std@@PAVCShaderSampler@@U?$less@V?$basic_string@_WU?$char_traits@_W@std@@V?$K2StringAllocator@_W@@@std@@@2@V?$K2MapAllocator@U?$pair@$$CBV?$basic_string@_WU?$char_traits@_W@std@@V?$K2StringAllocator@_W@@@std@@PAVCShaderSampler@@@std@@@@$0A@@std@@@std@@QBE_NABV012@@Z 171330e0 f i c_gfxshaders.obj
 0002:0007c1a0       ??1?$_Vector_val@EV?$K2VectorAllocator@E@@@std@@QAE@XZ 171331a0 f i c_gfxshaders.obj
 0002:0007c220       ??1?$_Tree_val@V?$_Tmap_traits@V?$basic_string@DU?$char_traits@D@std@@V?$K2StringAllocator@D@@@std@@V12@U?$less@V?$basic_string@DU?$char_traits@D@std@@V?$K2StringAllocator@D@@@std@@@2@V?$K2MapAllocator@U?$pair@$$CBV?$basic_string@DU?$char_traits@D@std@@V?$K2StringAllocator@D@@@std@@V12@@std@@@@$0A@@std@@@std@@QAE@XZ 17133220 f i c_gfxshaders.obj
 0002:0007c2a0       ??1?$_Vector_iterator@USShaderAttribute@@V?$K2VectorAllocator@USShaderAttribute@@@@@std@@QAE@XZ 171332a0 f i c_gfxshaders.obj
 0002:0007c2d0       ??1?$_Vector_iterator@USShaderUniform@@V?$K2VectorAllocator@USShaderUniform@@@@@std@@QAE@XZ 171332d0 f i c_gfxshaders.obj
 0002:0007c300       ??1?$_Vector_val@DV?$K2VectorAllocator@D@@@std@@QAE@XZ 17133300 f i c_gfxshaders.obj
 0002:0007c380       ??0iterator@?$_Tree@V?$_Tmap_traits@V?$basic_string@_WU?$char_traits@_W@std@@V?$K2StringAllocator@_W@@@std@@PAVCShaderVar@@U?$less@V?$basic_string@_WU?$char_traits@_W@std@@V?$K2StringAllocator@_W@@@std@@@2@V?$K2MapAllocator@U?$pair@$$CBV?$basic_string@_WU?$char_traits@_W@std@@V?$K2StringAllocator@_W@@@std@@PAVCShaderVar@@@std@@@@$0A@@std@@@std@@QAE@ABV012@@Z 17133380 f i c_gfxshaders.obj
 0002:0007c3b0       ??0iterator@?$_Tree@V?$_Tmap_traits@V?$basic_string@_WU?$char_traits@_W@std@@V?$K2StringAllocator@_W@@@std@@PAVCShaderSampler@@U?$less@V?$basic_string@_WU?$char_traits@_W@std@@V?$K2StringAllocator@_W@@@std@@@2@V?$K2MapAllocator@U?$pair@$$CBV?$basic_string@_WU?$char_traits@_W@std@@V?$K2StringAllocator@_W@@@std@@PAVCShaderSampler@@@std@@@@$0A@@std@@@std@@QAE@ABV012@@Z 171333b0 f i c_gfxshaders.obj
 0002:0007c3e0       ??1?$_Tree_ptr@V?$_Tmap_traits@V?$basic_string@DU?$char_traits@D@std@@V?$K2StringAllocator@D@@@std@@V12@U?$less@V?$basic_string@DU?$char_traits@D@std@@V?$K2StringAllocator@D@@@std@@@2@V?$K2MapAllocator@U?$pair@$$CBV?$basic_string@DU?$char_traits@D@std@@V?$K2StringAllocator@D@@@std@@V12@@std@@@@$0A@@std@@@std@@QAE@XZ 171333e0 f i c_gfxshaders.obj
 0002:0007c460       ??1?$_Vector_const_iterator@USShaderAttribute@@V?$K2VectorAllocator@USShaderAttribute@@@@@std@@QAE@XZ 17133460 f i c_gfxshaders.obj
 0002:0007c490       ??1?$_Vector_const_iterator@USShaderUniform@@V?$K2VectorAllocator@USShaderUniform@@@@@std@@QAE@XZ 17133490 f i c_gfxshaders.obj
 0002:0007c4c0       ??0const_iterator@?$_Tree@V?$_Tmap_traits@V?$basic_string@_WU?$char_traits@_W@std@@V?$K2StringAllocator@_W@@@std@@PAVCShaderVar@@U?$less@V?$basic_string@_WU?$char_traits@_W@std@@V?$K2StringAllocator@_W@@@std@@@2@V?$K2MapAllocator@U?$pair@$$CBV?$basic_string@_WU?$char_traits@_W@std@@V?$K2StringAllocator@_W@@@std@@PAVCShaderVar@@@std@@@@$0A@@std@@@std@@QAE@ABV012@@Z 171334c0 f i c_gfxshaders.obj
 0002:0007c500       ??0const_iterator@?$_Tree@V?$_Tmap_traits@V?$basic_string@_WU?$char_traits@_W@std@@V?$K2StringAllocator@_W@@@std@@PAVCShaderSampler@@U?$less@V?$basic_string@_WU?$char_traits@_W@std@@V?$K2StringAllocator@_W@@@std@@@2@V?$K2MapAllocator@U?$pair@$$CBV?$basic_string@_WU?$char_traits@_W@std@@V?$K2StringAllocator@_W@@@std@@PAVCShaderSampler@@@std@@@@$0A@@std@@@std@@QAE@ABV012@@Z 17133500 f i c_gfxshaders.obj
 0002:0007c540       ??1?$_Tree_nod@V?$_Tmap_traits@V?$basic_string@DU?$char_traits@D@std@@V?$K2StringAllocator@D@@@std@@V12@U?$less@V?$basic_string@DU?$char_traits@D@std@@V?$K2StringAllocator@D@@@std@@@2@V?$K2MapAllocator@U?$pair@$$CBV?$basic_string@DU?$char_traits@D@std@@V?$K2StringAllocator@D@@@std@@V12@@std@@@@$0A@@std@@@std@@QAE@XZ 17133540 f i c_gfxshaders.obj
 0002:0007c5c0       ??1?$_Ranit@USShaderAttribute@@HPBU1@ABU1@@std@@QAE@XZ 171335c0 f i c_gfxshaders.obj
 0002:0007c5f0       ??1?$_Ranit@USShaderUniform@@HPBU1@ABU1@@std@@QAE@XZ 171335f0 f i c_gfxshaders.obj
 0002:0007c620       ??0?$_Bidit@U?$pair@$$CBV?$basic_string@_WU?$char_traits@_W@std@@V?$K2StringAllocator@_W@@@std@@PAVCShaderVar@@@std@@HPBU12@ABU12@@std@@QAE@ABU01@@Z 17133620 f i c_gfxshaders.obj
 0002:0007c650       ??0?$_Bidit@U?$pair@$$CBV?$basic_string@_WU?$char_traits@_W@std@@V?$K2StringAllocator@_W@@@std@@PAVCShaderSampler@@@std@@HPBU12@ABU12@@std@@QAE@ABU01@@Z 17133650 f i c_gfxshaders.obj
 0002:0007c680       ??1?$_Tmap_traits@V?$basic_string@DU?$char_traits@D@std@@V?$K2StringAllocator@D@@@std@@V12@U?$less@V?$basic_string@DU?$char_traits@D@std@@V?$K2StringAllocator@D@@@std@@@2@V?$K2MapAllocator@U?$pair@$$CBV?$basic_string@DU?$char_traits@D@std@@V?$K2StringAllocator@D@@@std@@V12@@std@@@@$0A@@std@@QAE@XZ 17133680 f i c_gfxshaders.obj
 0002:0007c6b0       ??0?$vector@EV?$K2VectorAllocator@E@@@std@@QAE@XZ 171336b0 f i c_gfxshaders.obj
 0002:0007c740       ?_Tidy@?$vector@EV?$K2VectorAllocator@E@@@std@@IAEXXZ 17133740 f i c_gfxshaders.obj
 0002:0007c7e0       ?_Destroy@?$vector@EV?$K2VectorAllocator@E@@@std@@IAEXPAE0@Z 171337e0 f i c_gfxshaders.obj
 0002:0007c820       ??1?$K2VectorAllocator@E@@QAE@XZ 17133820 f i c_gfxshaders.obj
 0002:0007c840       ??0?$basic_string@_WU?$char_traits@_W@std@@V?$K2StringAllocator@_W@@@std@@QAE@ABV01@II@Z 17133840 f i c_gfxshaders.obj
 0002:0007c900       ??0?$map@V?$basic_string@DU?$char_traits@D@std@@V?$K2StringAllocator@D@@@std@@V12@U?$less@V?$basic_string@DU?$char_traits@D@std@@V?$K2StringAllocator@D@@@std@@@2@V?$K2MapAllocator@U?$pair@$$CBV?$basic_string@DU?$char_traits@D@std@@V?$K2StringAllocator@D@@@std@@V12@@std@@@@@std@@QAE@XZ 17133900 f i c_gfxshaders.obj
 0002:0007c9a0       ?_Tidy@?$_Tree@V?$_Tmap_traits@V?$basic_string@DU?$char_traits@D@std@@V?$K2StringAllocator@D@@@std@@V12@U?$less@V?$basic_string@DU?$char_traits@D@std@@V?$K2StringAllocator@D@@@std@@@2@V?$K2MapAllocator@U?$pair@$$CBV?$basic_string@DU?$char_traits@D@std@@V?$K2StringAllocator@D@@@std@@V12@@std@@@@$0A@@std@@@std@@IAEXXZ 171339a0 f i c_gfxshaders.obj
 0002:0007caf0       ??1?$K2MapAllocator@U?$pair@$$CBV?$basic_string@DU?$char_traits@D@std@@V?$K2StringAllocator@D@@@std@@V12@@std@@@@QAE@XZ 17133af0 f i c_gfxshaders.obj
 0002:0007cb10       ??1?$K2MapAllocator@U_Node@?$_Tree_nod@V?$_Tmap_traits@V?$basic_string@DU?$char_traits@D@std@@V?$K2StringAllocator@D@@@std@@V12@U?$less@V?$basic_string@DU?$char_traits@D@std@@V?$K2StringAllocator@D@@@std@@@2@V?$K2MapAllocator@U?$pair@$$CBV?$basic_string@DU?$char_traits@D@std@@V?$K2StringAllocator@D@@@std@@V12@@std@@@@$0A@@std@@@std@@@@QAE@XZ 17133b10 f i c_gfxshaders.obj
 0002:0007cb30       ??1?$K2MapAllocator@PAU_Node@?$_Tree_nod@V?$_Tmap_traits@V?$basic_string@DU?$char_traits@D@std@@V?$K2StringAllocator@D@@@std@@V12@U?$less@V?$basic_string@DU?$char_traits@D@std@@V?$K2StringAllocator@D@@@std@@@2@V?$K2MapAllocator@U?$pair@$$CBV?$basic_string@DU?$char_traits@D@std@@V?$K2StringAllocator@D@@@std@@V12@@std@@@@$0A@@std@@@std@@@@QAE@XZ 17133b30 f i c_gfxshaders.obj
 0002:0007cb50       ?capacity@?$vector@USShaderAttribute@@V?$K2VectorAllocator@USShaderAttribute@@@@@std@@QBEIXZ 17133b50 f i c_gfxshaders.obj
 0002:0007cba0       ?begin@?$vector@USShaderAttribute@@V?$K2VectorAllocator@USShaderAttribute@@@@@std@@QAE?AV?$_Vector_iterator@USShaderAttribute@@V?$K2VectorAllocator@USShaderAttribute@@@@@2@XZ 17133ba0 f i c_gfxshaders.obj
 0002:0007cbf0       ?end@?$vector@USShaderAttribute@@V?$K2VectorAllocator@USShaderAttribute@@@@@std@@QAE?AV?$_Vector_iterator@USShaderAttribute@@V?$K2VectorAllocator@USShaderAttribute@@@@@2@XZ 17133bf0 f i c_gfxshaders.obj
 0002:0007cc40       ?insert@?$vector@USShaderAttribute@@V?$K2VectorAllocator@USShaderAttribute@@@@@std@@QAE?AV?$_Vector_iterator@USShaderAttribute@@V?$K2VectorAllocator@USShaderAttribute@@@@@2@V32@ABUSShaderAttribute@@@Z 17133c40 f i c_gfxshaders.obj
 0002:0007cdb0       ?erase@?$vector@USShaderAttribute@@V?$K2VectorAllocator@USShaderAttribute@@@@@std@@QAE?AV?$_Vector_iterator@USShaderAttribute@@V?$K2VectorAllocator@USShaderAttribute@@@@@2@V32@0@Z 17133db0 f i c_gfxshaders.obj
 0002:0007cf30       ?_Ufill@?$vector@USShaderAttribute@@V?$K2VectorAllocator@USShaderAttribute@@@@@std@@IAEPAUSShaderAttribute@@PAU3@IABU3@@Z 17133f30 f i c_gfxshaders.obj
 0002:0007cf80       ?_Orphan_range@?$vector@USShaderAttribute@@V?$K2VectorAllocator@USShaderAttribute@@@@@std@@IBEXPAUSShaderAttribute@@0@Z 17133f80 f i c_gfxshaders.obj
 0002:0007d020       ?capacity@?$vector@USShaderUniform@@V?$K2VectorAllocator@USShaderUniform@@@@@std@@QBEIXZ 17134020 f i c_gfxshaders.obj
 0002:0007d070       ?begin@?$vector@USShaderUniform@@V?$K2VectorAllocator@USShaderUniform@@@@@std@@QAE?AV?$_Vector_iterator@USShaderUniform@@V?$K2VectorAllocator@USShaderUniform@@@@@2@XZ 17134070 f i c_gfxshaders.obj
 0002:0007d0c0       ?end@?$vector@USShaderUniform@@V?$K2VectorAllocator@USShaderUniform@@@@@std@@QAE?AV?$_Vector_iterator@USShaderUniform@@V?$K2VectorAllocator@USShaderUniform@@@@@2@XZ 171340c0 f i c_gfxshaders.obj
 0002:0007d110       ?insert@?$vector@USShaderUniform@@V?$K2VectorAllocator@USShaderUniform@@@@@std@@QAE?AV?$_Vector_iterator@USShaderUniform@@V?$K2VectorAllocator@USShaderUniform@@@@@2@V32@ABUSShaderUniform@@@Z 17134110 f i c_gfxshaders.obj
 0002:0007d280       ?erase@?$vector@USShaderUniform@@V?$K2VectorAllocator@USShaderUniform@@@@@std@@QAE?AV?$_Vector_iterator@USShaderUniform@@V?$K2VectorAllocator@USShaderUniform@@@@@2@V32@0@Z 17134280 f i c_gfxshaders.obj
 0002:0007d400       ?_Ufill@?$vector@USShaderUniform@@V?$K2VectorAllocator@USShaderUniform@@@@@std@@IAEPAUSShaderUniform@@PAU3@IABU3@@Z 17134400 f i c_gfxshaders.obj
 0002:0007d450       ?_Orphan_range@?$vector@USShaderUniform@@V?$K2VectorAllocator@USShaderUniform@@@@@std@@IBEXPAUSShaderUniform@@0@Z 17134450 f i c_gfxshaders.obj
 0002:0007d4f0       ??0?$vector@DV?$K2VectorAllocator@D@@@std@@QAE@XZ 171344f0 f i c_gfxshaders.obj
 0002:0007d580       ?_Tidy@?$vector@DV?$K2VectorAllocator@D@@@std@@IAEXXZ 17134580 f i c_gfxshaders.obj
 0002:0007d620       ??1?$K2VectorAllocator@D@@QAE@XZ 17134620 f i c_gfxshaders.obj
 0002:0007d640       ?_Key@?$_Tree@V?$_Tmap_traits@V?$basic_string@_WU?$char_traits@_W@std@@V?$K2StringAllocator@_W@@@std@@PAVCShaderVar@@U?$less@V?$basic_string@_WU?$char_traits@_W@std@@V?$K2StringAllocator@_W@@@std@@@2@V?$K2MapAllocator@U?$pair@$$CBV?$basic_string@_WU?$char_traits@_W@std@@V?$K2StringAllocator@_W@@@std@@PAVCShaderVar@@@std@@@@$0A@@std@@@std@@KAABV?$basic_string@_WU?$char_traits@_W@std@@V?$K2StringAllocator@_W@@@2@PAU_Node@?$_Tree_nod@V?$_Tmap_traits@V?$basic_string@_WU?$char_traits@_W@std@@V?$K2StringAllocator@_W@@@std@@PAVCShaderVar@@U?$less@V?$basic_string@_WU?$char_traits@_W@std@@V?$K2StringAllocator@_W@@@std@@@2@V?$K2MapAllocator@U?$pair@$$CBV?$basic_string@_WU?$char_traits@_W@std@@V?$K2StringAllocator@_W@@@std@@PAVCShaderVar@@@std@@@@$0A@@std@@@2@@Z 17134640 f i c_gfxshaders.obj
 0002:0007d670       ?lower_bound@?$_Tree@V?$_Tmap_traits@V?$basic_string@_WU?$char_traits@_W@std@@V?$K2StringAllocator@_W@@@std@@PAVCShaderVar@@U?$less@V?$basic_string@_WU?$char_traits@_W@std@@V?$K2StringAllocator@_W@@@std@@@2@V?$K2MapAllocator@U?$pair@$$CBV?$basic_string@_WU?$char_traits@_W@std@@V?$K2StringAllocator@_W@@@std@@PAVCShaderVar@@@std@@@@$0A@@std@@@std@@QAE?AViterator@12@ABV?$basic_string@_WU?$char_traits@_W@std@@V?$K2StringAllocator@_W@@@2@@Z 17134670 f i c_gfxshaders.obj
 0002:0007d6d0       ??0iterator@?$_Tree@V?$_Tmap_traits@V?$basic_string@_WU?$char_traits@_W@std@@V?$K2StringAllocator@_W@@@std@@PAVCShaderVar@@U?$less@V?$basic_string@_WU?$char_traits@_W@std@@V?$K2StringAllocator@_W@@@std@@@2@V?$K2MapAllocator@U?$pair@$$CBV?$basic_string@_WU?$char_traits@_W@std@@V?$K2StringAllocator@_W@@@std@@PAVCShaderVar@@@std@@@@$0A@@std@@@std@@QAE@PAU_Node@?$_Tree_nod@V?$_Tmap_traits@V?$basic_string@_WU?$char_traits@_W@std@@V?$K2StringAllocator@_W@@@std@@PAVCShaderVar@@U?$less@V?$basic_string@_WU?$char_traits@_W@std@@V?$K2StringAllocator@_W@@@std@@@2@V?$K2MapAllocator@U?$pair@$$CBV?$basic_string@_WU?$char_traits@_W@std@@V?$K2StringAllocator@_W@@@std@@PAVCShaderVar@@@std@@@@$0A@@std@@@2@PBV12@@Z 171346d0 f i c_gfxshaders.obj
 0002:0007d710       ??Diterator@?$_Tree@V?$_Tmap_traits@V?$basic_string@_WU?$char_traits@_W@std@@V?$K2StringAllocator@_W@@@std@@PAVCShaderVar@@U?$less@V?$basic_string@_WU?$char_traits@_W@std@@V?$K2StringAllocator@_W@@@std@@@2@V?$K2MapAllocator@U?$pair@$$CBV?$basic_string@_WU?$char_traits@_W@std@@V?$K2StringAllocator@_W@@@std@@PAVCShaderVar@@@std@@@@$0A@@std@@@std@@QBEAAU?$pair@$$CBV?$basic_string@_WU?$char_traits@_W@std@@V?$K2StringAllocator@_W@@@std@@PAVCShaderVar@@@2@XZ 17134710 f i c_gfxshaders.obj
 0002:0007d740       ?_Mynode@const_iterator@?$_Tree@V?$_Tmap_traits@V?$basic_string@_WU?$char_traits@_W@std@@V?$K2StringAllocator@_W@@@std@@PAVCShaderVar@@U?$less@V?$basic_string@_WU?$char_traits@_W@std@@V?$K2StringAllocator@_W@@@std@@@2@V?$K2MapAllocator@U?$pair@$$CBV?$basic_string@_WU?$char_traits@_W@std@@V?$K2StringAllocator@_W@@@std@@PAVCShaderVar@@@std@@@@$0A@@std@@@std@@QBEPAU_Node@?$_Tree_nod@V?$_Tmap_traits@V?$basic_string@_WU?$char_traits@_W@std@@V?$K2StringAllocator@_W@@@std@@PAVCShaderVar@@U?$less@V?$basic_string@_WU?$char_traits@_W@std@@V?$K2StringAllocator@_W@@@std@@@2@V?$K2MapAllocator@U?$pair@$$CBV?$basic_string@_WU?$char_traits@_W@std@@V?$K2StringAllocator@_W@@@std@@PAVCShaderVar@@@std@@@@$0A@@std@@@3@XZ 17134740 f i c_gfxshaders.obj
 0002:0007d760       ?_Key@?$_Tree@V?$_Tmap_traits@V?$basic_string@_WU?$char_traits@_W@std@@V?$K2StringAllocator@_W@@@std@@PAVCShaderSampler@@U?$less@V?$basic_string@_WU?$char_traits@_W@std@@V?$K2StringAllocator@_W@@@std@@@2@V?$K2MapAllocator@U?$pair@$$CBV?$basic_string@_WU?$char_traits@_W@std@@V?$K2StringAllocator@_W@@@std@@PAVCShaderSampler@@@std@@@@$0A@@std@@@std@@KAABV?$basic_string@_WU?$char_traits@_W@std@@V?$K2StringAllocator@_W@@@2@PAU_Node@?$_Tree_nod@V?$_Tmap_traits@V?$basic_string@_WU?$char_traits@_W@std@@V?$K2StringAllocator@_W@@@std@@PAVCShaderSampler@@U?$less@V?$basic_string@_WU?$char_traits@_W@std@@V?$K2StringAllocator@_W@@@std@@@2@V?$K2MapAllocator@U?$pair@$$CBV?$basic_string@_WU?$char_traits@_W@std@@V?$K2StringAllocator@_W@@@std@@PAVCShaderSampler@@@std@@@@$0A@@std@@@2@@Z 17134760 f i c_gfxshaders.obj
 0002:0007d790       ?lower_bound@?$_Tree@V?$_Tmap_traits@V?$basic_string@_WU?$char_traits@_W@std@@V?$K2StringAllocator@_W@@@std@@PAVCShaderSampler@@U?$less@V?$basic_string@_WU?$char_traits@_W@std@@V?$K2StringAllocator@_W@@@std@@@2@V?$K2MapAllocator@U?$pair@$$CBV?$basic_string@_WU?$char_traits@_W@std@@V?$K2StringAllocator@_W@@@std@@PAVCShaderSampler@@@std@@@@$0A@@std@@@std@@QAE?AViterator@12@ABV?$basic_string@_WU?$char_traits@_W@std@@V?$K2StringAllocator@_W@@@2@@Z 17134790 f i c_gfxshaders.obj
 0002:0007d7f0       ??0iterator@?$_Tree@V?$_Tmap_traits@V?$basic_string@_WU?$char_traits@_W@std@@V?$K2StringAllocator@_W@@@std@@PAVCShaderSampler@@U?$less@V?$basic_string@_WU?$char_traits@_W@std@@V?$K2StringAllocator@_W@@@std@@@2@V?$K2MapAllocator@U?$pair@$$CBV?$basic_string@_WU?$char_traits@_W@std@@V?$K2StringAllocator@_W@@@std@@PAVCShaderSampler@@@std@@@@$0A@@std@@@std@@QAE@PAU_Node@?$_Tree_nod@V?$_Tmap_traits@V?$basic_string@_WU?$char_traits@_W@std@@V?$K2StringAllocator@_W@@@std@@PAVCShaderSampler@@U?$less@V?$basic_string@_WU?$char_traits@_W@std@@V?$K2StringAllocator@_W@@@std@@@2@V?$K2MapAllocator@U?$pair@$$CBV?$basic_string@_WU?$char_traits@_W@std@@V?$K2StringAllocator@_W@@@std@@PAVCShaderSampler@@@std@@@@$0A@@std@@@2@PBV12@@Z 171347f0 f i c_gfxshaders.obj
 0002:0007d830       ??Diterator@?$_Tree@V?$_Tmap_traits@V?$basic_string@_WU?$char_traits@_W@std@@V?$K2StringAllocator@_W@@@std@@PAVCShaderSampler@@U?$less@V?$basic_string@_WU?$char_traits@_W@std@@V?$K2StringAllocator@_W@@@std@@@2@V?$K2MapAllocator@U?$pair@$$CBV?$basic_string@_WU?$char_traits@_W@std@@V?$K2StringAllocator@_W@@@std@@PAVCShaderSampler@@@std@@@@$0A@@std@@@std@@QBEAAU?$pair@$$CBV?$basic_string@_WU?$char_traits@_W@std@@V?$K2StringAllocator@_W@@@std@@PAVCShaderSampler@@@2@XZ 17134830 f i c_gfxshaders.obj
 0002:0007d860       ?_Mynode@const_iterator@?$_Tree@V?$_Tmap_traits@V?$basic_string@_WU?$char_traits@_W@std@@V?$K2StringAllocator@_W@@@std@@PAVCShaderSampler@@U?$less@V?$basic_string@_WU?$char_traits@_W@std@@V?$K2StringAllocator@_W@@@std@@@2@V?$K2MapAllocator@U?$pair@$$CBV?$basic_string@_WU?$char_traits@_W@std@@V?$K2StringAllocator@_W@@@std@@PAVCShaderSampler@@@std@@@@$0A@@std@@@std@@QBEPAU_Node@?$_Tree_nod@V?$_Tmap_traits@V?$basic_string@_WU?$char_traits@_W@std@@V?$K2StringAllocator@_W@@@std@@PAVCShaderSampler@@U?$less@V?$basic_string@_WU?$char_traits@_W@std@@V?$K2StringAllocator@_W@@@std@@@2@V?$K2MapAllocator@U?$pair@$$CBV?$basic_string@_WU?$char_traits@_W@std@@V?$K2StringAllocator@_W@@@std@@PAVCShaderSampler@@@std@@@@$0A@@std@@@3@XZ 17134860 f i c_gfxshaders.obj
 0002:0007d880       ??D?$_Vector_iterator@USShaderAttribute@@V?$K2VectorAllocator@USShaderAttribute@@@@@std@@QBEAAUSShaderAttribute@@XZ 17134880 f i c_gfxshaders.obj
 0002:0007d8b0       ??G?$_Vector_iterator@USShaderAttribute@@V?$K2VectorAllocator@USShaderAttribute@@@@@std@@QBE?AV01@H@Z 171348b0 f i c_gfxshaders.obj
 0002:0007d960       ??D?$_Vector_iterator@USShaderUniform@@V?$K2VectorAllocator@USShaderUniform@@@@@std@@QBEAAUSShaderUniform@@XZ 17134960 f i c_gfxshaders.obj
 0002:0007d990       ??G?$_Vector_iterator@USShaderUniform@@V?$K2VectorAllocator@USShaderUniform@@@@@std@@QBE?AV01@H@Z 17134990 f i c_gfxshaders.obj
 0002:0007da40       ??1iterator@?$_Tree@V?$_Tmap_traits@V?$basic_string@DU?$char_traits@D@std@@V?$K2StringAllocator@D@@@std@@V12@U?$less@V?$basic_string@DU?$char_traits@D@std@@V?$K2StringAllocator@D@@@std@@@2@V?$K2MapAllocator@U?$pair@$$CBV?$basic_string@DU?$char_traits@D@std@@V?$K2StringAllocator@D@@@std@@V12@@std@@@@$0A@@std@@@std@@QAE@XZ 17134a40 f i c_gfxshaders.obj
 0002:0007da70       ??0?$_Vector_iterator@USShaderAttribute@@V?$K2VectorAllocator@USShaderAttribute@@@@@std@@QAE@ABV01@@Z 17134a70 f i c_gfxshaders.obj
 0002:0007daa0       ??0?$_Vector_iterator@USShaderUniform@@V?$K2VectorAllocator@USShaderUniform@@@@@std@@QAE@ABV01@@Z 17134aa0 f i c_gfxshaders.obj
 0002:0007dad0       ??1const_iterator@?$_Tree@V?$_Tmap_traits@V?$basic_string@DU?$char_traits@D@std@@V?$K2StringAllocator@D@@@std@@V12@U?$less@V?$basic_string@DU?$char_traits@D@std@@V?$K2StringAllocator@D@@@std@@@2@V?$K2MapAllocator@U?$pair@$$CBV?$basic_string@DU?$char_traits@D@std@@V?$K2StringAllocator@D@@@std@@V12@@std@@@@$0A@@std@@@std@@QAE@XZ 17134ad0 f i c_gfxshaders.obj
 0002:0007db00       ??0?$_Vector_const_iterator@USShaderAttribute@@V?$K2VectorAllocator@USShaderAttribute@@@@@std@@QAE@ABV01@@Z 17134b00 f i c_gfxshaders.obj
 0002:0007db40       ??0?$_Vector_const_iterator@USShaderUniform@@V?$K2VectorAllocator@USShaderUniform@@@@@std@@QAE@ABV01@@Z 17134b40 f i c_gfxshaders.obj
 0002:0007db80       ??1?$_Bidit@U?$pair@$$CBV?$basic_string@DU?$char_traits@D@std@@V?$K2StringAllocator@D@@@std@@V12@@std@@HPBU12@ABU12@@std@@QAE@XZ 17134b80 f i c_gfxshaders.obj
 0002:0007dbb0       ??0?$_Ranit@USShaderAttribute@@HPBU1@ABU1@@std@@QAE@ABU01@@Z 17134bb0 f i c_gfxshaders.obj
 0002:0007dbe0       ??0?$_Ranit@USShaderUniform@@HPBU1@ABU1@@std@@QAE@ABU01@@Z 17134be0 f i c_gfxshaders.obj
 0002:0007dc10       ?_Buy@?$vector@EV?$K2VectorAllocator@E@@@std@@IAE_NI@Z 17134c10 f i c_gfxshaders.obj
 0002:0007dcc0       ??0?$_Vector_val@EV?$K2VectorAllocator@E@@@std@@IAE@V?$K2VectorAllocator@E@@@Z 17134cc0 f i c_gfxshaders.obj
 0002:0007dd60       ??0?$K2VectorAllocator@E@@QAE@XZ 17134d60 f i c_gfxshaders.obj
 0002:0007dd90       ?deallocate@?$K2VectorAllocator@E@@QAEXPAEI@Z 17134d90 f i c_gfxshaders.obj
 0002:0007ddd0       ?_Left@?$_Tree@V?$_Tmap_traits@V?$basic_string@DU?$char_traits@D@std@@V?$K2StringAllocator@D@@@std@@V12@U?$less@V?$basic_string@DU?$char_traits@D@std@@V?$K2StringAllocator@D@@@std@@@2@V?$K2MapAllocator@U?$pair@$$CBV?$basic_string@DU?$char_traits@D@std@@V?$K2StringAllocator@D@@@std@@V12@@std@@@@$0A@@std@@@std@@KAAAPAU_Node@?$_Tree_nod@V?$_Tmap_traits@V?$basic_string@DU?$char_traits@D@std@@V?$K2StringAllocator@D@@@std@@V12@U?$less@V?$basic_string@DU?$char_traits@D@std@@V?$K2StringAllocator@D@@@std@@@2@V?$K2MapAllocator@U?$pair@$$CBV?$basic_string@DU?$char_traits@D@std@@V?$K2StringAllocator@D@@@std@@V12@@std@@@@$0A@@std@@@2@PAU342@@Z 17134dd0 f i c_gfxshaders.obj
 0002:0007ddf0       ?_Parent@?$_Tree@V?$_Tmap_traits@V?$basic_string@DU?$char_traits@D@std@@V?$K2StringAllocator@D@@@std@@V12@U?$less@V?$basic_string@DU?$char_traits@D@std@@V?$K2StringAllocator@D@@@std@@@2@V?$K2MapAllocator@U?$pair@$$CBV?$basic_string@DU?$char_traits@D@std@@V?$K2StringAllocator@D@@@std@@V12@@std@@@@$0A@@std@@@std@@KAAAPAU_Node@?$_Tree_nod@V?$_Tmap_traits@V?$basic_string@DU?$char_traits@D@std@@V?$K2StringAllocator@D@@@std@@V12@U?$less@V?$basic_string@DU?$char_traits@D@std@@V?$K2StringAllocator@D@@@std@@@2@V?$K2MapAllocator@U?$pair@$$CBV?$basic_string@DU?$char_traits@D@std@@V?$K2StringAllocator@D@@@std@@V12@@std@@@@$0A@@std@@@2@PAU342@@Z 17134df0 f i c_gfxshaders.obj
 0002:0007de10       ?_Right@?$_Tree@V?$_Tmap_traits@V?$basic_string@DU?$char_traits@D@std@@V?$K2StringAllocator@D@@@std@@V12@U?$less@V?$basic_string@DU?$char_traits@D@std@@V?$K2StringAllocator@D@@@std@@@2@V?$K2MapAllocator@U?$pair@$$CBV?$basic_string@DU?$char_traits@D@std@@V?$K2StringAllocator@D@@@std@@V12@@std@@@@$0A@@std@@@std@@KAAAPAU_Node@?$_Tree_nod@V?$_Tmap_traits@V?$basic_string@DU?$char_traits@D@std@@V?$K2StringAllocator@D@@@std@@V12@U?$less@V?$basic_string@DU?$char_traits@D@std@@V?$K2StringAllocator@D@@@std@@@2@V?$K2MapAllocator@U?$pair@$$CBV?$basic_string@DU?$char_traits@D@std@@V?$K2StringAllocator@D@@@std@@V12@@std@@@@$0A@@std@@@2@PAU342@@Z 17134e10 f i c_gfxshaders.obj
 0002:0007de30       ??0?$_Tree@V?$_Tmap_traits@V?$basic_string@DU?$char_traits@D@std@@V?$K2StringAllocator@D@@@std@@V12@U?$less@V?$basic_string@DU?$char_traits@D@std@@V?$K2StringAllocator@D@@@std@@@2@V?$K2MapAllocator@U?$pair@$$CBV?$basic_string@DU?$char_traits@D@std@@V?$K2StringAllocator@D@@@std@@V12@@std@@@@$0A@@std@@@std@@QAE@ABU?$less@V?$basic_string@DU?$char_traits@D@std@@V?$K2StringAllocator@D@@@std@@@1@ABV?$K2MapAllocator@U?$pair@$$CBV?$basic_string@DU?$char_traits@D@std@@V?$K2StringAllocator@D@@@std@@V12@@std@@@@@Z 17134e30 f i c_gfxshaders.obj
 0002:0007ded0       ?begin@?$_Tree@V?$_Tmap_traits@V?$basic_string@DU?$char_traits@D@std@@V?$K2StringAllocator@D@@@std@@V12@U?$less@V?$basic_string@DU?$char_traits@D@std@@V?$K2StringAllocator@D@@@std@@@2@V?$K2MapAllocator@U?$pair@$$CBV?$basic_string@DU?$char_traits@D@std@@V?$K2StringAllocator@D@@@std@@V12@@std@@@@$0A@@std@@@std@@QAE?AViterator@12@XZ 17134ed0 f i c_gfxshaders.obj
 0002:0007df20       ?end@?$_Tree@V?$_Tmap_traits@V?$basic_string@DU?$char_traits@D@std@@V?$K2StringAllocator@D@@@std@@V12@U?$less@V?$basic_string@DU?$char_traits@D@std@@V?$K2StringAllocator@D@@@std@@@2@V?$K2MapAllocator@U?$pair@$$CBV?$basic_string@DU?$char_traits@D@std@@V?$K2StringAllocator@D@@@std@@V12@@std@@@@$0A@@std@@@std@@QAE?AViterator@12@XZ 17134f20 f i c_gfxshaders.obj
 0002:0007df70       ?erase@?$_Tree@V?$_Tmap_traits@V?$basic_string@DU?$char_traits@D@std@@V?$K2StringAllocator@D@@@std@@V12@U?$less@V?$basic_string@DU?$char_traits@D@std@@V?$K2StringAllocator@D@@@std@@@2@V?$K2MapAllocator@U?$pair@$$CBV?$basic_string@DU?$char_traits@D@std@@V?$K2StringAllocator@D@@@std@@V12@@std@@@@$0A@@std@@@std@@QAE?AViterator@12@V312@0@Z 17134f70 f i c_gfxshaders.obj
 0002:0007e200       ??0?$K2MapAllocator@U?$pair@$$CBV?$basic_string@DU?$char_traits@D@std@@V?$K2StringAllocator@D@@@std@@V12@@std@@@@QAE@XZ 17135200 f i c_gfxshaders.obj
 0002:0007e230       ?deallocate@?$K2MapAllocator@U_Node@?$_Tree_nod@V?$_Tmap_traits@V?$basic_string@DU?$char_traits@D@std@@V?$K2StringAllocator@D@@@std@@V12@U?$less@V?$basic_string@DU?$char_traits@D@std@@V?$K2StringAllocator@D@@@std@@@2@V?$K2MapAllocator@U?$pair@$$CBV?$basic_string@DU?$char_traits@D@std@@V?$K2StringAllocator@D@@@std@@V12@@std@@@@$0A@@std@@@std@@@@QAEXPAU_Node@?$_Tree_nod@V?$_Tmap_traits@V?$basic_string@DU?$char_traits@D@std@@V?$K2StringAllocator@D@@@std@@V12@U?$less@V?$basic_string@DU?$char_traits@D@std@@V?$K2StringAllocator@D@@@std@@@2@V?$K2MapAllocator@U?$pair@$$CBV?$basic_string@DU?$char_traits@D@std@@V?$K2StringAllocator@D@@@std@@V12@@std@@@@$0A@@std@@@std@@I@Z 17135230 f i c_gfxshaders.obj
 0002:0007e270       ?destroy@?$allocator@PAU_Node@?$_Tree_nod@V?$_Tmap_traits@V?$basic_string@DU?$char_traits@D@std@@V?$K2StringAllocator@D@@@std@@V12@U?$less@V?$basic_string@DU?$char_traits@D@std@@V?$K2StringAllocator@D@@@std@@@2@V?$K2MapAllocator@U?$pair@$$CBV?$basic_string@DU?$char_traits@D@std@@V?$K2StringAllocator@D@@@std@@V12@@std@@@@$0A@@std@@@std@@@std@@QAEXPAPAU_Node@?$_Tree_nod@V?$_Tmap_traits@V?$basic_string@DU?$char_traits@D@std@@V?$K2StringAllocator@D@@@std@@V12@U?$less@V?$basic_string@DU?$char_traits@D@std@@V?$K2StringAllocator@D@@@std@@@2@V?$K2MapAllocator@U?$pair@$$CBV?$basic_string@DU?$char_traits@D@std@@V?$K2StringAllocator@D@@@std@@V12@@std@@@@$0A@@std@@@2@@Z 17135270 f i c_gfxshaders.obj
 0002:0007e2a0       ?_Destroy@?$vector@USShaderAttribute@@V?$K2VectorAllocator@USShaderAttribute@@@@@std@@IAEXPAUSShaderAttribute@@0@Z 171352a0 f i c_gfxshaders.obj
 0002:0007e2e0       ?_Insert_n@?$vector@USShaderAttribute@@V?$K2VectorAllocator@USShaderAttribute@@@@@std@@IAEXV?$_Vector_iterator@USShaderAttribute@@V?$K2VectorAllocator@USShaderAttribute@@@@@2@IABUSShaderAttribute@@@Z 171352e0 f i c_gfxshaders.obj
 0002:0007e7f0       ?deallocate@?$K2VectorAllocator@USShaderAttribute@@@@QAEXPAUSShaderAttribute@@I@Z 171357f0 f i c_gfxshaders.obj
 0002:0007e830       ?_Destroy@?$vector@USShaderUniform@@V?$K2VectorAllocator@USShaderUniform@@@@@std@@IAEXPAUSShaderUniform@@0@Z 17135830 f i c_gfxshaders.obj
 0002:0007e870       ?_Insert_n@?$vector@USShaderUniform@@V?$K2VectorAllocator@USShaderUniform@@@@@std@@IAEXV?$_Vector_iterator@USShaderUniform@@V?$K2VectorAllocator@USShaderUniform@@@@@2@IABUSShaderUniform@@@Z 17135870 f i c_gfxshaders.obj
 0002:0007ed80       ?deallocate@?$K2VectorAllocator@USShaderUniform@@@@QAEXPAUSShaderUniform@@I@Z 17135d80 f i c_gfxshaders.obj
 0002:0007edc0       ?_Buy@?$vector@DV?$K2VectorAllocator@D@@@std@@IAE_NI@Z 17135dc0 f i c_gfxshaders.obj
 0002:0007ee70       ?_Destroy@?$vector@DV?$K2VectorAllocator@D@@@std@@IAEXPAD0@Z 17135e70 f i c_gfxshaders.obj
 0002:0007eeb0       ??0?$_Vector_val@DV?$K2VectorAllocator@D@@@std@@IAE@V?$K2VectorAllocator@D@@@Z 17135eb0 f i c_gfxshaders.obj
 0002:0007ef50       ??0?$K2VectorAllocator@D@@QAE@XZ 17135f50 f i c_gfxshaders.obj
 0002:0007ef80       ?deallocate@?$K2VectorAllocator@D@@QAEXPADI@Z 17135f80 f i c_gfxshaders.obj
 0002:0007efc0       ?_Myval@?$_Tree@V?$_Tmap_traits@V?$basic_string@_WU?$char_traits@_W@std@@V?$K2StringAllocator@_W@@@std@@PAVCShaderVar@@U?$less@V?$basic_string@_WU?$char_traits@_W@std@@V?$K2StringAllocator@_W@@@std@@@2@V?$K2MapAllocator@U?$pair@$$CBV?$basic_string@_WU?$char_traits@_W@std@@V?$K2StringAllocator@_W@@@std@@PAVCShaderVar@@@std@@@@$0A@@std@@@std@@KAAAU?$pair@$$CBV?$basic_string@_WU?$char_traits@_W@std@@V?$K2StringAllocator@_W@@@std@@PAVCShaderVar@@@2@PAU_Node@?$_Tree_nod@V?$_Tmap_traits@V?$basic_string@_WU?$char_traits@_W@std@@V?$K2StringAllocator@_W@@@std@@PAVCShaderVar@@U?$less@V?$basic_string@_WU?$char_traits@_W@std@@V?$K2StringAllocator@_W@@@std@@@2@V?$K2MapAllocator@U?$pair@$$CBV?$basic_string@_WU?$char_traits@_W@std@@V?$K2StringAllocator@_W@@@std@@PAVCShaderVar@@@std@@@@$0A@@std@@@2@@Z 17135fc0 f i c_gfxshaders.obj
 0002:0007efe0       ?_Lbound@?$_Tree@V?$_Tmap_traits@V?$basic_string@_WU?$char_traits@_W@std@@V?$K2StringAllocator@_W@@@std@@PAVCShaderVar@@U?$less@V?$basic_string@_WU?$char_traits@_W@std@@V?$K2StringAllocator@_W@@@std@@@2@V?$K2MapAllocator@U?$pair@$$CBV?$basic_string@_WU?$char_traits@_W@std@@V?$K2StringAllocator@_W@@@std@@PAVCShaderVar@@@std@@@@$0A@@std@@@std@@IBEPAU_Node@?$_Tree_nod@V?$_Tmap_traits@V?$basic_string@_WU?$char_traits@_W@std@@V?$K2StringAllocator@_W@@@std@@PAVCShaderVar@@U?$less@V?$basic_string@_WU?$char_traits@_W@std@@V?$K2StringAllocator@_W@@@std@@@2@V?$K2MapAllocator@U?$pair@$$CBV?$basic_string@_WU?$char_traits@_W@std@@V?$K2StringAllocator@_W@@@std@@PAVCShaderVar@@@std@@@@$0A@@std@@@2@ABV?$basic_string@_WU?$char_traits@_W@std@@V?$K2StringAllocator@_W@@@2@@Z 17135fe0 f i c_gfxshaders.obj
 0002:0007f0b0       ?_Left@?$_Tree@V?$_Tmap_traits@V?$basic_string@_WU?$char_traits@_W@std@@V?$K2StringAllocator@_W@@@std@@PAVCShaderVar@@U?$less@V?$basic_string@_WU?$char_traits@_W@std@@V?$K2StringAllocator@_W@@@std@@@2@V?$K2MapAllocator@U?$pair@$$CBV?$basic_string@_WU?$char_traits@_W@std@@V?$K2StringAllocator@_W@@@std@@PAVCShaderVar@@@std@@@@$0A@@std@@@std@@KAAAPAU_Node@?$_Tree_nod@V?$_Tmap_traits@V?$basic_string@_WU?$char_traits@_W@std@@V?$K2StringAllocator@_W@@@std@@PAVCShaderVar@@U?$less@V?$basic_string@_WU?$char_traits@_W@std@@V?$K2StringAllocator@_W@@@std@@@2@V?$K2MapAllocator@U?$pair@$$CBV?$basic_string@_WU?$char_traits@_W@std@@V?$K2StringAllocator@_W@@@std@@PAVCShaderVar@@@std@@@@$0A@@std@@@2@PAU342@@Z 171360b0 f i c_gfxshaders.obj
 0002:0007f0d0       ?_Right@?$_Tree@V?$_Tmap_traits@V?$basic_string@_WU?$char_traits@_W@std@@V?$K2StringAllocator@_W@@@std@@PAVCShaderVar@@U?$less@V?$basic_string@_WU?$char_traits@_W@std@@V?$K2StringAllocator@_W@@@std@@@2@V?$K2MapAllocator@U?$pair@$$CBV?$basic_string@_WU?$char_traits@_W@std@@V?$K2StringAllocator@_W@@@std@@PAVCShaderVar@@@std@@@@$0A@@std@@@std@@KAAAPAU_Node@?$_Tree_nod@V?$_Tmap_traits@V?$basic_string@_WU?$char_traits@_W@std@@V?$K2StringAllocator@_W@@@std@@PAVCShaderVar@@U?$less@V?$basic_string@_WU?$char_traits@_W@std@@V?$K2StringAllocator@_W@@@std@@@2@V?$K2MapAllocator@U?$pair@$$CBV?$basic_string@_WU?$char_traits@_W@std@@V?$K2StringAllocator@_W@@@std@@PAVCShaderVar@@@std@@@@$0A@@std@@@2@PAU342@@Z 171360d0 f i c_gfxshaders.obj
 0002:0007f0f0       ?_Kfn@?$_Tmap_traits@V?$basic_string@_WU?$char_traits@_W@std@@V?$K2StringAllocator@_W@@@std@@PAVCShaderVar@@U?$less@V?$basic_string@_WU?$char_traits@_W@std@@V?$K2StringAllocator@_W@@@std@@@2@V?$K2MapAllocator@U?$pair@$$CBV?$basic_string@_WU?$char_traits@_W@std@@V?$K2StringAllocator@_W@@@std@@PAVCShaderVar@@@std@@@@$0A@@std@@SAABV?$basic_string@_WU?$char_traits@_W@std@@V?$K2StringAllocator@_W@@@2@ABU?$pair@$$CBV?$basic_string@_WU?$char_traits@_W@std@@V?$K2StringAllocator@_W@@@std@@PAVCShaderVar@@@2@@Z 171360f0 f i c_gfxshaders.obj
 0002:0007f110       ??0const_iterator@?$_Tree@V?$_Tmap_traits@V?$basic_string@_WU?$char_traits@_W@std@@V?$K2StringAllocator@_W@@@std@@PAVCShaderVar@@U?$less@V?$basic_string@_WU?$char_traits@_W@std@@V?$K2StringAllocator@_W@@@std@@@2@V?$K2MapAllocator@U?$pair@$$CBV?$basic_string@_WU?$char_traits@_W@std@@V?$K2StringAllocator@_W@@@std@@PAVCShaderVar@@@std@@@@$0A@@std@@@std@@QAE@PAU_Node@?$_Tree_nod@V?$_Tmap_traits@V?$basic_string@_WU?$char_traits@_W@std@@V?$K2StringAllocator@_W@@@std@@PAVCShaderVar@@U?$less@V?$basic_string@_WU?$char_traits@_W@std@@V?$K2StringAllocator@_W@@@std@@@2@V?$K2MapAllocator@U?$pair@$$CBV?$basic_string@_WU?$char_traits@_W@std@@V?$K2StringAllocator@_W@@@std@@PAVCShaderVar@@@std@@@@$0A@@std@@@2@PBV12@@Z 17136110 f i c_gfxshaders.obj
 0002:0007f1a0       ??Dconst_iterator@?$_Tree@V?$_Tmap_traits@V?$basic_string@_WU?$char_traits@_W@std@@V?$K2StringAllocator@_W@@@std@@PAVCShaderVar@@U?$less@V?$basic_string@_WU?$char_traits@_W@std@@V?$K2StringAllocator@_W@@@std@@@2@V?$K2MapAllocator@U?$pair@$$CBV?$basic_string@_WU?$char_traits@_W@std@@V?$K2StringAllocator@_W@@@std@@PAVCShaderVar@@@std@@@@$0A@@std@@@std@@QBEABU?$pair@$$CBV?$basic_string@_WU?$char_traits@_W@std@@V?$K2StringAllocator@_W@@@std@@PAVCShaderVar@@@2@XZ 171361a0 f i c_gfxshaders.obj
 0002:0007f260       ?_Myval@?$_Tree@V?$_Tmap_traits@V?$basic_string@_WU?$char_traits@_W@std@@V?$K2StringAllocator@_W@@@std@@PAVCShaderSampler@@U?$less@V?$basic_string@_WU?$char_traits@_W@std@@V?$K2StringAllocator@_W@@@std@@@2@V?$K2MapAllocator@U?$pair@$$CBV?$basic_string@_WU?$char_traits@_W@std@@V?$K2StringAllocator@_W@@@std@@PAVCShaderSampler@@@std@@@@$0A@@std@@@std@@KAAAU?$pair@$$CBV?$basic_string@_WU?$char_traits@_W@std@@V?$K2StringAllocator@_W@@@std@@PAVCShaderSampler@@@2@PAU_Node@?$_Tree_nod@V?$_Tmap_traits@V?$basic_string@_WU?$char_traits@_W@std@@V?$K2StringAllocator@_W@@@std@@PAVCShaderSampler@@U?$less@V?$basic_string@_WU?$char_traits@_W@std@@V?$K2StringAllocator@_W@@@std@@@2@V?$K2MapAllocator@U?$pair@$$CBV?$basic_string@_WU?$char_traits@_W@std@@V?$K2StringAllocator@_W@@@std@@PAVCShaderSampler@@@std@@@@$0A@@std@@@2@@Z 17136260 f i c_gfxshaders.obj
 0002:0007f280       ?_Lbound@?$_Tree@V?$_Tmap_traits@V?$basic_string@_WU?$char_traits@_W@std@@V?$K2StringAllocator@_W@@@std@@PAVCShaderSampler@@U?$less@V?$basic_string@_WU?$char_traits@_W@std@@V?$K2StringAllocator@_W@@@std@@@2@V?$K2MapAllocator@U?$pair@$$CBV?$basic_string@_WU?$char_traits@_W@std@@V?$K2StringAllocator@_W@@@std@@PAVCShaderSampler@@@std@@@@$0A@@std@@@std@@IBEPAU_Node@?$_Tree_nod@V?$_Tmap_traits@V?$basic_string@_WU?$char_traits@_W@std@@V?$K2StringAllocator@_W@@@std@@PAVCShaderSampler@@U?$less@V?$basic_string@_WU?$char_traits@_W@std@@V?$K2StringAllocator@_W@@@std@@@2@V?$K2MapAllocator@U?$pair@$$CBV?$basic_string@_WU?$char_traits@_W@std@@V?$K2StringAllocator@_W@@@std@@PAVCShaderSampler@@@std@@@@$0A@@std@@@2@ABV?$basic_string@_WU?$char_traits@_W@std@@V?$K2StringAllocator@_W@@@2@@Z 17136280 f i c_gfxshaders.obj
 0002:0007f350       ?_Left@?$_Tree@V?$_Tmap_traits@V?$basic_string@_WU?$char_traits@_W@std@@V?$K2StringAllocator@_W@@@std@@PAVCShaderSampler@@U?$less@V?$basic_string@_WU?$char_traits@_W@std@@V?$K2StringAllocator@_W@@@std@@@2@V?$K2MapAllocator@U?$pair@$$CBV?$basic_string@_WU?$char_traits@_W@std@@V?$K2StringAllocator@_W@@@std@@PAVCShaderSampler@@@std@@@@$0A@@std@@@std@@KAAAPAU_Node@?$_Tree_nod@V?$_Tmap_traits@V?$basic_string@_WU?$char_traits@_W@std@@V?$K2StringAllocator@_W@@@std@@PAVCShaderSampler@@U?$less@V?$basic_string@_WU?$char_traits@_W@std@@V?$K2StringAllocator@_W@@@std@@@2@V?$K2MapAllocator@U?$pair@$$CBV?$basic_string@_WU?$char_traits@_W@std@@V?$K2StringAllocator@_W@@@std@@PAVCShaderSampler@@@std@@@@$0A@@std@@@2@PAU342@@Z 17136350 f i c_gfxshaders.obj
 0002:0007f370       ?_Right@?$_Tree@V?$_Tmap_traits@V?$basic_string@_WU?$char_traits@_W@std@@V?$K2StringAllocator@_W@@@std@@PAVCShaderSampler@@U?$less@V?$basic_string@_WU?$char_traits@_W@std@@V?$K2StringAllocator@_W@@@std@@@2@V?$K2MapAllocator@U?$pair@$$CBV?$basic_string@_WU?$char_traits@_W@std@@V?$K2StringAllocator@_W@@@std@@PAVCShaderSampler@@@std@@@@$0A@@std@@@std@@KAAAPAU_Node@?$_Tree_nod@V?$_Tmap_traits@V?$basic_string@_WU?$char_traits@_W@std@@V?$K2StringAllocator@_W@@@std@@PAVCShaderSampler@@U?$less@V?$basic_string@_WU?$char_traits@_W@std@@V?$K2StringAllocator@_W@@@std@@@2@V?$K2MapAllocator@U?$pair@$$CBV?$basic_string@_WU?$char_traits@_W@std@@V?$K2StringAllocator@_W@@@std@@PAVCShaderSampler@@@std@@@@$0A@@std@@@2@PAU342@@Z 17136370 f i c_gfxshaders.obj
 0002:0007f390       ?_Kfn@?$_Tmap_traits@V?$basic_string@_WU?$char_traits@_W@std@@V?$K2StringAllocator@_W@@@std@@PAVCShaderSampler@@U?$less@V?$basic_string@_WU?$char_traits@_W@std@@V?$K2StringAllocator@_W@@@std@@@2@V?$K2MapAllocator@U?$pair@$$CBV?$basic_string@_WU?$char_traits@_W@std@@V?$K2StringAllocator@_W@@@std@@PAVCShaderSampler@@@std@@@@$0A@@std@@SAABV?$basic_string@_WU?$char_traits@_W@std@@V?$K2StringAllocator@_W@@@2@ABU?$pair@$$CBV?$basic_string@_WU?$char_traits@_W@std@@V?$K2StringAllocator@_W@@@std@@PAVCShaderSampler@@@2@@Z 17136390 f i c_gfxshaders.obj
 0002:0007f3b0       ??0const_iterator@?$_Tree@V?$_Tmap_traits@V?$basic_string@_WU?$char_traits@_W@std@@V?$K2StringAllocator@_W@@@std@@PAVCShaderSampler@@U?$less@V?$basic_string@_WU?$char_traits@_W@std@@V?$K2StringAllocator@_W@@@std@@@2@V?$K2MapAllocator@U?$pair@$$CBV?$basic_string@_WU?$char_traits@_W@std@@V?$K2StringAllocator@_W@@@std@@PAVCShaderSampler@@@std@@@@$0A@@std@@@std@@QAE@PAU_Node@?$_Tree_nod@V?$_Tmap_traits@V?$basic_string@_WU?$char_traits@_W@std@@V?$K2StringAllocator@_W@@@std@@PAVCShaderSampler@@U?$less@V?$basic_string@_WU?$char_traits@_W@std@@V?$K2StringAllocator@_W@@@std@@@2@V?$K2MapAllocator@U?$pair@$$CBV?$basic_string@_WU?$char_traits@_W@std@@V?$K2StringAllocator@_W@@@std@@PAVCShaderSampler@@@std@@@@$0A@@std@@@2@PBV12@@Z 171363b0 f i c_gfxshaders.obj
 0002:0007f440       ??Dconst_iterator@?$_Tree@V?$_Tmap_traits@V?$basic_string@_WU?$char_traits@_W@std@@V?$K2StringAllocator@_W@@@std@@PAVCShaderSampler@@U?$less@V?$basic_string@_WU?$char_traits@_W@std@@V?$K2StringAllocator@_W@@@std@@@2@V?$K2MapAllocator@U?$pair@$$CBV?$basic_string@_WU?$char_traits@_W@std@@V?$K2StringAllocator@_W@@@std@@PAVCShaderSampler@@@std@@@@$0A@@std@@@std@@QBEABU?$pair@$$CBV?$basic_string@_WU?$char_traits@_W@std@@V?$K2StringAllocator@_W@@@std@@PAVCShaderSampler@@@2@XZ 17136440 f i c_gfxshaders.obj
 0002:0007f500       ??0?$_Vector_iterator@USShaderAttribute@@V?$K2VectorAllocator@USShaderAttribute@@@@@std@@QAE@PAUSShaderAttribute@@PBV_Container_base@1@@Z 17136500 f i c_gfxshaders.obj
 0002:0007f540       ??H?$_Vector_iterator@USShaderAttribute@@V?$K2VectorAllocator@USShaderAttribute@@@@@std@@QBE?AV01@H@Z 17136540 f i c_gfxshaders.obj
 0002:0007f5f0       ??Z?$_Vector_iterator@USShaderAttribute@@V?$K2VectorAllocator@USShaderAttribute@@@@@std@@QAEAAV01@H@Z 171365f0 f i c_gfxshaders.obj
 0002:0007f620       ??G?$_Vector_iterator@USShaderAttribute@@V?$K2VectorAllocator@USShaderAttribute@@@@@std@@QBEHABV?$_Vector_const_iterator@USShaderAttribute@@V?$K2VectorAllocator@USShaderAttribute@@@@@1@@Z 17136620 f i c_gfxshaders.obj
 0002:0007f650       ??D?$_Vector_const_iterator@USShaderAttribute@@V?$K2VectorAllocator@USShaderAttribute@@@@@std@@QBEABUSShaderAttribute@@XZ 17136650 f i c_gfxshaders.obj
 0002:0007f710       ??9?$_Vector_const_iterator@USShaderAttribute@@V?$K2VectorAllocator@USShaderAttribute@@@@@std@@QBE_NABV01@@Z 17136710 f i c_gfxshaders.obj
 0002:0007f750       ??M?$_Vector_const_iterator@USShaderAttribute@@V?$K2VectorAllocator@USShaderAttribute@@@@@std@@QBE_NABV01@@Z 17136750 f i c_gfxshaders.obj
 0002:0007f790       ??0?$_Vector_iterator@USShaderUniform@@V?$K2VectorAllocator@USShaderUniform@@@@@std@@QAE@PAUSShaderUniform@@PBV_Container_base@1@@Z 17136790 f i c_gfxshaders.obj
 0002:0007f7d0       ??H?$_Vector_iterator@USShaderUniform@@V?$K2VectorAllocator@USShaderUniform@@@@@std@@QBE?AV01@H@Z 171367d0 f i c_gfxshaders.obj
 0002:0007f880       ??Z?$_Vector_iterator@USShaderUniform@@V?$K2VectorAllocator@USShaderUniform@@@@@std@@QAEAAV01@H@Z 17136880 f i c_gfxshaders.obj
 0002:0007f8b0       ??G?$_Vector_iterator@USShaderUniform@@V?$K2VectorAllocator@USShaderUniform@@@@@std@@QBEHABV?$_Vector_const_iterator@USShaderUniform@@V?$K2VectorAllocator@USShaderUniform@@@@@1@@Z 171368b0 f i c_gfxshaders.obj
 0002:0007f8e0       ??D?$_Vector_const_iterator@USShaderUniform@@V?$K2VectorAllocator@USShaderUniform@@@@@std@@QBEABUSShaderUniform@@XZ 171368e0 f i c_gfxshaders.obj
 0002:0007f9a0       ??9?$_Vector_const_iterator@USShaderUniform@@V?$K2VectorAllocator@USShaderUniform@@@@@std@@QBE_NABV01@@Z 171369a0 f i c_gfxshaders.obj
 0002:0007f9e0       ??M?$_Vector_const_iterator@USShaderUniform@@V?$K2VectorAllocator@USShaderUniform@@@@@std@@QBE_NABV01@@Z 171369e0 f i c_gfxshaders.obj
 0002:0007fa20       ??0iterator@?$_Tree@V?$_Tmap_traits@V?$basic_string@DU?$char_traits@D@std@@V?$K2StringAllocator@D@@@std@@V12@U?$less@V?$basic_string@DU?$char_traits@D@std@@V?$K2StringAllocator@D@@@std@@@2@V?$K2MapAllocator@U?$pair@$$CBV?$basic_string@DU?$char_traits@D@std@@V?$K2StringAllocator@D@@@std@@V12@@std@@@@$0A@@std@@@std@@QAE@ABV012@@Z 17136a20 f i c_gfxshaders.obj
 0002:0007fa50       ??0SShaderAttribute@@QAE@ABU0@@Z 17136a50 f i c_gfxshaders.obj
 0002:0007faa0       ??0SShaderUniform@@QAE@ABU0@@Z 17136aa0 f i c_gfxshaders.obj
 0002:0007fb40       ??0?$_Bidit@U?$pair@$$CBV?$basic_string@_WU?$char_traits@_W@std@@V?$K2StringAllocator@_W@@@std@@PAVCShaderVar@@@std@@HPBU12@ABU12@@std@@QAE@XZ 17136b40 f i c_gfxshaders.obj
 0002:0007fb70       ??0?$_Bidit@U?$pair@$$CBV?$basic_string@_WU?$char_traits@_W@std@@V?$K2StringAllocator@_W@@@std@@PAVCShaderSampler@@@std@@HPBU12@ABU12@@std@@QAE@XZ 17136b70 f i c_gfxshaders.obj
 0002:0007fba0       ??0const_iterator@?$_Tree@V?$_Tmap_traits@V?$basic_string@DU?$char_traits@D@std@@V?$K2StringAllocator@D@@@std@@V12@U?$less@V?$basic_string@DU?$char_traits@D@std@@V?$K2StringAllocator@D@@@std@@@2@V?$K2MapAllocator@U?$pair@$$CBV?$basic_string@DU?$char_traits@D@std@@V?$K2StringAllocator@D@@@std@@V12@@std@@@@$0A@@std@@@std@@QAE@ABV012@@Z 17136ba0 f i c_gfxshaders.obj
 0002:0007fbe0       ??0?$_Bidit@U?$pair@$$CBV?$basic_string@DU?$char_traits@D@std@@V?$K2StringAllocator@D@@@std@@V12@@std@@HPBU12@ABU12@@std@@QAE@ABU01@@Z 17136be0 f i c_gfxshaders.obj
 0002:0007fc10       ?max_size@?$vector@EV?$K2VectorAllocator@E@@@std@@QBEIXZ 17136c10 f i c_gfxshaders.obj
 0002:0007fc40       ?_Xlen@?$vector@EV?$K2VectorAllocator@E@@@std@@KAXXZ 17136c40 f i c_gfxshaders.obj
 0002:0007fcf0       ??0?$K2VectorAllocator@E@@QAE@ABV0@@Z 17136cf0 f i c_gfxshaders.obj
 0002:0007fd20       ?allocate@?$K2VectorAllocator@E@@QAEPAEI@Z 17136d20 f i c_gfxshaders.obj
 0002:0007fd70       ??0?$allocator@E@std@@QAE@XZ 17136d70 f i c_gfxshaders.obj
 0002:0007fd90       ?erase@?$_Tree@V?$_Tmap_traits@V?$basic_string@DU?$char_traits@D@std@@V?$K2StringAllocator@D@@@std@@V12@U?$less@V?$basic_string@DU?$char_traits@D@std@@V?$K2StringAllocator@D@@@std@@@2@V?$K2MapAllocator@U?$pair@$$CBV?$basic_string@DU?$char_traits@D@std@@V?$K2StringAllocator@D@@@std@@V12@@std@@@@$0A@@std@@@std@@QAE?AViterator@12@V312@@Z 17136d90 f i c_gfxshaders.obj
 0002:00080770       ?clear@?$_Tree@V?$_Tmap_traits@V?$basic_string@DU?$char_traits@D@std@@V?$K2StringAllocator@D@@@std@@V12@U?$less@V?$basic_string@DU?$char_traits@D@std@@V?$K2StringAllocator@D@@@std@@@2@V?$K2MapAllocator@U?$pair@$$CBV?$basic_string@DU?$char_traits@D@std@@V?$K2StringAllocator@D@@@std@@V12@@std@@@@$0A@@std@@@std@@QAEXXZ 17137770 f i c_gfxshaders.obj
 0002:00080800       ?_Init@?$_Tree@V?$_Tmap_traits@V?$basic_string@DU?$char_traits@D@std@@V?$K2StringAllocator@D@@@std@@V12@U?$less@V?$basic_string@DU?$char_traits@D@std@@V?$K2StringAllocator@D@@@std@@@2@V?$K2MapAllocator@U?$pair@$$CBV?$basic_string@DU?$char_traits@D@std@@V?$K2StringAllocator@D@@@std@@V12@@std@@@@$0A@@std@@@std@@IAEXXZ 17137800 f i c_gfxshaders.obj
 0002:00080890       ?_Lmost@?$_Tree@V?$_Tmap_traits@V?$basic_string@DU?$char_traits@D@std@@V?$K2StringAllocator@D@@@std@@V12@U?$less@V?$basic_string@DU?$char_traits@D@std@@V?$K2StringAllocator@D@@@std@@@2@V?$K2MapAllocator@U?$pair@$$CBV?$basic_string@DU?$char_traits@D@std@@V?$K2StringAllocator@D@@@std@@V12@@std@@@@$0A@@std@@@std@@IBEAAPAU_Node@?$_Tree_nod@V?$_Tmap_traits@V?$basic_string@DU?$char_traits@D@std@@V?$K2StringAllocator@D@@@std@@V12@U?$less@V?$basic_string@DU?$char_traits@D@std@@V?$K2StringAllocator@D@@@std@@@2@V?$K2MapAllocator@U?$pair@$$CBV?$basic_string@DU?$char_traits@D@std@@V?$K2StringAllocator@D@@@std@@V12@@std@@@@$0A@@std@@@2@XZ 17137890 f i c_gfxshaders.obj
 0002:000808c0       ??0?$_Tree_val@V?$_Tmap_traits@V?$basic_string@DU?$char_traits@D@std@@V?$K2StringAllocator@D@@@std@@V12@U?$less@V?$basic_string@DU?$char_traits@D@std@@V?$K2StringAllocator@D@@@std@@@2@V?$K2MapAllocator@U?$pair@$$CBV?$basic_string@DU?$char_traits@D@std@@V?$K2StringAllocator@D@@@std@@V12@@std@@@@$0A@@std@@@std@@IAE@ABU?$less@V?$basic_string@DU?$char_traits@D@std@@V?$K2StringAllocator@D@@@std@@@1@V?$K2MapAllocator@U?$pair@$$CBV?$basic_string@DU?$char_traits@D@std@@V?$K2StringAllocator@D@@@std@@V12@@std@@@@@Z 171378c0 f i c_gfxshaders.obj
 0002:00080970       ??0?$K2MapAllocator@U?$pair@$$CBV?$basic_string@DU?$char_traits@D@std@@V?$K2StringAllocator@D@@@std@@V12@@std@@@@QAE@ABV0@@Z 17137970 f i c_gfxshaders.obj
 0002:000809a0       ??0?$allocator@U?$pair@$$CBV?$basic_string@DU?$char_traits@D@std@@V?$K2StringAllocator@D@@@std@@V12@@std@@@std@@QAE@XZ 171379a0 f i c_gfxshaders.obj
 0002:000809c0       ?max_size@?$vector@USShaderAttribute@@V?$K2VectorAllocator@USShaderAttribute@@@@@std@@QBEIXZ 171379c0 f i c_gfxshaders.obj
 0002:000809f0       ?_Xlen@?$vector@USShaderAttribute@@V?$K2VectorAllocator@USShaderAttribute@@@@@std@@KAXXZ 171379f0 f i c_gfxshaders.obj
 0002:00080aa0       ?allocate@?$K2VectorAllocator@USShaderAttribute@@@@QAEPAUSShaderAttribute@@I@Z 17137aa0 f i c_gfxshaders.obj
 0002:00080af0       ?max_size@?$vector@USShaderUniform@@V?$K2VectorAllocator@USShaderUniform@@@@@std@@QBEIXZ 17137af0 f i c_gfxshaders.obj
 0002:00080b20       ?_Xlen@?$vector@USShaderUniform@@V?$K2VectorAllocator@USShaderUniform@@@@@std@@KAXXZ 17137b20 f i c_gfxshaders.obj
 0002:00080bd0       ?allocate@?$K2VectorAllocator@USShaderUniform@@@@QAEPAUSShaderUniform@@I@Z 17137bd0 f i c_gfxshaders.obj
 0002:00080c20       ?max_size@?$vector@DV?$K2VectorAllocator@D@@@std@@QBEIXZ 17137c20 f i c_gfxshaders.obj
 0002:00080c50       ?_Xlen@?$vector@DV?$K2VectorAllocator@D@@@std@@KAXXZ 17137c50 f i c_gfxshaders.obj
 0002:00080d00       ??0?$K2VectorAllocator@D@@QAE@ABV0@@Z 17137d00 f i c_gfxshaders.obj
 0002:00080d30       ?allocate@?$K2VectorAllocator@D@@QAEPADI@Z 17137d30 f i c_gfxshaders.obj
 0002:00080d80       ?_Isnil@?$_Tree@V?$_Tmap_traits@V?$basic_string@_WU?$char_traits@_W@std@@V?$K2StringAllocator@_W@@@std@@PAVCShaderVar@@U?$less@V?$basic_string@_WU?$char_traits@_W@std@@V?$K2StringAllocator@_W@@@std@@@2@V?$K2MapAllocator@U?$pair@$$CBV?$basic_string@_WU?$char_traits@_W@std@@V?$K2StringAllocator@_W@@@std@@PAVCShaderVar@@@std@@@@$0A@@std@@@std@@KAAADPAU_Node@?$_Tree_nod@V?$_Tmap_traits@V?$basic_string@_WU?$char_traits@_W@std@@V?$K2StringAllocator@_W@@@std@@PAVCShaderVar@@U?$less@V?$basic_string@_WU?$char_traits@_W@std@@V?$K2StringAllocator@_W@@@std@@@2@V?$K2MapAllocator@U?$pair@$$CBV?$basic_string@_WU?$char_traits@_W@std@@V?$K2StringAllocator@_W@@@std@@PAVCShaderVar@@@std@@@@$0A@@std@@@2@@Z 17137d80 f i c_gfxshaders.obj
 0002:00080da0       ?_Root@?$_Tree@V?$_Tmap_traits@V?$basic_string@_WU?$char_traits@_W@std@@V?$K2StringAllocator@_W@@@std@@PAVCShaderVar@@U?$less@V?$basic_string@_WU?$char_traits@_W@std@@V?$K2StringAllocator@_W@@@std@@@2@V?$K2MapAllocator@U?$pair@$$CBV?$basic_string@_WU?$char_traits@_W@std@@V?$K2StringAllocator@_W@@@std@@PAVCShaderVar@@@std@@@@$0A@@std@@@std@@IBEAAPAU_Node@?$_Tree_nod@V?$_Tmap_traits@V?$basic_string@_WU?$char_traits@_W@std@@V?$K2StringAllocator@_W@@@std@@PAVCShaderVar@@U?$less@V?$basic_string@_WU?$char_traits@_W@std@@V?$K2StringAllocator@_W@@@std@@@2@V?$K2MapAllocator@U?$pair@$$CBV?$basic_string@_WU?$char_traits@_W@std@@V?$K2StringAllocator@_W@@@std@@PAVCShaderVar@@@std@@@@$0A@@std@@@2@XZ 17137da0 f i c_gfxshaders.obj
 0002:00080dd0       ?_Parent@?$_Tree@V?$_Tmap_traits@V?$basic_string@_WU?$char_traits@_W@std@@V?$K2StringAllocator@_W@@@std@@PAVCShaderVar@@U?$less@V?$basic_string@_WU?$char_traits@_W@std@@V?$K2StringAllocator@_W@@@std@@@2@V?$K2MapAllocator@U?$pair@$$CBV?$basic_string@_WU?$char_traits@_W@std@@V?$K2StringAllocator@_W@@@std@@PAVCShaderVar@@@std@@@@$0A@@std@@@std@@KAAAPAU_Node@?$_Tree_nod@V?$_Tmap_traits@V?$basic_string@_WU?$char_traits@_W@std@@V?$K2StringAllocator@_W@@@std@@PAVCShaderVar@@U?$less@V?$basic_string@_WU?$char_traits@_W@std@@V?$K2StringAllocator@_W@@@std@@@2@V?$K2MapAllocator@U?$pair@$$CBV?$basic_string@_WU?$char_traits@_W@std@@V?$K2StringAllocator@_W@@@std@@PAVCShaderVar@@@std@@@@$0A@@std@@@2@PAU342@@Z 17137dd0 f i c_gfxshaders.obj
 0002:00080df0       ?_Isnil@?$_Tree@V?$_Tmap_traits@V?$basic_string@_WU?$char_traits@_W@std@@V?$K2StringAllocator@_W@@@std@@PAVCShaderSampler@@U?$less@V?$basic_string@_WU?$char_traits@_W@std@@V?$K2StringAllocator@_W@@@std@@@2@V?$K2MapAllocator@U?$pair@$$CBV?$basic_string@_WU?$char_traits@_W@std@@V?$K2StringAllocator@_W@@@std@@PAVCShaderSampler@@@std@@@@$0A@@std@@@std@@KAAADPAU_Node@?$_Tree_nod@V?$_Tmap_traits@V?$basic_string@_WU?$char_traits@_W@std@@V?$K2StringAllocator@_W@@@std@@PAVCShaderSampler@@U?$less@V?$basic_string@_WU?$char_traits@_W@std@@V?$K2StringAllocator@_W@@@std@@@2@V?$K2MapAllocator@U?$pair@$$CBV?$basic_string@_WU?$char_traits@_W@std@@V?$K2StringAllocator@_W@@@std@@PAVCShaderSampler@@@std@@@@$0A@@std@@@2@@Z 17137df0 f i c_gfxshaders.obj
 0002:00080e10       ?_Root@?$_Tree@V?$_Tmap_traits@V?$basic_string@_WU?$char_traits@_W@std@@V?$K2StringAllocator@_W@@@std@@PAVCShaderSampler@@U?$less@V?$basic_string@_WU?$char_traits@_W@std@@V?$K2StringAllocator@_W@@@std@@@2@V?$K2MapAllocator@U?$pair@$$CBV?$basic_string@_WU?$char_traits@_W@std@@V?$K2StringAllocator@_W@@@std@@PAVCShaderSampler@@@std@@@@$0A@@std@@@std@@IBEAAPAU_Node@?$_Tree_nod@V?$_Tmap_traits@V?$basic_string@_WU?$char_traits@_W@std@@V?$K2StringAllocator@_W@@@std@@PAVCShaderSampler@@U?$less@V?$basic_string@_WU?$char_traits@_W@std@@V?$K2StringAllocator@_W@@@std@@@2@V?$K2MapAllocator@U?$pair@$$CBV?$basic_string@_WU?$char_traits@_W@std@@V?$K2StringAllocator@_W@@@std@@PAVCShaderSampler@@@std@@@@$0A@@std@@@2@XZ 17137e10 f i c_gfxshaders.obj
 0002:00080e40       ?_Parent@?$_Tree@V?$_Tmap_traits@V?$basic_string@_WU?$char_traits@_W@std@@V?$K2StringAllocator@_W@@@std@@PAVCShaderSampler@@U?$less@V?$basic_string@_WU?$char_traits@_W@std@@V?$K2StringAllocator@_W@@@std@@@2@V?$K2MapAllocator@U?$pair@$$CBV?$basic_string@_WU?$char_traits@_W@std@@V?$K2StringAllocator@_W@@@std@@PAVCShaderSampler@@@std@@@@$0A@@std@@@std@@KAAAPAU_Node@?$_Tree_nod@V?$_Tmap_traits@V?$basic_string@_WU?$char_traits@_W@std@@V?$K2StringAllocator@_W@@@std@@PAVCShaderSampler@@U?$less@V?$basic_string@_WU?$char_traits@_W@std@@V?$K2StringAllocator@_W@@@std@@@2@V?$K2MapAllocator@U?$pair@$$CBV?$basic_string@_WU?$char_traits@_W@std@@V?$K2StringAllocator@_W@@@std@@PAVCShaderSampler@@@std@@@@$0A@@std@@@2@PAU342@@Z 17137e40 f i c_gfxshaders.obj
 0002:00080e60       ??Y?$_Vector_iterator@USShaderAttribute@@V?$K2VectorAllocator@USShaderAttribute@@@@@std@@QAEAAV01@H@Z 17137e60 f i c_gfxshaders.obj
 0002:00080e90       ??0?$_Vector_const_iterator@USShaderAttribute@@V?$K2VectorAllocator@USShaderAttribute@@@@@std@@QAE@PAUSShaderAttribute@@PBV_Container_base@1@@Z 17137e90 f i c_gfxshaders.obj
 0002:00080f90       ??G?$_Vector_const_iterator@USShaderAttribute@@V?$K2VectorAllocator@USShaderAttribute@@@@@std@@QBEHABV01@@Z 17137f90 f i c_gfxshaders.obj
 0002:00080fe0       ??8?$_Vector_const_iterator@USShaderAttribute@@V?$K2VectorAllocator@USShaderAttribute@@@@@std@@QBE_NABV01@@Z 17137fe0 f i c_gfxshaders.obj
 0002:00081020       ?_Compat@?$_Vector_const_iterator@USShaderAttribute@@V?$K2VectorAllocator@USShaderAttribute@@@@@std@@QBEXABV12@@Z 17138020 f i c_gfxshaders.obj
 0002:000810d0       ??Y?$_Vector_iterator@USShaderUniform@@V?$K2VectorAllocator@USShaderUniform@@@@@std@@QAEAAV01@H@Z 171380d0 f i c_gfxshaders.obj
 0002:00081100       ??0?$_Vector_const_iterator@USShaderUniform@@V?$K2VectorAllocator@USShaderUniform@@@@@std@@QAE@PAUSShaderUniform@@PBV_Container_base@1@@Z 17138100 f i c_gfxshaders.obj
 0002:00081200       ??G?$_Vector_const_iterator@USShaderUniform@@V?$K2VectorAllocator@USShaderUniform@@@@@std@@QBEHABV01@@Z 17138200 f i c_gfxshaders.obj
 0002:00081250       ??8?$_Vector_const_iterator@USShaderUniform@@V?$K2VectorAllocator@USShaderUniform@@@@@std@@QBE_NABV01@@Z 17138250 f i c_gfxshaders.obj
 0002:00081290       ?_Compat@?$_Vector_const_iterator@USShaderUniform@@V?$K2VectorAllocator@USShaderUniform@@@@@std@@QBEXABV12@@Z 17138290 f i c_gfxshaders.obj
 0002:00081340       ??0iterator@?$_Tree@V?$_Tmap_traits@V?$basic_string@DU?$char_traits@D@std@@V?$K2StringAllocator@D@@@std@@V12@U?$less@V?$basic_string@DU?$char_traits@D@std@@V?$K2StringAllocator@D@@@std@@@2@V?$K2MapAllocator@U?$pair@$$CBV?$basic_string@DU?$char_traits@D@std@@V?$K2StringAllocator@D@@@std@@V12@@std@@@@$0A@@std@@@std@@QAE@PAU_Node@?$_Tree_nod@V?$_Tmap_traits@V?$basic_string@DU?$char_traits@D@std@@V?$K2StringAllocator@D@@@std@@V12@U?$less@V?$basic_string@DU?$char_traits@D@std@@V?$K2StringAllocator@D@@@std@@@2@V?$K2MapAllocator@U?$pair@$$CBV?$basic_string@DU?$char_traits@D@std@@V?$K2StringAllocator@D@@@std@@V12@@std@@@@$0A@@std@@@2@PBV12@@Z 17138340 f i c_gfxshaders.obj
 0002:00081380       ??Eiterator@?$_Tree@V?$_Tmap_traits@V?$basic_string@DU?$char_traits@D@std@@V?$K2StringAllocator@D@@@std@@V12@U?$less@V?$basic_string@DU?$char_traits@D@std@@V?$K2StringAllocator@D@@@std@@@2@V?$K2MapAllocator@U?$pair@$$CBV?$basic_string@DU?$char_traits@D@std@@V?$K2StringAllocator@D@@@std@@V12@@std@@@@$0A@@std@@@std@@QAE?AV012@H@Z 17138380 f i c_gfxshaders.obj
 0002:00081430       ??8const_iterator@?$_Tree@V?$_Tmap_traits@V?$basic_string@DU?$char_traits@D@std@@V?$K2StringAllocator@D@@@std@@V12@U?$less@V?$basic_string@DU?$char_traits@D@std@@V?$K2StringAllocator@D@@@std@@@2@V?$K2MapAllocator@U?$pair@$$CBV?$basic_string@DU?$char_traits@D@std@@V?$K2StringAllocator@D@@@std@@V12@@std@@@@$0A@@std@@@std@@QBE_NABV012@@Z 17138430 f i c_gfxshaders.obj
 0002:000814f0       ??9const_iterator@?$_Tree@V?$_Tmap_traits@V?$basic_string@DU?$char_traits@D@std@@V?$K2StringAllocator@D@@@std@@V12@U?$less@V?$basic_string@DU?$char_traits@D@std@@V?$K2StringAllocator@D@@@std@@@2@V?$K2MapAllocator@U?$pair@$$CBV?$basic_string@DU?$char_traits@D@std@@V?$K2StringAllocator@D@@@std@@V12@@std@@@@$0A@@std@@@std@@QBE_NABV012@@Z 171384f0 f i c_gfxshaders.obj
 0002:00081530       ??0?$_Ranit@USShaderAttribute@@HPBU1@ABU1@@std@@QAE@XZ 17138530 f i c_gfxshaders.obj
 0002:00081560       ??0?$_Ranit@USShaderUniform@@HPBU1@ABU1@@std@@QAE@XZ 17138560 f i c_gfxshaders.obj
 0002:00081590       ??0?$allocator@E@std@@QAE@ABV01@@Z 17138590 f i c_gfxshaders.obj
 0002:000815b0       ?max_size@?$allocator@E@std@@QBEIXZ 171385b0 f i c_gfxshaders.obj
 0002:000815f0       ?_Color@?$_Tree@V?$_Tmap_traits@V?$basic_string@DU?$char_traits@D@std@@V?$K2StringAllocator@D@@@std@@V12@U?$less@V?$basic_string@DU?$char_traits@D@std@@V?$K2StringAllocator@D@@@std@@@2@V?$K2MapAllocator@U?$pair@$$CBV?$basic_string@DU?$char_traits@D@std@@V?$K2StringAllocator@D@@@std@@V12@@std@@@@$0A@@std@@@std@@KAAADPAU_Node@?$_Tree_nod@V?$_Tmap_traits@V?$basic_string@DU?$char_traits@D@std@@V?$K2StringAllocator@D@@@std@@V12@U?$less@V?$basic_string@DU?$char_traits@D@std@@V?$K2StringAllocator@D@@@std@@@2@V?$K2MapAllocator@U?$pair@$$CBV?$basic_string@DU?$char_traits@D@std@@V?$K2StringAllocator@D@@@std@@V12@@std@@@@$0A@@std@@@2@@Z 171385f0 f i c_gfxshaders.obj
 0002:00081610       ?_Isnil@?$_Tree@V?$_Tmap_traits@V?$basic_string@DU?$char_traits@D@std@@V?$K2StringAllocator@D@@@std@@V12@U?$less@V?$basic_string@DU?$char_traits@D@std@@V?$K2StringAllocator@D@@@std@@@2@V?$K2MapAllocator@U?$pair@$$CBV?$basic_string@DU?$char_traits@D@std@@V?$K2StringAllocator@D@@@std@@V12@@std@@@@$0A@@std@@@std@@KAAADPAU_Node@?$_Tree_nod@V?$_Tmap_traits@V?$basic_string@DU?$char_traits@D@std@@V?$K2StringAllocator@D@@@std@@V12@U?$less@V?$basic_string@DU?$char_traits@D@std@@V?$K2StringAllocator@D@@@std@@@2@V?$K2MapAllocator@U?$pair@$$CBV?$basic_string@DU?$char_traits@D@std@@V?$K2StringAllocator@D@@@std@@V12@@std@@@@$0A@@std@@@2@@Z 17138610 f i c_gfxshaders.obj
 0002:00081630       ?_Erase@?$_Tree@V?$_Tmap_traits@V?$basic_string@DU?$char_traits@D@std@@V?$K2StringAllocator@D@@@std@@V12@U?$less@V?$basic_string@DU?$char_traits@D@std@@V?$K2StringAllocator@D@@@std@@@2@V?$K2MapAllocator@U?$pair@$$CBV?$basic_string@DU?$char_traits@D@std@@V?$K2StringAllocator@D@@@std@@V12@@std@@@@$0A@@std@@@std@@IAEXPAU_Node@?$_Tree_nod@V?$_Tmap_traits@V?$basic_string@DU?$char_traits@D@std@@V?$K2StringAllocator@D@@@std@@V12@U?$less@V?$basic_string@DU?$char_traits@D@std@@V?$K2StringAllocator@D@@@std@@@2@V?$K2MapAllocator@U?$pair@$$CBV?$basic_string@DU?$char_traits@D@std@@V?$K2StringAllocator@D@@@std@@V12@@std@@@@$0A@@std@@@2@@Z 17138630 f i c_gfxshaders.obj
 0002:000816d0       ?_Lrotate@?$_Tree@V?$_Tmap_traits@V?$basic_string@DU?$char_traits@D@std@@V?$K2StringAllocator@D@@@std@@V12@U?$less@V?$basic_string@DU?$char_traits@D@std@@V?$K2StringAllocator@D@@@std@@@2@V?$K2MapAllocator@U?$pair@$$CBV?$basic_string@DU?$char_traits@D@std@@V?$K2StringAllocator@D@@@std@@V12@@std@@@@$0A@@std@@@std@@IAEXPAU_Node@?$_Tree_nod@V?$_Tmap_traits@V?$basic_string@DU?$char_traits@D@std@@V?$K2StringAllocator@D@@@std@@V12@U?$less@V?$basic_string@DU?$char_traits@D@std@@V?$K2StringAllocator@D@@@std@@@2@V?$K2MapAllocator@U?$pair@$$CBV?$basic_string@DU?$char_traits@D@std@@V?$K2StringAllocator@D@@@std@@V12@@std@@@@$0A@@std@@@2@@Z 171386d0 f i c_gfxshaders.obj
 0002:00081860       ?_Max@?$_Tree@V?$_Tmap_traits@V?$basic_string@DU?$char_traits@D@std@@V?$K2StringAllocator@D@@@std@@V12@U?$less@V?$basic_string@DU?$char_traits@D@std@@V?$K2StringAllocator@D@@@std@@@2@V?$K2MapAllocator@U?$pair@$$CBV?$basic_string@DU?$char_traits@D@std@@V?$K2StringAllocator@D@@@std@@V12@@std@@@@$0A@@std@@@std@@KAPAU_Node@?$_Tree_nod@V?$_Tmap_traits@V?$basic_string@DU?$char_traits@D@std@@V?$K2StringAllocator@D@@@std@@V12@U?$less@V?$basic_string@DU?$char_traits@D@std@@V?$K2StringAllocator@D@@@std@@@2@V?$K2MapAllocator@U?$pair@$$CBV?$basic_string@DU?$char_traits@D@std@@V?$K2StringAllocator@D@@@std@@V12@@std@@@@$0A@@std@@@2@PAU342@@Z 17138860 f i c_gfxshaders.obj
 0002:000818c0       ?_Min@?$_Tree@V?$_Tmap_traits@V?$basic_string@DU?$char_traits@D@std@@V?$K2StringAllocator@D@@@std@@V12@U?$less@V?$basic_string@DU?$char_traits@D@std@@V?$K2StringAllocator@D@@@std@@@2@V?$K2MapAllocator@U?$pair@$$CBV?$basic_string@DU?$char_traits@D@std@@V?$K2StringAllocator@D@@@std@@V12@@std@@@@$0A@@std@@@std@@KAPAU_Node@?$_Tree_nod@V?$_Tmap_traits@V?$basic_string@DU?$char_traits@D@std@@V?$K2StringAllocator@D@@@std@@V12@U?$less@V?$basic_string@DU?$char_traits@D@std@@V?$K2StringAllocator@D@@@std@@@2@V?$K2MapAllocator@U?$pair@$$CBV?$basic_string@DU?$char_traits@D@std@@V?$K2StringAllocator@D@@@std@@V12@@std@@@@$0A@@std@@@2@PAU342@@Z 171388c0 f i c_gfxshaders.obj
 0002:00081920       ?_Rmost@?$_Tree@V?$_Tmap_traits@V?$basic_string@DU?$char_traits@D@std@@V?$K2StringAllocator@D@@@std@@V12@U?$less@V?$basic_string@DU?$char_traits@D@std@@V?$K2StringAllocator@D@@@std@@@2@V?$K2MapAllocator@U?$pair@$$CBV?$basic_string@DU?$char_traits@D@std@@V?$K2StringAllocator@D@@@std@@V12@@std@@@@$0A@@std@@@std@@IBEAAPAU_Node@?$_Tree_nod@V?$_Tmap_traits@V?$basic_string@DU?$char_traits@D@std@@V?$K2StringAllocator@D@@@std@@V12@U?$less@V?$basic_string@DU?$char_traits@D@std@@V?$K2StringAllocator@D@@@std@@@2@V?$K2MapAllocator@U?$pair@$$CBV?$basic_string@DU?$char_traits@D@std@@V?$K2StringAllocator@D@@@std@@V12@@std@@@@$0A@@std@@@2@XZ 17138920 f i c_gfxshaders.obj
 0002:00081950       ?_Root@?$_Tree@V?$_Tmap_traits@V?$basic_string@DU?$char_traits@D@std@@V?$K2StringAllocator@D@@@std@@V12@U?$less@V?$basic_string@DU?$char_traits@D@std@@V?$K2StringAllocator@D@@@std@@@2@V?$K2MapAllocator@U?$pair@$$CBV?$basic_string@DU?$char_traits@D@std@@V?$K2StringAllocator@D@@@std@@V12@@std@@@@$0A@@std@@@std@@IBEAAPAU_Node@?$_Tree_nod@V?$_Tmap_traits@V?$basic_string@DU?$char_traits@D@std@@V?$K2StringAllocator@D@@@std@@V12@U?$less@V?$basic_string@DU?$char_traits@D@std@@V?$K2StringAllocator@D@@@std@@@2@V?$K2MapAllocator@U?$pair@$$CBV?$basic_string@DU?$char_traits@D@std@@V?$K2StringAllocator@D@@@std@@V12@@std@@@@$0A@@std@@@2@XZ 17138950 f i c_gfxshaders.obj
 0002:00081980       ?_Rrotate@?$_Tree@V?$_Tmap_traits@V?$basic_string@DU?$char_traits@D@std@@V?$K2StringAllocator@D@@@std@@V12@U?$less@V?$basic_string@DU?$char_traits@D@std@@V?$K2StringAllocator@D@@@std@@@2@V?$K2MapAllocator@U?$pair@$$CBV?$basic_string@DU?$char_traits@D@std@@V?$K2StringAllocator@D@@@std@@V12@@std@@@@$0A@@std@@@std@@IAEXPAU_Node@?$_Tree_nod@V?$_Tmap_traits@V?$basic_string@DU?$char_traits@D@std@@V?$K2StringAllocator@D@@@std@@V12@U?$less@V?$basic_string@DU?$char_traits@D@std@@V?$K2StringAllocator@D@@@std@@@2@V?$K2MapAllocator@U?$pair@$$CBV?$basic_string@DU?$char_traits@D@std@@V?$K2StringAllocator@D@@@std@@V12@@std@@@@$0A@@std@@@2@@Z 17138980 f i c_gfxshaders.obj
 0002:00081b10       ?_Orphan_ptr@?$_Tree@V?$_Tmap_traits@V?$basic_string@DU?$char_traits@D@std@@V?$K2StringAllocator@D@@@std@@V12@U?$less@V?$basic_string@DU?$char_traits@D@std@@V?$K2StringAllocator@D@@@std@@@2@V?$K2MapAllocator@U?$pair@$$CBV?$basic_string@DU?$char_traits@D@std@@V?$K2StringAllocator@D@@@std@@V12@@std@@@@$0A@@std@@@std@@IBEXAAV12@PAU_Node@?$_Tree_nod@V?$_Tmap_traits@V?$basic_string@DU?$char_traits@D@std@@V?$K2StringAllocator@D@@@std@@V12@U?$less@V?$basic_string@DU?$char_traits@D@std@@V?$K2StringAllocator@D@@@std@@@2@V?$K2MapAllocator@U?$pair@$$CBV?$basic_string@DU?$char_traits@D@std@@V?$K2StringAllocator@D@@@std@@V12@@std@@@@$0A@@std@@@2@@Z 17138b10 f i c_gfxshaders.obj
 0002:00081bc0       ?_Buynode@?$_Tree@V?$_Tmap_traits@V?$basic_string@DU?$char_traits@D@std@@V?$K2StringAllocator@D@@@std@@V12@U?$less@V?$basic_string@DU?$char_traits@D@std@@V?$K2StringAllocator@D@@@std@@@2@V?$K2MapAllocator@U?$pair@$$CBV?$basic_string@DU?$char_traits@D@std@@V?$K2StringAllocator@D@@@std@@V12@@std@@@@$0A@@std@@@std@@IAEPAU_Node@?$_Tree_nod@V?$_Tmap_traits@V?$basic_string@DU?$char_traits@D@std@@V?$K2StringAllocator@D@@@std@@V12@U?$less@V?$basic_string@DU?$char_traits@D@std@@V?$K2StringAllocator@D@@@std@@@2@V?$K2MapAllocator@U?$pair@$$CBV?$basic_string@DU?$char_traits@D@std@@V?$K2StringAllocator@D@@@std@@V12@@std@@@@$0A@@std@@@2@XZ 17138bc0 f i c_gfxshaders.obj
 0002:00081da0       ??0?$_Tree_ptr@V?$_Tmap_traits@V?$basic_string@DU?$char_traits@D@std@@V?$K2StringAllocator@D@@@std@@V12@U?$less@V?$basic_string@DU?$char_traits@D@std@@V?$K2StringAllocator@D@@@std@@@2@V?$K2MapAllocator@U?$pair@$$CBV?$basic_string@DU?$char_traits@D@std@@V?$K2StringAllocator@D@@@std@@V12@@std@@@@$0A@@std@@@std@@QAE@ABU?$less@V?$basic_string@DU?$char_traits@D@std@@V?$K2StringAllocator@D@@@std@@@1@V?$K2MapAllocator@U?$pair@$$CBV?$basic_string@DU?$char_traits@D@std@@V?$K2StringAllocator@D@@@std@@V12@@std@@@@@Z 17138da0 f i c_gfxshaders.obj
 0002:00081e50       ??0?$allocator@U?$pair@$$CBV?$basic_string@DU?$char_traits@D@std@@V?$K2StringAllocator@D@@@std@@V12@@std@@@std@@QAE@ABV01@@Z 17138e50 f i c_gfxshaders.obj
