 vid_d3d9_debug

 Timestamp is 4dfdada8 (Sun Jun 19 03:04:56 2011)

 Preferred load address is 17000000

 Start         Length     Name                   Class
 0001:00000000 000bca3dH .textbss                DATA
 0002:00000000 00152a2aH .text                   CODE
 0002:00152a30 0002149cH .text$x                 CODE
 0002:00173ed0 00015aecH .text$yc                CODE
 0002:001899c0 000056f8H .text$yd                CODE
 0003:00000000 00000104H .CRT$XCA                DATA
 0003:00000104 00000b74H .CRT$XCU                DATA
 0003:00000c78 00000104H .CRT$XCZ                DATA
 0003:00000d7c 00000104H .CRT$XIA                DATA
 0003:00000e80 00000104H .CRT$XIAA               DATA
 0003:00000f84 00000104H .CRT$XIC                DATA
 0003:00001088 00000104H .CRT$XIZ                DATA
 0003:00001190 0002d9d6H .rdata                  DATA
 0003:0002eb68 0000015eH .rdata$debug            DATA
 0003:0002ecc8 00000156H .rdata$r                DATA
 0003:0002ee20 00000104H .rtc$IAA                DATA
 0003:0002ef24 00000104H .rtc$IZZ                DATA
 0003:0002f028 00000104H .rtc$TAA                DATA
 0003:0002f12c 00000104H .rtc$TZZ                DATA
 0003:0002f230 0001f55bH .xdata$x                DATA
 0003:0004e790 0000015dH .edata                  DATA
 0004:00000000 00000517H .data                   DATA
 0004:00000520 00cdbbc8H .bss                    DATA
 0005:00000000 000000a0H .idata$2                DATA
 0005:000000a0 00000014H .idata$3                DATA
 0005:000000b4 00000adcH .idata$4                DATA
 0005:00000b90 00000adcH .idata$5                DATA
 0005:0000166c 00007022H .idata$6                DATA
 0006:00000000 00000169H .rsrc$01                DATA
 0006:00000170 00000a99H .rsrc$02                DATA

  Address         Publics by Value              Rva+Base       Lib:Object

 0000:00000000       __except_list              00000000     <absolute>
 0000:00000000       ___safe_se_handler_count   00000000     <absolute>
 0000:00000000       ___safe_se_handler_table   00000000     <absolute>
 0000:00009876       __fltused                  00009876     <absolute>
 0000:00009876       __ldused                   00009876     <absolute>
 0000:00000000       ___ImageBase               17000000     <linker-defined>
 0001:00000000       __enc$textbss$begin        17001000     <linker-defined>
 0001:000bca3d       __enc$textbss$end          170bda3d     <linker-defined>
 0002:000118f0       ??2CBoxRenderer@@SAPAXIPBD00F@Z 170cf8f0 f   c_boxrenderer.obj
 0002:00011910       ??0CBoxRenderer@@QAE@H@Z   170cf910 f   c_boxrenderer.obj
 0002:00011960       ??_ECBoxRenderer@@UAEPAXI@Z 170cf960 f i c_boxrenderer.obj
 0002:00011960       ??_GCBoxRenderer@@UAEPAXI@Z 170cf960 f i c_boxrenderer.obj
 0002:000119b0       ??1CBoxRenderer@@UAE@XZ    170cf9b0 f   c_boxrenderer.obj
 0002:000119e0       ?Render@CBoxRenderer@@UAEXW4EMaterialPhase@@@Z 170cf9e0 f   c_boxrenderer.obj
 0002:00011b40       ?D3D_SetRenderState@@YA_NW4_D3DRENDERSTATETYPE@@K@Z 170cfb40 f i c_boxrenderer.obj
 0002:00011bf0       ?D3D_SetIndices@@YA_NPAUIDirect3DIndexBuffer9@@@Z 170cfbf0 f i c_boxrenderer.obj
 0002:00011c50       ?D3D_SetStreamSource@@YA_NIPAUIDirect3DVertexBuffer9@@II@Z 170cfc50 f i c_boxrenderer.obj
 0002:00011cf0       ?GetTime@CCamera@@QBEMXZ   170cfcf0 f i c_boxrenderer.obj
 0002:00011d10       ??B?$CCvar@_N_N@@QBE_NXZ   170cfd10 f i c_boxrenderer.obj
 0002:00011d40       ??_H@YGXPAXIHP6EPAX0@Z@Z   170cfd40 f i c_boxrenderer.obj
 0002:00011d80       ??_ECPath@@QAEPAXI@Z       170cfd80 f i c_boxrenderer.obj
 0002:00011e20       ?Allocate@?$CPool@VCBoxRenderer@@@@QAEPAVCBoxRenderer@@XZ 170cfe20 f i c_boxrenderer.obj
 0002:00011fb0       ?Allocate@CMemManager@@SAPAXIPBDW4MemoryType@@00F@Z 170cffb0 f i c_boxrenderer.obj
 0002:00011ff0       ?push_back@?$vector@PAVCBoxRenderer@@V?$K2VectorAllocator@PAVCBoxRenderer@@@@@std@@QAEXABQAVCBoxRenderer@@@Z 170cfff0 f i c_boxrenderer.obj
 0002:000120a0       ??1?$_Vector_iterator@PAVCBoxRenderer@@V?$K2VectorAllocator@PAVCBoxRenderer@@@@@std@@QAE@XZ 170d00a0 f i c_boxrenderer.obj
 0002:000120d0       ??1?$_Vector_const_iterator@PAVCBoxRenderer@@V?$K2VectorAllocator@PAVCBoxRenderer@@@@@std@@QAE@XZ 170d00d0 f i c_boxrenderer.obj
 0002:00012100       ??1?$_Ranit@PAVCBoxRenderer@@HPBQAV1@ABQAV1@@std@@QAE@XZ 170d0100 f i c_boxrenderer.obj
 0002:00012130       ??1_Iterator_base@std@@QAE@XZ 170d0130 f i c_boxrenderer.obj
 0002:000121b0       ?_Orphan_me@_Iterator_base@std@@QAEXXZ 170d01b0 f i c_boxrenderer.obj
 0002:00012250       ?end@?$vector@PAVCBoxRenderer@@V?$K2VectorAllocator@PAVCBoxRenderer@@@@@std@@QAE?AV?$_Vector_iterator@PAVCBoxRenderer@@V?$K2VectorAllocator@PAVCBoxRenderer@@@@@2@XZ 170d0250 f i c_boxrenderer.obj
 0002:000122a0       ?capacity@?$vector@PAVCBoxRenderer@@V?$K2VectorAllocator@PAVCBoxRenderer@@@@@std@@QBEIXZ 170d02a0 f i c_boxrenderer.obj
 0002:000122f0       ?size@?$vector@PAVCBoxRenderer@@V?$K2VectorAllocator@PAVCBoxRenderer@@@@@std@@QBEIXZ 170d02f0 f i c_boxrenderer.obj
 0002:00012340       ?insert@?$vector@PAVCBoxRenderer@@V?$K2VectorAllocator@PAVCBoxRenderer@@@@@std@@QAE?AV?$_Vector_iterator@PAVCBoxRenderer@@V?$K2VectorAllocator@PAVCBoxRenderer@@@@@2@V32@ABQAVCBoxRenderer@@@Z 170d0340 f i c_boxrenderer.obj
 0002:000124b0       ?begin@?$vector@PAVCBoxRenderer@@V?$K2VectorAllocator@PAVCBoxRenderer@@@@@std@@QAE?AV?$_Vector_iterator@PAVCBoxRenderer@@V?$K2VectorAllocator@PAVCBoxRenderer@@@@@2@XZ 170d04b0 f i c_boxrenderer.obj
 0002:00012500       ?_Ufill@?$vector@PAVCBoxRenderer@@V?$K2VectorAllocator@PAVCBoxRenderer@@@@@std@@IAEPAPAVCBoxRenderer@@PAPAV3@IABQAV3@@Z 170d0500 f i c_boxrenderer.obj
 0002:00012550       ?_Orphan_range@?$vector@PAVCBoxRenderer@@V?$K2VectorAllocator@PAVCBoxRenderer@@@@@std@@IBEXPAPAVCBoxRenderer@@0@Z 170d0550 f i c_boxrenderer.obj
 0002:000125f0       ??0?$_Vector_iterator@PAVCBoxRenderer@@V?$K2VectorAllocator@PAVCBoxRenderer@@@@@std@@QAE@PAPAVCBoxRenderer@@PBV_Container_base@1@@Z 170d05f0 f i c_boxrenderer.obj
 0002:00012630       ??0?$_Vector_iterator@PAVCBoxRenderer@@V?$K2VectorAllocator@PAVCBoxRenderer@@@@@std@@QAE@ABV01@@Z 170d0630 f i c_boxrenderer.obj
 0002:00012660       ??0?$_Vector_const_iterator@PAVCBoxRenderer@@V?$K2VectorAllocator@PAVCBoxRenderer@@@@@std@@QAE@ABV01@@Z 170d0660 f i c_boxrenderer.obj
 0002:000126a0       ??0?$_Ranit@PAVCBoxRenderer@@HPBQAV1@ABQAV1@@std@@QAE@ABU01@@Z 170d06a0 f i c_boxrenderer.obj
 0002:000126d0       ??0_Iterator_base@std@@QAE@ABV01@@Z 170d06d0 f i c_boxrenderer.obj
 0002:00012720       ??4_Iterator_base@std@@QAEAAV01@ABV01@@Z 170d0720 f i c_boxrenderer.obj
 0002:000127d0       ?_Adopt@_Iterator_base@std@@QAEXPBV_Container_base@2@@Z 170d07d0 f i c_boxrenderer.obj
 0002:000128a0       ?_Insert_n@?$vector@PAVCBoxRenderer@@V?$K2VectorAllocator@PAVCBoxRenderer@@@@@std@@IAEXV?$_Vector_iterator@PAVCBoxRenderer@@V?$K2VectorAllocator@PAVCBoxRenderer@@@@@2@IABQAVCBoxRenderer@@@Z 170d08a0 f i c_boxrenderer.obj
 0002:00012d50       ?_Destroy@?$vector@PAVCBoxRenderer@@V?$K2VectorAllocator@PAVCBoxRenderer@@@@@std@@IAEXPAPAVCBoxRenderer@@0@Z 170d0d50 f i c_boxrenderer.obj
 0002:00012d90       ?deallocate@?$K2VectorAllocator@PAVCBoxRenderer@@@@QAEXPAPAVCBoxRenderer@@I@Z 170d0d90 f i c_boxrenderer.obj
 0002:00012dd0       ??$_Destroy_range@PAVCBoxRenderer@@V?$K2VectorAllocator@PAVCBoxRenderer@@@@@std@@YAXPAPAVCBoxRenderer@@0AAV?$K2VectorAllocator@PAVCBoxRenderer@@@@@Z 170d0dd0 f i c_boxrenderer.obj
 0002:00012e20       ??H?$_Vector_iterator@PAVCBoxRenderer@@V?$K2VectorAllocator@PAVCBoxRenderer@@@@@std@@QBE?AV01@H@Z 170d0e20 f i c_boxrenderer.obj
 0002:00012ed0       ??G?$_Vector_iterator@PAVCBoxRenderer@@V?$K2VectorAllocator@PAVCBoxRenderer@@@@@std@@QBEHABV?$_Vector_const_iterator@PAVCBoxRenderer@@V?$K2VectorAllocator@PAVCBoxRenderer@@@@@1@@Z 170d0ed0 f i c_boxrenderer.obj
 0002:00012f00       ??0?$_Vector_const_iterator@PAVCBoxRenderer@@V?$K2VectorAllocator@PAVCBoxRenderer@@@@@std@@QAE@PAPAVCBoxRenderer@@PBV_Container_base@1@@Z 170d0f00 f i c_boxrenderer.obj
 0002:00013000       ??0?$_Ranit@PAVCBoxRenderer@@HPBQAV1@ABQAV1@@std@@QAE@XZ 170d1000 f i c_boxrenderer.obj
 0002:00013030       ??0_Iterator_base@std@@QAE@XZ 170d1030 f i c_boxrenderer.obj
 0002:00013070       ?max_size@?$vector@PAVCBoxRenderer@@V?$K2VectorAllocator@PAVCBoxRenderer@@@@@std@@QBEIXZ 170d1070 f i c_boxrenderer.obj
 0002:000130a0       ?_Xlen@?$vector@PAVCBoxRenderer@@V?$K2VectorAllocator@PAVCBoxRenderer@@@@@std@@KAXXZ 170d10a0 f i c_boxrenderer.obj
 0002:00013150       ??0length_error@std@@QAE@ABV?$basic_string@DU?$char_traits@D@std@@V?$allocator@D@2@@1@@Z 170d1150 f i c_boxrenderer.obj
 0002:00013190       ??0logic_error@std@@QAE@ABV?$basic_string@DU?$char_traits@D@std@@V?$allocator@D@2@@1@@Z 170d1190 f i c_boxrenderer.obj
 0002:00013220       ?what@logic_error@std@@UBEPBDXZ 170d1220 f i c_boxrenderer.obj
 0002:00013250       ??_Elogic_error@std@@UAEPAXI@Z 170d1250 f i c_boxrenderer.obj
 0002:00013250       ??_Glogic_error@std@@UAEPAXI@Z 170d1250 f i c_boxrenderer.obj
 0002:000132a0       ??1logic_error@std@@UAE@XZ 170d12a0 f i c_boxrenderer.obj
 0002:000132e0       ??1length_error@std@@UAE@XZ 170d12e0 f i c_boxrenderer.obj
 0002:00013310       ??_Glength_error@std@@UAEPAXI@Z 170d1310 f i c_boxrenderer.obj
 0002:00013310       ??_Elength_error@std@@UAEPAXI@Z 170d1310 f i c_boxrenderer.obj
 0002:00013360       ??0logic_error@std@@QAE@ABV01@@Z 170d1360 f i c_boxrenderer.obj
 0002:00013400       ?allocate@?$K2VectorAllocator@PAVCBoxRenderer@@@@QAEPAPAVCBoxRenderer@@I@Z 170d1400 f i c_boxrenderer.obj
 0002:00013450       ??Y?$_Vector_iterator@PAVCBoxRenderer@@V?$K2VectorAllocator@PAVCBoxRenderer@@@@@std@@QAEAAV01@H@Z 170d1450 f i c_boxrenderer.obj
 0002:00013480       ??G?$_Vector_const_iterator@PAVCBoxRenderer@@V?$K2VectorAllocator@PAVCBoxRenderer@@@@@std@@QBEHABV01@@Z 170d1480 f i c_boxrenderer.obj
 0002:000134c0       ?_Compat@?$_Vector_const_iterator@PAVCBoxRenderer@@V?$K2VectorAllocator@PAVCBoxRenderer@@@@@std@@QBEXABV12@@Z 170d14c0 f i c_boxrenderer.obj
 0002:00013570       ?max_size@?$allocator@PAVCBoxRenderer@@@std@@QBEIXZ 170d1570 f i c_boxrenderer.obj
 0002:000135b0       ??Y?$_Vector_const_iterator@PAVCBoxRenderer@@V?$K2VectorAllocator@PAVCBoxRenderer@@@@@std@@QAEAAV01@H@Z 170d15b0 f i c_boxrenderer.obj
 0002:000136e0       ??$MIN@I@@YAABIABI0@Z      170d16e0 f i c_boxrenderer.obj
 0002:00013720       ??0?$basic_string@_WU?$char_traits@_W@std@@V?$K2StringAllocator@_W@@@std@@QAE@PB_W@Z 170d1720 f i c_boxrenderer.obj
 0002:000137d0       ??$_Ptr_cat@PAPAVCBoxRenderer@@PAPAV1@@std@@YA?AU_Scalar_ptr_iterator_tag@0@AAPAPAVCBoxRenderer@@0@Z 170d17d0 f i c_boxrenderer.obj
 0002:000137f0       ??1?$basic_string@_WU?$char_traits@_W@std@@V?$K2StringAllocator@_W@@@std@@QAE@XZ 170d17f0 f i c_boxrenderer.obj
 0002:00013870       ??$_Destroy_range@PAVCBoxRenderer@@V?$K2VectorAllocator@PAVCBoxRenderer@@@@@std@@YAXPAPAVCBoxRenderer@@0AAV?$K2VectorAllocator@PAVCBoxRenderer@@@@U_Scalar_ptr_iterator_tag@0@@Z 170d1870 f i c_boxrenderer.obj
 0002:00013890       ??$unchecked_uninitialized_fill_n@PAPAVCBoxRenderer@@IPAV1@V?$K2VectorAllocator@PAVCBoxRenderer@@@@@stdext@@YAXPAPAVCBoxRenderer@@IABQAV1@AAV?$K2VectorAllocator@PAVCBoxRenderer@@@@@Z 170d1890 f i c_boxrenderer.obj
 0002:000138f0       ??$_Umove@PAPAVCBoxRenderer@@@?$vector@PAVCBoxRenderer@@V?$K2VectorAllocator@PAVCBoxRenderer@@@@@std@@IAEPAPAVCBoxRenderer@@PAPAV2@00@Z 170d18f0 f i c_boxrenderer.obj
 0002:00013930       ??$fill@PAPAVCBoxRenderer@@PAV1@@std@@YAXPAPAVCBoxRenderer@@0ABQAV1@@Z 170d1930 f i c_boxrenderer.obj
 0002:00013980       ??$_Unchecked_move_backward@PAPAVCBoxRenderer@@PAPAV1@@stdext@@YAPAPAVCBoxRenderer@@PAPAV1@00@Z 170d1980 f i c_boxrenderer.obj
 0002:00013a10       ??1?$_String_val@_WV?$K2StringAllocator@_W@@@std@@QAE@XZ 170d1a10 f i c_boxrenderer.obj
 0002:00013a90       ??$_Checked_base@PAPAVCBoxRenderer@@@std@@YAPAPAVCBoxRenderer@@AAPAPAV1@@Z 170d1a90 f i c_boxrenderer.obj
 0002:00013ac0       ??$_Iter_random@PAPAVCBoxRenderer@@PAPAV1@@std@@YA?AUrandom_access_iterator_tag@0@ABQAPAVCBoxRenderer@@0@Z 170d1ac0 f i c_boxrenderer.obj
 0002:00013ae0       ??$_Uninit_fill_n@PAPAVCBoxRenderer@@IPAV1@V?$K2VectorAllocator@PAVCBoxRenderer@@@@@std@@YAXPAPAVCBoxRenderer@@IABQAV1@AAV?$K2VectorAllocator@PAVCBoxRenderer@@@@U_Scalar_ptr_iterator_tag@0@U_Range_checked_iterator_tag@0@@Z 170d1ae0 f i c_boxrenderer.obj
 0002:00013b10       ??$_Unchecked_uninitialized_move@PAPAVCBoxRenderer@@PAPAV1@V?$K2VectorAllocator@PAVCBoxRenderer@@@@@stdext@@YAPAPAVCBoxRenderer@@PAPAV1@00AAV?$K2VectorAllocator@PAVCBoxRenderer@@@@@Z 170d1b10 f i c_boxrenderer.obj
 0002:00013b80       ??$_Fill@PAPAVCBoxRenderer@@PAV1@@std@@YAXPAPAVCBoxRenderer@@0ABQAV1@@Z 170d1b80 f i c_boxrenderer.obj
 0002:00013be0       ??$_Move_cat@PAPAVCBoxRenderer@@@std@@YA?AU_Undefined_move_tag@0@ABQAPAVCBoxRenderer@@@Z 170d1be0 f i c_boxrenderer.obj
 0002:00013c00       ??$_Move_backward_opt@PAPAVCBoxRenderer@@PAPAV1@Urandom_access_iterator_tag@std@@U_Undefined_move_tag@3@@std@@YAPAPAVCBoxRenderer@@PAPAV1@00Urandom_access_iterator_tag@0@U_Undefined_move_tag@0@U_Range_checked_iterator_tag@0@@Z 170d1c00 f i c_boxrenderer.obj
 0002:00013c60       ??$_Checked_base@PAPAVCBoxRenderer@@@std@@YAPAPAVCBoxRenderer@@AAPAPAV1@U_Unchanged_checked_iterator_base_type_tag@0@@Z 170d1c60 f i c_boxrenderer.obj
 0002:00013c80       ??$_Debug_range@PAPAVCBoxRenderer@@@std@@YAXPAPAVCBoxRenderer@@0PB_WI@Z 170d1c80 f i c_boxrenderer.obj
 0002:00013cd0       ??$unchecked_fill_n@PAPAVCBoxRenderer@@IPAV1@@stdext@@YAXPAPAVCBoxRenderer@@IABQAV1@@Z 170d1cd0 f i c_boxrenderer.obj
 0002:00013d20       ??$_Uninit_move@PAPAVCBoxRenderer@@PAPAV1@V?$K2VectorAllocator@PAVCBoxRenderer@@@@U_Undefined_move_tag@std@@@std@@YAPAPAVCBoxRenderer@@PAPAV1@00AAV?$K2VectorAllocator@PAVCBoxRenderer@@@@U_Undefined_move_tag@0@U_Range_checked_iterator_tag@0@@Z 170d1d20 f i c_boxrenderer.obj
 0002:00013d60       ??$_Copy_backward_opt@PAPAVCBoxRenderer@@PAPAV1@Urandom_access_iterator_tag@std@@@std@@YAPAPAVCBoxRenderer@@PAPAV1@00Urandom_access_iterator_tag@0@U_Scalar_ptr_iterator_tag@0@U_Range_checked_iterator_tag@0@@Z 170d1d60 f i c_boxrenderer.obj
 0002:00013e10       ??$_Debug_pointer@PAVCBoxRenderer@@@std@@YAXPAPAVCBoxRenderer@@PB_WI@Z 170d1e10 f i c_boxrenderer.obj
 0002:00013e50       ?assign@?$basic_string@_WU?$char_traits@_W@std@@V?$K2StringAllocator@_W@@@std@@QAEAAV12@PB_W@Z 170d1e50 f i c_boxrenderer.obj
 0002:00013e90       ?_Tidy@?$basic_string@_WU?$char_traits@_W@std@@V?$K2StringAllocator@_W@@@std@@IAEX_NI@Z 170d1e90 f i c_boxrenderer.obj
 0002:00013f30       ??0?$_String_val@_WV?$K2StringAllocator@_W@@@std@@IAE@V?$K2StringAllocator@_W@@@Z 170d1f30 f i c_boxrenderer.obj
 0002:00013fd0       ??0?$K2StringAllocator@_W@@QAE@XZ 170d1fd0 f i c_boxrenderer.obj
 0002:00014000       ?GetInstance@CMemManager@@SAPAV1@XZ 170d2000 f i c_boxrenderer.obj
 0002:000140d0       ??1?$K2StringAllocator@_W@@QAE@XZ 170d20d0 f i c_boxrenderer.obj
 0002:000140f0       ??$_Iter_cat@PAPAVCBoxRenderer@@@std@@YA?AUrandom_access_iterator_tag@0@ABQAPAVCBoxRenderer@@@Z 170d20f0 f i c_boxrenderer.obj
 0002:00014110       ??$_Debug_range2@PAPAVCBoxRenderer@@@std@@YAXPAPAVCBoxRenderer@@0PB_WIUrandom_access_iterator_tag@0@@Z 170d2110 f i c_boxrenderer.obj
 0002:00014190       ??$_Fill_n@PAPAVCBoxRenderer@@IPAV1@@std@@YAXPAPAVCBoxRenderer@@IABQAV1@Urandom_access_iterator_tag@0@U_Range_checked_iterator_tag@0@@Z 170d2190 f i c_boxrenderer.obj
 0002:000141f0       ??$unchecked_uninitialized_copy@PAPAVCBoxRenderer@@PAPAV1@V?$K2VectorAllocator@PAVCBoxRenderer@@@@@stdext@@YAPAPAVCBoxRenderer@@PAPAV1@00AAV?$K2VectorAllocator@PAVCBoxRenderer@@@@@Z 170d21f0 f i c_boxrenderer.obj
 0002:00014260       ??$_Fill_n@PAPAVCBoxRenderer@@IPAV1@@std@@YAXPAPAVCBoxRenderer@@IABQAV1@U_Range_checked_iterator_tag@0@@Z 170d2260 f i c_boxrenderer.obj
 0002:000142b0       ??$_Uninit_copy@PAPAVCBoxRenderer@@PAPAV1@V?$K2VectorAllocator@PAVCBoxRenderer@@@@@std@@YAPAPAVCBoxRenderer@@PAPAV1@00AAV?$K2VectorAllocator@PAVCBoxRenderer@@@@U_Scalar_ptr_iterator_tag@0@U_Range_checked_iterator_tag@0@@Z 170d22b0 f i c_boxrenderer.obj
 0002:00014350       ?assign@?$basic_string@_WU?$char_traits@_W@std@@V?$K2StringAllocator@_W@@@std@@QAEAAV12@PB_WI@Z 170d2350 f i c_boxrenderer.obj
 0002:00014410       ?assign@?$basic_string@_WU?$char_traits@_W@std@@V?$K2StringAllocator@_W@@@std@@QAEAAV12@ABV12@II@Z 170d2410 f i c_boxrenderer.obj
 0002:00014500       ?_Myptr@?$basic_string@_WU?$char_traits@_W@std@@V?$K2StringAllocator@_W@@@std@@IAEPA_WXZ 170d2500 f i c_boxrenderer.obj
 0002:00014540       ?_Myptr@?$basic_string@_WU?$char_traits@_W@std@@V?$K2StringAllocator@_W@@@std@@IBEPB_WXZ 170d2540 f i c_boxrenderer.obj
 0002:00014580       ?erase@?$basic_string@_WU?$char_traits@_W@std@@V?$K2StringAllocator@_W@@@std@@QAEAAV12@II@Z 170d2580 f i c_boxrenderer.obj
 0002:00014650       ?size@?$basic_string@_WU?$char_traits@_W@std@@V?$K2StringAllocator@_W@@@std@@QBEIXZ 170d2650 f i c_boxrenderer.obj
 0002:00014670       ?_Eos@?$basic_string@_WU?$char_traits@_W@std@@V?$K2StringAllocator@_W@@@std@@IAEXI@Z 170d2670 f i c_boxrenderer.obj
 0002:000146c0       ?_Grow@?$basic_string@_WU?$char_traits@_W@std@@V?$K2StringAllocator@_W@@@std@@IAE_NI_N@Z 170d26c0 f i c_boxrenderer.obj
 0002:00014790       ??0?$K2StringAllocator@_W@@QAE@ABV0@@Z 170d2790 f i c_boxrenderer.obj
 0002:000147c0       ?deallocate@?$K2StringAllocator@_W@@QAEXPA_WI@Z 170d27c0 f i c_boxrenderer.obj
 0002:00014800       ??0length_error@std@@QAE@ABV01@@Z 170d2800 f i c_boxrenderer.obj
 0002:00014840       ?max_size@?$basic_string@_WU?$char_traits@_W@std@@V?$K2StringAllocator@_W@@@std@@QBEIXZ 170d2840 f i c_boxrenderer.obj
 0002:00014890       ?_Copy@?$basic_string@_WU?$char_traits@_W@std@@V?$K2StringAllocator@_W@@@std@@IAEXII@Z 170d2890 f i c_boxrenderer.obj
 0002:00014a80       ?_Inside@?$basic_string@_WU?$char_traits@_W@std@@V?$K2StringAllocator@_W@@@std@@IAE_NPB_W@Z 170d2a80 f i c_boxrenderer.obj
 0002:00014af0       ?allocate@?$K2StringAllocator@_W@@QAEPA_WI@Z 170d2af0 f i c_boxrenderer.obj
 0002:00014b40       ??$copy_s@U?$char_traits@_W@std@@@_Traits_helper@std@@YAPA_WPA_WIPB_WI@Z 170d2b40 f i c_boxrenderer.obj
 0002:00014b90       ??$_Char_traits_cat@U?$char_traits@_W@std@@@std@@YA?AU_Secure_char_traits_tag@0@XZ 170d2b90 f i c_boxrenderer.obj
 0002:00014bb0       ??$copy_s@U?$char_traits@_W@std@@@_Traits_helper@std@@YAPA_WPA_WIPB_WIU_Secure_char_traits_tag@1@@Z 170d2bb0 f i c_boxrenderer.obj
 0002:00014bf0       ??$_Debug_pointer@_W@std@@YAXPB_W0I@Z 170d2bf0 f i c_boxrenderer.obj
 0002:00014c30       ??$move_s@U?$char_traits@_W@std@@@_Traits_helper@std@@YAPA_WPA_WIPB_WI@Z 170d2c30 f i c_boxrenderer.obj
 0002:00014c80       ??$move_s@U?$char_traits@_W@std@@@_Traits_helper@std@@YAPA_WPA_WIPB_WIU_Secure_char_traits_tag@1@@Z 170d2c80 f i c_boxrenderer.obj
 0002:00014cc0       ??0?$CPool@VCBoxRenderer@@@@QAE@II@Z 170d2cc0 f i c_boxrenderer.obj
 0002:00014d80       ??0?$vector@PAVCBoxRenderer@@V?$K2VectorAllocator@PAVCBoxRenderer@@@@@@QAE@XZ 170d2d80 f i c_boxrenderer.obj
 0002:00014db0       ??0?$vector@PAVCBoxRenderer@@V?$K2VectorAllocator@PAVCBoxRenderer@@@@@std@@QAE@XZ 170d2db0 f i c_boxrenderer.obj
 0002:00014e40       ??1?$_Vector_val@PAVCBoxRenderer@@V?$K2VectorAllocator@PAVCBoxRenderer@@@@@std@@QAE@XZ 170d2e40 f i c_boxrenderer.obj
 0002:00014ec0       ??1?$K2VectorAllocator@PAVCBoxRenderer@@@@QAE@XZ 170d2ec0 f i c_boxrenderer.obj
 0002:00014ee0       ?_Buy@?$vector@PAVCBoxRenderer@@V?$K2VectorAllocator@PAVCBoxRenderer@@@@@std@@IAE_NI@Z 170d2ee0 f i c_boxrenderer.obj
 0002:00014f90       ??0?$_Vector_val@PAVCBoxRenderer@@V?$K2VectorAllocator@PAVCBoxRenderer@@@@@std@@IAE@V?$K2VectorAllocator@PAVCBoxRenderer@@@@@Z 170d2f90 f i c_boxrenderer.obj
 0002:00015030       ??0?$K2VectorAllocator@PAVCBoxRenderer@@@@QAE@XZ 170d3030 f i c_boxrenderer.obj
 0002:00015060       ??0?$K2VectorAllocator@PAVCBoxRenderer@@@@QAE@ABV0@@Z 170d3060 f i c_boxrenderer.obj
 0002:00015090       ??0?$allocator@PAVCBoxRenderer@@@std@@QAE@XZ 170d3090 f i c_boxrenderer.obj
 0002:000150b0       ??0?$allocator@PAVCBoxRenderer@@@std@@QAE@ABV01@@Z 170d30b0 f i c_boxrenderer.obj
 0002:000150d0       ??$MAX@I@@YAABIABI0@Z      170d30d0 f i c_boxrenderer.obj
 0002:00015110       ??1?$CPool@VCBoxRenderer@@@@QAE@XZ 170d3110 f i c_boxrenderer.obj
 0002:000151c0       ??1?$vector@PAVCBoxRenderer@@V?$K2VectorAllocator@PAVCBoxRenderer@@@@@@QAE@XZ 170d31c0 f i c_boxrenderer.obj
 0002:000151f0       ??1?$vector@PAVCBoxRenderer@@V?$K2VectorAllocator@PAVCBoxRenderer@@@@@std@@QAE@XZ 170d31f0 f i c_boxrenderer.obj
 0002:00015270       ?_Tidy@?$vector@PAVCBoxRenderer@@V?$K2VectorAllocator@PAVCBoxRenderer@@@@@std@@IAEXXZ 170d3270 f i c_boxrenderer.obj
 0002:00015310       ?Reset@?$CPool@VCBoxRenderer@@@@QAEXXZ 170d3310 f i c_boxrenderer.obj
 0002:00015430       ?clear@?$vector@PAVCBoxRenderer@@V?$K2VectorAllocator@PAVCBoxRenderer@@@@@std@@QAEXXZ 170d3430 f i c_boxrenderer.obj
 0002:000154f0       ??D?$_Vector_iterator@PAVCBoxRenderer@@V?$K2VectorAllocator@PAVCBoxRenderer@@@@@std@@QBEAAPAVCBoxRenderer@@XZ 170d34f0 f i c_boxrenderer.obj
 0002:00015520       ??E?$_Vector_iterator@PAVCBoxRenderer@@V?$K2VectorAllocator@PAVCBoxRenderer@@@@@std@@QAEAAV01@XZ 170d3520 f i c_boxrenderer.obj
 0002:00015550       ??9?$_Vector_const_iterator@PAVCBoxRenderer@@V?$K2VectorAllocator@PAVCBoxRenderer@@@@@std@@QBE_NABV01@@Z 170d3550 f i c_boxrenderer.obj
 0002:00015590       ?erase@?$vector@PAVCBoxRenderer@@V?$K2VectorAllocator@PAVCBoxRenderer@@@@@std@@QAE?AV?$_Vector_iterator@PAVCBoxRenderer@@V?$K2VectorAllocator@PAVCBoxRenderer@@@@@2@V32@0@Z 170d3590 f i c_boxrenderer.obj
 0002:00015710       ??D?$_Vector_const_iterator@PAVCBoxRenderer@@V?$K2VectorAllocator@PAVCBoxRenderer@@@@@std@@QBEABQAVCBoxRenderer@@XZ 170d3710 f i c_boxrenderer.obj
 0002:000157d0       ??E?$_Vector_const_iterator@PAVCBoxRenderer@@V?$K2VectorAllocator@PAVCBoxRenderer@@@@@std@@QAEAAV01@XZ 170d37d0 f i c_boxrenderer.obj
 0002:000158c0       ??8?$_Vector_const_iterator@PAVCBoxRenderer@@V?$K2VectorAllocator@PAVCBoxRenderer@@@@@std@@QBE_NABV01@@Z 170d38c0 f i c_boxrenderer.obj
 0002:00015900       ??M?$_Vector_const_iterator@PAVCBoxRenderer@@V?$K2VectorAllocator@PAVCBoxRenderer@@@@@std@@QBE_NABV01@@Z 170d3900 f i c_boxrenderer.obj
 0002:00015940       ??$unchecked_copy@PAPAVCBoxRenderer@@PAPAV1@@stdext@@YAPAPAVCBoxRenderer@@PAPAV1@00@Z 170d3940 f i c_boxrenderer.obj
 0002:000159d0       ??$_Copy_opt@PAPAVCBoxRenderer@@PAPAV1@Urandom_access_iterator_tag@std@@@std@@YAPAPAVCBoxRenderer@@PAPAV1@00Urandom_access_iterator_tag@0@U_Scalar_ptr_iterator_tag@0@U_Range_checked_iterator_tag@0@@Z 170d39d0 f i c_boxrenderer.obj
 0002:00015a80       ??2CEffectQuadRenderer@@SAPAXIPBD00F@Z 170d3a80 f   c_effectquadrenderer.obj
 0002:00015aa0       ??0CEffectQuadRenderer@@QAE@IIIHM@Z 170d3aa0 f   c_effectquadrenderer.obj
 0002:00015af0       ??_ECEffectQuadRenderer@@UAEPAXI@Z 170d3af0 f i c_effectquadrenderer.obj
 0002:00015af0       ??_GCEffectQuadRenderer@@UAEPAXI@Z 170d3af0 f i c_effectquadrenderer.obj
 0002:00015b40       ??1CEffectQuadRenderer@@UAE@XZ 170d3b40 f   c_effectquadrenderer.obj
 0002:00015b70       ?Render@CEffectQuadRenderer@@UAEXW4EMaterialPhase@@@Z 170d3b70 f   c_effectquadrenderer.obj
 0002:00015d40       ?Allocate@?$CPool@VCEffectQuadRenderer@@@@QAEPAVCEffectQuadRenderer@@XZ 170d3d40 f i c_effectquadrenderer.obj
 0002:00015ed0       ?push_back@?$vector@PAVCEffectQuadRenderer@@V?$K2VectorAllocator@PAVCEffectQuadRenderer@@@@@std@@QAEXABQAVCEffectQuadRenderer@@@Z 170d3ed0 f i c_effectquadrenderer.obj
 0002:00015f80       ??1?$_Vector_iterator@PAVCEffectQuadRenderer@@V?$K2VectorAllocator@PAVCEffectQuadRenderer@@@@@std@@QAE@XZ 170d3f80 f i c_effectquadrenderer.obj
 0002:00015fb0       ??1?$_Vector_const_iterator@PAVCEffectQuadRenderer@@V?$K2VectorAllocator@PAVCEffectQuadRenderer@@@@@std@@QAE@XZ 170d3fb0 f i c_effectquadrenderer.obj
 0002:00015fe0       ??1?$_Ranit@PAVCEffectQuadRenderer@@HPBQAV1@ABQAV1@@std@@QAE@XZ 170d3fe0 f i c_effectquadrenderer.obj
 0002:00016010       ?end@?$vector@PAVCEffectQuadRenderer@@V?$K2VectorAllocator@PAVCEffectQuadRenderer@@@@@std@@QAE?AV?$_Vector_iterator@PAVCEffectQuadRenderer@@V?$K2VectorAllocator@PAVCEffectQuadRenderer@@@@@2@XZ 170d4010 f i c_effectquadrenderer.obj
 0002:00016060       ?capacity@?$vector@PAVCEffectQuadRenderer@@V?$K2VectorAllocator@PAVCEffectQuadRenderer@@@@@std@@QBEIXZ 170d4060 f i c_effectquadrenderer.obj
 0002:000160b0       ?size@?$vector@PAVCEffectQuadRenderer@@V?$K2VectorAllocator@PAVCEffectQuadRenderer@@@@@std@@QBEIXZ 170d40b0 f i c_effectquadrenderer.obj
 0002:00016100       ?insert@?$vector@PAVCEffectQuadRenderer@@V?$K2VectorAllocator@PAVCEffectQuadRenderer@@@@@std@@QAE?AV?$_Vector_iterator@PAVCEffectQuadRenderer@@V?$K2VectorAllocator@PAVCEffectQuadRenderer@@@@@2@V32@ABQAVCEffectQuadRenderer@@@Z 170d4100 f i c_effectquadrenderer.obj
 0002:00016270       ?begin@?$vector@PAVCEffectQuadRenderer@@V?$K2VectorAllocator@PAVCEffectQuadRenderer@@@@@std@@QAE?AV?$_Vector_iterator@PAVCEffectQuadRenderer@@V?$K2VectorAllocator@PAVCEffectQuadRenderer@@@@@2@XZ 170d4270 f i c_effectquadrenderer.obj
 0002:000162c0       ?_Ufill@?$vector@PAVCEffectQuadRenderer@@V?$K2VectorAllocator@PAVCEffectQuadRenderer@@@@@std@@IAEPAPAVCEffectQuadRenderer@@PAPAV3@IABQAV3@@Z 170d42c0 f i c_effectquadrenderer.obj
 0002:00016310       ?_Orphan_range@?$vector@PAVCEffectQuadRenderer@@V?$K2VectorAllocator@PAVCEffectQuadRenderer@@@@@std@@IBEXPAPAVCEffectQuadRenderer@@0@Z 170d4310 f i c_effectquadrenderer.obj
 0002:000163b0       ??0?$_Vector_iterator@PAVCEffectQuadRenderer@@V?$K2VectorAllocator@PAVCEffectQuadRenderer@@@@@std@@QAE@PAPAVCEffectQuadRenderer@@PBV_Container_base@1@@Z 170d43b0 f i c_effectquadrenderer.obj
 0002:000163f0       ??0?$_Vector_iterator@PAVCEffectQuadRenderer@@V?$K2VectorAllocator@PAVCEffectQuadRenderer@@@@@std@@QAE@ABV01@@Z 170d43f0 f i c_effectquadrenderer.obj
 0002:00016420       ??0?$_Vector_const_iterator@PAVCEffectQuadRenderer@@V?$K2VectorAllocator@PAVCEffectQuadRenderer@@@@@std@@QAE@ABV01@@Z 170d4420 f i c_effectquadrenderer.obj
 0002:00016460       ??0?$_Ranit@PAVCEffectQuadRenderer@@HPBQAV1@ABQAV1@@std@@QAE@ABU01@@Z 170d4460 f i c_effectquadrenderer.obj
 0002:00016490       ?_Insert_n@?$vector@PAVCEffectQuadRenderer@@V?$K2VectorAllocator@PAVCEffectQuadRenderer@@@@@std@@IAEXV?$_Vector_iterator@PAVCEffectQuadRenderer@@V?$K2VectorAllocator@PAVCEffectQuadRenderer@@@@@2@IABQAVCEffectQuadRenderer@@@Z 170d4490 f i c_effectquadrenderer.obj
 0002:00016940       ?_Destroy@?$vector@PAVCEffectQuadRenderer@@V?$K2VectorAllocator@PAVCEffectQuadRenderer@@@@@std@@IAEXPAPAVCEffectQuadRenderer@@0@Z 170d4940 f i c_effectquadrenderer.obj
 0002:00016980       ?deallocate@?$K2VectorAllocator@PAVCEffectQuadRenderer@@@@QAEXPAPAVCEffectQuadRenderer@@I@Z 170d4980 f i c_effectquadrenderer.obj
 0002:000169c0       ??$_Destroy_range@PAVCEffectQuadRenderer@@V?$K2VectorAllocator@PAVCEffectQuadRenderer@@@@@std@@YAXPAPAVCEffectQuadRenderer@@0AAV?$K2VectorAllocator@PAVCEffectQuadRenderer@@@@@Z 170d49c0 f i c_effectquadrenderer.obj
 0002:00016a10       ??H?$_Vector_iterator@PAVCEffectQuadRenderer@@V?$K2VectorAllocator@PAVCEffectQuadRenderer@@@@@std@@QBE?AV01@H@Z 170d4a10 f i c_effectquadrenderer.obj
 0002:00016ac0       ??G?$_Vector_iterator@PAVCEffectQuadRenderer@@V?$K2VectorAllocator@PAVCEffectQuadRenderer@@@@@std@@QBEHABV?$_Vector_const_iterator@PAVCEffectQuadRenderer@@V?$K2VectorAllocator@PAVCEffectQuadRenderer@@@@@1@@Z 170d4ac0 f i c_effectquadrenderer.obj
 0002:00016af0       ??0?$_Vector_const_iterator@PAVCEffectQuadRenderer@@V?$K2VectorAllocator@PAVCEffectQuadRenderer@@@@@std@@QAE@PAPAVCEffectQuadRenderer@@PBV_Container_base@1@@Z 170d4af0 f i c_effectquadrenderer.obj
 0002:00016bf0       ??0?$_Ranit@PAVCEffectQuadRenderer@@HPBQAV1@ABQAV1@@std@@QAE@XZ 170d4bf0 f i c_effectquadrenderer.obj
 0002:00016c20       ?max_size@?$vector@PAVCEffectQuadRenderer@@V?$K2VectorAllocator@PAVCEffectQuadRenderer@@@@@std@@QBEIXZ 170d4c20 f i c_effectquadrenderer.obj
 0002:00016c50       ?_Xlen@?$vector@PAVCEffectQuadRenderer@@V?$K2VectorAllocator@PAVCEffectQuadRenderer@@@@@std@@KAXXZ 170d4c50 f i c_effectquadrenderer.obj
 0002:00016d00       ?allocate@?$K2VectorAllocator@PAVCEffectQuadRenderer@@@@QAEPAPAVCEffectQuadRenderer@@I@Z 170d4d00 f i c_effectquadrenderer.obj
 0002:00016d50       ??Y?$_Vector_iterator@PAVCEffectQuadRenderer@@V?$K2VectorAllocator@PAVCEffectQuadRenderer@@@@@std@@QAEAAV01@H@Z 170d4d50 f i c_effectquadrenderer.obj
 0002:00016d80       ??G?$_Vector_const_iterator@PAVCEffectQuadRenderer@@V?$K2VectorAllocator@PAVCEffectQuadRenderer@@@@@std@@QBEHABV01@@Z 170d4d80 f i c_effectquadrenderer.obj
 0002:00016dc0       ?_Compat@?$_Vector_const_iterator@PAVCEffectQuadRenderer@@V?$K2VectorAllocator@PAVCEffectQuadRenderer@@@@@std@@QBEXABV12@@Z 170d4dc0 f i c_effectquadrenderer.obj
 0002:00016e70       ?max_size@?$allocator@PAVCEffectQuadRenderer@@@std@@QBEIXZ 170d4e70 f i c_effectquadrenderer.obj
 0002:00016eb0       ??Y?$_Vector_const_iterator@PAVCEffectQuadRenderer@@V?$K2VectorAllocator@PAVCEffectQuadRenderer@@@@@std@@QAEAAV01@H@Z 170d4eb0 f i c_effectquadrenderer.obj
 0002:00016fe0       ??$_Ptr_cat@PAPAVCEffectQuadRenderer@@PAPAV1@@std@@YA?AU_Scalar_ptr_iterator_tag@0@AAPAPAVCEffectQuadRenderer@@0@Z 170d4fe0 f i c_effectquadrenderer.obj
 0002:00017000       ??$_Destroy_range@PAVCEffectQuadRenderer@@V?$K2VectorAllocator@PAVCEffectQuadRenderer@@@@@std@@YAXPAPAVCEffectQuadRenderer@@0AAV?$K2VectorAllocator@PAVCEffectQuadRenderer@@@@U_Scalar_ptr_iterator_tag@0@@Z 170d5000 f i c_effectquadrenderer.obj
 0002:00017020       ??$unchecked_uninitialized_fill_n@PAPAVCEffectQuadRenderer@@IPAV1@V?$K2VectorAllocator@PAVCEffectQuadRenderer@@@@@stdext@@YAXPAPAVCEffectQuadRenderer@@IABQAV1@AAV?$K2VectorAllocator@PAVCEffectQuadRenderer@@@@@Z 170d5020 f i c_effectquadrenderer.obj
 0002:00017080       ??$_Umove@PAPAVCEffectQuadRenderer@@@?$vector@PAVCEffectQuadRenderer@@V?$K2VectorAllocator@PAVCEffectQuadRenderer@@@@@std@@IAEPAPAVCEffectQuadRenderer@@PAPAV2@00@Z 170d5080 f i c_effectquadrenderer.obj
 0002:000170c0       ??$fill@PAPAVCEffectQuadRenderer@@PAV1@@std@@YAXPAPAVCEffectQuadRenderer@@0ABQAV1@@Z 170d50c0 f i c_effectquadrenderer.obj
 0002:00017110       ??$_Unchecked_move_backward@PAPAVCEffectQuadRenderer@@PAPAV1@@stdext@@YAPAPAVCEffectQuadRenderer@@PAPAV1@00@Z 170d5110 f i c_effectquadrenderer.obj
 0002:000171a0       ??$_Checked_base@PAPAVCEffectQuadRenderer@@@std@@YAPAPAVCEffectQuadRenderer@@AAPAPAV1@@Z 170d51a0 f i c_effectquadrenderer.obj
 0002:000171d0       ??$_Iter_random@PAPAVCEffectQuadRenderer@@PAPAV1@@std@@YA?AUrandom_access_iterator_tag@0@ABQAPAVCEffectQuadRenderer@@0@Z 170d51d0 f i c_effectquadrenderer.obj
 0002:000171f0       ??$_Uninit_fill_n@PAPAVCEffectQuadRenderer@@IPAV1@V?$K2VectorAllocator@PAVCEffectQuadRenderer@@@@@std@@YAXPAPAVCEffectQuadRenderer@@IABQAV1@AAV?$K2VectorAllocator@PAVCEffectQuadRenderer@@@@U_Scalar_ptr_iterator_tag@0@U_Range_checked_iterator_tag@0@@Z 170d51f0 f i c_effectquadrenderer.obj
 0002:00017220       ??$_Unchecked_uninitialized_move@PAPAVCEffectQuadRenderer@@PAPAV1@V?$K2VectorAllocator@PAVCEffectQuadRenderer@@@@@stdext@@YAPAPAVCEffectQuadRenderer@@PAPAV1@00AAV?$K2VectorAllocator@PAVCEffectQuadRenderer@@@@@Z 170d5220 f i c_effectquadrenderer.obj
 0002:00017290       ??$_Fill@PAPAVCEffectQuadRenderer@@PAV1@@std@@YAXPAPAVCEffectQuadRenderer@@0ABQAV1@@Z 170d5290 f i c_effectquadrenderer.obj
 0002:000172f0       ??$_Move_cat@PAPAVCEffectQuadRenderer@@@std@@YA?AU_Undefined_move_tag@0@ABQAPAVCEffectQuadRenderer@@@Z 170d52f0 f i c_effectquadrenderer.obj
 0002:00017310       ??$_Move_backward_opt@PAPAVCEffectQuadRenderer@@PAPAV1@Urandom_access_iterator_tag@std@@U_Undefined_move_tag@3@@std@@YAPAPAVCEffectQuadRenderer@@PAPAV1@00Urandom_access_iterator_tag@0@U_Undefined_move_tag@0@U_Range_checked_iterator_tag@0@@Z 170d5310 f i c_effectquadrenderer.obj
 0002:00017370       ??$_Checked_base@PAPAVCEffectQuadRenderer@@@std@@YAPAPAVCEffectQuadRenderer@@AAPAPAV1@U_Unchanged_checked_iterator_base_type_tag@0@@Z 170d5370 f i c_effectquadrenderer.obj
 0002:00017390       ??$_Debug_range@PAPAVCEffectQuadRenderer@@@std@@YAXPAPAVCEffectQuadRenderer@@0PB_WI@Z 170d5390 f i c_effectquadrenderer.obj
 0002:000173e0       ??$unchecked_fill_n@PAPAVCEffectQuadRenderer@@IPAV1@@stdext@@YAXPAPAVCEffectQuadRenderer@@IABQAV1@@Z 170d53e0 f i c_effectquadrenderer.obj
 0002:00017430       ??$_Uninit_move@PAPAVCEffectQuadRenderer@@PAPAV1@V?$K2VectorAllocator@PAVCEffectQuadRenderer@@@@U_Undefined_move_tag@std@@@std@@YAPAPAVCEffectQuadRenderer@@PAPAV1@00AAV?$K2VectorAllocator@PAVCEffectQuadRenderer@@@@U_Undefined_move_tag@0@U_Range_checked_iterator_tag@0@@Z 170d5430 f i c_effectquadrenderer.obj
 0002:00017470       ??$_Copy_backward_opt@PAPAVCEffectQuadRenderer@@PAPAV1@Urandom_access_iterator_tag@std@@@std@@YAPAPAVCEffectQuadRenderer@@PAPAV1@00Urandom_access_iterator_tag@0@U_Scalar_ptr_iterator_tag@0@U_Range_checked_iterator_tag@0@@Z 170d5470 f i c_effectquadrenderer.obj
 0002:00017520       ??$_Debug_pointer@PAVCEffectQuadRenderer@@@std@@YAXPAPAVCEffectQuadRenderer@@PB_WI@Z 170d5520 f i c_effectquadrenderer.obj
 0002:00017560       ??$_Iter_cat@PAPAVCEffectQuadRenderer@@@std@@YA?AUrandom_access_iterator_tag@0@ABQAPAVCEffectQuadRenderer@@@Z 170d5560 f i c_effectquadrenderer.obj
 0002:00017580       ??$_Debug_range2@PAPAVCEffectQuadRenderer@@@std@@YAXPAPAVCEffectQuadRenderer@@0PB_WIUrandom_access_iterator_tag@0@@Z 170d5580 f i c_effectquadrenderer.obj
 0002:00017600       ??$_Fill_n@PAPAVCEffectQuadRenderer@@IPAV1@@std@@YAXPAPAVCEffectQuadRenderer@@IABQAV1@Urandom_access_iterator_tag@0@U_Range_checked_iterator_tag@0@@Z 170d5600 f i c_effectquadrenderer.obj
 0002:00017660       ??$unchecked_uninitialized_copy@PAPAVCEffectQuadRenderer@@PAPAV1@V?$K2VectorAllocator@PAVCEffectQuadRenderer@@@@@stdext@@YAPAPAVCEffectQuadRenderer@@PAPAV1@00AAV?$K2VectorAllocator@PAVCEffectQuadRenderer@@@@@Z 170d5660 f i c_effectquadrenderer.obj
 0002:000176d0       ??$_Fill_n@PAPAVCEffectQuadRenderer@@IPAV1@@std@@YAXPAPAVCEffectQuadRenderer@@IABQAV1@U_Range_checked_iterator_tag@0@@Z 170d56d0 f i c_effectquadrenderer.obj
 0002:00017720       ??$_Uninit_copy@PAPAVCEffectQuadRenderer@@PAPAV1@V?$K2VectorAllocator@PAVCEffectQuadRenderer@@@@@std@@YAPAPAVCEffectQuadRenderer@@PAPAV1@00AAV?$K2VectorAllocator@PAVCEffectQuadRenderer@@@@U_Scalar_ptr_iterator_tag@0@U_Range_checked_iterator_tag@0@@Z 170d5720 f i c_effectquadrenderer.obj
 0002:000177c0       ??0?$CPool@VCEffectQuadRenderer@@@@QAE@II@Z 170d57c0 f i c_effectquadrenderer.obj
 0002:00017880       ??0?$vector@PAVCEffectQuadRenderer@@V?$K2VectorAllocator@PAVCEffectQuadRenderer@@@@@@QAE@XZ 170d5880 f i c_effectquadrenderer.obj
 0002:000178b0       ??0?$vector@PAVCEffectQuadRenderer@@V?$K2VectorAllocator@PAVCEffectQuadRenderer@@@@@std@@QAE@XZ 170d58b0 f i c_effectquadrenderer.obj
 0002:00017940       ??1?$_Vector_val@PAVCEffectQuadRenderer@@V?$K2VectorAllocator@PAVCEffectQuadRenderer@@@@@std@@QAE@XZ 170d5940 f i c_effectquadrenderer.obj
 0002:000179c0       ??1?$K2VectorAllocator@PAVCEffectQuadRenderer@@@@QAE@XZ 170d59c0 f i c_effectquadrenderer.obj
 0002:000179e0       ?_Buy@?$vector@PAVCEffectQuadRenderer@@V?$K2VectorAllocator@PAVCEffectQuadRenderer@@@@@std@@IAE_NI@Z 170d59e0 f i c_effectquadrenderer.obj
 0002:00017a90       ??0?$_Vector_val@PAVCEffectQuadRenderer@@V?$K2VectorAllocator@PAVCEffectQuadRenderer@@@@@std@@IAE@V?$K2VectorAllocator@PAVCEffectQuadRenderer@@@@@Z 170d5a90 f i c_effectquadrenderer.obj
 0002:00017b30       ??0?$K2VectorAllocator@PAVCEffectQuadRenderer@@@@QAE@XZ 170d5b30 f i c_effectquadrenderer.obj
 0002:00017b60       ??0?$K2VectorAllocator@PAVCEffectQuadRenderer@@@@QAE@ABV0@@Z 170d5b60 f i c_effectquadrenderer.obj
 0002:00017b90       ??0?$allocator@PAVCEffectQuadRenderer@@@std@@QAE@XZ 170d5b90 f i c_effectquadrenderer.obj
 0002:00017bb0       ??0?$allocator@PAVCEffectQuadRenderer@@@std@@QAE@ABV01@@Z 170d5bb0 f i c_effectquadrenderer.obj
 0002:00017bd0       ??1?$CPool@VCEffectQuadRenderer@@@@QAE@XZ 170d5bd0 f i c_effectquadrenderer.obj
 0002:00017c80       ??1?$vector@PAVCEffectQuadRenderer@@V?$K2VectorAllocator@PAVCEffectQuadRenderer@@@@@@QAE@XZ 170d5c80 f i c_effectquadrenderer.obj
 0002:00017cb0       ??1?$vector@PAVCEffectQuadRenderer@@V?$K2VectorAllocator@PAVCEffectQuadRenderer@@@@@std@@QAE@XZ 170d5cb0 f i c_effectquadrenderer.obj
 0002:00017d30       ?_Tidy@?$vector@PAVCEffectQuadRenderer@@V?$K2VectorAllocator@PAVCEffectQuadRenderer@@@@@std@@IAEXXZ 170d5d30 f i c_effectquadrenderer.obj
 0002:00017dd0       ?Reset@?$CPool@VCEffectQuadRenderer@@@@QAEXXZ 170d5dd0 f i c_effectquadrenderer.obj
 0002:00017ef0       ?clear@?$vector@PAVCEffectQuadRenderer@@V?$K2VectorAllocator@PAVCEffectQuadRenderer@@@@@std@@QAEXXZ 170d5ef0 f i c_effectquadrenderer.obj
 0002:00017fb0       ??D?$_Vector_iterator@PAVCEffectQuadRenderer@@V?$K2VectorAllocator@PAVCEffectQuadRenderer@@@@@std@@QBEAAPAVCEffectQuadRenderer@@XZ 170d5fb0 f i c_effectquadrenderer.obj
 0002:00017fe0       ??E?$_Vector_iterator@PAVCEffectQuadRenderer@@V?$K2VectorAllocator@PAVCEffectQuadRenderer@@@@@std@@QAEAAV01@XZ 170d5fe0 f i c_effectquadrenderer.obj
 0002:00018010       ??9?$_Vector_const_iterator@PAVCEffectQuadRenderer@@V?$K2VectorAllocator@PAVCEffectQuadRenderer@@@@@std@@QBE_NABV01@@Z 170d6010 f i c_effectquadrenderer.obj
 0002:00018050       ?erase@?$vector@PAVCEffectQuadRenderer@@V?$K2VectorAllocator@PAVCEffectQuadRenderer@@@@@std@@QAE?AV?$_Vector_iterator@PAVCEffectQuadRenderer@@V?$K2VectorAllocator@PAVCEffectQuadRenderer@@@@@2@V32@0@Z 170d6050 f i c_effectquadrenderer.obj
 0002:000181d0       ??D?$_Vector_const_iterator@PAVCEffectQuadRenderer@@V?$K2VectorAllocator@PAVCEffectQuadRenderer@@@@@std@@QBEABQAVCEffectQuadRenderer@@XZ 170d61d0 f i c_effectquadrenderer.obj
 0002:00018290       ??E?$_Vector_const_iterator@PAVCEffectQuadRenderer@@V?$K2VectorAllocator@PAVCEffectQuadRenderer@@@@@std@@QAEAAV01@XZ 170d6290 f i c_effectquadrenderer.obj
 0002:00018380       ??8?$_Vector_const_iterator@PAVCEffectQuadRenderer@@V?$K2VectorAllocator@PAVCEffectQuadRenderer@@@@@std@@QBE_NABV01@@Z 170d6380 f i c_effectquadrenderer.obj
 0002:000183c0       ??M?$_Vector_const_iterator@PAVCEffectQuadRenderer@@V?$K2VectorAllocator@PAVCEffectQuadRenderer@@@@@std@@QBE_NABV01@@Z 170d63c0 f i c_effectquadrenderer.obj
 0002:00018400       ??$unchecked_copy@PAPAVCEffectQuadRenderer@@PAPAV1@@stdext@@YAPAPAVCEffectQuadRenderer@@PAPAV1@00@Z 170d6400 f i c_effectquadrenderer.obj
 0002:00018490       ??$_Copy_opt@PAPAVCEffectQuadRenderer@@PAPAV1@Urandom_access_iterator_tag@std@@@std@@YAPAPAVCEffectQuadRenderer@@PAPAV1@00Urandom_access_iterator_tag@0@U_Scalar_ptr_iterator_tag@0@U_Range_checked_iterator_tag@0@@Z 170d6490 f i c_effectquadrenderer.obj
 0002:00018540       ??2CEffectTriangleRenderer@@SAPAXIPBD00F@Z 170d6540 f   c_effecttrianglerenderer.obj
 0002:00018560       ??0CEffectTriangleRenderer@@QAE@IIIHM@Z 170d6560 f   c_effecttrianglerenderer.obj
 0002:000185b0       ??_ECEffectTriangleRenderer@@UAEPAXI@Z 170d65b0 f i c_effecttrianglerenderer.obj
 0002:000185b0       ??_GCEffectTriangleRenderer@@UAEPAXI@Z 170d65b0 f i c_effecttrianglerenderer.obj
 0002:00018600       ??1CEffectTriangleRenderer@@UAE@XZ 170d6600 f   c_effecttrianglerenderer.obj
 0002:00018630       ?Render@CEffectTriangleRenderer@@UAEXW4EMaterialPhase@@@Z 170d6630 f   c_effecttrianglerenderer.obj
 0002:000187c0       ?Allocate@?$CPool@VCEffectTriangleRenderer@@@@QAEPAVCEffectTriangleRenderer@@XZ 170d67c0 f i c_effecttrianglerenderer.obj
 0002:00018950       ?push_back@?$vector@PAVCEffectTriangleRenderer@@V?$K2VectorAllocator@PAVCEffectTriangleRenderer@@@@@std@@QAEXABQAVCEffectTriangleRenderer@@@Z 170d6950 f i c_effecttrianglerenderer.obj
 0002:00018a00       ??1?$_Vector_iterator@PAVCEffectTriangleRenderer@@V?$K2VectorAllocator@PAVCEffectTriangleRenderer@@@@@std@@QAE@XZ 170d6a00 f i c_effecttrianglerenderer.obj
 0002:00018a30       ??1?$_Vector_const_iterator@PAVCEffectTriangleRenderer@@V?$K2VectorAllocator@PAVCEffectTriangleRenderer@@@@@std@@QAE@XZ 170d6a30 f i c_effecttrianglerenderer.obj
 0002:00018a60       ??1?$_Ranit@PAVCEffectTriangleRenderer@@HPBQAV1@ABQAV1@@std@@QAE@XZ 170d6a60 f i c_effecttrianglerenderer.obj
 0002:00018a90       ?end@?$vector@PAVCEffectTriangleRenderer@@V?$K2VectorAllocator@PAVCEffectTriangleRenderer@@@@@std@@QAE?AV?$_Vector_iterator@PAVCEffectTriangleRenderer@@V?$K2VectorAllocator@PAVCEffectTriangleRenderer@@@@@2@XZ 170d6a90 f i c_effecttrianglerenderer.obj
 0002:00018ae0       ?capacity@?$vector@PAVCEffectTriangleRenderer@@V?$K2VectorAllocator@PAVCEffectTriangleRenderer@@@@@std@@QBEIXZ 170d6ae0 f i c_effecttrianglerenderer.obj
 0002:00018b30       ?size@?$vector@PAVCEffectTriangleRenderer@@V?$K2VectorAllocator@PAVCEffectTriangleRenderer@@@@@std@@QBEIXZ 170d6b30 f i c_effecttrianglerenderer.obj
 0002:00018b80       ?insert@?$vector@PAVCEffectTriangleRenderer@@V?$K2VectorAllocator@PAVCEffectTriangleRenderer@@@@@std@@QAE?AV?$_Vector_iterator@PAVCEffectTriangleRenderer@@V?$K2VectorAllocator@PAVCEffectTriangleRenderer@@@@@2@V32@ABQAVCEffectTriangleRenderer@@@Z 170d6b80 f i c_effecttrianglerenderer.obj
 0002:00018cf0       ?begin@?$vector@PAVCEffectTriangleRenderer@@V?$K2VectorAllocator@PAVCEffectTriangleRenderer@@@@@std@@QAE?AV?$_Vector_iterator@PAVCEffectTriangleRenderer@@V?$K2VectorAllocator@PAVCEffectTriangleRenderer@@@@@2@XZ 170d6cf0 f i c_effecttrianglerenderer.obj
 0002:00018d40       ?_Ufill@?$vector@PAVCEffectTriangleRenderer@@V?$K2VectorAllocator@PAVCEffectTriangleRenderer@@@@@std@@IAEPAPAVCEffectTriangleRenderer@@PAPAV3@IABQAV3@@Z 170d6d40 f i c_effecttrianglerenderer.obj
 0002:00018d90       ?_Orphan_range@?$vector@PAVCEffectTriangleRenderer@@V?$K2VectorAllocator@PAVCEffectTriangleRenderer@@@@@std@@IBEXPAPAVCEffectTriangleRenderer@@0@Z 170d6d90 f i c_effecttrianglerenderer.obj
 0002:00018e30       ??0?$_Vector_iterator@PAVCEffectTriangleRenderer@@V?$K2VectorAllocator@PAVCEffectTriangleRenderer@@@@@std@@QAE@PAPAVCEffectTriangleRenderer@@PBV_Container_base@1@@Z 170d6e30 f i c_effecttrianglerenderer.obj
 0002:00018e70       ??0?$_Vector_iterator@PAVCEffectTriangleRenderer@@V?$K2VectorAllocator@PAVCEffectTriangleRenderer@@@@@std@@QAE@ABV01@@Z 170d6e70 f i c_effecttrianglerenderer.obj
 0002:00018ea0       ??0?$_Vector_const_iterator@PAVCEffectTriangleRenderer@@V?$K2VectorAllocator@PAVCEffectTriangleRenderer@@@@@std@@QAE@ABV01@@Z 170d6ea0 f i c_effecttrianglerenderer.obj
 0002:00018ee0       ??0?$_Ranit@PAVCEffectTriangleRenderer@@HPBQAV1@ABQAV1@@std@@QAE@ABU01@@Z 170d6ee0 f i c_effecttrianglerenderer.obj
 0002:00018f10       ?_Insert_n@?$vector@PAVCEffectTriangleRenderer@@V?$K2VectorAllocator@PAVCEffectTriangleRenderer@@@@@std@@IAEXV?$_Vector_iterator@PAVCEffectTriangleRenderer@@V?$K2VectorAllocator@PAVCEffectTriangleRenderer@@@@@2@IABQAVCEffectTriangleRenderer@@@Z 170d6f10 f i c_effecttrianglerenderer.obj
 0002:000193c0       ?_Destroy@?$vector@PAVCEffectTriangleRenderer@@V?$K2VectorAllocator@PAVCEffectTriangleRenderer@@@@@std@@IAEXPAPAVCEffectTriangleRenderer@@0@Z 170d73c0 f i c_effecttrianglerenderer.obj
 0002:00019400       ?deallocate@?$K2VectorAllocator@PAVCEffectTriangleRenderer@@@@QAEXPAPAVCEffectTriangleRenderer@@I@Z 170d7400 f i c_effecttrianglerenderer.obj
 0002:00019440       ??$_Destroy_range@PAVCEffectTriangleRenderer@@V?$K2VectorAllocator@PAVCEffectTriangleRenderer@@@@@std@@YAXPAPAVCEffectTriangleRenderer@@0AAV?$K2VectorAllocator@PAVCEffectTriangleRenderer@@@@@Z 170d7440 f i c_effecttrianglerenderer.obj
 0002:00019490       ??H?$_Vector_iterator@PAVCEffectTriangleRenderer@@V?$K2VectorAllocator@PAVCEffectTriangleRenderer@@@@@std@@QBE?AV01@H@Z 170d7490 f i c_effecttrianglerenderer.obj
 0002:00019540       ??G?$_Vector_iterator@PAVCEffectTriangleRenderer@@V?$K2VectorAllocator@PAVCEffectTriangleRenderer@@@@@std@@QBEHABV?$_Vector_const_iterator@PAVCEffectTriangleRenderer@@V?$K2VectorAllocator@PAVCEffectTriangleRenderer@@@@@1@@Z 170d7540 f i c_effecttrianglerenderer.obj
 0002:00019570       ??0?$_Vector_const_iterator@PAVCEffectTriangleRenderer@@V?$K2VectorAllocator@PAVCEffectTriangleRenderer@@@@@std@@QAE@PAPAVCEffectTriangleRenderer@@PBV_Container_base@1@@Z 170d7570 f i c_effecttrianglerenderer.obj
 0002:00019670       ??0?$_Ranit@PAVCEffectTriangleRenderer@@HPBQAV1@ABQAV1@@std@@QAE@XZ 170d7670 f i c_effecttrianglerenderer.obj
 0002:000196a0       ?max_size@?$vector@PAVCEffectTriangleRenderer@@V?$K2VectorAllocator@PAVCEffectTriangleRenderer@@@@@std@@QBEIXZ 170d76a0 f i c_effecttrianglerenderer.obj
 0002:000196d0       ?_Xlen@?$vector@PAVCEffectTriangleRenderer@@V?$K2VectorAllocator@PAVCEffectTriangleRenderer@@@@@std@@KAXXZ 170d76d0 f i c_effecttrianglerenderer.obj
 0002:00019780       ?allocate@?$K2VectorAllocator@PAVCEffectTriangleRenderer@@@@QAEPAPAVCEffectTriangleRenderer@@I@Z 170d7780 f i c_effecttrianglerenderer.obj
 0002:000197d0       ??Y?$_Vector_iterator@PAVCEffectTriangleRenderer@@V?$K2VectorAllocator@PAVCEffectTriangleRenderer@@@@@std@@QAEAAV01@H@Z 170d77d0 f i c_effecttrianglerenderer.obj
 0002:00019800       ??G?$_Vector_const_iterator@PAVCEffectTriangleRenderer@@V?$K2VectorAllocator@PAVCEffectTriangleRenderer@@@@@std@@QBEHABV01@@Z 170d7800 f i c_effecttrianglerenderer.obj
 0002:00019840       ?_Compat@?$_Vector_const_iterator@PAVCEffectTriangleRenderer@@V?$K2VectorAllocator@PAVCEffectTriangleRenderer@@@@@std@@QBEXABV12@@Z 170d7840 f i c_effecttrianglerenderer.obj
 0002:000198f0       ?max_size@?$allocator@PAVCEffectTriangleRenderer@@@std@@QBEIXZ 170d78f0 f i c_effecttrianglerenderer.obj
 0002:00019930       ??Y?$_Vector_const_iterator@PAVCEffectTriangleRenderer@@V?$K2VectorAllocator@PAVCEffectTriangleRenderer@@@@@std@@QAEAAV01@H@Z 170d7930 f i c_effecttrianglerenderer.obj
 0002:00019a60       ??$_Ptr_cat@PAPAVCEffectTriangleRenderer@@PAPAV1@@std@@YA?AU_Scalar_ptr_iterator_tag@0@AAPAPAVCEffectTriangleRenderer@@0@Z 170d7a60 f i c_effecttrianglerenderer.obj
 0002:00019a80       ??$_Destroy_range@PAVCEffectTriangleRenderer@@V?$K2VectorAllocator@PAVCEffectTriangleRenderer@@@@@std@@YAXPAPAVCEffectTriangleRenderer@@0AAV?$K2VectorAllocator@PAVCEffectTriangleRenderer@@@@U_Scalar_ptr_iterator_tag@0@@Z 170d7a80 f i c_effecttrianglerenderer.obj
 0002:00019aa0       ??$unchecked_uninitialized_fill_n@PAPAVCEffectTriangleRenderer@@IPAV1@V?$K2VectorAllocator@PAVCEffectTriangleRenderer@@@@@stdext@@YAXPAPAVCEffectTriangleRenderer@@IABQAV1@AAV?$K2VectorAllocator@PAVCEffectTriangleRenderer@@@@@Z 170d7aa0 f i c_effecttrianglerenderer.obj
 0002:00019b00       ??$_Umove@PAPAVCEffectTriangleRenderer@@@?$vector@PAVCEffectTriangleRenderer@@V?$K2VectorAllocator@PAVCEffectTriangleRenderer@@@@@std@@IAEPAPAVCEffectTriangleRenderer@@PAPAV2@00@Z 170d7b00 f i c_effecttrianglerenderer.obj
 0002:00019b40       ??$fill@PAPAVCEffectTriangleRenderer@@PAV1@@std@@YAXPAPAVCEffectTriangleRenderer@@0ABQAV1@@Z 170d7b40 f i c_effecttrianglerenderer.obj
 0002:00019b90       ??$_Unchecked_move_backward@PAPAVCEffectTriangleRenderer@@PAPAV1@@stdext@@YAPAPAVCEffectTriangleRenderer@@PAPAV1@00@Z 170d7b90 f i c_effecttrianglerenderer.obj
 0002:00019c20       ??$_Checked_base@PAPAVCEffectTriangleRenderer@@@std@@YAPAPAVCEffectTriangleRenderer@@AAPAPAV1@@Z 170d7c20 f i c_effecttrianglerenderer.obj
 0002:00019c50       ??$_Iter_random@PAPAVCEffectTriangleRenderer@@PAPAV1@@std@@YA?AUrandom_access_iterator_tag@0@ABQAPAVCEffectTriangleRenderer@@0@Z 170d7c50 f i c_effecttrianglerenderer.obj
 0002:00019c70       ??$_Uninit_fill_n@PAPAVCEffectTriangleRenderer@@IPAV1@V?$K2VectorAllocator@PAVCEffectTriangleRenderer@@@@@std@@YAXPAPAVCEffectTriangleRenderer@@IABQAV1@AAV?$K2VectorAllocator@PAVCEffectTriangleRenderer@@@@U_Scalar_ptr_iterator_tag@0@U_Range_checked_iterator_tag@0@@Z 170d7c70 f i c_effecttrianglerenderer.obj
 0002:00019ca0       ??$_Unchecked_uninitialized_move@PAPAVCEffectTriangleRenderer@@PAPAV1@V?$K2VectorAllocator@PAVCEffectTriangleRenderer@@@@@stdext@@YAPAPAVCEffectTriangleRenderer@@PAPAV1@00AAV?$K2VectorAllocator@PAVCEffectTriangleRenderer@@@@@Z 170d7ca0 f i c_effecttrianglerenderer.obj
 0002:00019d10       ??$_Fill@PAPAVCEffectTriangleRenderer@@PAV1@@std@@YAXPAPAVCEffectTriangleRenderer@@0ABQAV1@@Z 170d7d10 f i c_effecttrianglerenderer.obj
 0002:00019d70       ??$_Move_cat@PAPAVCEffectTriangleRenderer@@@std@@YA?AU_Undefined_move_tag@0@ABQAPAVCEffectTriangleRenderer@@@Z 170d7d70 f i c_effecttrianglerenderer.obj
 0002:00019d90       ??$_Move_backward_opt@PAPAVCEffectTriangleRenderer@@PAPAV1@Urandom_access_iterator_tag@std@@U_Undefined_move_tag@3@@std@@YAPAPAVCEffectTriangleRenderer@@PAPAV1@00Urandom_access_iterator_tag@0@U_Undefined_move_tag@0@U_Range_checked_iterator_tag@0@@Z 170d7d90 f i c_effecttrianglerenderer.obj
 0002:00019df0       ??$_Checked_base@PAPAVCEffectTriangleRenderer@@@std@@YAPAPAVCEffectTriangleRenderer@@AAPAPAV1@U_Unchanged_checked_iterator_base_type_tag@0@@Z 170d7df0 f i c_effecttrianglerenderer.obj
 0002:00019e10       ??$_Debug_range@PAPAVCEffectTriangleRenderer@@@std@@YAXPAPAVCEffectTriangleRenderer@@0PB_WI@Z 170d7e10 f i c_effecttrianglerenderer.obj
 0002:00019e60       ??$unchecked_fill_n@PAPAVCEffectTriangleRenderer@@IPAV1@@stdext@@YAXPAPAVCEffectTriangleRenderer@@IABQAV1@@Z 170d7e60 f i c_effecttrianglerenderer.obj
 0002:00019eb0       ??$_Uninit_move@PAPAVCEffectTriangleRenderer@@PAPAV1@V?$K2VectorAllocator@PAVCEffectTriangleRenderer@@@@U_Undefined_move_tag@std@@@std@@YAPAPAVCEffectTriangleRenderer@@PAPAV1@00AAV?$K2VectorAllocator@PAVCEffectTriangleRenderer@@@@U_Undefined_move_tag@0@U_Range_checked_iterator_tag@0@@Z 170d7eb0 f i c_effecttrianglerenderer.obj
 0002:00019ef0       ??$_Copy_backward_opt@PAPAVCEffectTriangleRenderer@@PAPAV1@Urandom_access_iterator_tag@std@@@std@@YAPAPAVCEffectTriangleRenderer@@PAPAV1@00Urandom_access_iterator_tag@0@U_Scalar_ptr_iterator_tag@0@U_Range_checked_iterator_tag@0@@Z 170d7ef0 f i c_effecttrianglerenderer.obj
 0002:00019fa0       ??$_Debug_pointer@PAVCEffectTriangleRenderer@@@std@@YAXPAPAVCEffectTriangleRenderer@@PB_WI@Z 170d7fa0 f i c_effecttrianglerenderer.obj
 0002:00019fe0       ??$_Iter_cat@PAPAVCEffectTriangleRenderer@@@std@@YA?AUrandom_access_iterator_tag@0@ABQAPAVCEffectTriangleRenderer@@@Z 170d7fe0 f i c_effecttrianglerenderer.obj
 0002:0001a000       ??$_Debug_range2@PAPAVCEffectTriangleRenderer@@@std@@YAXPAPAVCEffectTriangleRenderer@@0PB_WIUrandom_access_iterator_tag@0@@Z 170d8000 f i c_effecttrianglerenderer.obj
 0002:0001a080       ??$_Fill_n@PAPAVCEffectTriangleRenderer@@IPAV1@@std@@YAXPAPAVCEffectTriangleRenderer@@IABQAV1@Urandom_access_iterator_tag@0@U_Range_checked_iterator_tag@0@@Z 170d8080 f i c_effecttrianglerenderer.obj
 0002:0001a0e0       ??$unchecked_uninitialized_copy@PAPAVCEffectTriangleRenderer@@PAPAV1@V?$K2VectorAllocator@PAVCEffectTriangleRenderer@@@@@stdext@@YAPAPAVCEffectTriangleRenderer@@PAPAV1@00AAV?$K2VectorAllocator@PAVCEffectTriangleRenderer@@@@@Z 170d80e0 f i c_effecttrianglerenderer.obj
 0002:0001a150       ??$_Fill_n@PAPAVCEffectTriangleRenderer@@IPAV1@@std@@YAXPAPAVCEffectTriangleRenderer@@IABQAV1@U_Range_checked_iterator_tag@0@@Z 170d8150 f i c_effecttrianglerenderer.obj
 0002:0001a1a0       ??$_Uninit_copy@PAPAVCEffectTriangleRenderer@@PAPAV1@V?$K2VectorAllocator@PAVCEffectTriangleRenderer@@@@@std@@YAPAPAVCEffectTriangleRenderer@@PAPAV1@00AAV?$K2VectorAllocator@PAVCEffectTriangleRenderer@@@@U_Scalar_ptr_iterator_tag@0@U_Range_checked_iterator_tag@0@@Z 170d81a0 f i c_effecttrianglerenderer.obj
 0002:0001a240       ??0?$CPool@VCEffectTriangleRenderer@@@@QAE@II@Z 170d8240 f i c_effecttrianglerenderer.obj
 0002:0001a300       ??0?$vector@PAVCEffectTriangleRenderer@@V?$K2VectorAllocator@PAVCEffectTriangleRenderer@@@@@@QAE@XZ 170d8300 f i c_effecttrianglerenderer.obj
 0002:0001a330       ??0?$vector@PAVCEffectTriangleRenderer@@V?$K2VectorAllocator@PAVCEffectTriangleRenderer@@@@@std@@QAE@XZ 170d8330 f i c_effecttrianglerenderer.obj
 0002:0001a3c0       ??1?$_Vector_val@PAVCEffectTriangleRenderer@@V?$K2VectorAllocator@PAVCEffectTriangleRenderer@@@@@std@@QAE@XZ 170d83c0 f i c_effecttrianglerenderer.obj
 0002:0001a440       ??1?$K2VectorAllocator@PAVCEffectTriangleRenderer@@@@QAE@XZ 170d8440 f i c_effecttrianglerenderer.obj
 0002:0001a460       ?_Buy@?$vector@PAVCEffectTriangleRenderer@@V?$K2VectorAllocator@PAVCEffectTriangleRenderer@@@@@std@@IAE_NI@Z 170d8460 f i c_effecttrianglerenderer.obj
 0002:0001a510       ??0?$_Vector_val@PAVCEffectTriangleRenderer@@V?$K2VectorAllocator@PAVCEffectTriangleRenderer@@@@@std@@IAE@V?$K2VectorAllocator@PAVCEffectTriangleRenderer@@@@@Z 170d8510 f i c_effecttrianglerenderer.obj
 0002:0001a5b0       ??0?$K2VectorAllocator@PAVCEffectTriangleRenderer@@@@QAE@XZ 170d85b0 f i c_effecttrianglerenderer.obj
 0002:0001a5e0       ??0?$K2VectorAllocator@PAVCEffectTriangleRenderer@@@@QAE@ABV0@@Z 170d85e0 f i c_effecttrianglerenderer.obj
 0002:0001a610       ??0?$allocator@PAVCEffectTriangleRenderer@@@std@@QAE@XZ 170d8610 f i c_effecttrianglerenderer.obj
 0002:0001a630       ??0?$allocator@PAVCEffectTriangleRenderer@@@std@@QAE@ABV01@@Z 170d8630 f i c_effecttrianglerenderer.obj
 0002:0001a650       ??1?$CPool@VCEffectTriangleRenderer@@@@QAE@XZ 170d8650 f i c_effecttrianglerenderer.obj
 0002:0001a700       ??1?$vector@PAVCEffectTriangleRenderer@@V?$K2VectorAllocator@PAVCEffectTriangleRenderer@@@@@@QAE@XZ 170d8700 f i c_effecttrianglerenderer.obj
 0002:0001a730       ??1?$vector@PAVCEffectTriangleRenderer@@V?$K2VectorAllocator@PAVCEffectTriangleRenderer@@@@@std@@QAE@XZ 170d8730 f i c_effecttrianglerenderer.obj
 0002:0001a7b0       ?_Tidy@?$vector@PAVCEffectTriangleRenderer@@V?$K2VectorAllocator@PAVCEffectTriangleRenderer@@@@@std@@IAEXXZ 170d87b0 f i c_effecttrianglerenderer.obj
 0002:0001a850       ?Reset@?$CPool@VCEffectTriangleRenderer@@@@QAEXXZ 170d8850 f i c_effecttrianglerenderer.obj
 0002:0001a970       ?clear@?$vector@PAVCEffectTriangleRenderer@@V?$K2VectorAllocator@PAVCEffectTriangleRenderer@@@@@std@@QAEXXZ 170d8970 f i c_effecttrianglerenderer.obj
 0002:0001aa30       ??D?$_Vector_iterator@PAVCEffectTriangleRenderer@@V?$K2VectorAllocator@PAVCEffectTriangleRenderer@@@@@std@@QBEAAPAVCEffectTriangleRenderer@@XZ 170d8a30 f i c_effecttrianglerenderer.obj
 0002:0001aa60       ??E?$_Vector_iterator@PAVCEffectTriangleRenderer@@V?$K2VectorAllocator@PAVCEffectTriangleRenderer@@@@@std@@QAEAAV01@XZ 170d8a60 f i c_effecttrianglerenderer.obj
 0002:0001aa90       ??9?$_Vector_const_iterator@PAVCEffectTriangleRenderer@@V?$K2VectorAllocator@PAVCEffectTriangleRenderer@@@@@std@@QBE_NABV01@@Z 170d8a90 f i c_effecttrianglerenderer.obj
 0002:0001aad0       ?erase@?$vector@PAVCEffectTriangleRenderer@@V?$K2VectorAllocator@PAVCEffectTriangleRenderer@@@@@std@@QAE?AV?$_Vector_iterator@PAVCEffectTriangleRenderer@@V?$K2VectorAllocator@PAVCEffectTriangleRenderer@@@@@2@V32@0@Z 170d8ad0 f i c_effecttrianglerenderer.obj
 0002:0001ac50       ??D?$_Vector_const_iterator@PAVCEffectTriangleRenderer@@V?$K2VectorAllocator@PAVCEffectTriangleRenderer@@@@@std@@QBEABQAVCEffectTriangleRenderer@@XZ 170d8c50 f i c_effecttrianglerenderer.obj
 0002:0001ad10       ??E?$_Vector_const_iterator@PAVCEffectTriangleRenderer@@V?$K2VectorAllocator@PAVCEffectTriangleRenderer@@@@@std@@QAEAAV01@XZ 170d8d10 f i c_effecttrianglerenderer.obj
 0002:0001ae00       ??8?$_Vector_const_iterator@PAVCEffectTriangleRenderer@@V?$K2VectorAllocator@PAVCEffectTriangleRenderer@@@@@std@@QBE_NABV01@@Z 170d8e00 f i c_effecttrianglerenderer.obj
 0002:0001ae40       ??M?$_Vector_const_iterator@PAVCEffectTriangleRenderer@@V?$K2VectorAllocator@PAVCEffectTriangleRenderer@@@@@std@@QBE_NABV01@@Z 170d8e40 f i c_effecttrianglerenderer.obj
 0002:0001ae80       ??$unchecked_copy@PAPAVCEffectTriangleRenderer@@PAPAV1@@stdext@@YAPAPAVCEffectTriangleRenderer@@PAPAV1@00@Z 170d8e80 f i c_effecttrianglerenderer.obj
 0002:0001af10       ??$_Copy_opt@PAPAVCEffectTriangleRenderer@@PAPAV1@Urandom_access_iterator_tag@std@@@std@@YAPAPAVCEffectTriangleRenderer@@PAPAV1@00Urandom_access_iterator_tag@0@U_Scalar_ptr_iterator_tag@0@U_Range_checked_iterator_tag@0@@Z 170d8f10 f i c_effecttrianglerenderer.obj
 0002:0001afc0       ??2CExtendedTriangleRenderer@@SAPAXIPBD00F@Z 170d8fc0 f   c_extendedtrianglerenderer.obj
 0002:0001afe0       ??0CExtendedTriangleRenderer@@QAE@IIIHM@Z 170d8fe0 f   c_extendedtrianglerenderer.obj
 0002:0001b030       ??_GCExtendedTriangleRenderer@@UAEPAXI@Z 170d9030 f i c_extendedtrianglerenderer.obj
 0002:0001b030       ??_ECExtendedTriangleRenderer@@UAEPAXI@Z 170d9030 f i c_extendedtrianglerenderer.obj
 0002:0001b080       ??1CExtendedTriangleRenderer@@UAE@XZ 170d9080 f   c_extendedtrianglerenderer.obj
 0002:0001b0b0       ?Render@CExtendedTriangleRenderer@@UAEXW4EMaterialPhase@@@Z 170d90b0 f   c_extendedtrianglerenderer.obj
 0002:0001b1e0       ?Allocate@?$CPool@VCExtendedTriangleRenderer@@@@QAEPAVCExtendedTriangleRenderer@@XZ 170d91e0 f i c_extendedtrianglerenderer.obj
 0002:0001b370       ?push_back@?$vector@PAVCExtendedTriangleRenderer@@V?$K2VectorAllocator@PAVCExtendedTriangleRenderer@@@@@std@@QAEXABQAVCExtendedTriangleRenderer@@@Z 170d9370 f i c_extendedtrianglerenderer.obj
 0002:0001b420       ??1?$_Vector_iterator@PAVCExtendedTriangleRenderer@@V?$K2VectorAllocator@PAVCExtendedTriangleRenderer@@@@@std@@QAE@XZ 170d9420 f i c_extendedtrianglerenderer.obj
 0002:0001b450       ??1?$_Vector_const_iterator@PAVCExtendedTriangleRenderer@@V?$K2VectorAllocator@PAVCExtendedTriangleRenderer@@@@@std@@QAE@XZ 170d9450 f i c_extendedtrianglerenderer.obj
 0002:0001b480       ??1?$_Ranit@PAVCExtendedTriangleRenderer@@HPBQAV1@ABQAV1@@std@@QAE@XZ 170d9480 f i c_extendedtrianglerenderer.obj
 0002:0001b4b0       ?end@?$vector@PAVCExtendedTriangleRenderer@@V?$K2VectorAllocator@PAVCExtendedTriangleRenderer@@@@@std@@QAE?AV?$_Vector_iterator@PAVCExtendedTriangleRenderer@@V?$K2VectorAllocator@PAVCExtendedTriangleRenderer@@@@@2@XZ 170d94b0 f i c_extendedtrianglerenderer.obj
 0002:0001b500       ?capacity@?$vector@PAVCExtendedTriangleRenderer@@V?$K2VectorAllocator@PAVCExtendedTriangleRenderer@@@@@std@@QBEIXZ 170d9500 f i c_extendedtrianglerenderer.obj
 0002:0001b550       ?size@?$vector@PAVCExtendedTriangleRenderer@@V?$K2VectorAllocator@PAVCExtendedTriangleRenderer@@@@@std@@QBEIXZ 170d9550 f i c_extendedtrianglerenderer.obj
 0002:0001b5a0       ?insert@?$vector@PAVCExtendedTriangleRenderer@@V?$K2VectorAllocator@PAVCExtendedTriangleRenderer@@@@@std@@QAE?AV?$_Vector_iterator@PAVCExtendedTriangleRenderer@@V?$K2VectorAllocator@PAVCExtendedTriangleRenderer@@@@@2@V32@ABQAVCExtendedTriangleRenderer@@@Z 170d95a0 f i c_extendedtrianglerenderer.obj
 0002:0001b710       ?begin@?$vector@PAVCExtendedTriangleRenderer@@V?$K2VectorAllocator@PAVCExtendedTriangleRenderer@@@@@std@@QAE?AV?$_Vector_iterator@PAVCExtendedTriangleRenderer@@V?$K2VectorAllocator@PAVCExtendedTriangleRenderer@@@@@2@XZ 170d9710 f i c_extendedtrianglerenderer.obj
 0002:0001b760       ?_Ufill@?$vector@PAVCExtendedTriangleRenderer@@V?$K2VectorAllocator@PAVCExtendedTriangleRenderer@@@@@std@@IAEPAPAVCExtendedTriangleRenderer@@PAPAV3@IABQAV3@@Z 170d9760 f i c_extendedtrianglerenderer.obj
 0002:0001b7b0       ?_Orphan_range@?$vector@PAVCExtendedTriangleRenderer@@V?$K2VectorAllocator@PAVCExtendedTriangleRenderer@@@@@std@@IBEXPAPAVCExtendedTriangleRenderer@@0@Z 170d97b0 f i c_extendedtrianglerenderer.obj
 0002:0001b850       ??0?$_Vector_iterator@PAVCExtendedTriangleRenderer@@V?$K2VectorAllocator@PAVCExtendedTriangleRenderer@@@@@std@@QAE@PAPAVCExtendedTriangleRenderer@@PBV_Container_base@1@@Z 170d9850 f i c_extendedtrianglerenderer.obj
 0002:0001b890       ??0?$_Vector_iterator@PAVCExtendedTriangleRenderer@@V?$K2VectorAllocator@PAVCExtendedTriangleRenderer@@@@@std@@QAE@ABV01@@Z 170d9890 f i c_extendedtrianglerenderer.obj
 0002:0001b8c0       ??0?$_Vector_const_iterator@PAVCExtendedTriangleRenderer@@V?$K2VectorAllocator@PAVCExtendedTriangleRenderer@@@@@std@@QAE@ABV01@@Z 170d98c0 f i c_extendedtrianglerenderer.obj
 0002:0001b900       ??0?$_Ranit@PAVCExtendedTriangleRenderer@@HPBQAV1@ABQAV1@@std@@QAE@ABU01@@Z 170d9900 f i c_extendedtrianglerenderer.obj
 0002:0001b930       ?_Insert_n@?$vector@PAVCExtendedTriangleRenderer@@V?$K2VectorAllocator@PAVCExtendedTriangleRenderer@@@@@std@@IAEXV?$_Vector_iterator@PAVCExtendedTriangleRenderer@@V?$K2VectorAllocator@PAVCExtendedTriangleRenderer@@@@@2@IABQAVCExtendedTriangleRenderer@@@Z 170d9930 f i c_extendedtrianglerenderer.obj
 0002:0001bde0       ?_Destroy@?$vector@PAVCExtendedTriangleRenderer@@V?$K2VectorAllocator@PAVCExtendedTriangleRenderer@@@@@std@@IAEXPAPAVCExtendedTriangleRenderer@@0@Z 170d9de0 f i c_extendedtrianglerenderer.obj
 0002:0001be20       ?deallocate@?$K2VectorAllocator@PAVCExtendedTriangleRenderer@@@@QAEXPAPAVCExtendedTriangleRenderer@@I@Z 170d9e20 f i c_extendedtrianglerenderer.obj
 0002:0001be60       ??$_Destroy_range@PAVCExtendedTriangleRenderer@@V?$K2VectorAllocator@PAVCExtendedTriangleRenderer@@@@@std@@YAXPAPAVCExtendedTriangleRenderer@@0AAV?$K2VectorAllocator@PAVCExtendedTriangleRenderer@@@@@Z 170d9e60 f i c_extendedtrianglerenderer.obj
 0002:0001beb0       ??H?$_Vector_iterator@PAVCExtendedTriangleRenderer@@V?$K2VectorAllocator@PAVCExtendedTriangleRenderer@@@@@std@@QBE?AV01@H@Z 170d9eb0 f i c_extendedtrianglerenderer.obj
 0002:0001bf60       ??G?$_Vector_iterator@PAVCExtendedTriangleRenderer@@V?$K2VectorAllocator@PAVCExtendedTriangleRenderer@@@@@std@@QBEHABV?$_Vector_const_iterator@PAVCExtendedTriangleRenderer@@V?$K2VectorAllocator@PAVCExtendedTriangleRenderer@@@@@1@@Z 170d9f60 f i c_extendedtrianglerenderer.obj
 0002:0001bf90       ??0?$_Vector_const_iterator@PAVCExtendedTriangleRenderer@@V?$K2VectorAllocator@PAVCExtendedTriangleRenderer@@@@@std@@QAE@PAPAVCExtendedTriangleRenderer@@PBV_Container_base@1@@Z 170d9f90 f i c_extendedtrianglerenderer.obj
 0002:0001c090       ??0?$_Ranit@PAVCExtendedTriangleRenderer@@HPBQAV1@ABQAV1@@std@@QAE@XZ 170da090 f i c_extendedtrianglerenderer.obj
 0002:0001c0c0       ?max_size@?$vector@PAVCExtendedTriangleRenderer@@V?$K2VectorAllocator@PAVCExtendedTriangleRenderer@@@@@std@@QBEIXZ 170da0c0 f i c_extendedtrianglerenderer.obj
 0002:0001c0f0       ?_Xlen@?$vector@PAVCExtendedTriangleRenderer@@V?$K2VectorAllocator@PAVCExtendedTriangleRenderer@@@@@std@@KAXXZ 170da0f0 f i c_extendedtrianglerenderer.obj
 0002:0001c1a0       ?allocate@?$K2VectorAllocator@PAVCExtendedTriangleRenderer@@@@QAEPAPAVCExtendedTriangleRenderer@@I@Z 170da1a0 f i c_extendedtrianglerenderer.obj
 0002:0001c1f0       ??Y?$_Vector_iterator@PAVCExtendedTriangleRenderer@@V?$K2VectorAllocator@PAVCExtendedTriangleRenderer@@@@@std@@QAEAAV01@H@Z 170da1f0 f i c_extendedtrianglerenderer.obj
 0002:0001c220       ??G?$_Vector_const_iterator@PAVCExtendedTriangleRenderer@@V?$K2VectorAllocator@PAVCExtendedTriangleRenderer@@@@@std@@QBEHABV01@@Z 170da220 f i c_extendedtrianglerenderer.obj
 0002:0001c260       ?_Compat@?$_Vector_const_iterator@PAVCExtendedTriangleRenderer@@V?$K2VectorAllocator@PAVCExtendedTriangleRenderer@@@@@std@@QBEXABV12@@Z 170da260 f i c_extendedtrianglerenderer.obj
 0002:0001c310       ?max_size@?$allocator@PAVCExtendedTriangleRenderer@@@std@@QBEIXZ 170da310 f i c_extendedtrianglerenderer.obj
 0002:0001c350       ??Y?$_Vector_const_iterator@PAVCExtendedTriangleRenderer@@V?$K2VectorAllocator@PAVCExtendedTriangleRenderer@@@@@std@@QAEAAV01@H@Z 170da350 f i c_extendedtrianglerenderer.obj
 0002:0001c480       ??$_Ptr_cat@PAPAVCExtendedTriangleRenderer@@PAPAV1@@std@@YA?AU_Scalar_ptr_iterator_tag@0@AAPAPAVCExtendedTriangleRenderer@@0@Z 170da480 f i c_extendedtrianglerenderer.obj
 0002:0001c4a0       ??$_Destroy_range@PAVCExtendedTriangleRenderer@@V?$K2VectorAllocator@PAVCExtendedTriangleRenderer@@@@@std@@YAXPAPAVCExtendedTriangleRenderer@@0AAV?$K2VectorAllocator@PAVCExtendedTriangleRenderer@@@@U_Scalar_ptr_iterator_tag@0@@Z 170da4a0 f i c_extendedtrianglerenderer.obj
 0002:0001c4c0       ??$unchecked_uninitialized_fill_n@PAPAVCExtendedTriangleRenderer@@IPAV1@V?$K2VectorAllocator@PAVCExtendedTriangleRenderer@@@@@stdext@@YAXPAPAVCExtendedTriangleRenderer@@IABQAV1@AAV?$K2VectorAllocator@PAVCExtendedTriangleRenderer@@@@@Z 170da4c0 f i c_extendedtrianglerenderer.obj
 0002:0001c520       ??$_Umove@PAPAVCExtendedTriangleRenderer@@@?$vector@PAVCExtendedTriangleRenderer@@V?$K2VectorAllocator@PAVCExtendedTriangleRenderer@@@@@std@@IAEPAPAVCExtendedTriangleRenderer@@PAPAV2@00@Z 170da520 f i c_extendedtrianglerenderer.obj
 0002:0001c560       ??$fill@PAPAVCExtendedTriangleRenderer@@PAV1@@std@@YAXPAPAVCExtendedTriangleRenderer@@0ABQAV1@@Z 170da560 f i c_extendedtrianglerenderer.obj
 0002:0001c5b0       ??$_Unchecked_move_backward@PAPAVCExtendedTriangleRenderer@@PAPAV1@@stdext@@YAPAPAVCExtendedTriangleRenderer@@PAPAV1@00@Z 170da5b0 f i c_extendedtrianglerenderer.obj
 0002:0001c640       ??$_Checked_base@PAPAVCExtendedTriangleRenderer@@@std@@YAPAPAVCExtendedTriangleRenderer@@AAPAPAV1@@Z 170da640 f i c_extendedtrianglerenderer.obj
 0002:0001c670       ??$_Iter_random@PAPAVCExtendedTriangleRenderer@@PAPAV1@@std@@YA?AUrandom_access_iterator_tag@0@ABQAPAVCExtendedTriangleRenderer@@0@Z 170da670 f i c_extendedtrianglerenderer.obj
 0002:0001c690       ??$_Uninit_fill_n@PAPAVCExtendedTriangleRenderer@@IPAV1@V?$K2VectorAllocator@PAVCExtendedTriangleRenderer@@@@@std@@YAXPAPAVCExtendedTriangleRenderer@@IABQAV1@AAV?$K2VectorAllocator@PAVCExtendedTriangleRenderer@@@@U_Scalar_ptr_iterator_tag@0@U_Range_checked_iterator_tag@0@@Z 170da690 f i c_extendedtrianglerenderer.obj
 0002:0001c6c0       ??$_Unchecked_uninitialized_move@PAPAVCExtendedTriangleRenderer@@PAPAV1@V?$K2VectorAllocator@PAVCExtendedTriangleRenderer@@@@@stdext@@YAPAPAVCExtendedTriangleRenderer@@PAPAV1@00AAV?$K2VectorAllocator@PAVCExtendedTriangleRenderer@@@@@Z 170da6c0 f i c_extendedtrianglerenderer.obj
 0002:0001c730       ??$_Fill@PAPAVCExtendedTriangleRenderer@@PAV1@@std@@YAXPAPAVCExtendedTriangleRenderer@@0ABQAV1@@Z 170da730 f i c_extendedtrianglerenderer.obj
 0002:0001c790       ??$_Move_cat@PAPAVCExtendedTriangleRenderer@@@std@@YA?AU_Undefined_move_tag@0@ABQAPAVCExtendedTriangleRenderer@@@Z 170da790 f i c_extendedtrianglerenderer.obj
 0002:0001c7b0       ??$_Move_backward_opt@PAPAVCExtendedTriangleRenderer@@PAPAV1@Urandom_access_iterator_tag@std@@U_Undefined_move_tag@3@@std@@YAPAPAVCExtendedTriangleRenderer@@PAPAV1@00Urandom_access_iterator_tag@0@U_Undefined_move_tag@0@U_Range_checked_iterator_tag@0@@Z 170da7b0 f i c_extendedtrianglerenderer.obj
 0002:0001c810       ??$_Checked_base@PAPAVCExtendedTriangleRenderer@@@std@@YAPAPAVCExtendedTriangleRenderer@@AAPAPAV1@U_Unchanged_checked_iterator_base_type_tag@0@@Z 170da810 f i c_extendedtrianglerenderer.obj
 0002:0001c830       ??$_Debug_range@PAPAVCExtendedTriangleRenderer@@@std@@YAXPAPAVCExtendedTriangleRenderer@@0PB_WI@Z 170da830 f i c_extendedtrianglerenderer.obj
 0002:0001c880       ??$unchecked_fill_n@PAPAVCExtendedTriangleRenderer@@IPAV1@@stdext@@YAXPAPAVCExtendedTriangleRenderer@@IABQAV1@@Z 170da880 f i c_extendedtrianglerenderer.obj
 0002:0001c8d0       ??$_Uninit_move@PAPAVCExtendedTriangleRenderer@@PAPAV1@V?$K2VectorAllocator@PAVCExtendedTriangleRenderer@@@@U_Undefined_move_tag@std@@@std@@YAPAPAVCExtendedTriangleRenderer@@PAPAV1@00AAV?$K2VectorAllocator@PAVCExtendedTriangleRenderer@@@@U_Undefined_move_tag@0@U_Range_checked_iterator_tag@0@@Z 170da8d0 f i c_extendedtrianglerenderer.obj
 0002:0001c910       ??$_Copy_backward_opt@PAPAVCExtendedTriangleRenderer@@PAPAV1@Urandom_access_iterator_tag@std@@@std@@YAPAPAVCExtendedTriangleRenderer@@PAPAV1@00Urandom_access_iterator_tag@0@U_Scalar_ptr_iterator_tag@0@U_Range_checked_iterator_tag@0@@Z 170da910 f i c_extendedtrianglerenderer.obj
 0002:0001c9c0       ??$_Debug_pointer@PAVCExtendedTriangleRenderer@@@std@@YAXPAPAVCExtendedTriangleRenderer@@PB_WI@Z 170da9c0 f i c_extendedtrianglerenderer.obj
 0002:0001ca00       ??$_Iter_cat@PAPAVCExtendedTriangleRenderer@@@std@@YA?AUrandom_access_iterator_tag@0@ABQAPAVCExtendedTriangleRenderer@@@Z 170daa00 f i c_extendedtrianglerenderer.obj
 0002:0001ca20       ??$_Debug_range2@PAPAVCExtendedTriangleRenderer@@@std@@YAXPAPAVCExtendedTriangleRenderer@@0PB_WIUrandom_access_iterator_tag@0@@Z 170daa20 f i c_extendedtrianglerenderer.obj
 0002:0001caa0       ??$_Fill_n@PAPAVCExtendedTriangleRenderer@@IPAV1@@std@@YAXPAPAVCExtendedTriangleRenderer@@IABQAV1@Urandom_access_iterator_tag@0@U_Range_checked_iterator_tag@0@@Z 170daaa0 f i c_extendedtrianglerenderer.obj
 0002:0001cb00       ??$unchecked_uninitialized_copy@PAPAVCExtendedTriangleRenderer@@PAPAV1@V?$K2VectorAllocator@PAVCExtendedTriangleRenderer@@@@@stdext@@YAPAPAVCExtendedTriangleRenderer@@PAPAV1@00AAV?$K2VectorAllocator@PAVCExtendedTriangleRenderer@@@@@Z 170dab00 f i c_extendedtrianglerenderer.obj
 0002:0001cb70       ??$_Fill_n@PAPAVCExtendedTriangleRenderer@@IPAV1@@std@@YAXPAPAVCExtendedTriangleRenderer@@IABQAV1@U_Range_checked_iterator_tag@0@@Z 170dab70 f i c_extendedtrianglerenderer.obj
 0002:0001cbc0       ??$_Uninit_copy@PAPAVCExtendedTriangleRenderer@@PAPAV1@V?$K2VectorAllocator@PAVCExtendedTriangleRenderer@@@@@std@@YAPAPAVCExtendedTriangleRenderer@@PAPAV1@00AAV?$K2VectorAllocator@PAVCExtendedTriangleRenderer@@@@U_Scalar_ptr_iterator_tag@0@U_Range_checked_iterator_tag@0@@Z 170dabc0 f i c_extendedtrianglerenderer.obj
 0002:0001cc60       ??0?$CPool@VCExtendedTriangleRenderer@@@@QAE@II@Z 170dac60 f i c_extendedtrianglerenderer.obj
 0002:0001cd20       ??0?$vector@PAVCExtendedTriangleRenderer@@V?$K2VectorAllocator@PAVCExtendedTriangleRenderer@@@@@@QAE@XZ 170dad20 f i c_extendedtrianglerenderer.obj
 0002:0001cd50       ??0?$vector@PAVCExtendedTriangleRenderer@@V?$K2VectorAllocator@PAVCExtendedTriangleRenderer@@@@@std@@QAE@XZ 170dad50 f i c_extendedtrianglerenderer.obj
 0002:0001cde0       ??1?$_Vector_val@PAVCExtendedTriangleRenderer@@V?$K2VectorAllocator@PAVCExtendedTriangleRenderer@@@@@std@@QAE@XZ 170dade0 f i c_extendedtrianglerenderer.obj
 0002:0001ce60       ??1?$K2VectorAllocator@PAVCExtendedTriangleRenderer@@@@QAE@XZ 170dae60 f i c_extendedtrianglerenderer.obj
 0002:0001ce80       ?_Buy@?$vector@PAVCExtendedTriangleRenderer@@V?$K2VectorAllocator@PAVCExtendedTriangleRenderer@@@@@std@@IAE_NI@Z 170dae80 f i c_extendedtrianglerenderer.obj
 0002:0001cf30       ??0?$_Vector_val@PAVCExtendedTriangleRenderer@@V?$K2VectorAllocator@PAVCExtendedTriangleRenderer@@@@@std@@IAE@V?$K2VectorAllocator@PAVCExtendedTriangleRenderer@@@@@Z 170daf30 f i c_extendedtrianglerenderer.obj
 0002:0001cfd0       ??0?$K2VectorAllocator@PAVCExtendedTriangleRenderer@@@@QAE@XZ 170dafd0 f i c_extendedtrianglerenderer.obj
 0002:0001d000       ??0?$K2VectorAllocator@PAVCExtendedTriangleRenderer@@@@QAE@ABV0@@Z 170db000 f i c_extendedtrianglerenderer.obj
 0002:0001d030       ??0?$allocator@PAVCExtendedTriangleRenderer@@@std@@QAE@XZ 170db030 f i c_extendedtrianglerenderer.obj
 0002:0001d050       ??0?$allocator@PAVCExtendedTriangleRenderer@@@std@@QAE@ABV01@@Z 170db050 f i c_extendedtrianglerenderer.obj
 0002:0001d070       ??1?$CPool@VCExtendedTriangleRenderer@@@@QAE@XZ 170db070 f i c_extendedtrianglerenderer.obj
 0002:0001d120       ??1?$vector@PAVCExtendedTriangleRenderer@@V?$K2VectorAllocator@PAVCExtendedTriangleRenderer@@@@@@QAE@XZ 170db120 f i c_extendedtrianglerenderer.obj
 0002:0001d150       ??1?$vector@PAVCExtendedTriangleRenderer@@V?$K2VectorAllocator@PAVCExtendedTriangleRenderer@@@@@std@@QAE@XZ 170db150 f i c_extendedtrianglerenderer.obj
 0002:0001d1d0       ?_Tidy@?$vector@PAVCExtendedTriangleRenderer@@V?$K2VectorAllocator@PAVCExtendedTriangleRenderer@@@@@std@@IAEXXZ 170db1d0 f i c_extendedtrianglerenderer.obj
 0002:0001d270       ?Reset@?$CPool@VCExtendedTriangleRenderer@@@@QAEXXZ 170db270 f i c_extendedtrianglerenderer.obj
 0002:0001d390       ?clear@?$vector@PAVCExtendedTriangleRenderer@@V?$K2VectorAllocator@PAVCExtendedTriangleRenderer@@@@@std@@QAEXXZ 170db390 f i c_extendedtrianglerenderer.obj
 0002:0001d450       ??D?$_Vector_iterator@PAVCExtendedTriangleRenderer@@V?$K2VectorAllocator@PAVCExtendedTriangleRenderer@@@@@std@@QBEAAPAVCExtendedTriangleRenderer@@XZ 170db450 f i c_extendedtrianglerenderer.obj
 0002:0001d480       ??E?$_Vector_iterator@PAVCExtendedTriangleRenderer@@V?$K2VectorAllocator@PAVCExtendedTriangleRenderer@@@@@std@@QAEAAV01@XZ 170db480 f i c_extendedtrianglerenderer.obj
 0002:0001d4b0       ??9?$_Vector_const_iterator@PAVCExtendedTriangleRenderer@@V?$K2VectorAllocator@PAVCExtendedTriangleRenderer@@@@@std@@QBE_NABV01@@Z 170db4b0 f i c_extendedtrianglerenderer.obj
 0002:0001d4f0       ?erase@?$vector@PAVCExtendedTriangleRenderer@@V?$K2VectorAllocator@PAVCExtendedTriangleRenderer@@@@@std@@QAE?AV?$_Vector_iterator@PAVCExtendedTriangleRenderer@@V?$K2VectorAllocator@PAVCExtendedTriangleRenderer@@@@@2@V32@0@Z 170db4f0 f i c_extendedtrianglerenderer.obj
 0002:0001d670       ??D?$_Vector_const_iterator@PAVCExtendedTriangleRenderer@@V?$K2VectorAllocator@PAVCExtendedTriangleRenderer@@@@@std@@QBEABQAVCExtendedTriangleRenderer@@XZ 170db670 f i c_extendedtrianglerenderer.obj
 0002:0001d730       ??E?$_Vector_const_iterator@PAVCExtendedTriangleRenderer@@V?$K2VectorAllocator@PAVCExtendedTriangleRenderer@@@@@std@@QAEAAV01@XZ 170db730 f i c_extendedtrianglerenderer.obj
 0002:0001d820       ??8?$_Vector_const_iterator@PAVCExtendedTriangleRenderer@@V?$K2VectorAllocator@PAVCExtendedTriangleRenderer@@@@@std@@QBE_NABV01@@Z 170db820 f i c_extendedtrianglerenderer.obj
 0002:0001d860       ??M?$_Vector_const_iterator@PAVCExtendedTriangleRenderer@@V?$K2VectorAllocator@PAVCExtendedTriangleRenderer@@@@@std@@QBE_NABV01@@Z 170db860 f i c_extendedtrianglerenderer.obj
 0002:0001d8a0       ??$unchecked_copy@PAPAVCExtendedTriangleRenderer@@PAPAV1@@stdext@@YAPAPAVCExtendedTriangleRenderer@@PAPAV1@00@Z 170db8a0 f i c_extendedtrianglerenderer.obj
 0002:0001d930       ??$_Copy_opt@PAPAVCExtendedTriangleRenderer@@PAPAV1@Urandom_access_iterator_tag@std@@@std@@YAPAPAVCExtendedTriangleRenderer@@PAPAV1@00Urandom_access_iterator_tag@0@U_Scalar_ptr_iterator_tag@0@U_Range_checked_iterator_tag@0@@Z 170db930 f i c_extendedtrianglerenderer.obj
 0002:0001d9e0       ??2CFoliageRenderer@@SAPAXIPBD00F@Z 170db9e0 f   c_foliagerenderer.obj
 0002:0001da00       ??0CFoliageRenderer@@QAE@W4EFoliageRenderOrder@@H@Z 170dba00 f   c_foliagerenderer.obj
 0002:0001da60       ??_ECFoliageRenderer@@UAEPAXI@Z 170dba60 f i c_foliagerenderer.obj
 0002:0001da60       ??_GCFoliageRenderer@@UAEPAXI@Z 170dba60 f i c_foliagerenderer.obj
 0002:0001dab0       ??1CFoliageRenderer@@UAE@XZ 170dbab0 f   c_foliagerenderer.obj
 0002:0001dae0       ?Setup@CFoliageRenderer@@UAEXW4EMaterialPhase@@@Z 170dbae0 f   c_foliagerenderer.obj
 0002:0001e190       ?SetNumPointLights@CShaderRegistry@@QAEXH@Z 170dc190 f i c_foliagerenderer.obj
 0002:0001e1c0       ?SetNumBones@CShaderRegistry@@QAEXH@Z 170dc1c0 f i c_foliagerenderer.obj
 0002:0001e200       ?SetLighting@CShaderRegistry@@QAEX_N@Z 170dc200 f i c_foliagerenderer.obj
 0002:0001e230       ?SetShadows@CShaderRegistry@@QAEX_N@Z 170dc230 f i c_foliagerenderer.obj
 0002:0001e260       ?SetFogofWar@CShaderRegistry@@QAEX_N@Z 170dc260 f i c_foliagerenderer.obj
 0002:0001e290       ?SetFog@CShaderRegistry@@QAEX_N@Z 170dc290 f i c_foliagerenderer.obj
 0002:0001e2c0       ?SetTexcoords@CShaderRegistry@@QAEXH@Z 170dc2c0 f i c_foliagerenderer.obj
 0002:0001e2f0       ?SetTexkill@CShaderRegistry@@QAEX_N@Z 170dc2f0 f i c_foliagerenderer.obj
 0002:0001e320       ??1CSphere@@QAE@XZ         170dc320 f i c_foliagerenderer.obj
 0002:0001e340       ??0CSphere@@QAE@ABV?$CVec3@M@@M@Z 170dc340 f i c_foliagerenderer.obj
 0002:0001e390       ?GetVertexShader@CMaterialPhase@@QBEIXZ 170dc390 f i c_foliagerenderer.obj
 0002:0001e3b0       ?GetPixelShader@CMaterialPhase@@QBEIXZ 170dc3b0 f i c_foliagerenderer.obj
 0002:0001e3d0       ?GetLayer@CMaterialPhase@@QBEHXZ 170dc3d0 f i c_foliagerenderer.obj
 0002:0001e3f0       ?GetPhase@CMaterial@@QAEAAVCMaterialPhase@@W4EMaterialPhase@@@Z 170dc3f0 f i c_foliagerenderer.obj
 0002:0001e470       ?GetPosition@CSceneLight@@QBEABV?$CVec3@M@@XZ 170dc470 f i c_foliagerenderer.obj
 0002:0001e490       ?GetColor@CSceneLight@@QBEABV?$CVec3@M@@XZ 170dc490 f i c_foliagerenderer.obj
 0002:0001e4b0       ?GetFalloffStart@CSceneLight@@QBEMXZ 170dc4b0 f i c_foliagerenderer.obj
 0002:0001e4d0       ?GetFalloffEnd@CSceneLight@@QBEMXZ 170dc4d0 f i c_foliagerenderer.obj
 0002:0001e4f0       ?GetLightList@CSceneManager@@QAEAAV?$vector@PAUSSceneLightEntry@@V?$K2VectorAllocator@PAUSSceneLightEntry@@@@@@XZ 170dc4f0 f i c_foliagerenderer.obj
 0002:0001e520       ??1?$_Vector_iterator@PAUSSceneLightEntry@@V?$K2VectorAllocator@PAUSSceneLightEntry@@@@@std@@QAE@XZ 170dc520 f i c_foliagerenderer.obj
 0002:0001e550       ??1?$_Vector_const_iterator@PAUSSceneLightEntry@@V?$K2VectorAllocator@PAUSSceneLightEntry@@@@@std@@QAE@XZ 170dc550 f i c_foliagerenderer.obj
 0002:0001e580       ??1?$_Ranit@PAUSSceneLightEntry@@HPBQAU1@ABQAU1@@std@@QAE@XZ 170dc580 f i c_foliagerenderer.obj
 0002:0001e5b0       ?RenderChunk@CFoliageRenderer@@AAEXW4EMaterialPhase@@HH@Z 170dc5b0 f   c_foliagerenderer.obj
 0002:0001ea30       ?SetVertexShader@CMaterialPhase@@QAEXI@Z 170dca30 f i c_foliagerenderer.obj
 0002:0001ea60       ?SetAlphaTest@CMaterialPhase@@QAEX_N@Z 170dca60 f i c_foliagerenderer.obj
 0002:0001eab0       ?acos@@YAMM@Z              170dcab0 f i c_foliagerenderer.obj
 0002:0001eae0       _acosf                     170dcae0 f i c_foliagerenderer.obj
 0002:0001eb10       ?GetViewAxis@CCamera@@QBEABV?$CVec3@M@@W4EAxisComponent@@@Z 170dcb10 f i c_foliagerenderer.obj
 0002:0001eb40       ?HasFlags@CCamera@@QBE_NH@Z 170dcb40 f i c_foliagerenderer.obj
 0002:0001eb70       ?Render@CFoliageRenderer@@UAEXW4EMaterialPhase@@@Z 170dcb70 f   c_foliagerenderer.obj
 0002:0001ec60       ??B?$CCvar@HH@@QBEHXZ      170dcc60 f i c_foliagerenderer.obj
 0002:0001ec90       ??A?$vector@VCMaterialPhase@@V?$K2VectorAllocator@VCMaterialPhase@@@@@std@@QAEAAVCMaterialPhase@@I@Z 170dcc90 f i c_foliagerenderer.obj
 0002:0001edb0       ?size@?$vector@VCMaterialPhase@@V?$K2VectorAllocator@VCMaterialPhase@@@@@std@@QBEIXZ 170dcdb0 f i c_foliagerenderer.obj
 0002:0001ee00       ?begin@?$vector@PAUSSceneLightEntry@@V?$K2VectorAllocator@PAUSSceneLightEntry@@@@@std@@QAE?AV?$_Vector_iterator@PAUSSceneLightEntry@@V?$K2VectorAllocator@PAUSSceneLightEntry@@@@@2@XZ 170dce00 f i c_foliagerenderer.obj
 0002:0001ee50       ?end@?$vector@PAUSSceneLightEntry@@V?$K2VectorAllocator@PAUSSceneLightEntry@@@@@std@@QAE?AV?$_Vector_iterator@PAUSSceneLightEntry@@V?$K2VectorAllocator@PAUSSceneLightEntry@@@@@2@XZ 170dce50 f i c_foliagerenderer.obj
 0002:0001eea0       ??D?$_Vector_iterator@PAUSSceneLightEntry@@V?$K2VectorAllocator@PAUSSceneLightEntry@@@@@std@@QBEAAPAUSSceneLightEntry@@XZ 170dcea0 f i c_foliagerenderer.obj
 0002:0001eed0       ??E?$_Vector_iterator@PAUSSceneLightEntry@@V?$K2VectorAllocator@PAUSSceneLightEntry@@@@@std@@QAEAAV01@XZ 170dced0 f i c_foliagerenderer.obj
 0002:0001ef00       ??9?$_Vector_const_iterator@PAUSSceneLightEntry@@V?$K2VectorAllocator@PAUSSceneLightEntry@@@@@std@@QBE_NABV01@@Z 170dcf00 f i c_foliagerenderer.obj
 0002:0001ef40       ?INT_ROUND@@YAHM@Z         170dcf40 f i c_foliagerenderer.obj
 0002:0001efa0       ??ACAxis@@QBEABV?$CVec3@M@@H@Z 170dcfa0 f i c_foliagerenderer.obj
 0002:0001efd0       ??0?$_Vector_iterator@PAUSSceneLightEntry@@V?$K2VectorAllocator@PAUSSceneLightEntry@@@@@std@@QAE@PAPAUSSceneLightEntry@@PBV_Container_base@1@@Z 170dcfd0 f i c_foliagerenderer.obj
 0002:0001f010       ??D?$_Vector_const_iterator@PAUSSceneLightEntry@@V?$K2VectorAllocator@PAUSSceneLightEntry@@@@@std@@QBEABQAUSSceneLightEntry@@XZ 170dd010 f i c_foliagerenderer.obj
 0002:0001f0d0       ??E?$_Vector_const_iterator@PAUSSceneLightEntry@@V?$K2VectorAllocator@PAUSSceneLightEntry@@@@@std@@QAEAAV01@XZ 170dd0d0 f i c_foliagerenderer.obj
 0002:0001f1c0       ??8?$_Vector_const_iterator@PAUSSceneLightEntry@@V?$K2VectorAllocator@PAUSSceneLightEntry@@@@@std@@QBE_NABV01@@Z 170dd1c0 f i c_foliagerenderer.obj
 0002:0001f200       ??0?$_Vector_const_iterator@PAUSSceneLightEntry@@V?$K2VectorAllocator@PAUSSceneLightEntry@@@@@std@@QAE@PAPAUSSceneLightEntry@@PBV_Container_base@1@@Z 170dd200 f i c_foliagerenderer.obj
 0002:0001f300       ?_Compat@?$_Vector_const_iterator@PAUSSceneLightEntry@@V?$K2VectorAllocator@PAUSSceneLightEntry@@@@@std@@QBEXABV12@@Z 170dd300 f i c_foliagerenderer.obj
 0002:0001f3b0       ??0?$_Ranit@PAUSSceneLightEntry@@HPBQAU1@ABQAU1@@std@@QAE@XZ 170dd3b0 f i c_foliagerenderer.obj
 0002:0001f3e0       ?Allocate@?$CPool@VCFoliageRenderer@@@@QAEPAVCFoliageRenderer@@XZ 170dd3e0 f i c_foliagerenderer.obj
 0002:0001f570       ??$Normalize@M@@YA?AV?$CVec2@M@@ABV0@@Z 170dd570 f i c_foliagerenderer.obj
 0002:0001f640       ?sqrt@@YAMM@Z              170dd640 f i c_foliagerenderer.obj
 0002:0001f670       _sqrtf                     170dd670 f i c_foliagerenderer.obj
 0002:0001f6a0       ?push_back@?$vector@PAVCFoliageRenderer@@V?$K2VectorAllocator@PAVCFoliageRenderer@@@@@std@@QAEXABQAVCFoliageRenderer@@@Z 170dd6a0 f i c_foliagerenderer.obj
 0002:0001f750       ??1?$_Vector_iterator@PAVCFoliageRenderer@@V?$K2VectorAllocator@PAVCFoliageRenderer@@@@@std@@QAE@XZ 170dd750 f i c_foliagerenderer.obj
 0002:0001f780       ??1?$_Vector_const_iterator@PAVCFoliageRenderer@@V?$K2VectorAllocator@PAVCFoliageRenderer@@@@@std@@QAE@XZ 170dd780 f i c_foliagerenderer.obj
 0002:0001f7b0       ??1?$_Ranit@PAVCFoliageRenderer@@HPBQAV1@ABQAV1@@std@@QAE@XZ 170dd7b0 f i c_foliagerenderer.obj
 0002:0001f7e0       ?end@?$vector@PAVCFoliageRenderer@@V?$K2VectorAllocator@PAVCFoliageRenderer@@@@@std@@QAE?AV?$_Vector_iterator@PAVCFoliageRenderer@@V?$K2VectorAllocator@PAVCFoliageRenderer@@@@@2@XZ 170dd7e0 f i c_foliagerenderer.obj
 0002:0001f830       ?capacity@?$vector@PAVCFoliageRenderer@@V?$K2VectorAllocator@PAVCFoliageRenderer@@@@@std@@QBEIXZ 170dd830 f i c_foliagerenderer.obj
 0002:0001f880       ?size@?$vector@PAVCFoliageRenderer@@V?$K2VectorAllocator@PAVCFoliageRenderer@@@@@std@@QBEIXZ 170dd880 f i c_foliagerenderer.obj
 0002:0001f8d0       ?insert@?$vector@PAVCFoliageRenderer@@V?$K2VectorAllocator@PAVCFoliageRenderer@@@@@std@@QAE?AV?$_Vector_iterator@PAVCFoliageRenderer@@V?$K2VectorAllocator@PAVCFoliageRenderer@@@@@2@V32@ABQAVCFoliageRenderer@@@Z 170dd8d0 f i c_foliagerenderer.obj
 0002:0001fa40       ?begin@?$vector@PAVCFoliageRenderer@@V?$K2VectorAllocator@PAVCFoliageRenderer@@@@@std@@QAE?AV?$_Vector_iterator@PAVCFoliageRenderer@@V?$K2VectorAllocator@PAVCFoliageRenderer@@@@@2@XZ 170dda40 f i c_foliagerenderer.obj
 0002:0001fa90       ?_Ufill@?$vector@PAVCFoliageRenderer@@V?$K2VectorAllocator@PAVCFoliageRenderer@@@@@std@@IAEPAPAVCFoliageRenderer@@PAPAV3@IABQAV3@@Z 170dda90 f i c_foliagerenderer.obj
 0002:0001fae0       ?_Orphan_range@?$vector@PAVCFoliageRenderer@@V?$K2VectorAllocator@PAVCFoliageRenderer@@@@@std@@IBEXPAPAVCFoliageRenderer@@0@Z 170ddae0 f i c_foliagerenderer.obj
 0002:0001fb80       ??0?$_Vector_iterator@PAVCFoliageRenderer@@V?$K2VectorAllocator@PAVCFoliageRenderer@@@@@std@@QAE@PAPAVCFoliageRenderer@@PBV_Container_base@1@@Z 170ddb80 f i c_foliagerenderer.obj
 0002:0001fbc0       ??0?$_Vector_iterator@PAVCFoliageRenderer@@V?$K2VectorAllocator@PAVCFoliageRenderer@@@@@std@@QAE@ABV01@@Z 170ddbc0 f i c_foliagerenderer.obj
 0002:0001fbf0       ??0?$_Vector_const_iterator@PAVCFoliageRenderer@@V?$K2VectorAllocator@PAVCFoliageRenderer@@@@@std@@QAE@ABV01@@Z 170ddbf0 f i c_foliagerenderer.obj
 0002:0001fc30       ??0?$_Ranit@PAVCFoliageRenderer@@HPBQAV1@ABQAV1@@std@@QAE@ABU01@@Z 170ddc30 f i c_foliagerenderer.obj
 0002:0001fc60       ?_Insert_n@?$vector@PAVCFoliageRenderer@@V?$K2VectorAllocator@PAVCFoliageRenderer@@@@@std@@IAEXV?$_Vector_iterator@PAVCFoliageRenderer@@V?$K2VectorAllocator@PAVCFoliageRenderer@@@@@2@IABQAVCFoliageRenderer@@@Z 170ddc60 f i c_foliagerenderer.obj
 0002:00020110       ?_Destroy@?$vector@PAVCFoliageRenderer@@V?$K2VectorAllocator@PAVCFoliageRenderer@@@@@std@@IAEXPAPAVCFoliageRenderer@@0@Z 170de110 f i c_foliagerenderer.obj
 0002:00020150       ?deallocate@?$K2VectorAllocator@PAVCFoliageRenderer@@@@QAEXPAPAVCFoliageRenderer@@I@Z 170de150 f i c_foliagerenderer.obj
 0002:00020190       ??$_Destroy_range@PAVCFoliageRenderer@@V?$K2VectorAllocator@PAVCFoliageRenderer@@@@@std@@YAXPAPAVCFoliageRenderer@@0AAV?$K2VectorAllocator@PAVCFoliageRenderer@@@@@Z 170de190 f i c_foliagerenderer.obj
 0002:000201e0       ??H?$_Vector_iterator@PAVCFoliageRenderer@@V?$K2VectorAllocator@PAVCFoliageRenderer@@@@@std@@QBE?AV01@H@Z 170de1e0 f i c_foliagerenderer.obj
 0002:00020290       ??G?$_Vector_iterator@PAVCFoliageRenderer@@V?$K2VectorAllocator@PAVCFoliageRenderer@@@@@std@@QBEHABV?$_Vector_const_iterator@PAVCFoliageRenderer@@V?$K2VectorAllocator@PAVCFoliageRenderer@@@@@1@@Z 170de290 f i c_foliagerenderer.obj
 0002:000202c0       ??0?$_Vector_const_iterator@PAVCFoliageRenderer@@V?$K2VectorAllocator@PAVCFoliageRenderer@@@@@std@@QAE@PAPAVCFoliageRenderer@@PBV_Container_base@1@@Z 170de2c0 f i c_foliagerenderer.obj
 0002:000203c0       ??0?$_Ranit@PAVCFoliageRenderer@@HPBQAV1@ABQAV1@@std@@QAE@XZ 170de3c0 f i c_foliagerenderer.obj
 0002:000203f0       ?max_size@?$vector@PAVCFoliageRenderer@@V?$K2VectorAllocator@PAVCFoliageRenderer@@@@@std@@QBEIXZ 170de3f0 f i c_foliagerenderer.obj
 0002:00020420       ?_Xlen@?$vector@PAVCFoliageRenderer@@V?$K2VectorAllocator@PAVCFoliageRenderer@@@@@std@@KAXXZ 170de420 f i c_foliagerenderer.obj
 0002:000204d0       ?allocate@?$K2VectorAllocator@PAVCFoliageRenderer@@@@QAEPAPAVCFoliageRenderer@@I@Z 170de4d0 f i c_foliagerenderer.obj
 0002:00020520       ??Y?$_Vector_iterator@PAVCFoliageRenderer@@V?$K2VectorAllocator@PAVCFoliageRenderer@@@@@std@@QAEAAV01@H@Z 170de520 f i c_foliagerenderer.obj
 0002:00020550       ??G?$_Vector_const_iterator@PAVCFoliageRenderer@@V?$K2VectorAllocator@PAVCFoliageRenderer@@@@@std@@QBEHABV01@@Z 170de550 f i c_foliagerenderer.obj
 0002:00020590       ?_Compat@?$_Vector_const_iterator@PAVCFoliageRenderer@@V?$K2VectorAllocator@PAVCFoliageRenderer@@@@@std@@QBEXABV12@@Z 170de590 f i c_foliagerenderer.obj
 0002:00020640       ?max_size@?$allocator@PAVCFoliageRenderer@@@std@@QBEIXZ 170de640 f i c_foliagerenderer.obj
 0002:00020680       ??Y?$_Vector_const_iterator@PAVCFoliageRenderer@@V?$K2VectorAllocator@PAVCFoliageRenderer@@@@@std@@QAEAAV01@H@Z 170de680 f i c_foliagerenderer.obj
 0002:000207b0       ??$_Ptr_cat@PAPAVCFoliageRenderer@@PAPAV1@@std@@YA?AU_Scalar_ptr_iterator_tag@0@AAPAPAVCFoliageRenderer@@0@Z 170de7b0 f i c_foliagerenderer.obj
 0002:000207d0       ??$_Destroy_range@PAVCFoliageRenderer@@V?$K2VectorAllocator@PAVCFoliageRenderer@@@@@std@@YAXPAPAVCFoliageRenderer@@0AAV?$K2VectorAllocator@PAVCFoliageRenderer@@@@U_Scalar_ptr_iterator_tag@0@@Z 170de7d0 f i c_foliagerenderer.obj
 0002:000207f0       ??$unchecked_uninitialized_fill_n@PAPAVCFoliageRenderer@@IPAV1@V?$K2VectorAllocator@PAVCFoliageRenderer@@@@@stdext@@YAXPAPAVCFoliageRenderer@@IABQAV1@AAV?$K2VectorAllocator@PAVCFoliageRenderer@@@@@Z 170de7f0 f i c_foliagerenderer.obj
 0002:00020850       ??$_Umove@PAPAVCFoliageRenderer@@@?$vector@PAVCFoliageRenderer@@V?$K2VectorAllocator@PAVCFoliageRenderer@@@@@std@@IAEPAPAVCFoliageRenderer@@PAPAV2@00@Z 170de850 f i c_foliagerenderer.obj
 0002:00020890       ??$fill@PAPAVCFoliageRenderer@@PAV1@@std@@YAXPAPAVCFoliageRenderer@@0ABQAV1@@Z 170de890 f i c_foliagerenderer.obj
 0002:000208e0       ??$_Unchecked_move_backward@PAPAVCFoliageRenderer@@PAPAV1@@stdext@@YAPAPAVCFoliageRenderer@@PAPAV1@00@Z 170de8e0 f i c_foliagerenderer.obj
 0002:00020970       ??$_Checked_base@PAPAVCFoliageRenderer@@@std@@YAPAPAVCFoliageRenderer@@AAPAPAV1@@Z 170de970 f i c_foliagerenderer.obj
 0002:000209a0       ??$_Iter_random@PAPAVCFoliageRenderer@@PAPAV1@@std@@YA?AUrandom_access_iterator_tag@0@ABQAPAVCFoliageRenderer@@0@Z 170de9a0 f i c_foliagerenderer.obj
 0002:000209c0       ??$_Uninit_fill_n@PAPAVCFoliageRenderer@@IPAV1@V?$K2VectorAllocator@PAVCFoliageRenderer@@@@@std@@YAXPAPAVCFoliageRenderer@@IABQAV1@AAV?$K2VectorAllocator@PAVCFoliageRenderer@@@@U_Scalar_ptr_iterator_tag@0@U_Range_checked_iterator_tag@0@@Z 170de9c0 f i c_foliagerenderer.obj
 0002:000209f0       ??$_Unchecked_uninitialized_move@PAPAVCFoliageRenderer@@PAPAV1@V?$K2VectorAllocator@PAVCFoliageRenderer@@@@@stdext@@YAPAPAVCFoliageRenderer@@PAPAV1@00AAV?$K2VectorAllocator@PAVCFoliageRenderer@@@@@Z 170de9f0 f i c_foliagerenderer.obj
 0002:00020a60       ??$_Fill@PAPAVCFoliageRenderer@@PAV1@@std@@YAXPAPAVCFoliageRenderer@@0ABQAV1@@Z 170dea60 f i c_foliagerenderer.obj
 0002:00020ac0       ??$_Move_cat@PAPAVCFoliageRenderer@@@std@@YA?AU_Undefined_move_tag@0@ABQAPAVCFoliageRenderer@@@Z 170deac0 f i c_foliagerenderer.obj
 0002:00020ae0       ??$_Move_backward_opt@PAPAVCFoliageRenderer@@PAPAV1@Urandom_access_iterator_tag@std@@U_Undefined_move_tag@3@@std@@YAPAPAVCFoliageRenderer@@PAPAV1@00Urandom_access_iterator_tag@0@U_Undefined_move_tag@0@U_Range_checked_iterator_tag@0@@Z 170deae0 f i c_foliagerenderer.obj
 0002:00020b40       ??$_Checked_base@PAPAVCFoliageRenderer@@@std@@YAPAPAVCFoliageRenderer@@AAPAPAV1@U_Unchanged_checked_iterator_base_type_tag@0@@Z 170deb40 f i c_foliagerenderer.obj
 0002:00020b60       ??$_Debug_range@PAPAVCFoliageRenderer@@@std@@YAXPAPAVCFoliageRenderer@@0PB_WI@Z 170deb60 f i c_foliagerenderer.obj
 0002:00020bb0       ??$unchecked_fill_n@PAPAVCFoliageRenderer@@IPAV1@@stdext@@YAXPAPAVCFoliageRenderer@@IABQAV1@@Z 170debb0 f i c_foliagerenderer.obj
 0002:00020c00       ??$_Uninit_move@PAPAVCFoliageRenderer@@PAPAV1@V?$K2VectorAllocator@PAVCFoliageRenderer@@@@U_Undefined_move_tag@std@@@std@@YAPAPAVCFoliageRenderer@@PAPAV1@00AAV?$K2VectorAllocator@PAVCFoliageRenderer@@@@U_Undefined_move_tag@0@U_Range_checked_iterator_tag@0@@Z 170dec00 f i c_foliagerenderer.obj
 0002:00020c40       ??$_Copy_backward_opt@PAPAVCFoliageRenderer@@PAPAV1@Urandom_access_iterator_tag@std@@@std@@YAPAPAVCFoliageRenderer@@PAPAV1@00Urandom_access_iterator_tag@0@U_Scalar_ptr_iterator_tag@0@U_Range_checked_iterator_tag@0@@Z 170dec40 f i c_foliagerenderer.obj
 0002:00020cf0       ??$_Debug_pointer@PAVCFoliageRenderer@@@std@@YAXPAPAVCFoliageRenderer@@PB_WI@Z 170decf0 f i c_foliagerenderer.obj
 0002:00020d30       ??$_Iter_cat@PAPAVCFoliageRenderer@@@std@@YA?AUrandom_access_iterator_tag@0@ABQAPAVCFoliageRenderer@@@Z 170ded30 f i c_foliagerenderer.obj
 0002:00020d50       ??$_Debug_range2@PAPAVCFoliageRenderer@@@std@@YAXPAPAVCFoliageRenderer@@0PB_WIUrandom_access_iterator_tag@0@@Z 170ded50 f i c_foliagerenderer.obj
 0002:00020dd0       ??$_Fill_n@PAPAVCFoliageRenderer@@IPAV1@@std@@YAXPAPAVCFoliageRenderer@@IABQAV1@Urandom_access_iterator_tag@0@U_Range_checked_iterator_tag@0@@Z 170dedd0 f i c_foliagerenderer.obj
 0002:00020e30       ??$unchecked_uninitialized_copy@PAPAVCFoliageRenderer@@PAPAV1@V?$K2VectorAllocator@PAVCFoliageRenderer@@@@@stdext@@YAPAPAVCFoliageRenderer@@PAPAV1@00AAV?$K2VectorAllocator@PAVCFoliageRenderer@@@@@Z 170dee30 f i c_foliagerenderer.obj
 0002:00020ea0       ??$_Fill_n@PAPAVCFoliageRenderer@@IPAV1@@std@@YAXPAPAVCFoliageRenderer@@IABQAV1@U_Range_checked_iterator_tag@0@@Z 170deea0 f i c_foliagerenderer.obj
 0002:00020ef0       ??$_Uninit_copy@PAPAVCFoliageRenderer@@PAPAV1@V?$K2VectorAllocator@PAVCFoliageRenderer@@@@@std@@YAPAPAVCFoliageRenderer@@PAPAV1@00AAV?$K2VectorAllocator@PAVCFoliageRenderer@@@@U_Scalar_ptr_iterator_tag@0@U_Range_checked_iterator_tag@0@@Z 170deef0 f i c_foliagerenderer.obj
 0002:00020f90       ??0?$CCvar@_N_N@@QAE@ABV?$basic_string@_WU?$char_traits@_W@std@@V?$K2StringAllocator@_W@@@std@@_NHP6A_NPAVCConsoleElement@@ABV?$vector@V?$basic_string@_WU?$char_traits@_W@std@@V?$K2StringAllocator@_W@@@std@@V?$K2VectorAllocator@V?$basic_string@_WU?$char_traits@_W@std@@V?$K2StringAllocator@_W@@@std@@@@@@@Z@Z 170def90 f i c_foliagerenderer.obj
 0002:000210a0       ??1?$vector@V?$basic_string@_WU?$char_traits@_W@std@@V?$K2StringAllocator@_W@@@std@@V?$K2VectorAllocator@V?$basic_string@_WU?$char_traits@_W@std@@V?$K2StringAllocator@_W@@@std@@@@@@QAE@XZ 170df0a0 f i c_foliagerenderer.obj
 0002:000210d0       ??_G?$CCvar@_N_N@@UAEPAXI@Z 170df0d0 f i c_foliagerenderer.obj
 0002:000210d0       ??_E?$CCvar@_N_N@@UAEPAXI@Z 170df0d0 f i c_foliagerenderer.obj
 0002:00021120       ?Toggle@?$CCvar@_N_N@@UAEXXZ 170df120 f i c_foliagerenderer.obj
 0002:00021170       ??0?$vector@V?$basic_string@_WU?$char_traits@_W@std@@V?$K2StringAllocator@_W@@@std@@V?$K2VectorAllocator@V?$basic_string@_WU?$char_traits@_W@std@@V?$K2StringAllocator@_W@@@std@@@@@@QAE@XZ 170df170 f i c_foliagerenderer.obj
 0002:000211a0       ??1?$vector@V?$basic_string@_WU?$char_traits@_W@std@@V?$K2StringAllocator@_W@@@std@@V?$K2VectorAllocator@V?$basic_string@_WU?$char_traits@_W@std@@V?$K2StringAllocator@_W@@@std@@@@@std@@QAE@XZ 170df1a0 f i c_foliagerenderer.obj
 0002:00021220       ?push_back@?$vector@V?$basic_string@_WU?$char_traits@_W@std@@V?$K2StringAllocator@_W@@@std@@V?$K2VectorAllocator@V?$basic_string@_WU?$char_traits@_W@std@@V?$K2StringAllocator@_W@@@std@@@@@std@@QAEXABV?$basic_string@_WU?$char_traits@_W@std@@V?$K2StringAllocator@_W@@@2@@Z 170df220 f i c_foliagerenderer.obj
 0002:000212d0       ??1?$_Vector_iterator@V?$basic_string@_WU?$char_traits@_W@std@@V?$K2StringAllocator@_W@@@std@@V?$K2VectorAllocator@V?$basic_string@_WU?$char_traits@_W@std@@V?$K2StringAllocator@_W@@@std@@@@@std@@QAE@XZ 170df2d0 f i c_foliagerenderer.obj
 0002:00021300       ??1?$_Vector_const_iterator@V?$basic_string@_WU?$char_traits@_W@std@@V?$K2StringAllocator@_W@@@std@@V?$K2VectorAllocator@V?$basic_string@_WU?$char_traits@_W@std@@V?$K2StringAllocator@_W@@@std@@@@@std@@QAE@XZ 170df300 f i c_foliagerenderer.obj
 0002:00021330       ??1?$_Ranit@V?$basic_string@_WU?$char_traits@_W@std@@V?$K2StringAllocator@_W@@@std@@HPBV12@ABV12@@std@@QAE@XZ 170df330 f i c_foliagerenderer.obj
 0002:00021360       ?end@?$vector@V?$basic_string@_WU?$char_traits@_W@std@@V?$K2StringAllocator@_W@@@std@@V?$K2VectorAllocator@V?$basic_string@_WU?$char_traits@_W@std@@V?$K2StringAllocator@_W@@@std@@@@@std@@QAE?AV?$_Vector_iterator@V?$basic_string@_WU?$char_traits@_W@std@@V?$K2StringAllocator@_W@@@std@@V?$K2VectorAllocator@V?$basic_string@_WU?$char_traits@_W@std@@V?$K2StringAllocator@_W@@@std@@@@@2@XZ 170df360 f i c_foliagerenderer.obj
 0002:000213b0       ?size@?$vector@V?$basic_string@_WU?$char_traits@_W@std@@V?$K2StringAllocator@_W@@@std@@V?$K2VectorAllocator@V?$basic_string@_WU?$char_traits@_W@std@@V?$K2StringAllocator@_W@@@std@@@@@std@@QBEIXZ 170df3b0 f i c_foliagerenderer.obj
 0002:00021400       ??1?$CCvar@_N_N@@UAE@XZ    170df400 f i c_foliagerenderer.obj
 0002:00021430       ?Reset@?$CCvar@_N_N@@UAEXXZ 170df430 f i c_foliagerenderer.obj
 0002:00021490       ?IsDefault@?$CCvar@_N_N@@UBE_NXZ 170df490 f i c_foliagerenderer.obj
 0002:000214d0       ?StoreValue@?$CCvar@_N_N@@UAEXXZ 170df4d0 f i c_foliagerenderer.obj
 0002:00021500       ?RestoreStored@?$CCvar@_N_N@@UAEXXZ 170df500 f i c_foliagerenderer.obj
 0002:00021530       ?GetString@?$CCvar@_N_N@@UBE?AV?$basic_string@_WU?$char_traits@_W@std@@V?$K2StringAllocator@_W@@@std@@XZ 170df530 f i c_foliagerenderer.obj
 0002:00021580       ?XtoW@@YA?AV?$basic_string@_WU?$char_traits@_W@std@@V?$K2StringAllocator@_W@@@std@@_N0@Z 170df580 f i c_foliagerenderer.obj
 0002:00021620       ?SetIndex@?$CCvar@_N_N@@UAEXIABV?$basic_string@_WU?$char_traits@_W@std@@V?$K2StringAllocator@_W@@@std@@@Z 170df620 f i c_foliagerenderer.obj
 0002:00021640       ?Inc@?$CCvar@_N_N@@UAEXABV?$basic_string@_WU?$char_traits@_W@std@@V?$K2StringAllocator@_W@@@std@@@Z 170df640 f i c_foliagerenderer.obj
 0002:00021660       ??1?$_Vector_val@V?$basic_string@_WU?$char_traits@_W@std@@V?$K2StringAllocator@_W@@@std@@V?$K2VectorAllocator@V?$basic_string@_WU?$char_traits@_W@std@@V?$K2StringAllocator@_W@@@std@@@@@std@@QAE@XZ 170df660 f i c_foliagerenderer.obj
 0002:000216e0       ??0?$vector@V?$basic_string@_WU?$char_traits@_W@std@@V?$K2StringAllocator@_W@@@std@@V?$K2VectorAllocator@V?$basic_string@_WU?$char_traits@_W@std@@V?$K2StringAllocator@_W@@@std@@@@@std@@QAE@XZ 170df6e0 f i c_foliagerenderer.obj
 0002:00021770       ?capacity@?$vector@V?$basic_string@_WU?$char_traits@_W@std@@V?$K2StringAllocator@_W@@@std@@V?$K2VectorAllocator@V?$basic_string@_WU?$char_traits@_W@std@@V?$K2StringAllocator@_W@@@std@@@@@std@@QBEIXZ 170df770 f i c_foliagerenderer.obj
 0002:000217c0       ?insert@?$vector@V?$basic_string@_WU?$char_traits@_W@std@@V?$K2StringAllocator@_W@@@std@@V?$K2VectorAllocator@V?$basic_string@_WU?$char_traits@_W@std@@V?$K2StringAllocator@_W@@@std@@@@@std@@QAE?AV?$_Vector_iterator@V?$basic_string@_WU?$char_traits@_W@std@@V?$K2StringAllocator@_W@@@std@@V?$K2VectorAllocator@V?$basic_string@_WU?$char_traits@_W@std@@V?$K2StringAllocator@_W@@@std@@@@@2@V32@ABV?$basic_string@_WU?$char_traits@_W@std@@V?$K2StringAllocator@_W@@@2@@Z 170df7c0 f i c_foliagerenderer.obj
 0002:00021930       ?begin@?$vector@V?$basic_string@_WU?$char_traits@_W@std@@V?$K2StringAllocator@_W@@@std@@V?$K2VectorAllocator@V?$basic_string@_WU?$char_traits@_W@std@@V?$K2StringAllocator@_W@@@std@@@@@std@@QAE?AV?$_Vector_iterator@V?$basic_string@_WU?$char_traits@_W@std@@V?$K2StringAllocator@_W@@@std@@V?$K2VectorAllocator@V?$basic_string@_WU?$char_traits@_W@std@@V?$K2StringAllocator@_W@@@std@@@@@2@XZ 170df930 f i c_foliagerenderer.obj
 0002:00021980       ??H?$_Vector_iterator@V?$basic_string@_WU?$char_traits@_W@std@@V?$K2StringAllocator@_W@@@std@@V?$K2VectorAllocator@V?$basic_string@_WU?$char_traits@_W@std@@V?$K2StringAllocator@_W@@@std@@@@@std@@QBE?AV01@H@Z 170df980 f i c_foliagerenderer.obj
 0002:00021a30       ??0?$_Vector_iterator@V?$basic_string@_WU?$char_traits@_W@std@@V?$K2StringAllocator@_W@@@std@@V?$K2VectorAllocator@V?$basic_string@_WU?$char_traits@_W@std@@V?$K2StringAllocator@_W@@@std@@@@@std@@QAE@ABV01@@Z 170dfa30 f i c_foliagerenderer.obj
 0002:00021a60       ??0?$_Vector_const_iterator@V?$basic_string@_WU?$char_traits@_W@std@@V?$K2StringAllocator@_W@@@std@@V?$K2VectorAllocator@V?$basic_string@_WU?$char_traits@_W@std@@V?$K2StringAllocator@_W@@@std@@@@@std@@QAE@ABV01@@Z 170dfa60 f i c_foliagerenderer.obj
 0002:00021aa0       ??0?$_Ranit@V?$basic_string@_WU?$char_traits@_W@std@@V?$K2StringAllocator@_W@@@std@@HPBV12@ABV12@@std@@QAE@ABU01@@Z 170dfaa0 f i c_foliagerenderer.obj
 0002:00021ad0       ?_Buy@?$vector@V?$basic_string@_WU?$char_traits@_W@std@@V?$K2StringAllocator@_W@@@std@@V?$K2VectorAllocator@V?$basic_string@_WU?$char_traits@_W@std@@V?$K2StringAllocator@_W@@@std@@@@@std@@IAE_NI@Z 170dfad0 f i c_foliagerenderer.obj
 0002:00021b80       ?_Tidy@?$vector@V?$basic_string@_WU?$char_traits@_W@std@@V?$K2StringAllocator@_W@@@std@@V?$K2VectorAllocator@V?$basic_string@_WU?$char_traits@_W@std@@V?$K2StringAllocator@_W@@@std@@@@@std@@IAEXXZ 170dfb80 f i c_foliagerenderer.obj
 0002:00021c20       ?_Destroy@?$vector@V?$basic_string@_WU?$char_traits@_W@std@@V?$K2StringAllocator@_W@@@std@@V?$K2VectorAllocator@V?$basic_string@_WU?$char_traits@_W@std@@V?$K2StringAllocator@_W@@@std@@@@@std@@IAEXPAV?$basic_string@_WU?$char_traits@_W@std@@V?$K2StringAllocator@_W@@@2@0@Z 170dfc20 f i c_foliagerenderer.obj
 0002:00021c60       ?_Ufill@?$vector@V?$basic_string@_WU?$char_traits@_W@std@@V?$K2StringAllocator@_W@@@std@@V?$K2VectorAllocator@V?$basic_string@_WU?$char_traits@_W@std@@V?$K2StringAllocator@_W@@@std@@@@@std@@IAEPAV?$basic_string@_WU?$char_traits@_W@std@@V?$K2StringAllocator@_W@@@2@PAV32@IABV32@@Z 170dfc60 f i c_foliagerenderer.obj
 0002:00021cb0       ?_Orphan_range@?$vector@V?$basic_string@_WU?$char_traits@_W@std@@V?$K2StringAllocator@_W@@@std@@V?$K2VectorAllocator@V?$basic_string@_WU?$char_traits@_W@std@@V?$K2StringAllocator@_W@@@std@@@@@std@@IBEXPAV?$basic_string@_WU?$char_traits@_W@std@@V?$K2StringAllocator@_W@@@2@0@Z 170dfcb0 f i c_foliagerenderer.obj
 0002:00021d50       ??1?$K2VectorAllocator@V?$basic_string@_WU?$char_traits@_W@std@@V?$K2StringAllocator@_W@@@std@@@@QAE@XZ 170dfd50 f i c_foliagerenderer.obj
 0002:00021d70       ?deallocate@?$K2VectorAllocator@V?$basic_string@_WU?$char_traits@_W@std@@V?$K2StringAllocator@_W@@@std@@@@QAEXPAV?$basic_string@_WU?$char_traits@_W@std@@V?$K2StringAllocator@_W@@@std@@I@Z 170dfd70 f i c_foliagerenderer.obj
 0002:00021db0       ??0?$_Vector_iterator@V?$basic_string@_WU?$char_traits@_W@std@@V?$K2StringAllocator@_W@@@std@@V?$K2VectorAllocator@V?$basic_string@_WU?$char_traits@_W@std@@V?$K2StringAllocator@_W@@@std@@@@@std@@QAE@PAV?$basic_string@_WU?$char_traits@_W@std@@V?$K2StringAllocator@_W@@@1@PBV_Container_base@1@@Z 170dfdb0 f i c_foliagerenderer.obj
 0002:00021df0       ??Y?$_Vector_iterator@V?$basic_string@_WU?$char_traits@_W@std@@V?$K2StringAllocator@_W@@@std@@V?$K2VectorAllocator@V?$basic_string@_WU?$char_traits@_W@std@@V?$K2StringAllocator@_W@@@std@@@@@std@@QAEAAV01@H@Z 170dfdf0 f i c_foliagerenderer.obj
 0002:00021e20       ?max_size@?$vector@V?$basic_string@_WU?$char_traits@_W@std@@V?$K2StringAllocator@_W@@@std@@V?$K2VectorAllocator@V?$basic_string@_WU?$char_traits@_W@std@@V?$K2StringAllocator@_W@@@std@@@@@std@@QBEIXZ 170dfe20 f i c_foliagerenderer.obj
 0002:00021e50       ?_Insert_n@?$vector@V?$basic_string@_WU?$char_traits@_W@std@@V?$K2StringAllocator@_W@@@std@@V?$K2VectorAllocator@V?$basic_string@_WU?$char_traits@_W@std@@V?$K2StringAllocator@_W@@@std@@@@@std@@IAEXV?$_Vector_iterator@V?$basic_string@_WU?$char_traits@_W@std@@V?$K2StringAllocator@_W@@@std@@V?$K2VectorAllocator@V?$basic_string@_WU?$char_traits@_W@std@@V?$K2StringAllocator@_W@@@std@@@@@2@IABV?$basic_string@_WU?$char_traits@_W@std@@V?$K2StringAllocator@_W@@@2@@Z 170dfe50 f i c_foliagerenderer.obj
 0002:00022340       ??0?$basic_string@_WU?$char_traits@_W@std@@V?$K2StringAllocator@_W@@@std@@QAE@ABV01@@Z 170e0340 f i c_foliagerenderer.obj
 0002:000223e0       ??0?$_String_val@_WV?$K2StringAllocator@_W@@@std@@QAE@ABV01@@Z 170e03e0 f i c_foliagerenderer.obj
 0002:00022480       ?_Xlen@?$vector@V?$basic_string@_WU?$char_traits@_W@std@@V?$K2StringAllocator@_W@@@std@@V?$K2VectorAllocator@V?$basic_string@_WU?$char_traits@_W@std@@V?$K2StringAllocator@_W@@@std@@@@@std@@KAXXZ 170e0480 f i c_foliagerenderer.obj
 0002:00022530       ??0?$_Vector_val@V?$basic_string@_WU?$char_traits@_W@std@@V?$K2StringAllocator@_W@@@std@@V?$K2VectorAllocator@V?$basic_string@_WU?$char_traits@_W@std@@V?$K2StringAllocator@_W@@@std@@@@@std@@IAE@V?$K2VectorAllocator@V?$basic_string@_WU?$char_traits@_W@std@@V?$K2StringAllocator@_W@@@std@@@@@Z 170e0530 f i c_foliagerenderer.obj
 0002:000225d0       ??0?$K2VectorAllocator@V?$basic_string@_WU?$char_traits@_W@std@@V?$K2StringAllocator@_W@@@std@@@@QAE@XZ 170e05d0 f i c_foliagerenderer.obj
 0002:00022600       ?allocate@?$K2VectorAllocator@V?$basic_string@_WU?$char_traits@_W@std@@V?$K2StringAllocator@_W@@@std@@@@QAEPAV?$basic_string@_WU?$char_traits@_W@std@@V?$K2StringAllocator@_W@@@std@@I@Z 170e0600 f i c_foliagerenderer.obj
 0002:00022650       ??G?$_Vector_iterator@V?$basic_string@_WU?$char_traits@_W@std@@V?$K2StringAllocator@_W@@@std@@V?$K2VectorAllocator@V?$basic_string@_WU?$char_traits@_W@std@@V?$K2StringAllocator@_W@@@std@@@@@std@@QBEHABV?$_Vector_const_iterator@V?$basic_string@_WU?$char_traits@_W@std@@V?$K2StringAllocator@_W@@@std@@V?$K2VectorAllocator@V?$basic_string@_WU?$char_traits@_W@std@@V?$K2StringAllocator@_W@@@std@@@@@1@@Z 170e0650 f i c_foliagerenderer.obj
 0002:00022680       ??0?$_Vector_const_iterator@V?$basic_string@_WU?$char_traits@_W@std@@V?$K2StringAllocator@_W@@@std@@V?$K2VectorAllocator@V?$basic_string@_WU?$char_traits@_W@std@@V?$K2StringAllocator@_W@@@std@@@@@std@@QAE@PAV?$basic_string@_WU?$char_traits@_W@std@@V?$K2StringAllocator@_W@@@1@PBV_Container_base@1@@Z 170e0680 f i c_foliagerenderer.obj
 0002:00022780       ??Y?$_Vector_const_iterator@V?$basic_string@_WU?$char_traits@_W@std@@V?$K2StringAllocator@_W@@@std@@V?$K2VectorAllocator@V?$basic_string@_WU?$char_traits@_W@std@@V?$K2StringAllocator@_W@@@std@@@@@std@@QAEAAV01@H@Z 170e0780 f i c_foliagerenderer.obj
 0002:000228b0       ??0?$_Ranit@V?$basic_string@_WU?$char_traits@_W@std@@V?$K2StringAllocator@_W@@@std@@HPBV12@ABV12@@std@@QAE@XZ 170e08b0 f i c_foliagerenderer.obj
 0002:000228e0       ??0?$K2VectorAllocator@V?$basic_string@_WU?$char_traits@_W@std@@V?$K2StringAllocator@_W@@@std@@@@QAE@ABV0@@Z 170e08e0 f i c_foliagerenderer.obj
 0002:00022910       ??0?$allocator@V?$basic_string@_WU?$char_traits@_W@std@@V?$K2StringAllocator@_W@@@std@@@std@@QAE@XZ 170e0910 f i c_foliagerenderer.obj
 0002:00022930       ?max_size@?$allocator@V?$basic_string@_WU?$char_traits@_W@std@@V?$K2StringAllocator@_W@@@std@@@std@@QBEIXZ 170e0930 f i c_foliagerenderer.obj
 0002:00022970       ??G?$_Vector_const_iterator@V?$basic_string@_WU?$char_traits@_W@std@@V?$K2StringAllocator@_W@@@std@@V?$K2VectorAllocator@V?$basic_string@_WU?$char_traits@_W@std@@V?$K2StringAllocator@_W@@@std@@@@@std@@QBEHABV01@@Z 170e0970 f i c_foliagerenderer.obj
 0002:000229b0       ?_Compat@?$_Vector_const_iterator@V?$basic_string@_WU?$char_traits@_W@std@@V?$K2StringAllocator@_W@@@std@@V?$K2VectorAllocator@V?$basic_string@_WU?$char_traits@_W@std@@V?$K2StringAllocator@_W@@@std@@@@@std@@QBEXABV12@@Z 170e09b0 f i c_foliagerenderer.obj
 0002:00022a60       ??0?$allocator@V?$basic_string@_WU?$char_traits@_W@std@@V?$K2StringAllocator@_W@@@std@@@std@@QAE@ABV01@@Z 170e0a60 f i c_foliagerenderer.obj
 0002:00022a80       ?Set@?$CCvar@_N_N@@UAEXABV?$basic_string@_WU?$char_traits@_W@std@@V?$K2StringAllocator@_W@@@std@@@Z 170e0a80 f i c_foliagerenderer.obj
 0002:00022ae0       ?AtoX@@YAAA_NABV?$basic_string@_WU?$char_traits@_W@std@@V?$K2StringAllocator@_W@@@std@@AA_N@Z 170e0ae0 f i c_foliagerenderer.obj
 0002:00022bd0       ?CompareNoCase@@YAHABV?$basic_string@_WU?$char_traits@_W@std@@V?$K2StringAllocator@_W@@@std@@0@Z 170e0bd0 f i c_foliagerenderer.obj
 0002:00022c00       ?WTOF@@YANABV?$basic_string@_WU?$char_traits@_W@std@@V?$K2StringAllocator@_W@@@std@@@Z 170e0c00 f i c_foliagerenderer.obj
 0002:00022c30       ?c_str@?$basic_string@_WU?$char_traits@_W@std@@V?$K2StringAllocator@_W@@@std@@QBEPB_WXZ 170e0c30 f i c_foliagerenderer.obj
 0002:00022c60       ??$_CompareNoCase@V?$basic_string@_WU?$char_traits@_W@std@@V?$K2StringAllocator@_W@@@std@@@@YAHABV?$basic_string@_WU?$char_traits@_W@std@@V?$K2StringAllocator@_W@@@std@@0@Z 170e0c60 f i c_foliagerenderer.obj
 0002:00022f20       ?begin@?$basic_string@_WU?$char_traits@_W@std@@V?$K2StringAllocator@_W@@@std@@QBE?AV?$_String_const_iterator@_WU?$char_traits@_W@std@@V?$K2StringAllocator@_W@@@2@XZ 170e0f20 f i c_foliagerenderer.obj
 0002:00022f70       ?end@?$basic_string@_WU?$char_traits@_W@std@@V?$K2StringAllocator@_W@@@std@@QBE?AV?$_String_const_iterator@_WU?$char_traits@_W@std@@V?$K2StringAllocator@_W@@@2@XZ 170e0f70 f i c_foliagerenderer.obj
 0002:00022fd0       ??D?$_String_const_iterator@_WU?$char_traits@_W@std@@V?$K2StringAllocator@_W@@@std@@QBEAB_WXZ 170e0fd0 f i c_foliagerenderer.obj
 0002:000230b0       ??E?$_String_const_iterator@_WU?$char_traits@_W@std@@V?$K2StringAllocator@_W@@@std@@QAEAAV01@XZ 170e10b0 f i c_foliagerenderer.obj
 0002:000231d0       ??8?$_String_const_iterator@_WU?$char_traits@_W@std@@V?$K2StringAllocator@_W@@@std@@QBE_NABV01@@Z 170e11d0 f i c_foliagerenderer.obj
 0002:00023210       ??9?$_String_const_iterator@_WU?$char_traits@_W@std@@V?$K2StringAllocator@_W@@@std@@QBE_NABV01@@Z 170e1210 f i c_foliagerenderer.obj
 0002:00023250       ??1?$_String_const_iterator@_WU?$char_traits@_W@std@@V?$K2StringAllocator@_W@@@std@@QAE@XZ 170e1250 f i c_foliagerenderer.obj
 0002:00023280       ??1?$_Ranit_base@_WHPB_WAB_WV_Iterator_base@std@@@std@@QAE@XZ 170e1280 f i c_foliagerenderer.obj
 0002:000232b0       ??0?$_String_const_iterator@_WU?$char_traits@_W@std@@V?$K2StringAllocator@_W@@@std@@QAE@PB_WPBV_Container_base@1@@Z 170e12b0 f i c_foliagerenderer.obj
 0002:000233d0       ??0?$_Ranit_base@_WHPB_WAB_WV_Iterator_base@std@@@std@@QAE@XZ 170e13d0 f i c_foliagerenderer.obj
 0002:00023400       ?_Compat@?$_String_const_iterator@_WU?$char_traits@_W@std@@V?$K2StringAllocator@_W@@@std@@QBEXABV12@@Z 170e1400 f i c_foliagerenderer.obj
 0002:000234b0       ?GetRangeString@?$CCvar@_N_N@@UBE?AV?$basic_string@_WU?$char_traits@_W@std@@V?$K2StringAllocator@_W@@@std@@XZ 170e14b0 f i c_foliagerenderer.obj
 0002:00023710       ??$?H_WU?$char_traits@_W@std@@V?$K2StringAllocator@_W@@@std@@YA?AV?$basic_string@_WU?$char_traits@_W@std@@V?$K2StringAllocator@_W@@@0@PB_WABV10@@Z 170e1710 f i c_foliagerenderer.obj
 0002:000237c0       ??Y?$basic_string@_WU?$char_traits@_W@std@@V?$K2StringAllocator@_W@@@std@@QAEAAV01@ABV01@@Z 170e17c0 f i c_foliagerenderer.obj
 0002:000237f0       ?append@?$basic_string@_WU?$char_traits@_W@std@@V?$K2StringAllocator@_W@@@std@@QAEAAV12@ABV12@@Z 170e17f0 f i c_foliagerenderer.obj
 0002:00023830       ?append@?$basic_string@_WU?$char_traits@_W@std@@V?$K2StringAllocator@_W@@@std@@QAEAAV12@ABV12@II@Z 170e1830 f i c_foliagerenderer.obj
 0002:00023950       ??$?H_WU?$char_traits@_W@std@@V?$K2StringAllocator@_W@@@std@@YA?AV?$basic_string@_WU?$char_traits@_W@std@@V?$K2StringAllocator@_W@@@0@ABV10@PB_W@Z 170e1950 f i c_foliagerenderer.obj
 0002:00023a00       ??Y?$basic_string@_WU?$char_traits@_W@std@@V?$K2StringAllocator@_W@@@std@@QAEAAV01@PB_W@Z 170e1a00 f i c_foliagerenderer.obj
 0002:00023a30       ?append@?$basic_string@_WU?$char_traits@_W@std@@V?$K2StringAllocator@_W@@@std@@QAEAAV12@PB_W@Z 170e1a30 f i c_foliagerenderer.obj
 0002:00023a70       ?append@?$basic_string@_WU?$char_traits@_W@std@@V?$K2StringAllocator@_W@@@std@@QAEAAV12@PB_WI@Z 170e1a70 f i c_foliagerenderer.obj
 0002:00023b80       ??$?H_WU?$char_traits@_W@std@@V?$K2StringAllocator@_W@@@std@@YA?AV?$basic_string@_WU?$char_traits@_W@std@@V?$K2StringAllocator@_W@@@0@ABV10@0@Z 170e1b80 f i c_foliagerenderer.obj
 0002:00023c30       ??$_Destroy_range@V?$basic_string@_WU?$char_traits@_W@std@@V?$K2StringAllocator@_W@@@std@@V?$K2VectorAllocator@V?$basic_string@_WU?$char_traits@_W@std@@V?$K2StringAllocator@_W@@@std@@@@@std@@YAXPAV?$basic_string@_WU?$char_traits@_W@std@@V?$K2StringAllocator@_W@@@0@0AAV?$K2VectorAllocator@V?$basic_string@_WU?$char_traits@_W@std@@V?$K2StringAllocator@_W@@@std@@@@@Z 170e1c30 f i c_foliagerenderer.obj
 0002:00023c80       ??$_Ptr_cat@PAV?$basic_string@_WU?$char_traits@_W@std@@V?$K2StringAllocator@_W@@@std@@PAV12@@std@@YA?AU_Nonscalar_ptr_iterator_tag@0@AAPAV?$basic_string@_WU?$char_traits@_W@std@@V?$K2StringAllocator@_W@@@0@0@Z 170e1c80 f i c_foliagerenderer.obj
 0002:00023ca0       ??$_Destroy_range@V?$basic_string@_WU?$char_traits@_W@std@@V?$K2StringAllocator@_W@@@std@@V?$K2VectorAllocator@V?$basic_string@_WU?$char_traits@_W@std@@V?$K2StringAllocator@_W@@@std@@@@@std@@YAXPAV?$basic_string@_WU?$char_traits@_W@std@@V?$K2StringAllocator@_W@@@0@0AAV?$K2VectorAllocator@V?$basic_string@_WU?$char_traits@_W@std@@V?$K2StringAllocator@_W@@@std@@@@U_Nonscalar_ptr_iterator_tag@0@@Z 170e1ca0 f i c_foliagerenderer.obj
 0002:00023ce0       ?destroy@?$allocator@V?$basic_string@_WU?$char_traits@_W@std@@V?$K2StringAllocator@_W@@@std@@@std@@QAEXPAV?$basic_string@_WU?$char_traits@_W@std@@V?$K2StringAllocator@_W@@@2@@Z 170e1ce0 f i c_foliagerenderer.obj
 0002:00023d10       ??$unchecked_uninitialized_fill_n@PAV?$basic_string@_WU?$char_traits@_W@std@@V?$K2StringAllocator@_W@@@std@@IV12@V?$K2VectorAllocator@V?$basic_string@_WU?$char_traits@_W@std@@V?$K2StringAllocator@_W@@@std@@@@@stdext@@YAXPAV?$basic_string@_WU?$char_traits@_W@std@@V?$K2StringAllocator@_W@@@std@@IABV12@AAV?$K2VectorAllocator@V?$basic_string@_WU?$char_traits@_W@std@@V?$K2StringAllocator@_W@@@std@@@@@Z 170e1d10 f i c_foliagerenderer.obj
 0002:00023d70       ??$_Uninit_fill_n@PAV?$basic_string@_WU?$char_traits@_W@std@@V?$K2StringAllocator@_W@@@std@@IV12@V?$K2VectorAllocator@V?$basic_string@_WU?$char_traits@_W@std@@V?$K2StringAllocator@_W@@@std@@@@@std@@YAXPAV?$basic_string@_WU?$char_traits@_W@std@@V?$K2StringAllocator@_W@@@0@IABV10@AAV?$K2VectorAllocator@V?$basic_string@_WU?$char_traits@_W@std@@V?$K2StringAllocator@_W@@@std@@@@U_Nonscalar_ptr_iterator_tag@0@U_Range_checked_iterator_tag@0@@Z 170e1d70 f i c_foliagerenderer.obj
 0002:00023e60       ?construct@?$allocator@V?$basic_string@_WU?$char_traits@_W@std@@V?$K2StringAllocator@_W@@@std@@@std@@QAEXPAV?$basic_string@_WU?$char_traits@_W@std@@V?$K2StringAllocator@_W@@@2@ABV32@@Z 170e1e60 f i c_foliagerenderer.obj
 0002:00023e90       ??$_Construct@V?$basic_string@_WU?$char_traits@_W@std@@V?$K2StringAllocator@_W@@@std@@V12@@std@@YAXPAV?$basic_string@_WU?$char_traits@_W@std@@V?$K2StringAllocator@_W@@@0@ABV10@@Z 170e1e90 f i c_foliagerenderer.obj
 0002:00023f40       ??2@YAPAXIPAX@Z            170e1f40 f i c_foliagerenderer.obj
 0002:00023f60       ??3@YAXPAX0@Z              170e1f60 f i c_foliagerenderer.obj
 0002:00023f80       ??$_Umove@PAV?$basic_string@_WU?$char_traits@_W@std@@V?$K2StringAllocator@_W@@@std@@@?$vector@V?$basic_string@_WU?$char_traits@_W@std@@V?$K2StringAllocator@_W@@@std@@V?$K2VectorAllocator@V?$basic_string@_WU?$char_traits@_W@std@@V?$K2StringAllocator@_W@@@std@@@@@std@@IAEPAV?$basic_string@_WU?$char_traits@_W@std@@V?$K2StringAllocator@_W@@@1@PAV21@00@Z 170e1f80 f i c_foliagerenderer.obj
 0002:00023fc0       ??$_Unchecked_uninitialized_move@PAV?$basic_string@_WU?$char_traits@_W@std@@V?$K2StringAllocator@_W@@@std@@PAV12@V?$K2VectorAllocator@V?$basic_string@_WU?$char_traits@_W@std@@V?$K2StringAllocator@_W@@@std@@@@@stdext@@YAPAV?$basic_string@_WU?$char_traits@_W@std@@V?$K2StringAllocator@_W@@@std@@PAV12@00AAV?$K2VectorAllocator@V?$basic_string@_WU?$char_traits@_W@std@@V?$K2StringAllocator@_W@@@std@@@@@Z 170e1fc0 f i c_foliagerenderer.obj
 0002:00024030       ??$_Checked_base@PAV?$basic_string@_WU?$char_traits@_W@std@@V?$K2StringAllocator@_W@@@std@@@std@@YAPAV?$basic_string@_WU?$char_traits@_W@std@@V?$K2StringAllocator@_W@@@0@AAPAV10@@Z 170e2030 f i c_foliagerenderer.obj
 0002:00024060       ??$_Move_cat@PAV?$basic_string@_WU?$char_traits@_W@std@@V?$K2StringAllocator@_W@@@std@@@std@@YA?AU_Swap_move_tag@0@ABQAV?$basic_string@_WU?$char_traits@_W@std@@V?$K2StringAllocator@_W@@@0@@Z 170e2060 f i c_foliagerenderer.obj
 0002:00024080       ??$_Checked_base@PAV?$basic_string@_WU?$char_traits@_W@std@@V?$K2StringAllocator@_W@@@std@@@std@@YAPAV?$basic_string@_WU?$char_traits@_W@std@@V?$K2StringAllocator@_W@@@0@AAPAV10@U_Unchanged_checked_iterator_base_type_tag@0@@Z 170e2080 f i c_foliagerenderer.obj
 0002:000240a0       ??$_Uninit_move@PAV?$basic_string@_WU?$char_traits@_W@std@@V?$K2StringAllocator@_W@@@std@@PAV12@V?$K2VectorAllocator@V?$basic_string@_WU?$char_traits@_W@std@@V?$K2StringAllocator@_W@@@std@@@@@std@@YAPAV?$basic_string@_WU?$char_traits@_W@std@@V?$K2StringAllocator@_W@@@0@PAV10@00AAV?$K2VectorAllocator@V?$basic_string@_WU?$char_traits@_W@std@@V?$K2StringAllocator@_W@@@std@@@@U_Swap_move_tag@0@U_Range_checked_iterator_tag@0@@Z 170e20a0 f i c_foliagerenderer.obj
 0002:00024230       ??$_Debug_range@PAV?$basic_string@_WU?$char_traits@_W@std@@V?$K2StringAllocator@_W@@@std@@@std@@YAXPAV?$basic_string@_WU?$char_traits@_W@std@@V?$K2StringAllocator@_W@@@0@0PB_WI@Z 170e2230 f i c_foliagerenderer.obj
 0002:00024280       ??0?$basic_string@_WU?$char_traits@_W@std@@V?$K2StringAllocator@_W@@@std@@QAE@U_Has_debug_it@01@@Z 170e2280 f i c_foliagerenderer.obj
 0002:00024330       ??0_Has_debug_it@?$basic_string@_WU?$char_traits@_W@std@@V?$K2StringAllocator@_W@@@std@@QAE@_N@Z 170e2330 f i c_foliagerenderer.obj
 0002:00024360       ??$_Debug_pointer@V?$basic_string@_WU?$char_traits@_W@std@@V?$K2StringAllocator@_W@@@std@@@std@@YAXPAV?$basic_string@_WU?$char_traits@_W@std@@V?$K2StringAllocator@_W@@@0@PB_WI@Z 170e2360 f i c_foliagerenderer.obj
 0002:000243a0       ??$swap@_WU?$char_traits@_W@std@@V?$K2StringAllocator@_W@@@std@@YAXAAV?$basic_string@_WU?$char_traits@_W@std@@V?$K2StringAllocator@_W@@@0@0@Z 170e23a0 f i c_foliagerenderer.obj
 0002:000243d0       ??$_Iter_cat@PAV?$basic_string@_WU?$char_traits@_W@std@@V?$K2StringAllocator@_W@@@std@@@std@@YA?AUrandom_access_iterator_tag@0@ABQAV?$basic_string@_WU?$char_traits@_W@std@@V?$K2StringAllocator@_W@@@0@@Z 170e23d0 f i c_foliagerenderer.obj
 0002:000243f0       ??$_Debug_range2@PAV?$basic_string@_WU?$char_traits@_W@std@@V?$K2StringAllocator@_W@@@std@@@std@@YAXPAV?$basic_string@_WU?$char_traits@_W@std@@V?$K2StringAllocator@_W@@@0@0PB_WIUrandom_access_iterator_tag@0@@Z 170e23f0 f i c_foliagerenderer.obj
 0002:00024470       ?swap@?$basic_string@_WU?$char_traits@_W@std@@V?$K2StringAllocator@_W@@@std@@QAEXAAV12@@Z 170e2470 f i c_foliagerenderer.obj
 0002:00024620       ??4?$basic_string@_WU?$char_traits@_W@std@@V?$K2StringAllocator@_W@@@std@@QAEAAV01@ABV01@@Z 170e2620 f i c_foliagerenderer.obj
 0002:00024650       ?assign@?$basic_string@_WU?$char_traits@_W@std@@V?$K2StringAllocator@_W@@@std@@QAEAAV12@ABV12@@Z 170e2650 f i c_foliagerenderer.obj
 0002:00024690       ??$?8_W_W@std@@YA_NABV?$allocator@_W@0@0@Z 170e2690 f i c_foliagerenderer.obj
 0002:000246b0       ??$fill@PAV?$basic_string@_WU?$char_traits@_W@std@@V?$K2StringAllocator@_W@@@std@@V12@@std@@YAXPAV?$basic_string@_WU?$char_traits@_W@std@@V?$K2StringAllocator@_W@@@0@0ABV10@@Z 170e26b0 f i c_foliagerenderer.obj
 0002:00024700       ??$_Fill@PAV?$basic_string@_WU?$char_traits@_W@std@@V?$K2StringAllocator@_W@@@std@@V12@@std@@YAXPAV?$basic_string@_WU?$char_traits@_W@std@@V?$K2StringAllocator@_W@@@0@0ABV10@@Z 170e2700 f i c_foliagerenderer.obj
 0002:00024760       ??$_Unchecked_move_backward@PAV?$basic_string@_WU?$char_traits@_W@std@@V?$K2StringAllocator@_W@@@std@@PAV12@@stdext@@YAPAV?$basic_string@_WU?$char_traits@_W@std@@V?$K2StringAllocator@_W@@@std@@PAV12@00@Z 170e2760 f i c_foliagerenderer.obj
 0002:000247f0       ??$_Iter_random@PAV?$basic_string@_WU?$char_traits@_W@std@@V?$K2StringAllocator@_W@@@std@@PAV12@@std@@YA?AUrandom_access_iterator_tag@0@ABQAV?$basic_string@_WU?$char_traits@_W@std@@V?$K2StringAllocator@_W@@@0@0@Z 170e27f0 f i c_foliagerenderer.obj
 0002:00024810       ??$_Move_backward_opt@PAV?$basic_string@_WU?$char_traits@_W@std@@V?$K2StringAllocator@_W@@@std@@PAV12@@std@@YAPAV?$basic_string@_WU?$char_traits@_W@std@@V?$K2StringAllocator@_W@@@0@PAV10@00Urandom_access_iterator_tag@0@U_Swap_move_tag@0@U_Range_checked_iterator_tag@0@@Z 170e2810 f i c_foliagerenderer.obj
 0002:00024880       ??$_Move_backward_opt@PAV?$basic_string@_WU?$char_traits@_W@std@@V?$K2StringAllocator@_W@@@std@@PAV12@Uforward_iterator_tag@2@@std@@YAPAV?$basic_string@_WU?$char_traits@_W@std@@V?$K2StringAllocator@_W@@@0@PAV10@00Uforward_iterator_tag@0@U_Swap_move_tag@0@U_Range_checked_iterator_tag@0@@Z 170e2880 f i c_foliagerenderer.obj
 0002:000248f0       ??$_Destroy@V?$basic_string@_WU?$char_traits@_W@std@@V?$K2StringAllocator@_W@@@std@@@std@@YAXPAV?$basic_string@_WU?$char_traits@_W@std@@V?$K2StringAllocator@_W@@@0@@Z 170e28f0 f i c_foliagerenderer.obj
 0002:00024910       ??_G?$basic_string@_WU?$char_traits@_W@std@@V?$K2StringAllocator@_W@@@std@@QAEPAXI@Z 170e2910 f i c_foliagerenderer.obj
 0002:00024960       ??0?$CCvar@HH@@QAE@ABV?$basic_string@_WU?$char_traits@_W@std@@V?$K2StringAllocator@_W@@@std@@HHP6A_NPAVCConsoleElement@@ABV?$vector@V?$basic_string@_WU?$char_traits@_W@std@@V?$K2StringAllocator@_W@@@std@@V?$K2VectorAllocator@V?$basic_string@_WU?$char_traits@_W@std@@V?$K2StringAllocator@_W@@@std@@@@@@@Z@Z 170e2960 f i c_foliagerenderer.obj
 0002:00024a70       ??_G?$CCvar@HH@@UAEPAXI@Z  170e2a70 f i c_foliagerenderer.obj
 0002:00024a70       ??_E?$CCvar@HH@@UAEPAXI@Z  170e2a70 f i c_foliagerenderer.obj
 0002:00024ac0       ?Set@?$CCvar@HH@@UAEXABV?$basic_string@_WU?$char_traits@_W@std@@V?$K2StringAllocator@_W@@@std@@@Z 170e2ac0 f i c_foliagerenderer.obj
 0002:00024c10       ?AtoX@@YAAAHABV?$basic_string@_WU?$char_traits@_W@std@@V?$K2StringAllocator@_W@@@std@@AAH@Z 170e2c10 f i c_foliagerenderer.obj
 0002:00024c50       ??6CConsoleStream@@QAEAAV0@PB_W@Z 170e2c50 f i c_foliagerenderer.obj
 0002:00024ce0       ?AddOutputHistory@CConsoleStream@@AAEXABV?$basic_string@_WU?$char_traits@_W@std@@V?$K2StringAllocator@_W@@@std@@@Z 170e2ce0 f i c_foliagerenderer.obj
 0002:00024d10       ??6CConsoleStream@@QAEAAV0@ABV?$basic_string@_WU?$char_traits@_W@std@@V?$K2StringAllocator@_W@@@std@@@Z 170e2d10 f i c_foliagerenderer.obj
 0002:00024d40       ??6CConsoleStream@@QAEAAV0@H@Z 170e2d40 f i c_foliagerenderer.obj
 0002:00024df0       ?XtoW@@YA?AV?$basic_string@_WU?$char_traits@_W@std@@V?$K2StringAllocator@_W@@@std@@HHHH@Z 170e2df0 f i c_foliagerenderer.obj
 0002:00024e40       ?GetNewl@CConsole@@QBEABV?$basic_string@_WU?$char_traits@_W@std@@V?$K2StringAllocator@_W@@@std@@XZ 170e2e40 f i c_foliagerenderer.obj
 0002:00024e70       ?Inc@?$CCvar@HH@@UAEXABV?$basic_string@_WU?$char_traits@_W@std@@V?$K2StringAllocator@_W@@@std@@@Z 170e2e70 f i c_foliagerenderer.obj
 0002:00024ee0       ?AtoI@@YAHABV?$basic_string@_WU?$char_traits@_W@std@@V?$K2StringAllocator@_W@@@std@@@Z 170e2ee0 f i c_foliagerenderer.obj
 0002:00024f10       ?Toggle@?$CCvar@HH@@UAEXXZ 170e2f10 f i c_foliagerenderer.obj
 0002:00024f60       ??1?$CCvar@HH@@UAE@XZ      170e2f60 f i c_foliagerenderer.obj
 0002:00024f90       ?Reset@?$CCvar@HH@@UAEXXZ  170e2f90 f i c_foliagerenderer.obj
 0002:00024ff0       ?IsDefault@?$CCvar@HH@@UBE_NXZ 170e2ff0 f i c_foliagerenderer.obj
 0002:00025030       ?StoreValue@?$CCvar@HH@@UAEXXZ 170e3030 f i c_foliagerenderer.obj
 0002:00025060       ?RestoreStored@?$CCvar@HH@@UAEXXZ 170e3060 f i c_foliagerenderer.obj
 0002:00025090       ?GetString@?$CCvar@HH@@UBE?AV?$basic_string@_WU?$char_traits@_W@std@@V?$K2StringAllocator@_W@@@std@@XZ 170e3090 f i c_foliagerenderer.obj
 0002:000250f0       ?SetIndex@?$CCvar@HH@@UAEXIABV?$basic_string@_WU?$char_traits@_W@std@@V?$K2StringAllocator@_W@@@std@@@Z 170e30f0 f i c_foliagerenderer.obj
 0002:00025110       ??$_ItoW@H@@YA?AV?$basic_string@_WU?$char_traits@_W@std@@V?$K2StringAllocator@_W@@@std@@HHHH@Z 170e3110 f i c_foliagerenderer.obj
 0002:00025210       ??$ABS@H@@YAHH@Z           170e3210 f i c_foliagerenderer.obj
 0002:00025250       ?GetRangeString@?$CCvar@HH@@UBE?AV?$basic_string@_WU?$char_traits@_W@std@@V?$K2StringAllocator@_W@@@std@@XZ 170e3250 f i c_foliagerenderer.obj
 0002:000254b0       ??0?$const_string@_WU?$char_traits@_W@std@@V?$K2StringAllocator@_W@@@@QAE@QB_WI@Z 170e34b0 f i c_foliagerenderer.obj
 0002:00025510       ??0?$CPool@VCFoliageRenderer@@@@QAE@II@Z 170e3510 f i c_foliagerenderer.obj
 0002:000255d0       ??0?$vector@PAVCFoliageRenderer@@V?$K2VectorAllocator@PAVCFoliageRenderer@@@@@@QAE@XZ 170e35d0 f i c_foliagerenderer.obj
 0002:00025600       ??0?$vector@PAVCFoliageRenderer@@V?$K2VectorAllocator@PAVCFoliageRenderer@@@@@std@@QAE@XZ 170e3600 f i c_foliagerenderer.obj
 0002:00025690       ??1?$_Vector_val@PAVCFoliageRenderer@@V?$K2VectorAllocator@PAVCFoliageRenderer@@@@@std@@QAE@XZ 170e3690 f i c_foliagerenderer.obj
 0002:00025710       ??1?$K2VectorAllocator@PAVCFoliageRenderer@@@@QAE@XZ 170e3710 f i c_foliagerenderer.obj
 0002:00025730       ?_Buy@?$vector@PAVCFoliageRenderer@@V?$K2VectorAllocator@PAVCFoliageRenderer@@@@@std@@IAE_NI@Z 170e3730 f i c_foliagerenderer.obj
 0002:000257e0       ??0?$_Vector_val@PAVCFoliageRenderer@@V?$K2VectorAllocator@PAVCFoliageRenderer@@@@@std@@IAE@V?$K2VectorAllocator@PAVCFoliageRenderer@@@@@Z 170e37e0 f i c_foliagerenderer.obj
 0002:00025880       ??0?$K2VectorAllocator@PAVCFoliageRenderer@@@@QAE@XZ 170e3880 f i c_foliagerenderer.obj
 0002:000258b0       ??0?$K2VectorAllocator@PAVCFoliageRenderer@@@@QAE@ABV0@@Z 170e38b0 f i c_foliagerenderer.obj
 0002:000258e0       ??0?$allocator@PAVCFoliageRenderer@@@std@@QAE@XZ 170e38e0 f i c_foliagerenderer.obj
 0002:00025900       ??0?$allocator@PAVCFoliageRenderer@@@std@@QAE@ABV01@@Z 170e3900 f i c_foliagerenderer.obj
 0002:00025920       ??1?$const_string@_WU?$char_traits@_W@std@@V?$K2StringAllocator@_W@@@@QAE@XZ 170e3920 f i c_foliagerenderer.obj
 0002:00025950       ??1?$CPool@VCFoliageRenderer@@@@QAE@XZ 170e3950 f i c_foliagerenderer.obj
 0002:00025a00       ??1?$vector@PAVCFoliageRenderer@@V?$K2VectorAllocator@PAVCFoliageRenderer@@@@@@QAE@XZ 170e3a00 f i c_foliagerenderer.obj
 0002:00025a30       ??1?$vector@PAVCFoliageRenderer@@V?$K2VectorAllocator@PAVCFoliageRenderer@@@@@std@@QAE@XZ 170e3a30 f i c_foliagerenderer.obj
 0002:00025ab0       ?_Tidy@?$vector@PAVCFoliageRenderer@@V?$K2VectorAllocator@PAVCFoliageRenderer@@@@@std@@IAEXXZ 170e3ab0 f i c_foliagerenderer.obj
 0002:00025b50       ?Reset@?$CPool@VCFoliageRenderer@@@@QAEXXZ 170e3b50 f i c_foliagerenderer.obj
 0002:00025c70       ?clear@?$vector@PAVCFoliageRenderer@@V?$K2VectorAllocator@PAVCFoliageRenderer@@@@@std@@QAEXXZ 170e3c70 f i c_foliagerenderer.obj
 0002:00025d30       ??D?$_Vector_iterator@PAVCFoliageRenderer@@V?$K2VectorAllocator@PAVCFoliageRenderer@@@@@std@@QBEAAPAVCFoliageRenderer@@XZ 170e3d30 f i c_foliagerenderer.obj
 0002:00025d60       ??E?$_Vector_iterator@PAVCFoliageRenderer@@V?$K2VectorAllocator@PAVCFoliageRenderer@@@@@std@@QAEAAV01@XZ 170e3d60 f i c_foliagerenderer.obj
 0002:00025d90       ??9?$_Vector_const_iterator@PAVCFoliageRenderer@@V?$K2VectorAllocator@PAVCFoliageRenderer@@@@@std@@QBE_NABV01@@Z 170e3d90 f i c_foliagerenderer.obj
 0002:00025dd0       ?erase@?$vector@PAVCFoliageRenderer@@V?$K2VectorAllocator@PAVCFoliageRenderer@@@@@std@@QAE?AV?$_Vector_iterator@PAVCFoliageRenderer@@V?$K2VectorAllocator@PAVCFoliageRenderer@@@@@2@V32@0@Z 170e3dd0 f i c_foliagerenderer.obj
 0002:00025f50       ??D?$_Vector_const_iterator@PAVCFoliageRenderer@@V?$K2VectorAllocator@PAVCFoliageRenderer@@@@@std@@QBEABQAVCFoliageRenderer@@XZ 170e3f50 f i c_foliagerenderer.obj
 0002:00026010       ??E?$_Vector_const_iterator@PAVCFoliageRenderer@@V?$K2VectorAllocator@PAVCFoliageRenderer@@@@@std@@QAEAAV01@XZ 170e4010 f i c_foliagerenderer.obj
 0002:00026100       ??8?$_Vector_const_iterator@PAVCFoliageRenderer@@V?$K2VectorAllocator@PAVCFoliageRenderer@@@@@std@@QBE_NABV01@@Z 170e4100 f i c_foliagerenderer.obj
 0002:00026140       ??M?$_Vector_const_iterator@PAVCFoliageRenderer@@V?$K2VectorAllocator@PAVCFoliageRenderer@@@@@std@@QBE_NABV01@@Z 170e4140 f i c_foliagerenderer.obj
 0002:00026180       ??$unchecked_copy@PAPAVCFoliageRenderer@@PAPAV1@@stdext@@YAPAPAVCFoliageRenderer@@PAPAV1@00@Z 170e4180 f i c_foliagerenderer.obj
 0002:00026210       ??$_Copy_opt@PAPAVCFoliageRenderer@@PAPAV1@Urandom_access_iterator_tag@std@@@std@@YAPAPAVCFoliageRenderer@@PAPAV1@00Urandom_access_iterator_tag@0@U_Scalar_ptr_iterator_tag@0@U_Range_checked_iterator_tag@0@@Z 170e4210 f i c_foliagerenderer.obj
 0002:000262c0       ??2CLineRenderer@@SAPAXIPBD00F@Z 170e42c0 f   c_linerenderer.obj
 0002:000262e0       ??0CLineRenderer@@QAE@H@Z  170e42e0 f   c_linerenderer.obj
 0002:00026330       ??_GCLineRenderer@@UAEPAXI@Z 170e4330 f i c_linerenderer.obj
 0002:00026330       ??_ECLineRenderer@@UAEPAXI@Z 170e4330 f i c_linerenderer.obj
 0002:00026380       ??1CLineRenderer@@UAE@XZ   170e4380 f   c_linerenderer.obj
 0002:000263b0       ?Render@CLineRenderer@@UAEXW4EMaterialPhase@@@Z 170e43b0 f   c_linerenderer.obj
 0002:000264e0       ?Allocate@?$CPool@VCLineRenderer@@@@QAEPAVCLineRenderer@@XZ 170e44e0 f i c_linerenderer.obj
 0002:00026670       ?push_back@?$vector@PAVCLineRenderer@@V?$K2VectorAllocator@PAVCLineRenderer@@@@@std@@QAEXABQAVCLineRenderer@@@Z 170e4670 f i c_linerenderer.obj
 0002:00026720       ??1?$_Vector_iterator@PAVCLineRenderer@@V?$K2VectorAllocator@PAVCLineRenderer@@@@@std@@QAE@XZ 170e4720 f i c_linerenderer.obj
 0002:00026750       ??1?$_Vector_const_iterator@PAVCLineRenderer@@V?$K2VectorAllocator@PAVCLineRenderer@@@@@std@@QAE@XZ 170e4750 f i c_linerenderer.obj
 0002:00026780       ??1?$_Ranit@PAVCLineRenderer@@HPBQAV1@ABQAV1@@std@@QAE@XZ 170e4780 f i c_linerenderer.obj
 0002:000267b0       ?end@?$vector@PAVCLineRenderer@@V?$K2VectorAllocator@PAVCLineRenderer@@@@@std@@QAE?AV?$_Vector_iterator@PAVCLineRenderer@@V?$K2VectorAllocator@PAVCLineRenderer@@@@@2@XZ 170e47b0 f i c_linerenderer.obj
 0002:00026800       ?capacity@?$vector@PAVCLineRenderer@@V?$K2VectorAllocator@PAVCLineRenderer@@@@@std@@QBEIXZ 170e4800 f i c_linerenderer.obj
 0002:00026850       ?size@?$vector@PAVCLineRenderer@@V?$K2VectorAllocator@PAVCLineRenderer@@@@@std@@QBEIXZ 170e4850 f i c_linerenderer.obj
 0002:000268a0       ?insert@?$vector@PAVCLineRenderer@@V?$K2VectorAllocator@PAVCLineRenderer@@@@@std@@QAE?AV?$_Vector_iterator@PAVCLineRenderer@@V?$K2VectorAllocator@PAVCLineRenderer@@@@@2@V32@ABQAVCLineRenderer@@@Z 170e48a0 f i c_linerenderer.obj
 0002:00026a10       ?begin@?$vector@PAVCLineRenderer@@V?$K2VectorAllocator@PAVCLineRenderer@@@@@std@@QAE?AV?$_Vector_iterator@PAVCLineRenderer@@V?$K2VectorAllocator@PAVCLineRenderer@@@@@2@XZ 170e4a10 f i c_linerenderer.obj
 0002:00026a60       ?_Ufill@?$vector@PAVCLineRenderer@@V?$K2VectorAllocator@PAVCLineRenderer@@@@@std@@IAEPAPAVCLineRenderer@@PAPAV3@IABQAV3@@Z 170e4a60 f i c_linerenderer.obj
 0002:00026ab0       ?_Orphan_range@?$vector@PAVCLineRenderer@@V?$K2VectorAllocator@PAVCLineRenderer@@@@@std@@IBEXPAPAVCLineRenderer@@0@Z 170e4ab0 f i c_linerenderer.obj
 0002:00026b50       ??0?$_Vector_iterator@PAVCLineRenderer@@V?$K2VectorAllocator@PAVCLineRenderer@@@@@std@@QAE@PAPAVCLineRenderer@@PBV_Container_base@1@@Z 170e4b50 f i c_linerenderer.obj
 0002:00026b90       ??0?$_Vector_iterator@PAVCLineRenderer@@V?$K2VectorAllocator@PAVCLineRenderer@@@@@std@@QAE@ABV01@@Z 170e4b90 f i c_linerenderer.obj
 0002:00026bc0       ??0?$_Vector_const_iterator@PAVCLineRenderer@@V?$K2VectorAllocator@PAVCLineRenderer@@@@@std@@QAE@ABV01@@Z 170e4bc0 f i c_linerenderer.obj
 0002:00026c00       ??0?$_Ranit@PAVCLineRenderer@@HPBQAV1@ABQAV1@@std@@QAE@ABU01@@Z 170e4c00 f i c_linerenderer.obj
 0002:00026c30       ?_Insert_n@?$vector@PAVCLineRenderer@@V?$K2VectorAllocator@PAVCLineRenderer@@@@@std@@IAEXV?$_Vector_iterator@PAVCLineRenderer@@V?$K2VectorAllocator@PAVCLineRenderer@@@@@2@IABQAVCLineRenderer@@@Z 170e4c30 f i c_linerenderer.obj
 0002:000270e0       ?_Destroy@?$vector@PAVCLineRenderer@@V?$K2VectorAllocator@PAVCLineRenderer@@@@@std@@IAEXPAPAVCLineRenderer@@0@Z 170e50e0 f i c_linerenderer.obj
 0002:00027120       ?deallocate@?$K2VectorAllocator@PAVCLineRenderer@@@@QAEXPAPAVCLineRenderer@@I@Z 170e5120 f i c_linerenderer.obj
 0002:00027160       ??$_Destroy_range@PAVCLineRenderer@@V?$K2VectorAllocator@PAVCLineRenderer@@@@@std@@YAXPAPAVCLineRenderer@@0AAV?$K2VectorAllocator@PAVCLineRenderer@@@@@Z 170e5160 f i c_linerenderer.obj
 0002:000271b0       ??H?$_Vector_iterator@PAVCLineRenderer@@V?$K2VectorAllocator@PAVCLineRenderer@@@@@std@@QBE?AV01@H@Z 170e51b0 f i c_linerenderer.obj
 0002:00027260       ??G?$_Vector_iterator@PAVCLineRenderer@@V?$K2VectorAllocator@PAVCLineRenderer@@@@@std@@QBEHABV?$_Vector_const_iterator@PAVCLineRenderer@@V?$K2VectorAllocator@PAVCLineRenderer@@@@@1@@Z 170e5260 f i c_linerenderer.obj
 0002:00027290       ??0?$_Vector_const_iterator@PAVCLineRenderer@@V?$K2VectorAllocator@PAVCLineRenderer@@@@@std@@QAE@PAPAVCLineRenderer@@PBV_Container_base@1@@Z 170e5290 f i c_linerenderer.obj
 0002:00027390       ??0?$_Ranit@PAVCLineRenderer@@HPBQAV1@ABQAV1@@std@@QAE@XZ 170e5390 f i c_linerenderer.obj
 0002:000273c0       ?max_size@?$vector@PAVCLineRenderer@@V?$K2VectorAllocator@PAVCLineRenderer@@@@@std@@QBEIXZ 170e53c0 f i c_linerenderer.obj
 0002:000273f0       ?_Xlen@?$vector@PAVCLineRenderer@@V?$K2VectorAllocator@PAVCLineRenderer@@@@@std@@KAXXZ 170e53f0 f i c_linerenderer.obj
 0002:000274a0       ?allocate@?$K2VectorAllocator@PAVCLineRenderer@@@@QAEPAPAVCLineRenderer@@I@Z 170e54a0 f i c_linerenderer.obj
 0002:000274f0       ??Y?$_Vector_iterator@PAVCLineRenderer@@V?$K2VectorAllocator@PAVCLineRenderer@@@@@std@@QAEAAV01@H@Z 170e54f0 f i c_linerenderer.obj
 0002:00027520       ??G?$_Vector_const_iterator@PAVCLineRenderer@@V?$K2VectorAllocator@PAVCLineRenderer@@@@@std@@QBEHABV01@@Z 170e5520 f i c_linerenderer.obj
 0002:00027560       ?_Compat@?$_Vector_const_iterator@PAVCLineRenderer@@V?$K2VectorAllocator@PAVCLineRenderer@@@@@std@@QBEXABV12@@Z 170e5560 f i c_linerenderer.obj
 0002:00027610       ?max_size@?$allocator@PAVCLineRenderer@@@std@@QBEIXZ 170e5610 f i c_linerenderer.obj
 0002:00027650       ??Y?$_Vector_const_iterator@PAVCLineRenderer@@V?$K2VectorAllocator@PAVCLineRenderer@@@@@std@@QAEAAV01@H@Z 170e5650 f i c_linerenderer.obj
 0002:00027780       ??$_Ptr_cat@PAPAVCLineRenderer@@PAPAV1@@std@@YA?AU_Scalar_ptr_iterator_tag@0@AAPAPAVCLineRenderer@@0@Z 170e5780 f i c_linerenderer.obj
 0002:000277a0       ??$_Destroy_range@PAVCLineRenderer@@V?$K2VectorAllocator@PAVCLineRenderer@@@@@std@@YAXPAPAVCLineRenderer@@0AAV?$K2VectorAllocator@PAVCLineRenderer@@@@U_Scalar_ptr_iterator_tag@0@@Z 170e57a0 f i c_linerenderer.obj
 0002:000277c0       ??$unchecked_uninitialized_fill_n@PAPAVCLineRenderer@@IPAV1@V?$K2VectorAllocator@PAVCLineRenderer@@@@@stdext@@YAXPAPAVCLineRenderer@@IABQAV1@AAV?$K2VectorAllocator@PAVCLineRenderer@@@@@Z 170e57c0 f i c_linerenderer.obj
 0002:00027820       ??$_Umove@PAPAVCLineRenderer@@@?$vector@PAVCLineRenderer@@V?$K2VectorAllocator@PAVCLineRenderer@@@@@std@@IAEPAPAVCLineRenderer@@PAPAV2@00@Z 170e5820 f i c_linerenderer.obj
 0002:00027860       ??$fill@PAPAVCLineRenderer@@PAV1@@std@@YAXPAPAVCLineRenderer@@0ABQAV1@@Z 170e5860 f i c_linerenderer.obj
 0002:000278b0       ??$_Unchecked_move_backward@PAPAVCLineRenderer@@PAPAV1@@stdext@@YAPAPAVCLineRenderer@@PAPAV1@00@Z 170e58b0 f i c_linerenderer.obj
 0002:00027940       ??$_Checked_base@PAPAVCLineRenderer@@@std@@YAPAPAVCLineRenderer@@AAPAPAV1@@Z 170e5940 f i c_linerenderer.obj
 0002:00027970       ??$_Iter_random@PAPAVCLineRenderer@@PAPAV1@@std@@YA?AUrandom_access_iterator_tag@0@ABQAPAVCLineRenderer@@0@Z 170e5970 f i c_linerenderer.obj
 0002:00027990       ??$_Uninit_fill_n@PAPAVCLineRenderer@@IPAV1@V?$K2VectorAllocator@PAVCLineRenderer@@@@@std@@YAXPAPAVCLineRenderer@@IABQAV1@AAV?$K2VectorAllocator@PAVCLineRenderer@@@@U_Scalar_ptr_iterator_tag@0@U_Range_checked_iterator_tag@0@@Z 170e5990 f i c_linerenderer.obj
 0002:000279c0       ??$_Unchecked_uninitialized_move@PAPAVCLineRenderer@@PAPAV1@V?$K2VectorAllocator@PAVCLineRenderer@@@@@stdext@@YAPAPAVCLineRenderer@@PAPAV1@00AAV?$K2VectorAllocator@PAVCLineRenderer@@@@@Z 170e59c0 f i c_linerenderer.obj
 0002:00027a30       ??$_Fill@PAPAVCLineRenderer@@PAV1@@std@@YAXPAPAVCLineRenderer@@0ABQAV1@@Z 170e5a30 f i c_linerenderer.obj
 0002:00027a90       ??$_Move_cat@PAPAVCLineRenderer@@@std@@YA?AU_Undefined_move_tag@0@ABQAPAVCLineRenderer@@@Z 170e5a90 f i c_linerenderer.obj
 0002:00027ab0       ??$_Move_backward_opt@PAPAVCLineRenderer@@PAPAV1@Urandom_access_iterator_tag@std@@U_Undefined_move_tag@3@@std@@YAPAPAVCLineRenderer@@PAPAV1@00Urandom_access_iterator_tag@0@U_Undefined_move_tag@0@U_Range_checked_iterator_tag@0@@Z 170e5ab0 f i c_linerenderer.obj
 0002:00027b10       ??$_Checked_base@PAPAVCLineRenderer@@@std@@YAPAPAVCLineRenderer@@AAPAPAV1@U_Unchanged_checked_iterator_base_type_tag@0@@Z 170e5b10 f i c_linerenderer.obj
 0002:00027b30       ??$_Debug_range@PAPAVCLineRenderer@@@std@@YAXPAPAVCLineRenderer@@0PB_WI@Z 170e5b30 f i c_linerenderer.obj
 0002:00027b80       ??$unchecked_fill_n@PAPAVCLineRenderer@@IPAV1@@stdext@@YAXPAPAVCLineRenderer@@IABQAV1@@Z 170e5b80 f i c_linerenderer.obj
 0002:00027bd0       ??$_Uninit_move@PAPAVCLineRenderer@@PAPAV1@V?$K2VectorAllocator@PAVCLineRenderer@@@@U_Undefined_move_tag@std@@@std@@YAPAPAVCLineRenderer@@PAPAV1@00AAV?$K2VectorAllocator@PAVCLineRenderer@@@@U_Undefined_move_tag@0@U_Range_checked_iterator_tag@0@@Z 170e5bd0 f i c_linerenderer.obj
 0002:00027c10       ??$_Copy_backward_opt@PAPAVCLineRenderer@@PAPAV1@Urandom_access_iterator_tag@std@@@std@@YAPAPAVCLineRenderer@@PAPAV1@00Urandom_access_iterator_tag@0@U_Scalar_ptr_iterator_tag@0@U_Range_checked_iterator_tag@0@@Z 170e5c10 f i c_linerenderer.obj
 0002:00027cc0       ??$_Debug_pointer@PAVCLineRenderer@@@std@@YAXPAPAVCLineRenderer@@PB_WI@Z 170e5cc0 f i c_linerenderer.obj
 0002:00027d00       ??$_Iter_cat@PAPAVCLineRenderer@@@std@@YA?AUrandom_access_iterator_tag@0@ABQAPAVCLineRenderer@@@Z 170e5d00 f i c_linerenderer.obj
 0002:00027d20       ??$_Debug_range2@PAPAVCLineRenderer@@@std@@YAXPAPAVCLineRenderer@@0PB_WIUrandom_access_iterator_tag@0@@Z 170e5d20 f i c_linerenderer.obj
 0002:00027da0       ??$_Fill_n@PAPAVCLineRenderer@@IPAV1@@std@@YAXPAPAVCLineRenderer@@IABQAV1@Urandom_access_iterator_tag@0@U_Range_checked_iterator_tag@0@@Z 170e5da0 f i c_linerenderer.obj
 0002:00027e00       ??$unchecked_uninitialized_copy@PAPAVCLineRenderer@@PAPAV1@V?$K2VectorAllocator@PAVCLineRenderer@@@@@stdext@@YAPAPAVCLineRenderer@@PAPAV1@00AAV?$K2VectorAllocator@PAVCLineRenderer@@@@@Z 170e5e00 f i c_linerenderer.obj
 0002:00027e70       ??$_Fill_n@PAPAVCLineRenderer@@IPAV1@@std@@YAXPAPAVCLineRenderer@@IABQAV1@U_Range_checked_iterator_tag@0@@Z 170e5e70 f i c_linerenderer.obj
 0002:00027ec0       ??$_Uninit_copy@PAPAVCLineRenderer@@PAPAV1@V?$K2VectorAllocator@PAVCLineRenderer@@@@@std@@YAPAPAVCLineRenderer@@PAPAV1@00AAV?$K2VectorAllocator@PAVCLineRenderer@@@@U_Scalar_ptr_iterator_tag@0@U_Range_checked_iterator_tag@0@@Z 170e5ec0 f i c_linerenderer.obj
 0002:00027f60       ??0?$CPool@VCLineRenderer@@@@QAE@II@Z 170e5f60 f i c_linerenderer.obj
 0002:00028020       ??0?$vector@PAVCLineRenderer@@V?$K2VectorAllocator@PAVCLineRenderer@@@@@@QAE@XZ 170e6020 f i c_linerenderer.obj
 0002:00028050       ??0?$vector@PAVCLineRenderer@@V?$K2VectorAllocator@PAVCLineRenderer@@@@@std@@QAE@XZ 170e6050 f i c_linerenderer.obj
 0002:000280e0       ??1?$_Vector_val@PAVCLineRenderer@@V?$K2VectorAllocator@PAVCLineRenderer@@@@@std@@QAE@XZ 170e60e0 f i c_linerenderer.obj
 0002:00028160       ??1?$K2VectorAllocator@PAVCLineRenderer@@@@QAE@XZ 170e6160 f i c_linerenderer.obj
 0002:00028180       ?_Buy@?$vector@PAVCLineRenderer@@V?$K2VectorAllocator@PAVCLineRenderer@@@@@std@@IAE_NI@Z 170e6180 f i c_linerenderer.obj
 0002:00028230       ??0?$_Vector_val@PAVCLineRenderer@@V?$K2VectorAllocator@PAVCLineRenderer@@@@@std@@IAE@V?$K2VectorAllocator@PAVCLineRenderer@@@@@Z 170e6230 f i c_linerenderer.obj
 0002:000282d0       ??0?$K2VectorAllocator@PAVCLineRenderer@@@@QAE@XZ 170e62d0 f i c_linerenderer.obj
 0002:00028300       ??0?$K2VectorAllocator@PAVCLineRenderer@@@@QAE@ABV0@@Z 170e6300 f i c_linerenderer.obj
 0002:00028330       ??0?$allocator@PAVCLineRenderer@@@std@@QAE@XZ 170e6330 f i c_linerenderer.obj
 0002:00028350       ??0?$allocator@PAVCLineRenderer@@@std@@QAE@ABV01@@Z 170e6350 f i c_linerenderer.obj
 0002:00028370       ??1?$CPool@VCLineRenderer@@@@QAE@XZ 170e6370 f i c_linerenderer.obj
 0002:00028420       ??1?$vector@PAVCLineRenderer@@V?$K2VectorAllocator@PAVCLineRenderer@@@@@@QAE@XZ 170e6420 f i c_linerenderer.obj
 0002:00028450       ??1?$vector@PAVCLineRenderer@@V?$K2VectorAllocator@PAVCLineRenderer@@@@@std@@QAE@XZ 170e6450 f i c_linerenderer.obj
 0002:000284d0       ?_Tidy@?$vector@PAVCLineRenderer@@V?$K2VectorAllocator@PAVCLineRenderer@@@@@std@@IAEXXZ 170e64d0 f i c_linerenderer.obj
 0002:00028570       ?Reset@?$CPool@VCLineRenderer@@@@QAEXXZ 170e6570 f i c_linerenderer.obj
 0002:00028690       ?clear@?$vector@PAVCLineRenderer@@V?$K2VectorAllocator@PAVCLineRenderer@@@@@std@@QAEXXZ 170e6690 f i c_linerenderer.obj
 0002:00028750       ??D?$_Vector_iterator@PAVCLineRenderer@@V?$K2VectorAllocator@PAVCLineRenderer@@@@@std@@QBEAAPAVCLineRenderer@@XZ 170e6750 f i c_linerenderer.obj
 0002:00028780       ??E?$_Vector_iterator@PAVCLineRenderer@@V?$K2VectorAllocator@PAVCLineRenderer@@@@@std@@QAEAAV01@XZ 170e6780 f i c_linerenderer.obj
 0002:000287b0       ??9?$_Vector_const_iterator@PAVCLineRenderer@@V?$K2VectorAllocator@PAVCLineRenderer@@@@@std@@QBE_NABV01@@Z 170e67b0 f i c_linerenderer.obj
 0002:000287f0       ?erase@?$vector@PAVCLineRenderer@@V?$K2VectorAllocator@PAVCLineRenderer@@@@@std@@QAE?AV?$_Vector_iterator@PAVCLineRenderer@@V?$K2VectorAllocator@PAVCLineRenderer@@@@@2@V32@0@Z 170e67f0 f i c_linerenderer.obj
 0002:00028970       ??D?$_Vector_const_iterator@PAVCLineRenderer@@V?$K2VectorAllocator@PAVCLineRenderer@@@@@std@@QBEABQAVCLineRenderer@@XZ 170e6970 f i c_linerenderer.obj
 0002:00028a30       ??E?$_Vector_const_iterator@PAVCLineRenderer@@V?$K2VectorAllocator@PAVCLineRenderer@@@@@std@@QAEAAV01@XZ 170e6a30 f i c_linerenderer.obj
 0002:00028b20       ??8?$_Vector_const_iterator@PAVCLineRenderer@@V?$K2VectorAllocator@PAVCLineRenderer@@@@@std@@QBE_NABV01@@Z 170e6b20 f i c_linerenderer.obj
 0002:00028b60       ??M?$_Vector_const_iterator@PAVCLineRenderer@@V?$K2VectorAllocator@PAVCLineRenderer@@@@@std@@QBE_NABV01@@Z 170e6b60 f i c_linerenderer.obj
 0002:00028ba0       ??$unchecked_copy@PAPAVCLineRenderer@@PAPAV1@@stdext@@YAPAPAVCLineRenderer@@PAPAV1@00@Z 170e6ba0 f i c_linerenderer.obj
 0002:00028c30       ??$_Copy_opt@PAPAVCLineRenderer@@PAPAV1@Urandom_access_iterator_tag@std@@@std@@YAPAPAVCLineRenderer@@PAPAV1@00Urandom_access_iterator_tag@0@U_Scalar_ptr_iterator_tag@0@U_Range_checked_iterator_tag@0@@Z 170e6c30 f i c_linerenderer.obj
 0002:00028ce0       ??2CMeshRenderer@@SAPAXIPBD00F@Z 170e6ce0 f   c_meshrenderer.obj
 0002:00028d00       ??0CMeshRenderer@@QAE@IABVCSceneEntity@@PAVCMesh@@ABU_D3DXMATRIXA16@@2ABUSSceneEntityEntry@@@Z 170e6d00 f   c_meshrenderer.obj
 0002:00029470       ?GetBoneIndex@CBoneList@@QAEHH@Z 170e7470 f i c_meshrenderer.obj
 0002:000294c0       ?GetNumBones@CBoneList@@QAEHXZ 170e74c0 f i c_meshrenderer.obj
 0002:000294f0       ?GetBoneMapping@CK2Model@@QAEPAHXZ 170e74f0 f i c_meshrenderer.obj
 0002:00029520       ?GetBoneState@CSkeleton@@QAEPAUSBoneState@@I@Z 170e7520 f i c_meshrenderer.obj
 0002:00029550       ?GetNumBones@CSkeleton@@QAEIXZ 170e7550 f i c_meshrenderer.obj
 0002:00029570       ?IsValid@CSkeleton@@QAE_NXZ 170e7570 f i c_meshrenderer.obj
 0002:00029590       ??0_D3DXMATRIXA16@@QAE@XZ  170e7590 f i c_meshrenderer.obj
 0002:000295c0       ??0D3DXMATRIX@@QAE@XZ      170e75c0 f i c_meshrenderer.obj
 0002:000295e0       ??BD3DXMATRIX@@QAEPAMXZ    170e75e0 f i c_meshrenderer.obj
 0002:00029600       ??DD3DXMATRIX@@QBE?AU0@ABU0@@Z 170e7600 f i c_meshrenderer.obj
 0002:00029660       ??4_D3DXMATRIXA16@@QAEAAU0@ABUD3DXMATRIX@@@Z 170e7660 f i c_meshrenderer.obj
 0002:000296a0       ??_GCMeshRenderer@@UAEPAXI@Z 170e76a0 f i c_meshrenderer.obj
 0002:000296a0       ??_ECMeshRenderer@@UAEPAXI@Z 170e76a0 f i c_meshrenderer.obj
 0002:000296f0       ??1CMeshRenderer@@UAE@XZ   170e76f0 f   c_meshrenderer.obj
 0002:00029720       ?MeshShouldDeform@CMeshRenderer@@AAE_NABVCSceneEntity@@PAVCMesh@@@Z 170e7720 f   c_meshrenderer.obj
 0002:00029780       ?Setup@CMeshRenderer@@UAEXW4EMaterialPhase@@@Z 170e7780 f   c_meshrenderer.obj
 0002:0002a850       ?GetTranslucent@CMaterialPhase@@QBE_NXZ 170e8850 f i c_meshrenderer.obj
 0002:0002a880       ?GetAlphaTest@CMaterialPhase@@QBE_NXZ 170e8880 f i c_meshrenderer.obj
 0002:0002a8b0       ?GetLighting@CMaterialPhase@@QBE_NXZ 170e88b0 f i c_meshrenderer.obj
 0002:0002a8e0       ?GetShadows@CMaterialPhase@@QBE_NXZ 170e88e0 f i c_meshrenderer.obj
 0002:0002a910       ?GetFog@CMaterialPhase@@QBE_NXZ 170e8910 f i c_meshrenderer.obj
 0002:0002a940       ?GetDepthSortBias@CMaterialPhase@@QBEMXZ 170e8940 f i c_meshrenderer.obj
 0002:0002a960       ?GetRefractive@CMaterialPhase@@QBE_NXZ 170e8960 f i c_meshrenderer.obj
 0002:0002a990       ?GetVampire@CMaterialPhase@@QBE_NXZ 170e8990 f i c_meshrenderer.obj
 0002:0002a9c0       ?GetLightingScheme@CMaterial@@QBE?AW4ELightingScheme@@XZ 170e89c0 f i c_meshrenderer.obj
 0002:0002a9f0       ?SetPass@CMaterial@@QAEXH@Z 170e89f0 f i c_meshrenderer.obj
 0002:0002aa20       ?GetActive@CSceneBuffer@@QAE_NXZ 170e8a20 f i c_meshrenderer.obj
 0002:0002aa40       ?SetRenderStates@CMeshRenderer@@AAE_NW4EMaterialPhase@@@Z 170e8a40 f   c_meshrenderer.obj
 0002:0002b540       ?GetWireframe@CMaterialPhase@@QBE_NXZ 170e9540 f i c_meshrenderer.obj
 0002:0002b570       ?GetPass@CMaterial@@QBEHXZ 170e9570 f i c_meshrenderer.obj
 0002:0002b5a0       ?GetScale@CWorld@@QBEMXZ   170e95a0 f i c_meshrenderer.obj
 0002:0002b5d0       ?GetTileWidth@CWorld@@QBEHXZ 170e95d0 f i c_meshrenderer.obj
 0002:0002b600       ?GetTileHeight@CWorld@@QBEHXZ 170e9600 f i c_meshrenderer.obj
 0002:0002b630       ?GetTileDiffuseTexture@CWorld@@QBEIHHH@Z 170e9630 f i c_meshrenderer.obj
 0002:0002b680       ?GetTextureHandle@CWorld@@QBEIH@Z 170e9680 f i c_meshrenderer.obj
 0002:0002b6c0       ?GetTileNormalmapTexture@CWorld@@QBEIHHH@Z 170e96c0 f i c_meshrenderer.obj
 0002:0002b710       ?DrawStaticMesh@CMeshRenderer@@AAE_NXZ 170e9710 f   c_meshrenderer.obj
 0002:0002b7f0       ?DrawSkinnedMesh@CMeshRenderer@@AAE_NXZ 170e97f0 f   c_meshrenderer.obj
 0002:0002d4a0       ?GetName@IModel@@QBEABV?$basic_string@_WU?$char_traits@_W@std@@V?$K2StringAllocator@_W@@@std@@XZ 170eb4a0 f i c_meshrenderer.obj
 0002:0002d4c0       ?Set@CMemManager@@SAPAXPAXEI@Z 170eb4c0 f i c_meshrenderer.obj
 0002:0002d4f0       ?DrawSkinnedMeshGPU@CMeshRenderer@@AAE_NXZ 170eb4f0 f   c_meshrenderer.obj
 0002:0002d5d0       ?DrawMesh@CMeshRenderer@@AAEXW4EMaterialPhase@@@Z 170eb5d0 f   c_meshrenderer.obj
 0002:0002d700       ?DrawStaticNormals@CMeshRenderer@@AAE_NXZ 170eb700 f   c_meshrenderer.obj
 0002:0002dc10       ?DrawSkinnedNormals@CMeshRenderer@@AAE_NXZ 170ebc10 f   c_meshrenderer.obj
 0002:0002eb60       ?DrawNormals@CMeshRenderer@@AAEXXZ 170ecb60 f   c_meshrenderer.obj
 0002:0002ebd0       ?Render@CMeshRenderer@@UAEXW4EMaterialPhase@@@Z 170ecbd0 f   c_meshrenderer.obj
 0002:0002efe0       ?GetNumMultiPass@CMaterialPhase@@QBEHXZ 170ecfe0 f i c_meshrenderer.obj
 0002:0002f010       ?floor@@YAMM@Z             170ed010 f i c_meshrenderer.obj
 0002:0002f040       _floorf                    170ed040 f i c_meshrenderer.obj
 0002:0002f080       ?size@?$vector@HV?$K2VectorAllocator@H@@@std@@QBEIXZ 170ed080 f i c_meshrenderer.obj
 0002:0002f0d0       ??A?$vector@HV?$K2VectorAllocator@H@@@std@@QAEAAHI@Z 170ed0d0 f i c_meshrenderer.obj
 0002:0002f1f0       ?INT_FLOOR@@YAHM@Z         170ed1f0 f i c_meshrenderer.obj
 0002:0002f210       ??B?$CCvar@MM@@QBEMXZ      170ed210 f i c_meshrenderer.obj
 0002:0002f240       ?M_Identity@@YAXPAUmatrix43_s@@@Z 170ed240 f i c_meshrenderer.obj
 0002:0002f350       ?M_TransformPoint@@YAXQBM0QAY02$$CBMQAM@Z 170ed350 f i c_meshrenderer.obj
 0002:0002f440       ?M_RotatePoint@@YAXQBMQAY02$$CBMQAM@Z 170ed440 f i c_meshrenderer.obj
 0002:0002f510       ?Allocate@?$CPool@VCMeshRenderer@@@@QAEPAVCMeshRenderer@@XZ 170ed510 f i c_meshrenderer.obj
 0002:0002f6a0       ??$min@H@std@@YAABHABH0@Z  170ed6a0 f i c_meshrenderer.obj
 0002:0002f700       ?push_back@?$vector@PAVCMeshRenderer@@V?$K2VectorAllocator@PAVCMeshRenderer@@@@@std@@QAEXABQAVCMeshRenderer@@@Z 170ed700 f i c_meshrenderer.obj
 0002:0002f7b0       ??1?$_Vector_iterator@PAVCMeshRenderer@@V?$K2VectorAllocator@PAVCMeshRenderer@@@@@std@@QAE@XZ 170ed7b0 f i c_meshrenderer.obj
 0002:0002f7e0       ??1?$_Vector_const_iterator@PAVCMeshRenderer@@V?$K2VectorAllocator@PAVCMeshRenderer@@@@@std@@QAE@XZ 170ed7e0 f i c_meshrenderer.obj
 0002:0002f810       ??1?$_Ranit@PAVCMeshRenderer@@HPBQAV1@ABQAV1@@std@@QAE@XZ 170ed810 f i c_meshrenderer.obj
 0002:0002f840       ?end@?$vector@PAVCMeshRenderer@@V?$K2VectorAllocator@PAVCMeshRenderer@@@@@std@@QAE?AV?$_Vector_iterator@PAVCMeshRenderer@@V?$K2VectorAllocator@PAVCMeshRenderer@@@@@2@XZ 170ed840 f i c_meshrenderer.obj
 0002:0002f890       ?capacity@?$vector@PAVCMeshRenderer@@V?$K2VectorAllocator@PAVCMeshRenderer@@@@@std@@QBEIXZ 170ed890 f i c_meshrenderer.obj
 0002:0002f8e0       ?size@?$vector@PAVCMeshRenderer@@V?$K2VectorAllocator@PAVCMeshRenderer@@@@@std@@QBEIXZ 170ed8e0 f i c_meshrenderer.obj
 0002:0002f930       ?insert@?$vector@PAVCMeshRenderer@@V?$K2VectorAllocator@PAVCMeshRenderer@@@@@std@@QAE?AV?$_Vector_iterator@PAVCMeshRenderer@@V?$K2VectorAllocator@PAVCMeshRenderer@@@@@2@V32@ABQAVCMeshRenderer@@@Z 170ed930 f i c_meshrenderer.obj
 0002:0002faa0       ?begin@?$vector@PAVCMeshRenderer@@V?$K2VectorAllocator@PAVCMeshRenderer@@@@@std@@QAE?AV?$_Vector_iterator@PAVCMeshRenderer@@V?$K2VectorAllocator@PAVCMeshRenderer@@@@@2@XZ 170edaa0 f i c_meshrenderer.obj
 0002:0002faf0       ?_Ufill@?$vector@PAVCMeshRenderer@@V?$K2VectorAllocator@PAVCMeshRenderer@@@@@std@@IAEPAPAVCMeshRenderer@@PAPAV3@IABQAV3@@Z 170edaf0 f i c_meshrenderer.obj
 0002:0002fb40       ?_Orphan_range@?$vector@PAVCMeshRenderer@@V?$K2VectorAllocator@PAVCMeshRenderer@@@@@std@@IBEXPAPAVCMeshRenderer@@0@Z 170edb40 f i c_meshrenderer.obj
 0002:0002fbe0       ??0?$_Vector_iterator@PAVCMeshRenderer@@V?$K2VectorAllocator@PAVCMeshRenderer@@@@@std@@QAE@PAPAVCMeshRenderer@@PBV_Container_base@1@@Z 170edbe0 f i c_meshrenderer.obj
 0002:0002fc20       ??0?$_Vector_iterator@PAVCMeshRenderer@@V?$K2VectorAllocator@PAVCMeshRenderer@@@@@std@@QAE@ABV01@@Z 170edc20 f i c_meshrenderer.obj
 0002:0002fc50       ??0?$_Vector_const_iterator@PAVCMeshRenderer@@V?$K2VectorAllocator@PAVCMeshRenderer@@@@@std@@QAE@ABV01@@Z 170edc50 f i c_meshrenderer.obj
 0002:0002fc90       ??0?$_Ranit@PAVCMeshRenderer@@HPBQAV1@ABQAV1@@std@@QAE@ABU01@@Z 170edc90 f i c_meshrenderer.obj
 0002:0002fcc0       ?_Insert_n@?$vector@PAVCMeshRenderer@@V?$K2VectorAllocator@PAVCMeshRenderer@@@@@std@@IAEXV?$_Vector_iterator@PAVCMeshRenderer@@V?$K2VectorAllocator@PAVCMeshRenderer@@@@@2@IABQAVCMeshRenderer@@@Z 170edcc0 f i c_meshrenderer.obj
 0002:00030170       ?_Destroy@?$vector@PAVCMeshRenderer@@V?$K2VectorAllocator@PAVCMeshRenderer@@@@@std@@IAEXPAPAVCMeshRenderer@@0@Z 170ee170 f i c_meshrenderer.obj
 0002:000301b0       ?deallocate@?$K2VectorAllocator@PAVCMeshRenderer@@@@QAEXPAPAVCMeshRenderer@@I@Z 170ee1b0 f i c_meshrenderer.obj
 0002:000301f0       ??$_Destroy_range@PAVCMeshRenderer@@V?$K2VectorAllocator@PAVCMeshRenderer@@@@@std@@YAXPAPAVCMeshRenderer@@0AAV?$K2VectorAllocator@PAVCMeshRenderer@@@@@Z 170ee1f0 f i c_meshrenderer.obj
 0002:00030240       ??H?$_Vector_iterator@PAVCMeshRenderer@@V?$K2VectorAllocator@PAVCMeshRenderer@@@@@std@@QBE?AV01@H@Z 170ee240 f i c_meshrenderer.obj
 0002:000302f0       ??G?$_Vector_iterator@PAVCMeshRenderer@@V?$K2VectorAllocator@PAVCMeshRenderer@@@@@std@@QBEHABV?$_Vector_const_iterator@PAVCMeshRenderer@@V?$K2VectorAllocator@PAVCMeshRenderer@@@@@1@@Z 170ee2f0 f i c_meshrenderer.obj
 0002:00030320       ??0?$_Vector_const_iterator@PAVCMeshRenderer@@V?$K2VectorAllocator@PAVCMeshRenderer@@@@@std@@QAE@PAPAVCMeshRenderer@@PBV_Container_base@1@@Z 170ee320 f i c_meshrenderer.obj
 0002:00030420       ??0?$_Ranit@PAVCMeshRenderer@@HPBQAV1@ABQAV1@@std@@QAE@XZ 170ee420 f i c_meshrenderer.obj
 0002:00030450       ?max_size@?$vector@PAVCMeshRenderer@@V?$K2VectorAllocator@PAVCMeshRenderer@@@@@std@@QBEIXZ 170ee450 f i c_meshrenderer.obj
 0002:00030480       ?_Xlen@?$vector@PAVCMeshRenderer@@V?$K2VectorAllocator@PAVCMeshRenderer@@@@@std@@KAXXZ 170ee480 f i c_meshrenderer.obj
 0002:00030530       ?allocate@?$K2VectorAllocator@PAVCMeshRenderer@@@@QAEPAPAVCMeshRenderer@@I@Z 170ee530 f i c_meshrenderer.obj
 0002:00030580       ??Y?$_Vector_iterator@PAVCMeshRenderer@@V?$K2VectorAllocator@PAVCMeshRenderer@@@@@std@@QAEAAV01@H@Z 170ee580 f i c_meshrenderer.obj
 0002:000305b0       ??G?$_Vector_const_iterator@PAVCMeshRenderer@@V?$K2VectorAllocator@PAVCMeshRenderer@@@@@std@@QBEHABV01@@Z 170ee5b0 f i c_meshrenderer.obj
 0002:000305f0       ?_Compat@?$_Vector_const_iterator@PAVCMeshRenderer@@V?$K2VectorAllocator@PAVCMeshRenderer@@@@@std@@QBEXABV12@@Z 170ee5f0 f i c_meshrenderer.obj
 0002:000306a0       ?max_size@?$allocator@PAVCMeshRenderer@@@std@@QBEIXZ 170ee6a0 f i c_meshrenderer.obj
 0002:000306e0       ??Y?$_Vector_const_iterator@PAVCMeshRenderer@@V?$K2VectorAllocator@PAVCMeshRenderer@@@@@std@@QAEAAV01@H@Z 170ee6e0 f i c_meshrenderer.obj
 0002:00030810       ??$_Debug_lt@HH@std@@YA_NABH0PB_WI@Z 170ee810 f i c_meshrenderer.obj
 0002:00030870       ??$_Ptr_cat@PAPAVCMeshRenderer@@PAPAV1@@std@@YA?AU_Scalar_ptr_iterator_tag@0@AAPAPAVCMeshRenderer@@0@Z 170ee870 f i c_meshrenderer.obj
 0002:00030890       ??$_Destroy_range@PAVCMeshRenderer@@V?$K2VectorAllocator@PAVCMeshRenderer@@@@@std@@YAXPAPAVCMeshRenderer@@0AAV?$K2VectorAllocator@PAVCMeshRenderer@@@@U_Scalar_ptr_iterator_tag@0@@Z 170ee890 f i c_meshrenderer.obj
 0002:000308b0       ??$unchecked_uninitialized_fill_n@PAPAVCMeshRenderer@@IPAV1@V?$K2VectorAllocator@PAVCMeshRenderer@@@@@stdext@@YAXPAPAVCMeshRenderer@@IABQAV1@AAV?$K2VectorAllocator@PAVCMeshRenderer@@@@@Z 170ee8b0 f i c_meshrenderer.obj
 0002:00030910       ??$_Umove@PAPAVCMeshRenderer@@@?$vector@PAVCMeshRenderer@@V?$K2VectorAllocator@PAVCMeshRenderer@@@@@std@@IAEPAPAVCMeshRenderer@@PAPAV2@00@Z 170ee910 f i c_meshrenderer.obj
 0002:00030950       ??$fill@PAPAVCMeshRenderer@@PAV1@@std@@YAXPAPAVCMeshRenderer@@0ABQAV1@@Z 170ee950 f i c_meshrenderer.obj
 0002:000309a0       ??$_Unchecked_move_backward@PAPAVCMeshRenderer@@PAPAV1@@stdext@@YAPAPAVCMeshRenderer@@PAPAV1@00@Z 170ee9a0 f i c_meshrenderer.obj
 0002:00030a30       ??$_Checked_base@PAPAVCMeshRenderer@@@std@@YAPAPAVCMeshRenderer@@AAPAPAV1@@Z 170eea30 f i c_meshrenderer.obj
 0002:00030a60       ??$_Iter_random@PAPAVCMeshRenderer@@PAPAV1@@std@@YA?AUrandom_access_iterator_tag@0@ABQAPAVCMeshRenderer@@0@Z 170eea60 f i c_meshrenderer.obj
 0002:00030a80       ??$_Uninit_fill_n@PAPAVCMeshRenderer@@IPAV1@V?$K2VectorAllocator@PAVCMeshRenderer@@@@@std@@YAXPAPAVCMeshRenderer@@IABQAV1@AAV?$K2VectorAllocator@PAVCMeshRenderer@@@@U_Scalar_ptr_iterator_tag@0@U_Range_checked_iterator_tag@0@@Z 170eea80 f i c_meshrenderer.obj
 0002:00030ab0       ??$_Unchecked_uninitialized_move@PAPAVCMeshRenderer@@PAPAV1@V?$K2VectorAllocator@PAVCMeshRenderer@@@@@stdext@@YAPAPAVCMeshRenderer@@PAPAV1@00AAV?$K2VectorAllocator@PAVCMeshRenderer@@@@@Z 170eeab0 f i c_meshrenderer.obj
 0002:00030b20       ??$_Fill@PAPAVCMeshRenderer@@PAV1@@std@@YAXPAPAVCMeshRenderer@@0ABQAV1@@Z 170eeb20 f i c_meshrenderer.obj
 0002:00030b80       ??$_Move_cat@PAPAVCMeshRenderer@@@std@@YA?AU_Undefined_move_tag@0@ABQAPAVCMeshRenderer@@@Z 170eeb80 f i c_meshrenderer.obj
 0002:00030ba0       ??$_Move_backward_opt@PAPAVCMeshRenderer@@PAPAV1@Urandom_access_iterator_tag@std@@U_Undefined_move_tag@3@@std@@YAPAPAVCMeshRenderer@@PAPAV1@00Urandom_access_iterator_tag@0@U_Undefined_move_tag@0@U_Range_checked_iterator_tag@0@@Z 170eeba0 f i c_meshrenderer.obj
 0002:00030c00       ??$_Checked_base@PAPAVCMeshRenderer@@@std@@YAPAPAVCMeshRenderer@@AAPAPAV1@U_Unchanged_checked_iterator_base_type_tag@0@@Z 170eec00 f i c_meshrenderer.obj
 0002:00030c20       ??$_Debug_range@PAPAVCMeshRenderer@@@std@@YAXPAPAVCMeshRenderer@@0PB_WI@Z 170eec20 f i c_meshrenderer.obj
 0002:00030c70       ??$unchecked_fill_n@PAPAVCMeshRenderer@@IPAV1@@stdext@@YAXPAPAVCMeshRenderer@@IABQAV1@@Z 170eec70 f i c_meshrenderer.obj
 0002:00030cc0       ??$_Uninit_move@PAPAVCMeshRenderer@@PAPAV1@V?$K2VectorAllocator@PAVCMeshRenderer@@@@U_Undefined_move_tag@std@@@std@@YAPAPAVCMeshRenderer@@PAPAV1@00AAV?$K2VectorAllocator@PAVCMeshRenderer@@@@U_Undefined_move_tag@0@U_Range_checked_iterator_tag@0@@Z 170eecc0 f i c_meshrenderer.obj
 0002:00030d00       ??$_Copy_backward_opt@PAPAVCMeshRenderer@@PAPAV1@Urandom_access_iterator_tag@std@@@std@@YAPAPAVCMeshRenderer@@PAPAV1@00Urandom_access_iterator_tag@0@U_Scalar_ptr_iterator_tag@0@U_Range_checked_iterator_tag@0@@Z 170eed00 f i c_meshrenderer.obj
 0002:00030db0       ??$_Debug_pointer@PAVCMeshRenderer@@@std@@YAXPAPAVCMeshRenderer@@PB_WI@Z 170eedb0 f i c_meshrenderer.obj
 0002:00030df0       ??$_Iter_cat@PAPAVCMeshRenderer@@@std@@YA?AUrandom_access_iterator_tag@0@ABQAPAVCMeshRenderer@@@Z 170eedf0 f i c_meshrenderer.obj
 0002:00030e10       ??$_Debug_range2@PAPAVCMeshRenderer@@@std@@YAXPAPAVCMeshRenderer@@0PB_WIUrandom_access_iterator_tag@0@@Z 170eee10 f i c_meshrenderer.obj
 0002:00030e90       ??$_Fill_n@PAPAVCMeshRenderer@@IPAV1@@std@@YAXPAPAVCMeshRenderer@@IABQAV1@Urandom_access_iterator_tag@0@U_Range_checked_iterator_tag@0@@Z 170eee90 f i c_meshrenderer.obj
 0002:00030ef0       ??$unchecked_uninitialized_copy@PAPAVCMeshRenderer@@PAPAV1@V?$K2VectorAllocator@PAVCMeshRenderer@@@@@stdext@@YAPAPAVCMeshRenderer@@PAPAV1@00AAV?$K2VectorAllocator@PAVCMeshRenderer@@@@@Z 170eeef0 f i c_meshrenderer.obj
 0002:00030f60       ??$_Fill_n@PAPAVCMeshRenderer@@IPAV1@@std@@YAXPAPAVCMeshRenderer@@IABQAV1@U_Range_checked_iterator_tag@0@@Z 170eef60 f i c_meshrenderer.obj
 0002:00030fb0       ??$_Uninit_copy@PAPAVCMeshRenderer@@PAPAV1@V?$K2VectorAllocator@PAVCMeshRenderer@@@@@std@@YAPAPAVCMeshRenderer@@PAPAV1@00AAV?$K2VectorAllocator@PAVCMeshRenderer@@@@U_Scalar_ptr_iterator_tag@0@U_Range_checked_iterator_tag@0@@Z 170eefb0 f i c_meshrenderer.obj
 0002:00031050       ??$CLAMP@H@@YAHHHH@Z       170ef050 f i c_meshrenderer.obj
 0002:000310a0       ??$DotProduct@M@@YAMABV?$CVec3@M@@0@Z 170ef0a0 f i c_meshrenderer.obj
 0002:000310f0       ??0?$CCvar@MM@@QAE@ABV?$basic_string@_WU?$char_traits@_W@std@@V?$K2StringAllocator@_W@@@std@@MHP6A_NPAVCConsoleElement@@ABV?$vector@V?$basic_string@_WU?$char_traits@_W@std@@V?$K2StringAllocator@_W@@@std@@V?$K2VectorAllocator@V?$basic_string@_WU?$char_traits@_W@std@@V?$K2StringAllocator@_W@@@std@@@@@@@Z@Z 170ef0f0 f i c_meshrenderer.obj
 0002:00031210       ??_G?$CCvar@MM@@UAEPAXI@Z  170ef210 f i c_meshrenderer.obj
 0002:00031210       ??_E?$CCvar@MM@@UAEPAXI@Z  170ef210 f i c_meshrenderer.obj
 0002:00031260       ?Set@?$CCvar@MM@@UAEXABV?$basic_string@_WU?$char_traits@_W@std@@V?$K2StringAllocator@_W@@@std@@@Z 170ef260 f i c_meshrenderer.obj
 0002:00031460       ?AtoF@@YAMABV?$basic_string@_WU?$char_traits@_W@std@@V?$K2StringAllocator@_W@@@std@@@Z 170ef460 f i c_meshrenderer.obj
 0002:00031490       ??6CConsoleStream@@QAEAAV0@M@Z 170ef490 f i c_meshrenderer.obj
 0002:00031540       ?XtoW@@YA?AV?$basic_string@_WU?$char_traits@_W@std@@V?$K2StringAllocator@_W@@@std@@MHHH@Z 170ef540 f i c_meshrenderer.obj
 0002:00031620       ?Inc@?$CCvar@MM@@UAEXABV?$basic_string@_WU?$char_traits@_W@std@@V?$K2StringAllocator@_W@@@std@@@Z 170ef620 f i c_meshrenderer.obj
 0002:00031690       ?Toggle@?$CCvar@MM@@UAEXXZ 170ef690 f i c_meshrenderer.obj
 0002:00031710       ??1?$CCvar@MM@@UAE@XZ      170ef710 f i c_meshrenderer.obj
 0002:00031740       ?Reset@?$CCvar@MM@@UAEXXZ  170ef740 f i c_meshrenderer.obj
 0002:000317b0       ?IsDefault@?$CCvar@MM@@UBE_NXZ 170ef7b0 f i c_meshrenderer.obj
 0002:00031810       ?StoreValue@?$CCvar@MM@@UAEXXZ 170ef810 f i c_meshrenderer.obj
 0002:00031840       ?RestoreStored@?$CCvar@MM@@UAEXXZ 170ef840 f i c_meshrenderer.obj
 0002:00031870       ?GetString@?$CCvar@MM@@UBE?AV?$basic_string@_WU?$char_traits@_W@std@@V?$K2StringAllocator@_W@@@std@@XZ 170ef870 f i c_meshrenderer.obj
 0002:000318d0       ?SetIndex@?$CCvar@MM@@UAEXIABV?$basic_string@_WU?$char_traits@_W@std@@V?$K2StringAllocator@_W@@@std@@@Z 170ef8d0 f i c_meshrenderer.obj
 0002:000318f0       ?SetValueIndex@?$CCvar@V?$CVec3@M@@M@@QAEXIM@Z 170ef8f0 f i c_meshrenderer.obj
 0002:00031940       ?SetValueIndex@?$CCvar@V?$CVec4@M@@M@@QAEXIM@Z 170ef940 f i c_meshrenderer.obj
 0002:00031990       ?GetRangeString@?$CCvar@MM@@UBE?AV?$basic_string@_WU?$char_traits@_W@std@@V?$K2StringAllocator@_W@@@std@@XZ 170ef990 f i c_meshrenderer.obj
 0002:00031c00       ??0?$CPool@VCMeshRenderer@@@@QAE@II@Z 170efc00 f i c_meshrenderer.obj
 0002:00031cc0       ??0?$vector@PAVCMeshRenderer@@V?$K2VectorAllocator@PAVCMeshRenderer@@@@@@QAE@XZ 170efcc0 f i c_meshrenderer.obj
 0002:00031cf0       ??0?$vector@PAVCMeshRenderer@@V?$K2VectorAllocator@PAVCMeshRenderer@@@@@std@@QAE@XZ 170efcf0 f i c_meshrenderer.obj
 0002:00031d80       ??1?$_Vector_val@PAVCMeshRenderer@@V?$K2VectorAllocator@PAVCMeshRenderer@@@@@std@@QAE@XZ 170efd80 f i c_meshrenderer.obj
 0002:00031e00       ??1?$K2VectorAllocator@PAVCMeshRenderer@@@@QAE@XZ 170efe00 f i c_meshrenderer.obj
 0002:00031e20       ?_Buy@?$vector@PAVCMeshRenderer@@V?$K2VectorAllocator@PAVCMeshRenderer@@@@@std@@IAE_NI@Z 170efe20 f i c_meshrenderer.obj
 0002:00031ed0       ??0?$_Vector_val@PAVCMeshRenderer@@V?$K2VectorAllocator@PAVCMeshRenderer@@@@@std@@IAE@V?$K2VectorAllocator@PAVCMeshRenderer@@@@@Z 170efed0 f i c_meshrenderer.obj
 0002:00031f70       ??0?$K2VectorAllocator@PAVCMeshRenderer@@@@QAE@XZ 170eff70 f i c_meshrenderer.obj
 0002:00031fa0       ??0?$K2VectorAllocator@PAVCMeshRenderer@@@@QAE@ABV0@@Z 170effa0 f i c_meshrenderer.obj
 0002:00031fd0       ??0?$allocator@PAVCMeshRenderer@@@std@@QAE@XZ 170effd0 f i c_meshrenderer.obj
 0002:00031ff0       ??0?$allocator@PAVCMeshRenderer@@@std@@QAE@ABV01@@Z 170efff0 f i c_meshrenderer.obj
 0002:00032010       ??1?$CPool@VCMeshRenderer@@@@QAE@XZ 170f0010 f i c_meshrenderer.obj
 0002:000320c0       ??1?$vector@PAVCMeshRenderer@@V?$K2VectorAllocator@PAVCMeshRenderer@@@@@@QAE@XZ 170f00c0 f i c_meshrenderer.obj
 0002:000320f0       ??1?$vector@PAVCMeshRenderer@@V?$K2VectorAllocator@PAVCMeshRenderer@@@@@std@@QAE@XZ 170f00f0 f i c_meshrenderer.obj
 0002:00032170       ?_Tidy@?$vector@PAVCMeshRenderer@@V?$K2VectorAllocator@PAVCMeshRenderer@@@@@std@@IAEXXZ 170f0170 f i c_meshrenderer.obj
 0002:00032210       ?Reset@?$CPool@VCMeshRenderer@@@@QAEXXZ 170f0210 f i c_meshrenderer.obj
 0002:00032330       ?clear@?$vector@PAVCMeshRenderer@@V?$K2VectorAllocator@PAVCMeshRenderer@@@@@std@@QAEXXZ 170f0330 f i c_meshrenderer.obj
 0002:000323f0       ??D?$_Vector_iterator@PAVCMeshRenderer@@V?$K2VectorAllocator@PAVCMeshRenderer@@@@@std@@QBEAAPAVCMeshRenderer@@XZ 170f03f0 f i c_meshrenderer.obj
 0002:00032420       ??E?$_Vector_iterator@PAVCMeshRenderer@@V?$K2VectorAllocator@PAVCMeshRenderer@@@@@std@@QAEAAV01@XZ 170f0420 f i c_meshrenderer.obj
 0002:00032450       ??9?$_Vector_const_iterator@PAVCMeshRenderer@@V?$K2VectorAllocator@PAVCMeshRenderer@@@@@std@@QBE_NABV01@@Z 170f0450 f i c_meshrenderer.obj
 0002:00032490       ?erase@?$vector@PAVCMeshRenderer@@V?$K2VectorAllocator@PAVCMeshRenderer@@@@@std@@QAE?AV?$_Vector_iterator@PAVCMeshRenderer@@V?$K2VectorAllocator@PAVCMeshRenderer@@@@@2@V32@0@Z 170f0490 f i c_meshrenderer.obj
 0002:00032610       ??D?$_Vector_const_iterator@PAVCMeshRenderer@@V?$K2VectorAllocator@PAVCMeshRenderer@@@@@std@@QBEABQAVCMeshRenderer@@XZ 170f0610 f i c_meshrenderer.obj
 0002:000326d0       ??E?$_Vector_const_iterator@PAVCMeshRenderer@@V?$K2VectorAllocator@PAVCMeshRenderer@@@@@std@@QAEAAV01@XZ 170f06d0 f i c_meshrenderer.obj
 0002:000327c0       ??8?$_Vector_const_iterator@PAVCMeshRenderer@@V?$K2VectorAllocator@PAVCMeshRenderer@@@@@std@@QBE_NABV01@@Z 170f07c0 f i c_meshrenderer.obj
 0002:00032800       ??M?$_Vector_const_iterator@PAVCMeshRenderer@@V?$K2VectorAllocator@PAVCMeshRenderer@@@@@std@@QBE_NABV01@@Z 170f0800 f i c_meshrenderer.obj
 0002:00032840       ??$unchecked_copy@PAPAVCMeshRenderer@@PAPAV1@@stdext@@YAPAPAVCMeshRenderer@@PAPAV1@00@Z 170f0840 f i c_meshrenderer.obj
 0002:000328d0       ??$_Copy_opt@PAPAVCMeshRenderer@@PAPAV1@Urandom_access_iterator_tag@std@@@std@@YAPAPAVCMeshRenderer@@PAPAV1@00Urandom_access_iterator_tag@0@U_Scalar_ptr_iterator_tag@0@U_Range_checked_iterator_tag@0@@Z 170f08d0 f i c_meshrenderer.obj
 0002:00032980       ??2CPointRenderer@@SAPAXIPBD00F@Z 170f0980 f   c_pointrenderer.obj
 0002:000329a0       ??0CPointRenderer@@QAE@H@Z 170f09a0 f   c_pointrenderer.obj
 0002:000329f0       ??_GCPointRenderer@@UAEPAXI@Z 170f09f0 f i c_pointrenderer.obj
 0002:000329f0       ??_ECPointRenderer@@UAEPAXI@Z 170f09f0 f i c_pointrenderer.obj
 0002:00032a40       ??1CPointRenderer@@UAE@XZ  170f0a40 f   c_pointrenderer.obj
 0002:00032a70       ?Render@CPointRenderer@@UAEXW4EMaterialPhase@@@Z 170f0a70 f   c_pointrenderer.obj
 0002:00032bc0       ?Allocate@?$CPool@VCPointRenderer@@@@QAEPAVCPointRenderer@@XZ 170f0bc0 f i c_pointrenderer.obj
 0002:00032d50       ?push_back@?$vector@PAVCPointRenderer@@V?$K2VectorAllocator@PAVCPointRenderer@@@@@std@@QAEXABQAVCPointRenderer@@@Z 170f0d50 f i c_pointrenderer.obj
 0002:00032e00       ??1?$_Vector_iterator@PAVCPointRenderer@@V?$K2VectorAllocator@PAVCPointRenderer@@@@@std@@QAE@XZ 170f0e00 f i c_pointrenderer.obj
 0002:00032e30       ??1?$_Vector_const_iterator@PAVCPointRenderer@@V?$K2VectorAllocator@PAVCPointRenderer@@@@@std@@QAE@XZ 170f0e30 f i c_pointrenderer.obj
 0002:00032e60       ??1?$_Ranit@PAVCPointRenderer@@HPBQAV1@ABQAV1@@std@@QAE@XZ 170f0e60 f i c_pointrenderer.obj
 0002:00032e90       ?end@?$vector@PAVCPointRenderer@@V?$K2VectorAllocator@PAVCPointRenderer@@@@@std@@QAE?AV?$_Vector_iterator@PAVCPointRenderer@@V?$K2VectorAllocator@PAVCPointRenderer@@@@@2@XZ 170f0e90 f i c_pointrenderer.obj
 0002:00032ee0       ?capacity@?$vector@PAVCPointRenderer@@V?$K2VectorAllocator@PAVCPointRenderer@@@@@std@@QBEIXZ 170f0ee0 f i c_pointrenderer.obj
 0002:00032f30       ?size@?$vector@PAVCPointRenderer@@V?$K2VectorAllocator@PAVCPointRenderer@@@@@std@@QBEIXZ 170f0f30 f i c_pointrenderer.obj
 0002:00032f80       ?insert@?$vector@PAVCPointRenderer@@V?$K2VectorAllocator@PAVCPointRenderer@@@@@std@@QAE?AV?$_Vector_iterator@PAVCPointRenderer@@V?$K2VectorAllocator@PAVCPointRenderer@@@@@2@V32@ABQAVCPointRenderer@@@Z 170f0f80 f i c_pointrenderer.obj
 0002:000330f0       ?begin@?$vector@PAVCPointRenderer@@V?$K2VectorAllocator@PAVCPointRenderer@@@@@std@@QAE?AV?$_Vector_iterator@PAVCPointRenderer@@V?$K2VectorAllocator@PAVCPointRenderer@@@@@2@XZ 170f10f0 f i c_pointrenderer.obj
 0002:00033140       ?_Ufill@?$vector@PAVCPointRenderer@@V?$K2VectorAllocator@PAVCPointRenderer@@@@@std@@IAEPAPAVCPointRenderer@@PAPAV3@IABQAV3@@Z 170f1140 f i c_pointrenderer.obj
 0002:00033190       ?_Orphan_range@?$vector@PAVCPointRenderer@@V?$K2VectorAllocator@PAVCPointRenderer@@@@@std@@IBEXPAPAVCPointRenderer@@0@Z 170f1190 f i c_pointrenderer.obj
 0002:00033230       ??0?$_Vector_iterator@PAVCPointRenderer@@V?$K2VectorAllocator@PAVCPointRenderer@@@@@std@@QAE@PAPAVCPointRenderer@@PBV_Container_base@1@@Z 170f1230 f i c_pointrenderer.obj
 0002:00033270       ??0?$_Vector_iterator@PAVCPointRenderer@@V?$K2VectorAllocator@PAVCPointRenderer@@@@@std@@QAE@ABV01@@Z 170f1270 f i c_pointrenderer.obj
 0002:000332a0       ??0?$_Vector_const_iterator@PAVCPointRenderer@@V?$K2VectorAllocator@PAVCPointRenderer@@@@@std@@QAE@ABV01@@Z 170f12a0 f i c_pointrenderer.obj
 0002:000332e0       ??0?$_Ranit@PAVCPointRenderer@@HPBQAV1@ABQAV1@@std@@QAE@ABU01@@Z 170f12e0 f i c_pointrenderer.obj
 0002:00033310       ?_Insert_n@?$vector@PAVCPointRenderer@@V?$K2VectorAllocator@PAVCPointRenderer@@@@@std@@IAEXV?$_Vector_iterator@PAVCPointRenderer@@V?$K2VectorAllocator@PAVCPointRenderer@@@@@2@IABQAVCPointRenderer@@@Z 170f1310 f i c_pointrenderer.obj
 0002:000337c0       ?_Destroy@?$vector@PAVCPointRenderer@@V?$K2VectorAllocator@PAVCPointRenderer@@@@@std@@IAEXPAPAVCPointRenderer@@0@Z 170f17c0 f i c_pointrenderer.obj
 0002:00033800       ?deallocate@?$K2VectorAllocator@PAVCPointRenderer@@@@QAEXPAPAVCPointRenderer@@I@Z 170f1800 f i c_pointrenderer.obj
 0002:00033840       ??$_Destroy_range@PAVCPointRenderer@@V?$K2VectorAllocator@PAVCPointRenderer@@@@@std@@YAXPAPAVCPointRenderer@@0AAV?$K2VectorAllocator@PAVCPointRenderer@@@@@Z 170f1840 f i c_pointrenderer.obj
 0002:00033890       ??H?$_Vector_iterator@PAVCPointRenderer@@V?$K2VectorAllocator@PAVCPointRenderer@@@@@std@@QBE?AV01@H@Z 170f1890 f i c_pointrenderer.obj
 0002:00033940       ??G?$_Vector_iterator@PAVCPointRenderer@@V?$K2VectorAllocator@PAVCPointRenderer@@@@@std@@QBEHABV?$_Vector_const_iterator@PAVCPointRenderer@@V?$K2VectorAllocator@PAVCPointRenderer@@@@@1@@Z 170f1940 f i c_pointrenderer.obj
 0002:00033970       ??0?$_Vector_const_iterator@PAVCPointRenderer@@V?$K2VectorAllocator@PAVCPointRenderer@@@@@std@@QAE@PAPAVCPointRenderer@@PBV_Container_base@1@@Z 170f1970 f i c_pointrenderer.obj
 0002:00033a70       ??0?$_Ranit@PAVCPointRenderer@@HPBQAV1@ABQAV1@@std@@QAE@XZ 170f1a70 f i c_pointrenderer.obj
 0002:00033aa0       ?max_size@?$vector@PAVCPointRenderer@@V?$K2VectorAllocator@PAVCPointRenderer@@@@@std@@QBEIXZ 170f1aa0 f i c_pointrenderer.obj
 0002:00033ad0       ?_Xlen@?$vector@PAVCPointRenderer@@V?$K2VectorAllocator@PAVCPointRenderer@@@@@std@@KAXXZ 170f1ad0 f i c_pointrenderer.obj
 0002:00033b80       ?allocate@?$K2VectorAllocator@PAVCPointRenderer@@@@QAEPAPAVCPointRenderer@@I@Z 170f1b80 f i c_pointrenderer.obj
 0002:00033bd0       ??Y?$_Vector_iterator@PAVCPointRenderer@@V?$K2VectorAllocator@PAVCPointRenderer@@@@@std@@QAEAAV01@H@Z 170f1bd0 f i c_pointrenderer.obj
 0002:00033c00       ??G?$_Vector_const_iterator@PAVCPointRenderer@@V?$K2VectorAllocator@PAVCPointRenderer@@@@@std@@QBEHABV01@@Z 170f1c00 f i c_pointrenderer.obj
 0002:00033c40       ?_Compat@?$_Vector_const_iterator@PAVCPointRenderer@@V?$K2VectorAllocator@PAVCPointRenderer@@@@@std@@QBEXABV12@@Z 170f1c40 f i c_pointrenderer.obj
 0002:00033cf0       ?max_size@?$allocator@PAVCPointRenderer@@@std@@QBEIXZ 170f1cf0 f i c_pointrenderer.obj
 0002:00033d30       ??Y?$_Vector_const_iterator@PAVCPointRenderer@@V?$K2VectorAllocator@PAVCPointRenderer@@@@@std@@QAEAAV01@H@Z 170f1d30 f i c_pointrenderer.obj
 0002:00033e60       ??$_Ptr_cat@PAPAVCPointRenderer@@PAPAV1@@std@@YA?AU_Scalar_ptr_iterator_tag@0@AAPAPAVCPointRenderer@@0@Z 170f1e60 f i c_pointrenderer.obj
 0002:00033e80       ??$_Destroy_range@PAVCPointRenderer@@V?$K2VectorAllocator@PAVCPointRenderer@@@@@std@@YAXPAPAVCPointRenderer@@0AAV?$K2VectorAllocator@PAVCPointRenderer@@@@U_Scalar_ptr_iterator_tag@0@@Z 170f1e80 f i c_pointrenderer.obj
 0002:00033ea0       ??$unchecked_uninitialized_fill_n@PAPAVCPointRenderer@@IPAV1@V?$K2VectorAllocator@PAVCPointRenderer@@@@@stdext@@YAXPAPAVCPointRenderer@@IABQAV1@AAV?$K2VectorAllocator@PAVCPointRenderer@@@@@Z 170f1ea0 f i c_pointrenderer.obj
 0002:00033f00       ??$_Umove@PAPAVCPointRenderer@@@?$vector@PAVCPointRenderer@@V?$K2VectorAllocator@PAVCPointRenderer@@@@@std@@IAEPAPAVCPointRenderer@@PAPAV2@00@Z 170f1f00 f i c_pointrenderer.obj
 0002:00033f40       ??$fill@PAPAVCPointRenderer@@PAV1@@std@@YAXPAPAVCPointRenderer@@0ABQAV1@@Z 170f1f40 f i c_pointrenderer.obj
 0002:00033f90       ??$_Unchecked_move_backward@PAPAVCPointRenderer@@PAPAV1@@stdext@@YAPAPAVCPointRenderer@@PAPAV1@00@Z 170f1f90 f i c_pointrenderer.obj
 0002:00034020       ??$_Checked_base@PAPAVCPointRenderer@@@std@@YAPAPAVCPointRenderer@@AAPAPAV1@@Z 170f2020 f i c_pointrenderer.obj
 0002:00034050       ??$_Iter_random@PAPAVCPointRenderer@@PAPAV1@@std@@YA?AUrandom_access_iterator_tag@0@ABQAPAVCPointRenderer@@0@Z 170f2050 f i c_pointrenderer.obj
 0002:00034070       ??$_Uninit_fill_n@PAPAVCPointRenderer@@IPAV1@V?$K2VectorAllocator@PAVCPointRenderer@@@@@std@@YAXPAPAVCPointRenderer@@IABQAV1@AAV?$K2VectorAllocator@PAVCPointRenderer@@@@U_Scalar_ptr_iterator_tag@0@U_Range_checked_iterator_tag@0@@Z 170f2070 f i c_pointrenderer.obj
 0002:000340a0       ??$_Unchecked_uninitialized_move@PAPAVCPointRenderer@@PAPAV1@V?$K2VectorAllocator@PAVCPointRenderer@@@@@stdext@@YAPAPAVCPointRenderer@@PAPAV1@00AAV?$K2VectorAllocator@PAVCPointRenderer@@@@@Z 170f20a0 f i c_pointrenderer.obj
 0002:00034110       ??$_Fill@PAPAVCPointRenderer@@PAV1@@std@@YAXPAPAVCPointRenderer@@0ABQAV1@@Z 170f2110 f i c_pointrenderer.obj
 0002:00034170       ??$_Move_cat@PAPAVCPointRenderer@@@std@@YA?AU_Undefined_move_tag@0@ABQAPAVCPointRenderer@@@Z 170f2170 f i c_pointrenderer.obj
 0002:00034190       ??$_Move_backward_opt@PAPAVCPointRenderer@@PAPAV1@Urandom_access_iterator_tag@std@@U_Undefined_move_tag@3@@std@@YAPAPAVCPointRenderer@@PAPAV1@00Urandom_access_iterator_tag@0@U_Undefined_move_tag@0@U_Range_checked_iterator_tag@0@@Z 170f2190 f i c_pointrenderer.obj
 0002:000341f0       ??$_Checked_base@PAPAVCPointRenderer@@@std@@YAPAPAVCPointRenderer@@AAPAPAV1@U_Unchanged_checked_iterator_base_type_tag@0@@Z 170f21f0 f i c_pointrenderer.obj
 0002:00034210       ??$_Debug_range@PAPAVCPointRenderer@@@std@@YAXPAPAVCPointRenderer@@0PB_WI@Z 170f2210 f i c_pointrenderer.obj
 0002:00034260       ??$unchecked_fill_n@PAPAVCPointRenderer@@IPAV1@@stdext@@YAXPAPAVCPointRenderer@@IABQAV1@@Z 170f2260 f i c_pointrenderer.obj
 0002:000342b0       ??$_Uninit_move@PAPAVCPointRenderer@@PAPAV1@V?$K2VectorAllocator@PAVCPointRenderer@@@@U_Undefined_move_tag@std@@@std@@YAPAPAVCPointRenderer@@PAPAV1@00AAV?$K2VectorAllocator@PAVCPointRenderer@@@@U_Undefined_move_tag@0@U_Range_checked_iterator_tag@0@@Z 170f22b0 f i c_pointrenderer.obj
 0002:000342f0       ??$_Copy_backward_opt@PAPAVCPointRenderer@@PAPAV1@Urandom_access_iterator_tag@std@@@std@@YAPAPAVCPointRenderer@@PAPAV1@00Urandom_access_iterator_tag@0@U_Scalar_ptr_iterator_tag@0@U_Range_checked_iterator_tag@0@@Z 170f22f0 f i c_pointrenderer.obj
 0002:000343a0       ??$_Debug_pointer@PAVCPointRenderer@@@std@@YAXPAPAVCPointRenderer@@PB_WI@Z 170f23a0 f i c_pointrenderer.obj
 0002:000343e0       ??$_Iter_cat@PAPAVCPointRenderer@@@std@@YA?AUrandom_access_iterator_tag@0@ABQAPAVCPointRenderer@@@Z 170f23e0 f i c_pointrenderer.obj
 0002:00034400       ??$_Debug_range2@PAPAVCPointRenderer@@@std@@YAXPAPAVCPointRenderer@@0PB_WIUrandom_access_iterator_tag@0@@Z 170f2400 f i c_pointrenderer.obj
 0002:00034480       ??$_Fill_n@PAPAVCPointRenderer@@IPAV1@@std@@YAXPAPAVCPointRenderer@@IABQAV1@Urandom_access_iterator_tag@0@U_Range_checked_iterator_tag@0@@Z 170f2480 f i c_pointrenderer.obj
 0002:000344e0       ??$unchecked_uninitialized_copy@PAPAVCPointRenderer@@PAPAV1@V?$K2VectorAllocator@PAVCPointRenderer@@@@@stdext@@YAPAPAVCPointRenderer@@PAPAV1@00AAV?$K2VectorAllocator@PAVCPointRenderer@@@@@Z 170f24e0 f i c_pointrenderer.obj
 0002:00034550       ??$_Fill_n@PAPAVCPointRenderer@@IPAV1@@std@@YAXPAPAVCPointRenderer@@IABQAV1@U_Range_checked_iterator_tag@0@@Z 170f2550 f i c_pointrenderer.obj
 0002:000345a0       ??$_Uninit_copy@PAPAVCPointRenderer@@PAPAV1@V?$K2VectorAllocator@PAVCPointRenderer@@@@@std@@YAPAPAVCPointRenderer@@PAPAV1@00AAV?$K2VectorAllocator@PAVCPointRenderer@@@@U_Scalar_ptr_iterator_tag@0@U_Range_checked_iterator_tag@0@@Z 170f25a0 f i c_pointrenderer.obj
 0002:00034640       ??0?$CPool@VCPointRenderer@@@@QAE@II@Z 170f2640 f i c_pointrenderer.obj
 0002:00034700       ??0?$vector@PAVCPointRenderer@@V?$K2VectorAllocator@PAVCPointRenderer@@@@@@QAE@XZ 170f2700 f i c_pointrenderer.obj
 0002:00034730       ??0?$vector@PAVCPointRenderer@@V?$K2VectorAllocator@PAVCPointRenderer@@@@@std@@QAE@XZ 170f2730 f i c_pointrenderer.obj
 0002:000347c0       ??1?$_Vector_val@PAVCPointRenderer@@V?$K2VectorAllocator@PAVCPointRenderer@@@@@std@@QAE@XZ 170f27c0 f i c_pointrenderer.obj
 0002:00034840       ??1?$K2VectorAllocator@PAVCPointRenderer@@@@QAE@XZ 170f2840 f i c_pointrenderer.obj
 0002:00034860       ?_Buy@?$vector@PAVCPointRenderer@@V?$K2VectorAllocator@PAVCPointRenderer@@@@@std@@IAE_NI@Z 170f2860 f i c_pointrenderer.obj
 0002:00034910       ??0?$_Vector_val@PAVCPointRenderer@@V?$K2VectorAllocator@PAVCPointRenderer@@@@@std@@IAE@V?$K2VectorAllocator@PAVCPointRenderer@@@@@Z 170f2910 f i c_pointrenderer.obj
 0002:000349b0       ??0?$K2VectorAllocator@PAVCPointRenderer@@@@QAE@XZ 170f29b0 f i c_pointrenderer.obj
 0002:000349e0       ??0?$K2VectorAllocator@PAVCPointRenderer@@@@QAE@ABV0@@Z 170f29e0 f i c_pointrenderer.obj
 0002:00034a10       ??0?$allocator@PAVCPointRenderer@@@std@@QAE@XZ 170f2a10 f i c_pointrenderer.obj
 0002:00034a30       ??0?$allocator@PAVCPointRenderer@@@std@@QAE@ABV01@@Z 170f2a30 f i c_pointrenderer.obj
 0002:00034a50       ??1?$CPool@VCPointRenderer@@@@QAE@XZ 170f2a50 f i c_pointrenderer.obj
 0002:00034b00       ??1?$vector@PAVCPointRenderer@@V?$K2VectorAllocator@PAVCPointRenderer@@@@@@QAE@XZ 170f2b00 f i c_pointrenderer.obj
 0002:00034b30       ??1?$vector@PAVCPointRenderer@@V?$K2VectorAllocator@PAVCPointRenderer@@@@@std@@QAE@XZ 170f2b30 f i c_pointrenderer.obj
 0002:00034bb0       ?_Tidy@?$vector@PAVCPointRenderer@@V?$K2VectorAllocator@PAVCPointRenderer@@@@@std@@IAEXXZ 170f2bb0 f i c_pointrenderer.obj
 0002:00034c50       ?Reset@?$CPool@VCPointRenderer@@@@QAEXXZ 170f2c50 f i c_pointrenderer.obj
 0002:00034d70       ?clear@?$vector@PAVCPointRenderer@@V?$K2VectorAllocator@PAVCPointRenderer@@@@@std@@QAEXXZ 170f2d70 f i c_pointrenderer.obj
 0002:00034e30       ??D?$_Vector_iterator@PAVCPointRenderer@@V?$K2VectorAllocator@PAVCPointRenderer@@@@@std@@QBEAAPAVCPointRenderer@@XZ 170f2e30 f i c_pointrenderer.obj
 0002:00034e60       ??E?$_Vector_iterator@PAVCPointRenderer@@V?$K2VectorAllocator@PAVCPointRenderer@@@@@std@@QAEAAV01@XZ 170f2e60 f i c_pointrenderer.obj
 0002:00034e90       ??9?$_Vector_const_iterator@PAVCPointRenderer@@V?$K2VectorAllocator@PAVCPointRenderer@@@@@std@@QBE_NABV01@@Z 170f2e90 f i c_pointrenderer.obj
 0002:00034ed0       ?erase@?$vector@PAVCPointRenderer@@V?$K2VectorAllocator@PAVCPointRenderer@@@@@std@@QAE?AV?$_Vector_iterator@PAVCPointRenderer@@V?$K2VectorAllocator@PAVCPointRenderer@@@@@2@V32@0@Z 170f2ed0 f i c_pointrenderer.obj
 0002:00035050       ??D?$_Vector_const_iterator@PAVCPointRenderer@@V?$K2VectorAllocator@PAVCPointRenderer@@@@@std@@QBEABQAVCPointRenderer@@XZ 170f3050 f i c_pointrenderer.obj
 0002:00035110       ??E?$_Vector_const_iterator@PAVCPointRenderer@@V?$K2VectorAllocator@PAVCPointRenderer@@@@@std@@QAEAAV01@XZ 170f3110 f i c_pointrenderer.obj
 0002:00035200       ??8?$_Vector_const_iterator@PAVCPointRenderer@@V?$K2VectorAllocator@PAVCPointRenderer@@@@@std@@QBE_NABV01@@Z 170f3200 f i c_pointrenderer.obj
 0002:00035240       ??M?$_Vector_const_iterator@PAVCPointRenderer@@V?$K2VectorAllocator@PAVCPointRenderer@@@@@std@@QBE_NABV01@@Z 170f3240 f i c_pointrenderer.obj
 0002:00035280       ??$unchecked_copy@PAPAVCPointRenderer@@PAPAV1@@stdext@@YAPAPAVCPointRenderer@@PAPAV1@00@Z 170f3280 f i c_pointrenderer.obj
 0002:00035310       ??$_Copy_opt@PAPAVCPointRenderer@@PAPAV1@Urandom_access_iterator_tag@std@@@std@@YAPAPAVCPointRenderer@@PAPAV1@00Urandom_access_iterator_tag@0@U_Scalar_ptr_iterator_tag@0@U_Range_checked_iterator_tag@0@@Z 170f3310 f i c_pointrenderer.obj
 0002:000353c0       ??0CRenderList@@QAE@XZ     170f33c0 f   c_renderlist.obj
 0002:000353f0       ??1CRenderList@@QAE@XZ     170f33f0 f   c_renderlist.obj
 0002:00035420       ??1?$vector@PAVIRenderer@@V?$K2VectorAllocator@PAVIRenderer@@@@@@QAE@XZ 170f3420 f i c_renderlist.obj
 0002:00035450       ?Clear@CRenderList@@QAEXXZ 170f3450 f   c_renderlist.obj
 0002:00035530       ?Add@CRenderList@@QAEXPAVIRenderer@@@Z 170f3530 f   c_renderlist.obj
 0002:00035560       ?Setup@CRenderList@@QAEXW4EMaterialPhase@@@Z 170f3560 f   c_renderlist.obj
 0002:00035650       ??1?$_Vector_iterator@PAVIRenderer@@V?$K2VectorAllocator@PAVIRenderer@@@@@std@@QAE@XZ 170f3650 f i c_renderlist.obj
 0002:00035680       ??1?$_Vector_const_iterator@PAVIRenderer@@V?$K2VectorAllocator@PAVIRenderer@@@@@std@@QAE@XZ 170f3680 f i c_renderlist.obj
 0002:000356b0       ??1?$_Ranit@PAVIRenderer@@HPBQAV1@ABQAV1@@std@@QAE@XZ 170f36b0 f i c_renderlist.obj
 0002:000356e0       ?Sort@CRenderList@@QAEXXZ  170f36e0 f   c_renderlist.obj
 0002:00035b50       ?GetRender@IRenderer@@QBE_NXZ 170f3b50 f i c_renderlist.obj
 0002:00035b70       ?IsTranslucent@IRenderer@@QBE_NXZ 170f3b70 f i c_renderlist.obj
 0002:00035b90       ?GetLayer@IRenderer@@QBEHXZ 170f3b90 f i c_renderlist.obj
 0002:00035bb0       ?GetEffectLayer@IRenderer@@QBEHXZ 170f3bb0 f i c_renderlist.obj
 0002:00035bd0       ?GetVertexType@IRenderer@@QBEHXZ 170f3bd0 f i c_renderlist.obj
 0002:00035bf0       ?GetVertexShaderInstance@IRenderer@@QBEHXZ 170f3bf0 f i c_renderlist.obj
 0002:00035c10       ?GetPixelShaderInstance@IRenderer@@QBEHXZ 170f3c10 f i c_renderlist.obj
 0002:00035c30       ?GetVertexBuffer@IRenderer@@QBEIXZ 170f3c30 f i c_renderlist.obj
 0002:00035c50       ?GetDepth@IRenderer@@QBEMXZ 170f3c50 f i c_renderlist.obj
 0002:00035c70       ?IsRefractive@IRenderer@@QBE_NXZ 170f3c70 f i c_renderlist.obj
 0002:00035c90       ?Render@CRenderList@@QAEXW4EMaterialPhase@@@Z 170f3c90 f   c_renderlist.obj
 0002:00035f50       ?GetFlags@CCamera@@QBEHXZ  170f3f50 f i c_renderlist.obj
 0002:00035f70       ??0?$vector@PAVIRenderer@@V?$K2VectorAllocator@PAVIRenderer@@@@@@QAE@XZ 170f3f70 f i c_renderlist.obj
 0002:00035fa0       ??1?$vector@PAVIRenderer@@V?$K2VectorAllocator@PAVIRenderer@@@@@std@@QAE@XZ 170f3fa0 f i c_renderlist.obj
 0002:00036020       ?begin@?$vector@PAVIRenderer@@V?$K2VectorAllocator@PAVIRenderer@@@@@std@@QAE?AV?$_Vector_iterator@PAVIRenderer@@V?$K2VectorAllocator@PAVIRenderer@@@@@2@XZ 170f4020 f i c_renderlist.obj
 0002:00036070       ?end@?$vector@PAVIRenderer@@V?$K2VectorAllocator@PAVIRenderer@@@@@std@@QAE?AV?$_Vector_iterator@PAVIRenderer@@V?$K2VectorAllocator@PAVIRenderer@@@@@2@XZ 170f4070 f i c_renderlist.obj
 0002:000360c0       ?push_back@?$vector@PAVIRenderer@@V?$K2VectorAllocator@PAVIRenderer@@@@@std@@QAEXABQAVIRenderer@@@Z 170f40c0 f i c_renderlist.obj
 0002:00036170       ?clear@?$vector@PAVIRenderer@@V?$K2VectorAllocator@PAVIRenderer@@@@@std@@QAEXXZ 170f4170 f i c_renderlist.obj
 0002:00036230       ??D?$_Vector_iterator@PAVIRenderer@@V?$K2VectorAllocator@PAVIRenderer@@@@@std@@QBEAAPAVIRenderer@@XZ 170f4230 f i c_renderlist.obj
 0002:00036260       ??E?$_Vector_iterator@PAVIRenderer@@V?$K2VectorAllocator@PAVIRenderer@@@@@std@@QAEAAV01@XZ 170f4260 f i c_renderlist.obj
 0002:00036290       ??9?$_Vector_const_iterator@PAVIRenderer@@V?$K2VectorAllocator@PAVIRenderer@@@@@std@@QBE_NABV01@@Z 170f4290 f i c_renderlist.obj
 0002:000362d0       ??1?$_Vector_val@PAVIRenderer@@V?$K2VectorAllocator@PAVIRenderer@@@@@std@@QAE@XZ 170f42d0 f i c_renderlist.obj
 0002:00036350       ??0?$vector@PAVIRenderer@@V?$K2VectorAllocator@PAVIRenderer@@@@@std@@QAE@XZ 170f4350 f i c_renderlist.obj
 0002:000363e0       ?capacity@?$vector@PAVIRenderer@@V?$K2VectorAllocator@PAVIRenderer@@@@@std@@QBEIXZ 170f43e0 f i c_renderlist.obj
 0002:00036430       ?size@?$vector@PAVIRenderer@@V?$K2VectorAllocator@PAVIRenderer@@@@@std@@QBEIXZ 170f4430 f i c_renderlist.obj
 0002:00036480       ?insert@?$vector@PAVIRenderer@@V?$K2VectorAllocator@PAVIRenderer@@@@@std@@QAE?AV?$_Vector_iterator@PAVIRenderer@@V?$K2VectorAllocator@PAVIRenderer@@@@@2@V32@ABQAVIRenderer@@@Z 170f4480 f i c_renderlist.obj
 0002:000365f0       ?erase@?$vector@PAVIRenderer@@V?$K2VectorAllocator@PAVIRenderer@@@@@std@@QAE?AV?$_Vector_iterator@PAVIRenderer@@V?$K2VectorAllocator@PAVIRenderer@@@@@2@V32@0@Z 170f45f0 f i c_renderlist.obj
 0002:00036770       ?_Tidy@?$vector@PAVIRenderer@@V?$K2VectorAllocator@PAVIRenderer@@@@@std@@IAEXXZ 170f4770 f i c_renderlist.obj
 0002:00036810       ?_Ufill@?$vector@PAVIRenderer@@V?$K2VectorAllocator@PAVIRenderer@@@@@std@@IAEPAPAVIRenderer@@PAPAV3@IABQAV3@@Z 170f4810 f i c_renderlist.obj
 0002:00036860       ?_Orphan_range@?$vector@PAVIRenderer@@V?$K2VectorAllocator@PAVIRenderer@@@@@std@@IBEXPAPAVIRenderer@@0@Z 170f4860 f i c_renderlist.obj
 0002:00036900       ??1?$K2VectorAllocator@PAVIRenderer@@@@QAE@XZ 170f4900 f i c_renderlist.obj
 0002:00036920       ??0?$_Vector_iterator@PAVIRenderer@@V?$K2VectorAllocator@PAVIRenderer@@@@@std@@QAE@PAPAVIRenderer@@PBV_Container_base@1@@Z 170f4920 f i c_renderlist.obj
 0002:00036960       ??D?$_Vector_const_iterator@PAVIRenderer@@V?$K2VectorAllocator@PAVIRenderer@@@@@std@@QBEABQAVIRenderer@@XZ 170f4960 f i c_renderlist.obj
 0002:00036a20       ??E?$_Vector_const_iterator@PAVIRenderer@@V?$K2VectorAllocator@PAVIRenderer@@@@@std@@QAEAAV01@XZ 170f4a20 f i c_renderlist.obj
 0002:00036b10       ??8?$_Vector_const_iterator@PAVIRenderer@@V?$K2VectorAllocator@PAVIRenderer@@@@@std@@QBE_NABV01@@Z 170f4b10 f i c_renderlist.obj
 0002:00036b50       ??0?$_Vector_iterator@PAVIRenderer@@V?$K2VectorAllocator@PAVIRenderer@@@@@std@@QAE@ABV01@@Z 170f4b50 f i c_renderlist.obj
 0002:00036b80       ??0?$_Vector_const_iterator@PAVIRenderer@@V?$K2VectorAllocator@PAVIRenderer@@@@@std@@QAE@ABV01@@Z 170f4b80 f i c_renderlist.obj
 0002:00036bc0       ??0?$_Ranit@PAVIRenderer@@HPBQAV1@ABQAV1@@std@@QAE@ABU01@@Z 170f4bc0 f i c_renderlist.obj
 0002:00036bf0       ?_Buy@?$vector@PAVIRenderer@@V?$K2VectorAllocator@PAVIRenderer@@@@@std@@IAE_NI@Z 170f4bf0 f i c_renderlist.obj
 0002:00036ca0       ?_Destroy@?$vector@PAVIRenderer@@V?$K2VectorAllocator@PAVIRenderer@@@@@std@@IAEXPAPAVIRenderer@@0@Z 170f4ca0 f i c_renderlist.obj
 0002:00036ce0       ?_Insert_n@?$vector@PAVIRenderer@@V?$K2VectorAllocator@PAVIRenderer@@@@@std@@IAEXV?$_Vector_iterator@PAVIRenderer@@V?$K2VectorAllocator@PAVIRenderer@@@@@2@IABQAVIRenderer@@@Z 170f4ce0 f i c_renderlist.obj
 0002:00037190       ??0?$_Vector_val@PAVIRenderer@@V?$K2VectorAllocator@PAVIRenderer@@@@@std@@IAE@V?$K2VectorAllocator@PAVIRenderer@@@@@Z 170f5190 f i c_renderlist.obj
 0002:00037230       ??0?$K2VectorAllocator@PAVIRenderer@@@@QAE@XZ 170f5230 f i c_renderlist.obj
 0002:00037260       ?deallocate@?$K2VectorAllocator@PAVIRenderer@@@@QAEXPAPAVIRenderer@@I@Z 170f5260 f i c_renderlist.obj
 0002:000372a0       ??H?$_Vector_iterator@PAVIRenderer@@V?$K2VectorAllocator@PAVIRenderer@@@@@std@@QBE?AV01@H@Z 170f52a0 f i c_renderlist.obj
 0002:00037350       ??G?$_Vector_iterator@PAVIRenderer@@V?$K2VectorAllocator@PAVIRenderer@@@@@std@@QBEHABV?$_Vector_const_iterator@PAVIRenderer@@V?$K2VectorAllocator@PAVIRenderer@@@@@1@@Z 170f5350 f i c_renderlist.obj
 0002:00037380       ??0?$_Vector_const_iterator@PAVIRenderer@@V?$K2VectorAllocator@PAVIRenderer@@@@@std@@QAE@PAPAVIRenderer@@PBV_Container_base@1@@Z 170f5380 f i c_renderlist.obj
 0002:00037480       ??M?$_Vector_const_iterator@PAVIRenderer@@V?$K2VectorAllocator@PAVIRenderer@@@@@std@@QBE_NABV01@@Z 170f5480 f i c_renderlist.obj
 0002:000374c0       ?_Compat@?$_Vector_const_iterator@PAVIRenderer@@V?$K2VectorAllocator@PAVIRenderer@@@@@std@@QBEXABV12@@Z 170f54c0 f i c_renderlist.obj
 0002:00037570       ??0?$_Ranit@PAVIRenderer@@HPBQAV1@ABQAV1@@std@@QAE@XZ 170f5570 f i c_renderlist.obj
 0002:000375a0       ?max_size@?$vector@PAVIRenderer@@V?$K2VectorAllocator@PAVIRenderer@@@@@std@@QBEIXZ 170f55a0 f i c_renderlist.obj
 0002:000375d0       ?_Xlen@?$vector@PAVIRenderer@@V?$K2VectorAllocator@PAVIRenderer@@@@@std@@KAXXZ 170f55d0 f i c_renderlist.obj
 0002:00037680       ??0?$K2VectorAllocator@PAVIRenderer@@@@QAE@ABV0@@Z 170f5680 f i c_renderlist.obj
 0002:000376b0       ?allocate@?$K2VectorAllocator@PAVIRenderer@@@@QAEPAPAVIRenderer@@I@Z 170f56b0 f i c_renderlist.obj
 0002:00037700       ??0?$allocator@PAVIRenderer@@@std@@QAE@XZ 170f5700 f i c_renderlist.obj
 0002:00037720       ??Y?$_Vector_iterator@PAVIRenderer@@V?$K2VectorAllocator@PAVIRenderer@@@@@std@@QAEAAV01@H@Z 170f5720 f i c_renderlist.obj
 0002:00037750       ??G?$_Vector_const_iterator@PAVIRenderer@@V?$K2VectorAllocator@PAVIRenderer@@@@@std@@QBEHABV01@@Z 170f5750 f i c_renderlist.obj
 0002:00037790       ??0?$allocator@PAVIRenderer@@@std@@QAE@ABV01@@Z 170f5790 f i c_renderlist.obj
 0002:000377b0       ?max_size@?$allocator@PAVIRenderer@@@std@@QBEIXZ 170f57b0 f i c_renderlist.obj
 0002:000377f0       ??Y?$_Vector_const_iterator@PAVIRenderer@@V?$K2VectorAllocator@PAVIRenderer@@@@@std@@QAEAAV01@H@Z 170f57f0 f i c_renderlist.obj
 0002:00037920       ?Reset@?$CPool@VCScenePolyRenderer@@@@QAEXXZ 170f5920 f i c_renderlist.obj
 0002:00037a40       ?Reset@?$CPool@VCTerrainRenderer@@@@QAEXXZ 170f5a40 f i c_renderlist.obj
 0002:00037b60       ?Reset@?$CPool@VCTreeBranchRenderer@@@@QAEXXZ 170f5b60 f i c_renderlist.obj
 0002:00037c80       ?Reset@?$CPool@VCTreeFrondRenderer@@@@QAEXXZ 170f5c80 f i c_renderlist.obj
 0002:00037da0       ?Reset@?$CPool@VCTreeLeafRenderer@@@@QAEXXZ 170f5da0 f i c_renderlist.obj
 0002:00037ec0       ?Reset@?$CPool@VCTreeBillboardRenderer@@@@QAEXXZ 170f5ec0 f i c_renderlist.obj
 0002:00037fe0       ?Reset@?$CPool@VCSkyRenderer@@@@QAEXXZ 170f5fe0 f i c_renderlist.obj
 0002:00038100       ??$sort@V?$_Vector_iterator@PAVIRenderer@@V?$K2VectorAllocator@PAVIRenderer@@@@@std@@P6A_NPAVIRenderer@@0@Z@std@@YAXV?$_Vector_iterator@PAVIRenderer@@V?$K2VectorAllocator@PAVIRenderer@@@@@0@0P6A_NPAVIRenderer@@1@Z@Z 170f6100 f i c_renderlist.obj
 0002:00038260       ??$unchecked_copy@PAPAVIRenderer@@PAPAV1@@stdext@@YAPAPAVIRenderer@@PAPAV1@00@Z 170f6260 f i c_renderlist.obj
 0002:000382f0       ??$unchecked_uninitialized_fill_n@PAPAVIRenderer@@IPAV1@V?$K2VectorAllocator@PAVIRenderer@@@@@stdext@@YAXPAPAVIRenderer@@IABQAV1@AAV?$K2VectorAllocator@PAVIRenderer@@@@@Z 170f62f0 f i c_renderlist.obj
 0002:00038350       ??$_Destroy_range@PAVIRenderer@@V?$K2VectorAllocator@PAVIRenderer@@@@@std@@YAXPAPAVIRenderer@@0AAV?$K2VectorAllocator@PAVIRenderer@@@@@Z 170f6350 f i c_renderlist.obj
 0002:000383a0       ??$_Umove@PAPAVIRenderer@@@?$vector@PAVIRenderer@@V?$K2VectorAllocator@PAVIRenderer@@@@@std@@IAEPAPAVIRenderer@@PAPAV2@00@Z 170f63a0 f i c_renderlist.obj
 0002:000383e0       ??$fill@PAPAVIRenderer@@PAV1@@std@@YAXPAPAVIRenderer@@0ABQAV1@@Z 170f63e0 f i c_renderlist.obj
 0002:00038430       ??$_Unchecked_move_backward@PAPAVIRenderer@@PAPAV1@@stdext@@YAPAPAVIRenderer@@PAPAV1@00@Z 170f6430 f i c_renderlist.obj
 0002:000384c0       ??1?$_Vector_iterator@PAVCScenePolyRenderer@@V?$K2VectorAllocator@PAVCScenePolyRenderer@@@@@std@@QAE@XZ 170f64c0 f i c_renderlist.obj
 0002:000384f0       ??1?$_Vector_iterator@PAVCTerrainRenderer@@V?$K2VectorAllocator@PAVCTerrainRenderer@@@@@std@@QAE@XZ 170f64f0 f i c_renderlist.obj
 0002:00038520       ??1?$_Vector_iterator@PAVCTreeBranchRenderer@@V?$K2VectorAllocator@PAVCTreeBranchRenderer@@@@@std@@QAE@XZ 170f6520 f i c_renderlist.obj
 0002:00038550       ??1?$_Vector_iterator@PAVCTreeFrondRenderer@@V?$K2VectorAllocator@PAVCTreeFrondRenderer@@@@@std@@QAE@XZ 170f6550 f i c_renderlist.obj
 0002:00038580       ??1?$_Vector_iterator@PAVCTreeLeafRenderer@@V?$K2VectorAllocator@PAVCTreeLeafRenderer@@@@@std@@QAE@XZ 170f6580 f i c_renderlist.obj
 0002:000385b0       ??1?$_Vector_iterator@PAVCTreeBillboardRenderer@@V?$K2VectorAllocator@PAVCTreeBillboardRenderer@@@@@std@@QAE@XZ 170f65b0 f i c_renderlist.obj
 0002:000385e0       ??1?$_Vector_iterator@PAVCSkyRenderer@@V?$K2VectorAllocator@PAVCSkyRenderer@@@@@std@@QAE@XZ 170f65e0 f i c_renderlist.obj
 0002:00038610       ??1?$_Vector_const_iterator@PAVCScenePolyRenderer@@V?$K2VectorAllocator@PAVCScenePolyRenderer@@@@@std@@QAE@XZ 170f6610 f i c_renderlist.obj
 0002:00038640       ??1?$_Vector_const_iterator@PAVCTerrainRenderer@@V?$K2VectorAllocator@PAVCTerrainRenderer@@@@@std@@QAE@XZ 170f6640 f i c_renderlist.obj
 0002:00038670       ??1?$_Vector_const_iterator@PAVCTreeBranchRenderer@@V?$K2VectorAllocator@PAVCTreeBranchRenderer@@@@@std@@QAE@XZ 170f6670 f i c_renderlist.obj
 0002:000386a0       ??1?$_Vector_const_iterator@PAVCTreeFrondRenderer@@V?$K2VectorAllocator@PAVCTreeFrondRenderer@@@@@std@@QAE@XZ 170f66a0 f i c_renderlist.obj
 0002:000386d0       ??1?$_Vector_const_iterator@PAVCTreeLeafRenderer@@V?$K2VectorAllocator@PAVCTreeLeafRenderer@@@@@std@@QAE@XZ 170f66d0 f i c_renderlist.obj
 0002:00038700       ??1?$_Vector_const_iterator@PAVCTreeBillboardRenderer@@V?$K2VectorAllocator@PAVCTreeBillboardRenderer@@@@@std@@QAE@XZ 170f6700 f i c_renderlist.obj
 0002:00038730       ??1?$_Vector_const_iterator@PAVCSkyRenderer@@V?$K2VectorAllocator@PAVCSkyRenderer@@@@@std@@QAE@XZ 170f6730 f i c_renderlist.obj
 0002:00038760       ??1?$_Ranit@PAVCScenePolyRenderer@@HPBQAV1@ABQAV1@@std@@QAE@XZ 170f6760 f i c_renderlist.obj
 0002:00038790       ??1?$_Ranit@PAVCTerrainRenderer@@HPBQAV1@ABQAV1@@std@@QAE@XZ 170f6790 f i c_renderlist.obj
 0002:000387c0       ??1?$_Ranit@PAVCTreeBranchRenderer@@HPBQAV1@ABQAV1@@std@@QAE@XZ 170f67c0 f i c_renderlist.obj
 0002:000387f0       ??1?$_Ranit@PAVCTreeFrondRenderer@@HPBQAV1@ABQAV1@@std@@QAE@XZ 170f67f0 f i c_renderlist.obj
 0002:00038820       ??1?$_Ranit@PAVCTreeLeafRenderer@@HPBQAV1@ABQAV1@@std@@QAE@XZ 170f6820 f i c_renderlist.obj
 0002:00038850       ??1?$_Ranit@PAVCTreeBillboardRenderer@@HPBQAV1@ABQAV1@@std@@QAE@XZ 170f6850 f i c_renderlist.obj
 0002:00038880       ??1?$_Ranit@PAVCSkyRenderer@@HPBQAV1@ABQAV1@@std@@QAE@XZ 170f6880 f i c_renderlist.obj
 0002:000388b0       ?begin@?$vector@PAVCScenePolyRenderer@@V?$K2VectorAllocator@PAVCScenePolyRenderer@@@@@std@@QAE?AV?$_Vector_iterator@PAVCScenePolyRenderer@@V?$K2VectorAllocator@PAVCScenePolyRenderer@@@@@2@XZ 170f68b0 f i c_renderlist.obj
 0002:00038900       ?end@?$vector@PAVCScenePolyRenderer@@V?$K2VectorAllocator@PAVCScenePolyRenderer@@@@@std@@QAE?AV?$_Vector_iterator@PAVCScenePolyRenderer@@V?$K2VectorAllocator@PAVCScenePolyRenderer@@@@@2@XZ 170f6900 f i c_renderlist.obj
 0002:00038950       ?clear@?$vector@PAVCScenePolyRenderer@@V?$K2VectorAllocator@PAVCScenePolyRenderer@@@@@std@@QAEXXZ 170f6950 f i c_renderlist.obj
 0002:00038a10       ?begin@?$vector@PAVCTerrainRenderer@@V?$K2VectorAllocator@PAVCTerrainRenderer@@@@@std@@QAE?AV?$_Vector_iterator@PAVCTerrainRenderer@@V?$K2VectorAllocator@PAVCTerrainRenderer@@@@@2@XZ 170f6a10 f i c_renderlist.obj
 0002:00038a60       ?end@?$vector@PAVCTerrainRenderer@@V?$K2VectorAllocator@PAVCTerrainRenderer@@@@@std@@QAE?AV?$_Vector_iterator@PAVCTerrainRenderer@@V?$K2VectorAllocator@PAVCTerrainRenderer@@@@@2@XZ 170f6a60 f i c_renderlist.obj
 0002:00038ab0       ?clear@?$vector@PAVCTerrainRenderer@@V?$K2VectorAllocator@PAVCTerrainRenderer@@@@@std@@QAEXXZ 170f6ab0 f i c_renderlist.obj
 0002:00038b70       ?begin@?$vector@PAVCTreeBranchRenderer@@V?$K2VectorAllocator@PAVCTreeBranchRenderer@@@@@std@@QAE?AV?$_Vector_iterator@PAVCTreeBranchRenderer@@V?$K2VectorAllocator@PAVCTreeBranchRenderer@@@@@2@XZ 170f6b70 f i c_renderlist.obj
 0002:00038bc0       ?end@?$vector@PAVCTreeBranchRenderer@@V?$K2VectorAllocator@PAVCTreeBranchRenderer@@@@@std@@QAE?AV?$_Vector_iterator@PAVCTreeBranchRenderer@@V?$K2VectorAllocator@PAVCTreeBranchRenderer@@@@@2@XZ 170f6bc0 f i c_renderlist.obj
 0002:00038c10       ?clear@?$vector@PAVCTreeBranchRenderer@@V?$K2VectorAllocator@PAVCTreeBranchRenderer@@@@@std@@QAEXXZ 170f6c10 f i c_renderlist.obj
 0002:00038cd0       ?begin@?$vector@PAVCTreeFrondRenderer@@V?$K2VectorAllocator@PAVCTreeFrondRenderer@@@@@std@@QAE?AV?$_Vector_iterator@PAVCTreeFrondRenderer@@V?$K2VectorAllocator@PAVCTreeFrondRenderer@@@@@2@XZ 170f6cd0 f i c_renderlist.obj
 0002:00038d20       ?end@?$vector@PAVCTreeFrondRenderer@@V?$K2VectorAllocator@PAVCTreeFrondRenderer@@@@@std@@QAE?AV?$_Vector_iterator@PAVCTreeFrondRenderer@@V?$K2VectorAllocator@PAVCTreeFrondRenderer@@@@@2@XZ 170f6d20 f i c_renderlist.obj
 0002:00038d70       ?clear@?$vector@PAVCTreeFrondRenderer@@V?$K2VectorAllocator@PAVCTreeFrondRenderer@@@@@std@@QAEXXZ 170f6d70 f i c_renderlist.obj
 0002:00038e30       ?begin@?$vector@PAVCTreeLeafRenderer@@V?$K2VectorAllocator@PAVCTreeLeafRenderer@@@@@std@@QAE?AV?$_Vector_iterator@PAVCTreeLeafRenderer@@V?$K2VectorAllocator@PAVCTreeLeafRenderer@@@@@2@XZ 170f6e30 f i c_renderlist.obj
 0002:00038e80       ?end@?$vector@PAVCTreeLeafRenderer@@V?$K2VectorAllocator@PAVCTreeLeafRenderer@@@@@std@@QAE?AV?$_Vector_iterator@PAVCTreeLeafRenderer@@V?$K2VectorAllocator@PAVCTreeLeafRenderer@@@@@2@XZ 170f6e80 f i c_renderlist.obj
 0002:00038ed0       ?clear@?$vector@PAVCTreeLeafRenderer@@V?$K2VectorAllocator@PAVCTreeLeafRenderer@@@@@std@@QAEXXZ 170f6ed0 f i c_renderlist.obj
 0002:00038f90       ?begin@?$vector@PAVCTreeBillboardRenderer@@V?$K2VectorAllocator@PAVCTreeBillboardRenderer@@@@@std@@QAE?AV?$_Vector_iterator@PAVCTreeBillboardRenderer@@V?$K2VectorAllocator@PAVCTreeBillboardRenderer@@@@@2@XZ 170f6f90 f i c_renderlist.obj
 0002:00038fe0       ?end@?$vector@PAVCTreeBillboardRenderer@@V?$K2VectorAllocator@PAVCTreeBillboardRenderer@@@@@std@@QAE?AV?$_Vector_iterator@PAVCTreeBillboardRenderer@@V?$K2VectorAllocator@PAVCTreeBillboardRenderer@@@@@2@XZ 170f6fe0 f i c_renderlist.obj
 0002:00039030       ?clear@?$vector@PAVCTreeBillboardRenderer@@V?$K2VectorAllocator@PAVCTreeBillboardRenderer@@@@@std@@QAEXXZ 170f7030 f i c_renderlist.obj
 0002:000390f0       ?begin@?$vector@PAVCSkyRenderer@@V?$K2VectorAllocator@PAVCSkyRenderer@@@@@std@@QAE?AV?$_Vector_iterator@PAVCSkyRenderer@@V?$K2VectorAllocator@PAVCSkyRenderer@@@@@2@XZ 170f70f0 f i c_renderlist.obj
 0002:00039140       ?end@?$vector@PAVCSkyRenderer@@V?$K2VectorAllocator@PAVCSkyRenderer@@@@@std@@QAE?AV?$_Vector_iterator@PAVCSkyRenderer@@V?$K2VectorAllocator@PAVCSkyRenderer@@@@@2@XZ 170f7140 f i c_renderlist.obj
 0002:00039190       ?clear@?$vector@PAVCSkyRenderer@@V?$K2VectorAllocator@PAVCSkyRenderer@@@@@std@@QAEXXZ 170f7190 f i c_renderlist.obj
 0002:00039250       ??D?$_Vector_iterator@PAVCScenePolyRenderer@@V?$K2VectorAllocator@PAVCScenePolyRenderer@@@@@std@@QBEAAPAVCScenePolyRenderer@@XZ 170f7250 f i c_renderlist.obj
 0002:00039280       ??E?$_Vector_iterator@PAVCScenePolyRenderer@@V?$K2VectorAllocator@PAVCScenePolyRenderer@@@@@std@@QAEAAV01@XZ 170f7280 f i c_renderlist.obj
 0002:000392b0       ??9?$_Vector_const_iterator@PAVCScenePolyRenderer@@V?$K2VectorAllocator@PAVCScenePolyRenderer@@@@@std@@QBE_NABV01@@Z 170f72b0 f i c_renderlist.obj
 0002:000392f0       ??D?$_Vector_iterator@PAVCTerrainRenderer@@V?$K2VectorAllocator@PAVCTerrainRenderer@@@@@std@@QBEAAPAVCTerrainRenderer@@XZ 170f72f0 f i c_renderlist.obj
 0002:00039320       ??E?$_Vector_iterator@PAVCTerrainRenderer@@V?$K2VectorAllocator@PAVCTerrainRenderer@@@@@std@@QAEAAV01@XZ 170f7320 f i c_renderlist.obj
 0002:00039350       ??9?$_Vector_const_iterator@PAVCTerrainRenderer@@V?$K2VectorAllocator@PAVCTerrainRenderer@@@@@std@@QBE_NABV01@@Z 170f7350 f i c_renderlist.obj
 0002:00039390       ??D?$_Vector_iterator@PAVCTreeBranchRenderer@@V?$K2VectorAllocator@PAVCTreeBranchRenderer@@@@@std@@QBEAAPAVCTreeBranchRenderer@@XZ 170f7390 f i c_renderlist.obj
 0002:000393c0       ??E?$_Vector_iterator@PAVCTreeBranchRenderer@@V?$K2VectorAllocator@PAVCTreeBranchRenderer@@@@@std@@QAEAAV01@XZ 170f73c0 f i c_renderlist.obj
 0002:000393f0       ??9?$_Vector_const_iterator@PAVCTreeBranchRenderer@@V?$K2VectorAllocator@PAVCTreeBranchRenderer@@@@@std@@QBE_NABV01@@Z 170f73f0 f i c_renderlist.obj
 0002:00039430       ??D?$_Vector_iterator@PAVCTreeFrondRenderer@@V?$K2VectorAllocator@PAVCTreeFrondRenderer@@@@@std@@QBEAAPAVCTreeFrondRenderer@@XZ 170f7430 f i c_renderlist.obj
 0002:00039460       ??E?$_Vector_iterator@PAVCTreeFrondRenderer@@V?$K2VectorAllocator@PAVCTreeFrondRenderer@@@@@std@@QAEAAV01@XZ 170f7460 f i c_renderlist.obj
 0002:00039490       ??9?$_Vector_const_iterator@PAVCTreeFrondRenderer@@V?$K2VectorAllocator@PAVCTreeFrondRenderer@@@@@std@@QBE_NABV01@@Z 170f7490 f i c_renderlist.obj
 0002:000394d0       ??D?$_Vector_iterator@PAVCTreeLeafRenderer@@V?$K2VectorAllocator@PAVCTreeLeafRenderer@@@@@std@@QBEAAPAVCTreeLeafRenderer@@XZ 170f74d0 f i c_renderlist.obj
 0002:00039500       ??E?$_Vector_iterator@PAVCTreeLeafRenderer@@V?$K2VectorAllocator@PAVCTreeLeafRenderer@@@@@std@@QAEAAV01@XZ 170f7500 f i c_renderlist.obj
 0002:00039530       ??9?$_Vector_const_iterator@PAVCTreeLeafRenderer@@V?$K2VectorAllocator@PAVCTreeLeafRenderer@@@@@std@@QBE_NABV01@@Z 170f7530 f i c_renderlist.obj
 0002:00039570       ??D?$_Vector_iterator@PAVCTreeBillboardRenderer@@V?$K2VectorAllocator@PAVCTreeBillboardRenderer@@@@@std@@QBEAAPAVCTreeBillboardRenderer@@XZ 170f7570 f i c_renderlist.obj
 0002:000395a0       ??E?$_Vector_iterator@PAVCTreeBillboardRenderer@@V?$K2VectorAllocator@PAVCTreeBillboardRenderer@@@@@std@@QAEAAV01@XZ 170f75a0 f i c_renderlist.obj
 0002:000395d0       ??9?$_Vector_const_iterator@PAVCTreeBillboardRenderer@@V?$K2VectorAllocator@PAVCTreeBillboardRenderer@@@@@std@@QBE_NABV01@@Z 170f75d0 f i c_renderlist.obj
 0002:00039610       ??D?$_Vector_iterator@PAVCSkyRenderer@@V?$K2VectorAllocator@PAVCSkyRenderer@@@@@std@@QBEAAPAVCSkyRenderer@@XZ 170f7610 f i c_renderlist.obj
 0002:00039640       ??E?$_Vector_iterator@PAVCSkyRenderer@@V?$K2VectorAllocator@PAVCSkyRenderer@@@@@std@@QAEAAV01@XZ 170f7640 f i c_renderlist.obj
 0002:00039670       ??9?$_Vector_const_iterator@PAVCSkyRenderer@@V?$K2VectorAllocator@PAVCSkyRenderer@@@@@std@@QBE_NABV01@@Z 170f7670 f i c_renderlist.obj
 0002:000396b0       ?erase@?$vector@PAVCScenePolyRenderer@@V?$K2VectorAllocator@PAVCScenePolyRenderer@@@@@std@@QAE?AV?$_Vector_iterator@PAVCScenePolyRenderer@@V?$K2VectorAllocator@PAVCScenePolyRenderer@@@@@2@V32@0@Z 170f76b0 f i c_renderlist.obj
 0002:00039830       ?erase@?$vector@PAVCTerrainRenderer@@V?$K2VectorAllocator@PAVCTerrainRenderer@@@@@std@@QAE?AV?$_Vector_iterator@PAVCTerrainRenderer@@V?$K2VectorAllocator@PAVCTerrainRenderer@@@@@2@V32@0@Z 170f7830 f i c_renderlist.obj
 0002:000399b0       ?erase@?$vector@PAVCTreeBranchRenderer@@V?$K2VectorAllocator@PAVCTreeBranchRenderer@@@@@std@@QAE?AV?$_Vector_iterator@PAVCTreeBranchRenderer@@V?$K2VectorAllocator@PAVCTreeBranchRenderer@@@@@2@V32@0@Z 170f79b0 f i c_renderlist.obj
 0002:00039b30       ?erase@?$vector@PAVCTreeFrondRenderer@@V?$K2VectorAllocator@PAVCTreeFrondRenderer@@@@@std@@QAE?AV?$_Vector_iterator@PAVCTreeFrondRenderer@@V?$K2VectorAllocator@PAVCTreeFrondRenderer@@@@@2@V32@0@Z 170f7b30 f i c_renderlist.obj
 0002:00039cb0       ?erase@?$vector@PAVCTreeLeafRenderer@@V?$K2VectorAllocator@PAVCTreeLeafRenderer@@@@@std@@QAE?AV?$_Vector_iterator@PAVCTreeLeafRenderer@@V?$K2VectorAllocator@PAVCTreeLeafRenderer@@@@@2@V32@0@Z 170f7cb0 f i c_renderlist.obj
 0002:00039e30       ?erase@?$vector@PAVCTreeBillboardRenderer@@V?$K2VectorAllocator@PAVCTreeBillboardRenderer@@@@@std@@QAE?AV?$_Vector_iterator@PAVCTreeBillboardRenderer@@V?$K2VectorAllocator@PAVCTreeBillboardRenderer@@@@@2@V32@0@Z 170f7e30 f i c_renderlist.obj
 0002:00039fb0       ?erase@?$vector@PAVCSkyRenderer@@V?$K2VectorAllocator@PAVCSkyRenderer@@@@@std@@QAE?AV?$_Vector_iterator@PAVCSkyRenderer@@V?$K2VectorAllocator@PAVCSkyRenderer@@@@@2@V32@0@Z 170f7fb0 f i c_renderlist.obj
 0002:0003a130       ??0?$_Vector_iterator@PAVCScenePolyRenderer@@V?$K2VectorAllocator@PAVCScenePolyRenderer@@@@@std@@QAE@PAPAVCScenePolyRenderer@@PBV_Container_base@1@@Z 170f8130 f i c_renderlist.obj
 0002:0003a170       ??D?$_Vector_const_iterator@PAVCScenePolyRenderer@@V?$K2VectorAllocator@PAVCScenePolyRenderer@@@@@std@@QBEABQAVCScenePolyRenderer@@XZ 170f8170 f i c_renderlist.obj
 0002:0003a230       ??E?$_Vector_const_iterator@PAVCScenePolyRenderer@@V?$K2VectorAllocator@PAVCScenePolyRenderer@@@@@std@@QAEAAV01@XZ 170f8230 f i c_renderlist.obj
 0002:0003a320       ??8?$_Vector_const_iterator@PAVCScenePolyRenderer@@V?$K2VectorAllocator@PAVCScenePolyRenderer@@@@@std@@QBE_NABV01@@Z 170f8320 f i c_renderlist.obj
 0002:0003a360       ??0?$_Vector_iterator@PAVCTerrainRenderer@@V?$K2VectorAllocator@PAVCTerrainRenderer@@@@@std@@QAE@PAPAVCTerrainRenderer@@PBV_Container_base@1@@Z 170f8360 f i c_renderlist.obj
 0002:0003a3a0       ??D?$_Vector_const_iterator@PAVCTerrainRenderer@@V?$K2VectorAllocator@PAVCTerrainRenderer@@@@@std@@QBEABQAVCTerrainRenderer@@XZ 170f83a0 f i c_renderlist.obj
 0002:0003a460       ??E?$_Vector_const_iterator@PAVCTerrainRenderer@@V?$K2VectorAllocator@PAVCTerrainRenderer@@@@@std@@QAEAAV01@XZ 170f8460 f i c_renderlist.obj
 0002:0003a550       ??8?$_Vector_const_iterator@PAVCTerrainRenderer@@V?$K2VectorAllocator@PAVCTerrainRenderer@@@@@std@@QBE_NABV01@@Z 170f8550 f i c_renderlist.obj
 0002:0003a590       ??0?$_Vector_iterator@PAVCTreeBranchRenderer@@V?$K2VectorAllocator@PAVCTreeBranchRenderer@@@@@std@@QAE@PAPAVCTreeBranchRenderer@@PBV_Container_base@1@@Z 170f8590 f i c_renderlist.obj
 0002:0003a5d0       ??D?$_Vector_const_iterator@PAVCTreeBranchRenderer@@V?$K2VectorAllocator@PAVCTreeBranchRenderer@@@@@std@@QBEABQAVCTreeBranchRenderer@@XZ 170f85d0 f i c_renderlist.obj
 0002:0003a690       ??E?$_Vector_const_iterator@PAVCTreeBranchRenderer@@V?$K2VectorAllocator@PAVCTreeBranchRenderer@@@@@std@@QAEAAV01@XZ 170f8690 f i c_renderlist.obj
 0002:0003a780       ??8?$_Vector_const_iterator@PAVCTreeBranchRenderer@@V?$K2VectorAllocator@PAVCTreeBranchRenderer@@@@@std@@QBE_NABV01@@Z 170f8780 f i c_renderlist.obj
 0002:0003a7c0       ??0?$_Vector_iterator@PAVCTreeFrondRenderer@@V?$K2VectorAllocator@PAVCTreeFrondRenderer@@@@@std@@QAE@PAPAVCTreeFrondRenderer@@PBV_Container_base@1@@Z 170f87c0 f i c_renderlist.obj
 0002:0003a800       ??D?$_Vector_const_iterator@PAVCTreeFrondRenderer@@V?$K2VectorAllocator@PAVCTreeFrondRenderer@@@@@std@@QBEABQAVCTreeFrondRenderer@@XZ 170f8800 f i c_renderlist.obj
 0002:0003a8c0       ??E?$_Vector_const_iterator@PAVCTreeFrondRenderer@@V?$K2VectorAllocator@PAVCTreeFrondRenderer@@@@@std@@QAEAAV01@XZ 170f88c0 f i c_renderlist.obj
 0002:0003a9b0       ??8?$_Vector_const_iterator@PAVCTreeFrondRenderer@@V?$K2VectorAllocator@PAVCTreeFrondRenderer@@@@@std@@QBE_NABV01@@Z 170f89b0 f i c_renderlist.obj
 0002:0003a9f0       ??0?$_Vector_iterator@PAVCTreeLeafRenderer@@V?$K2VectorAllocator@PAVCTreeLeafRenderer@@@@@std@@QAE@PAPAVCTreeLeafRenderer@@PBV_Container_base@1@@Z 170f89f0 f i c_renderlist.obj
 0002:0003aa30       ??D?$_Vector_const_iterator@PAVCTreeLeafRenderer@@V?$K2VectorAllocator@PAVCTreeLeafRenderer@@@@@std@@QBEABQAVCTreeLeafRenderer@@XZ 170f8a30 f i c_renderlist.obj
 0002:0003aaf0       ??E?$_Vector_const_iterator@PAVCTreeLeafRenderer@@V?$K2VectorAllocator@PAVCTreeLeafRenderer@@@@@std@@QAEAAV01@XZ 170f8af0 f i c_renderlist.obj
 0002:0003abe0       ??8?$_Vector_const_iterator@PAVCTreeLeafRenderer@@V?$K2VectorAllocator@PAVCTreeLeafRenderer@@@@@std@@QBE_NABV01@@Z 170f8be0 f i c_renderlist.obj
 0002:0003ac20       ??0?$_Vector_iterator@PAVCTreeBillboardRenderer@@V?$K2VectorAllocator@PAVCTreeBillboardRenderer@@@@@std@@QAE@PAPAVCTreeBillboardRenderer@@PBV_Container_base@1@@Z 170f8c20 f i c_renderlist.obj
 0002:0003ac60       ??D?$_Vector_const_iterator@PAVCTreeBillboardRenderer@@V?$K2VectorAllocator@PAVCTreeBillboardRenderer@@@@@std@@QBEABQAVCTreeBillboardRenderer@@XZ 170f8c60 f i c_renderlist.obj
 0002:0003ad20       ??E?$_Vector_const_iterator@PAVCTreeBillboardRenderer@@V?$K2VectorAllocator@PAVCTreeBillboardRenderer@@@@@std@@QAEAAV01@XZ 170f8d20 f i c_renderlist.obj
 0002:0003ae10       ??8?$_Vector_const_iterator@PAVCTreeBillboardRenderer@@V?$K2VectorAllocator@PAVCTreeBillboardRenderer@@@@@std@@QBE_NABV01@@Z 170f8e10 f i c_renderlist.obj
 0002:0003ae50       ??0?$_Vector_iterator@PAVCSkyRenderer@@V?$K2VectorAllocator@PAVCSkyRenderer@@@@@std@@QAE@PAPAVCSkyRenderer@@PBV_Container_base@1@@Z 170f8e50 f i c_renderlist.obj
 0002:0003ae90       ??D?$_Vector_const_iterator@PAVCSkyRenderer@@V?$K2VectorAllocator@PAVCSkyRenderer@@@@@std@@QBEABQAVCSkyRenderer@@XZ 170f8e90 f i c_renderlist.obj
 0002:0003af50       ??E?$_Vector_const_iterator@PAVCSkyRenderer@@V?$K2VectorAllocator@PAVCSkyRenderer@@@@@std@@QAEAAV01@XZ 170f8f50 f i c_renderlist.obj
 0002:0003b040       ??8?$_Vector_const_iterator@PAVCSkyRenderer@@V?$K2VectorAllocator@PAVCSkyRenderer@@@@@std@@QBE_NABV01@@Z 170f9040 f i c_renderlist.obj
 0002:0003b080       ?_Destroy@?$vector@PAVCScenePolyRenderer@@V?$K2VectorAllocator@PAVCScenePolyRenderer@@@@@std@@IAEXPAPAVCScenePolyRenderer@@0@Z 170f9080 f i c_renderlist.obj
 0002:0003b0c0       ?_Orphan_range@?$vector@PAVCScenePolyRenderer@@V?$K2VectorAllocator@PAVCScenePolyRenderer@@@@@std@@IBEXPAPAVCScenePolyRenderer@@0@Z 170f90c0 f i c_renderlist.obj
 0002:0003b160       ?_Destroy@?$vector@PAVCTerrainRenderer@@V?$K2VectorAllocator@PAVCTerrainRenderer@@@@@std@@IAEXPAPAVCTerrainRenderer@@0@Z 170f9160 f i c_renderlist.obj
 0002:0003b1a0       ?_Orphan_range@?$vector@PAVCTerrainRenderer@@V?$K2VectorAllocator@PAVCTerrainRenderer@@@@@std@@IBEXPAPAVCTerrainRenderer@@0@Z 170f91a0 f i c_renderlist.obj
 0002:0003b240       ?_Destroy@?$vector@PAVCTreeBranchRenderer@@V?$K2VectorAllocator@PAVCTreeBranchRenderer@@@@@std@@IAEXPAPAVCTreeBranchRenderer@@0@Z 170f9240 f i c_renderlist.obj
 0002:0003b280       ?_Orphan_range@?$vector@PAVCTreeBranchRenderer@@V?$K2VectorAllocator@PAVCTreeBranchRenderer@@@@@std@@IBEXPAPAVCTreeBranchRenderer@@0@Z 170f9280 f i c_renderlist.obj
 0002:0003b320       ?_Destroy@?$vector@PAVCTreeFrondRenderer@@V?$K2VectorAllocator@PAVCTreeFrondRenderer@@@@@std@@IAEXPAPAVCTreeFrondRenderer@@0@Z 170f9320 f i c_renderlist.obj
 0002:0003b360       ?_Orphan_range@?$vector@PAVCTreeFrondRenderer@@V?$K2VectorAllocator@PAVCTreeFrondRenderer@@@@@std@@IBEXPAPAVCTreeFrondRenderer@@0@Z 170f9360 f i c_renderlist.obj
 0002:0003b400       ?_Destroy@?$vector@PAVCTreeLeafRenderer@@V?$K2VectorAllocator@PAVCTreeLeafRenderer@@@@@std@@IAEXPAPAVCTreeLeafRenderer@@0@Z 170f9400 f i c_renderlist.obj
 0002:0003b440       ?_Orphan_range@?$vector@PAVCTreeLeafRenderer@@V?$K2VectorAllocator@PAVCTreeLeafRenderer@@@@@std@@IBEXPAPAVCTreeLeafRenderer@@0@Z 170f9440 f i c_renderlist.obj
 0002:0003b4e0       ?_Destroy@?$vector@PAVCTreeBillboardRenderer@@V?$K2VectorAllocator@PAVCTreeBillboardRenderer@@@@@std@@IAEXPAPAVCTreeBillboardRenderer@@0@Z 170f94e0 f i c_renderlist.obj
 0002:0003b520       ?_Orphan_range@?$vector@PAVCTreeBillboardRenderer@@V?$K2VectorAllocator@PAVCTreeBillboardRenderer@@@@@std@@IBEXPAPAVCTreeBillboardRenderer@@0@Z 170f9520 f i c_renderlist.obj
 0002:0003b5c0       ?_Destroy@?$vector@PAVCSkyRenderer@@V?$K2VectorAllocator@PAVCSkyRenderer@@@@@std@@IAEXPAPAVCSkyRenderer@@0@Z 170f95c0 f i c_renderlist.obj
 0002:0003b600       ?_Orphan_range@?$vector@PAVCSkyRenderer@@V?$K2VectorAllocator@PAVCSkyRenderer@@@@@std@@IBEXPAPAVCSkyRenderer@@0@Z 170f9600 f i c_renderlist.obj
 0002:0003b6a0       ??0?$_Vector_const_iterator@PAVCScenePolyRenderer@@V?$K2VectorAllocator@PAVCScenePolyRenderer@@@@@std@@QAE@PAPAVCScenePolyRenderer@@PBV_Container_base@1@@Z 170f96a0 f i c_renderlist.obj
 0002:0003b7a0       ??M?$_Vector_const_iterator@PAVCScenePolyRenderer@@V?$K2VectorAllocator@PAVCScenePolyRenderer@@@@@std@@QBE_NABV01@@Z 170f97a0 f i c_renderlist.obj
 0002:0003b7e0       ?_Compat@?$_Vector_const_iterator@PAVCScenePolyRenderer@@V?$K2VectorAllocator@PAVCScenePolyRenderer@@@@@std@@QBEXABV12@@Z 170f97e0 f i c_renderlist.obj
 0002:0003b890       ??0?$_Vector_const_iterator@PAVCTerrainRenderer@@V?$K2VectorAllocator@PAVCTerrainRenderer@@@@@std@@QAE@PAPAVCTerrainRenderer@@PBV_Container_base@1@@Z 170f9890 f i c_renderlist.obj
 0002:0003b990       ??M?$_Vector_const_iterator@PAVCTerrainRenderer@@V?$K2VectorAllocator@PAVCTerrainRenderer@@@@@std@@QBE_NABV01@@Z 170f9990 f i c_renderlist.obj
 0002:0003b9d0       ?_Compat@?$_Vector_const_iterator@PAVCTerrainRenderer@@V?$K2VectorAllocator@PAVCTerrainRenderer@@@@@std@@QBEXABV12@@Z 170f99d0 f i c_renderlist.obj
 0002:0003ba80       ??0?$_Vector_const_iterator@PAVCTreeBranchRenderer@@V?$K2VectorAllocator@PAVCTreeBranchRenderer@@@@@std@@QAE@PAPAVCTreeBranchRenderer@@PBV_Container_base@1@@Z 170f9a80 f i c_renderlist.obj
 0002:0003bb80       ??M?$_Vector_const_iterator@PAVCTreeBranchRenderer@@V?$K2VectorAllocator@PAVCTreeBranchRenderer@@@@@std@@QBE_NABV01@@Z 170f9b80 f i c_renderlist.obj
 0002:0003bbc0       ?_Compat@?$_Vector_const_iterator@PAVCTreeBranchRenderer@@V?$K2VectorAllocator@PAVCTreeBranchRenderer@@@@@std@@QBEXABV12@@Z 170f9bc0 f i c_renderlist.obj
 0002:0003bc70       ??0?$_Vector_const_iterator@PAVCTreeFrondRenderer@@V?$K2VectorAllocator@PAVCTreeFrondRenderer@@@@@std@@QAE@PAPAVCTreeFrondRenderer@@PBV_Container_base@1@@Z 170f9c70 f i c_renderlist.obj
 0002:0003bd70       ??M?$_Vector_const_iterator@PAVCTreeFrondRenderer@@V?$K2VectorAllocator@PAVCTreeFrondRenderer@@@@@std@@QBE_NABV01@@Z 170f9d70 f i c_renderlist.obj
 0002:0003bdb0       ?_Compat@?$_Vector_const_iterator@PAVCTreeFrondRenderer@@V?$K2VectorAllocator@PAVCTreeFrondRenderer@@@@@std@@QBEXABV12@@Z 170f9db0 f i c_renderlist.obj
 0002:0003be60       ??0?$_Vector_const_iterator@PAVCTreeLeafRenderer@@V?$K2VectorAllocator@PAVCTreeLeafRenderer@@@@@std@@QAE@PAPAVCTreeLeafRenderer@@PBV_Container_base@1@@Z 170f9e60 f i c_renderlist.obj
 0002:0003bf60       ??M?$_Vector_const_iterator@PAVCTreeLeafRenderer@@V?$K2VectorAllocator@PAVCTreeLeafRenderer@@@@@std@@QBE_NABV01@@Z 170f9f60 f i c_renderlist.obj
 0002:0003bfa0       ?_Compat@?$_Vector_const_iterator@PAVCTreeLeafRenderer@@V?$K2VectorAllocator@PAVCTreeLeafRenderer@@@@@std@@QBEXABV12@@Z 170f9fa0 f i c_renderlist.obj
 0002:0003c050       ??0?$_Vector_const_iterator@PAVCTreeBillboardRenderer@@V?$K2VectorAllocator@PAVCTreeBillboardRenderer@@@@@std@@QAE@PAPAVCTreeBillboardRenderer@@PBV_Container_base@1@@Z 170fa050 f i c_renderlist.obj
 0002:0003c150       ??M?$_Vector_const_iterator@PAVCTreeBillboardRenderer@@V?$K2VectorAllocator@PAVCTreeBillboardRenderer@@@@@std@@QBE_NABV01@@Z 170fa150 f i c_renderlist.obj
 0002:0003c190       ?_Compat@?$_Vector_const_iterator@PAVCTreeBillboardRenderer@@V?$K2VectorAllocator@PAVCTreeBillboardRenderer@@@@@std@@QBEXABV12@@Z 170fa190 f i c_renderlist.obj
 0002:0003c240       ??0?$_Vector_const_iterator@PAVCSkyRenderer@@V?$K2VectorAllocator@PAVCSkyRenderer@@@@@std@@QAE@PAPAVCSkyRenderer@@PBV_Container_base@1@@Z 170fa240 f i c_renderlist.obj
 0002:0003c340       ??M?$_Vector_const_iterator@PAVCSkyRenderer@@V?$K2VectorAllocator@PAVCSkyRenderer@@@@@std@@QBE_NABV01@@Z 170fa340 f i c_renderlist.obj
 0002:0003c380       ?_Compat@?$_Vector_const_iterator@PAVCSkyRenderer@@V?$K2VectorAllocator@PAVCSkyRenderer@@@@@std@@QBEXABV12@@Z 170fa380 f i c_renderlist.obj
 0002:0003c430       ??0?$_Ranit@PAVCScenePolyRenderer@@HPBQAV1@ABQAV1@@std@@QAE@XZ 170fa430 f i c_renderlist.obj
 0002:0003c460       ??0?$_Ranit@PAVCTerrainRenderer@@HPBQAV1@ABQAV1@@std@@QAE@XZ 170fa460 f i c_renderlist.obj
 0002:0003c490       ??0?$_Ranit@PAVCTreeBranchRenderer@@HPBQAV1@ABQAV1@@std@@QAE@XZ 170fa490 f i c_renderlist.obj
 0002:0003c4c0       ??0?$_Ranit@PAVCTreeFrondRenderer@@HPBQAV1@ABQAV1@@std@@QAE@XZ 170fa4c0 f i c_renderlist.obj
 0002:0003c4f0       ??0?$_Ranit@PAVCTreeLeafRenderer@@HPBQAV1@ABQAV1@@std@@QAE@XZ 170fa4f0 f i c_renderlist.obj
 0002:0003c520       ??0?$_Ranit@PAVCTreeBillboardRenderer@@HPBQAV1@ABQAV1@@std@@QAE@XZ 170fa520 f i c_renderlist.obj
 0002:0003c550       ??0?$_Ranit@PAVCSkyRenderer@@HPBQAV1@ABQAV1@@std@@QAE@XZ 170fa550 f i c_renderlist.obj
 0002:0003c580       ??$_Debug_range@V?$_Vector_iterator@PAVIRenderer@@V?$K2VectorAllocator@PAVIRenderer@@@@@std@@@std@@YAXV?$_Vector_iterator@PAVIRenderer@@V?$K2VectorAllocator@PAVIRenderer@@@@@0@0PB_WI@Z 170fa580 f i c_renderlist.obj
 0002:0003c670       ??$_Debug_pointer@$$A6A_NPAVIRenderer@@0@Z@std@@YAXP6A_NPAVIRenderer@@0@ZPB_WI@Z 170fa670 f i c_renderlist.obj
 0002:0003c6b0       ??$_Checked_base@V?$_Vector_iterator@PAVIRenderer@@V?$K2VectorAllocator@PAVIRenderer@@@@@std@@@std@@YA?AV?$_Vector_iterator@PAVIRenderer@@V?$K2VectorAllocator@PAVIRenderer@@@@@0@AAV10@@Z 170fa6b0 f i c_renderlist.obj
 0002:0003c700       ??$_Sort@V?$_Vector_iterator@PAVIRenderer@@V?$K2VectorAllocator@PAVIRenderer@@@@@std@@HP6A_NPAVIRenderer@@0@Z@std@@YAXV?$_Vector_iterator@PAVIRenderer@@V?$K2VectorAllocator@PAVIRenderer@@@@@0@0HP6A_NPAVIRenderer@@1@Z@Z 170fa700 f i c_renderlist.obj
 0002:0003cab0       ??$_Checked_base@PAPAVIRenderer@@@std@@YAPAPAVIRenderer@@AAPAPAV1@@Z 170faab0 f i c_renderlist.obj
 0002:0003cae0       ??$_Iter_random@PAPAVIRenderer@@PAPAV1@@std@@YA?AUrandom_access_iterator_tag@0@ABQAPAVIRenderer@@0@Z 170faae0 f i c_renderlist.obj
 0002:0003cb00       ??$_Ptr_cat@PAPAVIRenderer@@PAPAV1@@std@@YA?AU_Scalar_ptr_iterator_tag@0@AAPAPAVIRenderer@@0@Z 170fab00 f i c_renderlist.obj
 0002:0003cb20       ??$_Copy_opt@PAPAVIRenderer@@PAPAV1@Urandom_access_iterator_tag@std@@@std@@YAPAPAVIRenderer@@PAPAV1@00Urandom_access_iterator_tag@0@U_Scalar_ptr_iterator_tag@0@U_Range_checked_iterator_tag@0@@Z 170fab20 f i c_renderlist.obj
 0002:0003cbd0       ??$_Uninit_fill_n@PAPAVIRenderer@@IPAV1@V?$K2VectorAllocator@PAVIRenderer@@@@@std@@YAXPAPAVIRenderer@@IABQAV1@AAV?$K2VectorAllocator@PAVIRenderer@@@@U_Scalar_ptr_iterator_tag@0@U_Range_checked_iterator_tag@0@@Z 170fabd0 f i c_renderlist.obj
 0002:0003cc00       ??$_Destroy_range@PAVIRenderer@@V?$K2VectorAllocator@PAVIRenderer@@@@@std@@YAXPAPAVIRenderer@@0AAV?$K2VectorAllocator@PAVIRenderer@@@@U_Scalar_ptr_iterator_tag@0@@Z 170fac00 f i c_renderlist.obj
 0002:0003cc20       ??$_Unchecked_uninitialized_move@PAPAVIRenderer@@PAPAV1@V?$K2VectorAllocator@PAVIRenderer@@@@@stdext@@YAPAPAVIRenderer@@PAPAV1@00AAV?$K2VectorAllocator@PAVIRenderer@@@@@Z 170fac20 f i c_renderlist.obj
 0002:0003cc90       ??$_Fill@PAPAVIRenderer@@PAV1@@std@@YAXPAPAVIRenderer@@0ABQAV1@@Z 170fac90 f i c_renderlist.obj
 0002:0003ccf0       ??$_Move_cat@PAPAVIRenderer@@@std@@YA?AU_Undefined_move_tag@0@ABQAPAVIRenderer@@@Z 170facf0 f i c_renderlist.obj
 0002:0003cd10       ??$_Move_backward_opt@PAPAVIRenderer@@PAPAV1@Urandom_access_iterator_tag@std@@U_Undefined_move_tag@3@@std@@YAPAPAVIRenderer@@PAPAV1@00Urandom_access_iterator_tag@0@U_Undefined_move_tag@0@U_Range_checked_iterator_tag@0@@Z 170fad10 f i c_renderlist.obj
 0002:0003cd70       ??$unchecked_copy@PAPAVCScenePolyRenderer@@PAPAV1@@stdext@@YAPAPAVCScenePolyRenderer@@PAPAV1@00@Z 170fad70 f i c_renderlist.obj
 0002:0003ce00       ??$unchecked_copy@PAPAVCTerrainRenderer@@PAPAV1@@stdext@@YAPAPAVCTerrainRenderer@@PAPAV1@00@Z 170fae00 f i c_renderlist.obj
 0002:0003ce90       ??$unchecked_copy@PAPAVCTreeBranchRenderer@@PAPAV1@@stdext@@YAPAPAVCTreeBranchRenderer@@PAPAV1@00@Z 170fae90 f i c_renderlist.obj
 0002:0003cf20       ??$unchecked_copy@PAPAVCTreeFrondRenderer@@PAPAV1@@stdext@@YAPAPAVCTreeFrondRenderer@@PAPAV1@00@Z 170faf20 f i c_renderlist.obj
 0002:0003cfb0       ??$unchecked_copy@PAPAVCTreeLeafRenderer@@PAPAV1@@stdext@@YAPAPAVCTreeLeafRenderer@@PAPAV1@00@Z 170fafb0 f i c_renderlist.obj
 0002:0003d040       ??$unchecked_copy@PAPAVCTreeBillboardRenderer@@PAPAV1@@stdext@@YAPAPAVCTreeBillboardRenderer@@PAPAV1@00@Z 170fb040 f i c_renderlist.obj
 0002:0003d0d0       ??$unchecked_copy@PAPAVCSkyRenderer@@PAPAV1@@stdext@@YAPAPAVCSkyRenderer@@PAPAV1@00@Z 170fb0d0 f i c_renderlist.obj
 0002:0003d160       ??$_Destroy_range@PAVCScenePolyRenderer@@V?$K2VectorAllocator@PAVCScenePolyRenderer@@@@@std@@YAXPAPAVCScenePolyRenderer@@0AAV?$K2VectorAllocator@PAVCScenePolyRenderer@@@@@Z 170fb160 f i c_renderlist.obj
 0002:0003d1b0       ??$_Destroy_range@PAVCTerrainRenderer@@V?$K2VectorAllocator@PAVCTerrainRenderer@@@@@std@@YAXPAPAVCTerrainRenderer@@0AAV?$K2VectorAllocator@PAVCTerrainRenderer@@@@@Z 170fb1b0 f i c_renderlist.obj
 0002:0003d200       ??$_Destroy_range@PAVCTreeBranchRenderer@@V?$K2VectorAllocator@PAVCTreeBranchRenderer@@@@@std@@YAXPAPAVCTreeBranchRenderer@@0AAV?$K2VectorAllocator@PAVCTreeBranchRenderer@@@@@Z 170fb200 f i c_renderlist.obj
 0002:0003d250       ??$_Destroy_range@PAVCTreeFrondRenderer@@V?$K2VectorAllocator@PAVCTreeFrondRenderer@@@@@std@@YAXPAPAVCTreeFrondRenderer@@0AAV?$K2VectorAllocator@PAVCTreeFrondRenderer@@@@@Z 170fb250 f i c_renderlist.obj
 0002:0003d2a0       ??$_Destroy_range@PAVCTreeLeafRenderer@@V?$K2VectorAllocator@PAVCTreeLeafRenderer@@@@@std@@YAXPAPAVCTreeLeafRenderer@@0AAV?$K2VectorAllocator@PAVCTreeLeafRenderer@@@@@Z 170fb2a0 f i c_renderlist.obj
 0002:0003d2f0       ??$_Destroy_range@PAVCTreeBillboardRenderer@@V?$K2VectorAllocator@PAVCTreeBillboardRenderer@@@@@std@@YAXPAPAVCTreeBillboardRenderer@@0AAV?$K2VectorAllocator@PAVCTreeBillboardRenderer@@@@@Z 170fb2f0 f i c_renderlist.obj
 0002:0003d340       ??$_Destroy_range@PAVCSkyRenderer@@V?$K2VectorAllocator@PAVCSkyRenderer@@@@@std@@YAXPAPAVCSkyRenderer@@0AAV?$K2VectorAllocator@PAVCSkyRenderer@@@@@Z 170fb340 f i c_renderlist.obj
 0002:0003d390       ??1?$pair@V?$_Vector_iterator@PAVIRenderer@@V?$K2VectorAllocator@PAVIRenderer@@@@@std@@V12@@std@@QAE@XZ 170fb390 f i c_renderlist.obj
 0002:0003d410       ??4?$_Vector_iterator@PAVIRenderer@@V?$K2VectorAllocator@PAVIRenderer@@@@@std@@QAEAAV01@ABV01@@Z 170fb410 f i c_renderlist.obj
 0002:0003d440       ??4?$_Vector_const_iterator@PAVIRenderer@@V?$K2VectorAllocator@PAVIRenderer@@@@@std@@QAEAAV01@ABV01@@Z 170fb440 f i c_renderlist.obj
 0002:0003d480       ??4?$_Ranit@PAVIRenderer@@HPBQAV1@ABQAV1@@std@@QAEAAU01@ABU01@@Z 170fb480 f i c_renderlist.obj
 0002:0003d4b0       ??$_Iter_cat@V?$_Vector_iterator@PAVIRenderer@@V?$K2VectorAllocator@PAVIRenderer@@@@@std@@@std@@YA?AUrandom_access_iterator_tag@0@ABV?$_Vector_iterator@PAVIRenderer@@V?$K2VectorAllocator@PAVIRenderer@@@@@0@@Z 170fb4b0 f i c_renderlist.obj
 0002:0003d4d0       ??$_Debug_range2@V?$_Vector_iterator@PAVIRenderer@@V?$K2VectorAllocator@PAVIRenderer@@@@@std@@@std@@YAXV?$_Vector_iterator@PAVIRenderer@@V?$K2VectorAllocator@PAVIRenderer@@@@@0@0PB_WIUrandom_access_iterator_tag@0@@Z 170fb4d0 f i c_renderlist.obj
 0002:0003d5c0       ??$_Checked_base@V?$_Vector_iterator@PAVIRenderer@@V?$K2VectorAllocator@PAVIRenderer@@@@@std@@@std@@YA?AV?$_Vector_iterator@PAVIRenderer@@V?$K2VectorAllocator@PAVIRenderer@@@@@0@AAV10@U_Unchanged_checked_iterator_base_type_tag@0@@Z 170fb5c0 f i c_renderlist.obj
 0002:0003d600       ??$_Unguarded_partition@V?$_Vector_iterator@PAVIRenderer@@V?$K2VectorAllocator@PAVIRenderer@@@@@std@@P6A_NPAVIRenderer@@0@Z@std@@YA?AU?$pair@V?$_Vector_iterator@PAVIRenderer@@V?$K2VectorAllocator@PAVIRenderer@@@@@std@@V12@@0@V?$_Vector_iterator@PAVIRenderer@@V?$K2VectorAllocator@PAVIRenderer@@@@@0@0P6A_NPAVIRenderer@@1@Z@Z 170fb600 f i c_renderlist.obj
 0002:0003e050       ??$make_heap@V?$_Vector_iterator@PAVIRenderer@@V?$K2VectorAllocator@PAVIRenderer@@@@@std@@P6A_NPAVIRenderer@@0@Z@std@@YAXV?$_Vector_iterator@PAVIRenderer@@V?$K2VectorAllocator@PAVIRenderer@@@@@0@0P6A_NPAVIRenderer@@1@Z@Z 170fc050 f i c_renderlist.obj
 0002:0003e1a0       ??$sort_heap@V?$_Vector_iterator@PAVIRenderer@@V?$K2VectorAllocator@PAVIRenderer@@@@@std@@P6A_NPAVIRenderer@@0@Z@std@@YAXV?$_Vector_iterator@PAVIRenderer@@V?$K2VectorAllocator@PAVIRenderer@@@@@0@0P6A_NPAVIRenderer@@1@Z@Z 170fc1a0 f i c_renderlist.obj
 0002:0003e2d0       ??$_Insertion_sort@V?$_Vector_iterator@PAVIRenderer@@V?$K2VectorAllocator@PAVIRenderer@@@@@std@@P6A_NPAVIRenderer@@0@Z@std@@YAXV?$_Vector_iterator@PAVIRenderer@@V?$K2VectorAllocator@PAVIRenderer@@@@@0@0P6A_NPAVIRenderer@@1@Z@Z 170fc2d0 f i c_renderlist.obj
 0002:0003e640       ??$_Checked_base@PAPAVIRenderer@@@std@@YAPAPAVIRenderer@@AAPAPAV1@U_Unchanged_checked_iterator_base_type_tag@0@@Z 170fc640 f i c_renderlist.obj
 0002:0003e660       ??$_Debug_range@PAPAVIRenderer@@@std@@YAXPAPAVIRenderer@@0PB_WI@Z 170fc660 f i c_renderlist.obj
 0002:0003e6b0       ??$_Debug_pointer@PAVIRenderer@@@std@@YAXPAPAVIRenderer@@PB_WI@Z 170fc6b0 f i c_renderlist.obj
 0002:0003e6f0       ??$unchecked_fill_n@PAPAVIRenderer@@IPAV1@@stdext@@YAXPAPAVIRenderer@@IABQAV1@@Z 170fc6f0 f i c_renderlist.obj
 0002:0003e740       ??$_Uninit_move@PAPAVIRenderer@@PAPAV1@V?$K2VectorAllocator@PAVIRenderer@@@@U_Undefined_move_tag@std@@@std@@YAPAPAVIRenderer@@PAPAV1@00AAV?$K2VectorAllocator@PAVIRenderer@@@@U_Undefined_move_tag@0@U_Range_checked_iterator_tag@0@@Z 170fc740 f i c_renderlist.obj
 0002:0003e780       ??$_Copy_backward_opt@PAPAVIRenderer@@PAPAV1@Urandom_access_iterator_tag@std@@@std@@YAPAPAVIRenderer@@PAPAV1@00Urandom_access_iterator_tag@0@U_Scalar_ptr_iterator_tag@0@U_Range_checked_iterator_tag@0@@Z 170fc780 f i c_renderlist.obj
 0002:0003e830       ??$_Checked_base@PAPAVCScenePolyRenderer@@@std@@YAPAPAVCScenePolyRenderer@@AAPAPAV1@@Z 170fc830 f i c_renderlist.obj
 0002:0003e860       ??$_Iter_random@PAPAVCScenePolyRenderer@@PAPAV1@@std@@YA?AUrandom_access_iterator_tag@0@ABQAPAVCScenePolyRenderer@@0@Z 170fc860 f i c_renderlist.obj
 0002:0003e880       ??$_Ptr_cat@PAPAVCScenePolyRenderer@@PAPAV1@@std@@YA?AU_Scalar_ptr_iterator_tag@0@AAPAPAVCScenePolyRenderer@@0@Z 170fc880 f i c_renderlist.obj
 0002:0003e8a0       ??$_Copy_opt@PAPAVCScenePolyRenderer@@PAPAV1@Urandom_access_iterator_tag@std@@@std@@YAPAPAVCScenePolyRenderer@@PAPAV1@00Urandom_access_iterator_tag@0@U_Scalar_ptr_iterator_tag@0@U_Range_checked_iterator_tag@0@@Z 170fc8a0 f i c_renderlist.obj
 0002:0003e950       ??$_Checked_base@PAPAVCTerrainRenderer@@@std@@YAPAPAVCTerrainRenderer@@AAPAPAV1@@Z 170fc950 f i c_renderlist.obj
 0002:0003e980       ??$_Iter_random@PAPAVCTerrainRenderer@@PAPAV1@@std@@YA?AUrandom_access_iterator_tag@0@ABQAPAVCTerrainRenderer@@0@Z 170fc980 f i c_renderlist.obj
 0002:0003e9a0       ??$_Ptr_cat@PAPAVCTerrainRenderer@@PAPAV1@@std@@YA?AU_Scalar_ptr_iterator_tag@0@AAPAPAVCTerrainRenderer@@0@Z 170fc9a0 f i c_renderlist.obj
 0002:0003e9c0       ??$_Copy_opt@PAPAVCTerrainRenderer@@PAPAV1@Urandom_access_iterator_tag@std@@@std@@YAPAPAVCTerrainRenderer@@PAPAV1@00Urandom_access_iterator_tag@0@U_Scalar_ptr_iterator_tag@0@U_Range_checked_iterator_tag@0@@Z 170fc9c0 f i c_renderlist.obj
 0002:0003ea70       ??$_Checked_base@PAPAVCTreeBranchRenderer@@@std@@YAPAPAVCTreeBranchRenderer@@AAPAPAV1@@Z 170fca70 f i c_renderlist.obj
 0002:0003eaa0       ??$_Iter_random@PAPAVCTreeBranchRenderer@@PAPAV1@@std@@YA?AUrandom_access_iterator_tag@0@ABQAPAVCTreeBranchRenderer@@0@Z 170fcaa0 f i c_renderlist.obj
 0002:0003eac0       ??$_Ptr_cat@PAPAVCTreeBranchRenderer@@PAPAV1@@std@@YA?AU_Scalar_ptr_iterator_tag@0@AAPAPAVCTreeBranchRenderer@@0@Z 170fcac0 f i c_renderlist.obj
 0002:0003eae0       ??$_Copy_opt@PAPAVCTreeBranchRenderer@@PAPAV1@Urandom_access_iterator_tag@std@@@std@@YAPAPAVCTreeBranchRenderer@@PAPAV1@00Urandom_access_iterator_tag@0@U_Scalar_ptr_iterator_tag@0@U_Range_checked_iterator_tag@0@@Z 170fcae0 f i c_renderlist.obj
 0002:0003eb90       ??$_Checked_base@PAPAVCTreeFrondRenderer@@@std@@YAPAPAVCTreeFrondRenderer@@AAPAPAV1@@Z 170fcb90 f i c_renderlist.obj
 0002:0003ebc0       ??$_Iter_random@PAPAVCTreeFrondRenderer@@PAPAV1@@std@@YA?AUrandom_access_iterator_tag@0@ABQAPAVCTreeFrondRenderer@@0@Z 170fcbc0 f i c_renderlist.obj
 0002:0003ebe0       ??$_Ptr_cat@PAPAVCTreeFrondRenderer@@PAPAV1@@std@@YA?AU_Scalar_ptr_iterator_tag@0@AAPAPAVCTreeFrondRenderer@@0@Z 170fcbe0 f i c_renderlist.obj
 0002:0003ec00       ??$_Copy_opt@PAPAVCTreeFrondRenderer@@PAPAV1@Urandom_access_iterator_tag@std@@@std@@YAPAPAVCTreeFrondRenderer@@PAPAV1@00Urandom_access_iterator_tag@0@U_Scalar_ptr_iterator_tag@0@U_Range_checked_iterator_tag@0@@Z 170fcc00 f i c_renderlist.obj
 0002:0003ecb0       ??$_Checked_base@PAPAVCTreeLeafRenderer@@@std@@YAPAPAVCTreeLeafRenderer@@AAPAPAV1@@Z 170fccb0 f i c_renderlist.obj
 0002:0003ece0       ??$_Iter_random@PAPAVCTreeLeafRenderer@@PAPAV1@@std@@YA?AUrandom_access_iterator_tag@0@ABQAPAVCTreeLeafRenderer@@0@Z 170fcce0 f i c_renderlist.obj
 0002:0003ed00       ??$_Ptr_cat@PAPAVCTreeLeafRenderer@@PAPAV1@@std@@YA?AU_Scalar_ptr_iterator_tag@0@AAPAPAVCTreeLeafRenderer@@0@Z 170fcd00 f i c_renderlist.obj
 0002:0003ed20       ??$_Copy_opt@PAPAVCTreeLeafRenderer@@PAPAV1@Urandom_access_iterator_tag@std@@@std@@YAPAPAVCTreeLeafRenderer@@PAPAV1@00Urandom_access_iterator_tag@0@U_Scalar_ptr_iterator_tag@0@U_Range_checked_iterator_tag@0@@Z 170fcd20 f i c_renderlist.obj
 0002:0003edd0       ??$_Checked_base@PAPAVCTreeBillboardRenderer@@@std@@YAPAPAVCTreeBillboardRenderer@@AAPAPAV1@@Z 170fcdd0 f i c_renderlist.obj
 0002:0003ee00       ??$_Iter_random@PAPAVCTreeBillboardRenderer@@PAPAV1@@std@@YA?AUrandom_access_iterator_tag@0@ABQAPAVCTreeBillboardRenderer@@0@Z 170fce00 f i c_renderlist.obj
 0002:0003ee20       ??$_Ptr_cat@PAPAVCTreeBillboardRenderer@@PAPAV1@@std@@YA?AU_Scalar_ptr_iterator_tag@0@AAPAPAVCTreeBillboardRenderer@@0@Z 170fce20 f i c_renderlist.obj
 0002:0003ee40       ??$_Copy_opt@PAPAVCTreeBillboardRenderer@@PAPAV1@Urandom_access_iterator_tag@std@@@std@@YAPAPAVCTreeBillboardRenderer@@PAPAV1@00Urandom_access_iterator_tag@0@U_Scalar_ptr_iterator_tag@0@U_Range_checked_iterator_tag@0@@Z 170fce40 f i c_renderlist.obj
 0002:0003eef0       ??$_Checked_base@PAPAVCSkyRenderer@@@std@@YAPAPAVCSkyRenderer@@AAPAPAV1@@Z 170fcef0 f i c_renderlist.obj
 0002:0003ef20       ??$_Iter_random@PAPAVCSkyRenderer@@PAPAV1@@std@@YA?AUrandom_access_iterator_tag@0@ABQAPAVCSkyRenderer@@0@Z 170fcf20 f i c_renderlist.obj
 0002:0003ef40       ??$_Ptr_cat@PAPAVCSkyRenderer@@PAPAV1@@std@@YA?AU_Scalar_ptr_iterator_tag@0@AAPAPAVCSkyRenderer@@0@Z 170fcf40 f i c_renderlist.obj
 0002:0003ef60       ??$_Copy_opt@PAPAVCSkyRenderer@@PAPAV1@Urandom_access_iterator_tag@std@@@std@@YAPAPAVCSkyRenderer@@PAPAV1@00Urandom_access_iterator_tag@0@U_Scalar_ptr_iterator_tag@0@U_Range_checked_iterator_tag@0@@Z 170fcf60 f i c_renderlist.obj
 0002:0003f010       ??$_Destroy_range@PAVCScenePolyRenderer@@V?$K2VectorAllocator@PAVCScenePolyRenderer@@@@@std@@YAXPAPAVCScenePolyRenderer@@0AAV?$K2VectorAllocator@PAVCScenePolyRenderer@@@@U_Scalar_ptr_iterator_tag@0@@Z 170fd010 f i c_renderlist.obj
 0002:0003f030       ??$_Destroy_range@PAVCTerrainRenderer@@V?$K2VectorAllocator@PAVCTerrainRenderer@@@@@std@@YAXPAPAVCTerrainRenderer@@0AAV?$K2VectorAllocator@PAVCTerrainRenderer@@@@U_Scalar_ptr_iterator_tag@0@@Z 170fd030 f i c_renderlist.obj
 0002:0003f050       ??$_Destroy_range@PAVCTreeBranchRenderer@@V?$K2VectorAllocator@PAVCTreeBranchRenderer@@@@@std@@YAXPAPAVCTreeBranchRenderer@@0AAV?$K2VectorAllocator@PAVCTreeBranchRenderer@@@@U_Scalar_ptr_iterator_tag@0@@Z 170fd050 f i c_renderlist.obj
 0002:0003f070       ??$_Destroy_range@PAVCTreeFrondRenderer@@V?$K2VectorAllocator@PAVCTreeFrondRenderer@@@@@std@@YAXPAPAVCTreeFrondRenderer@@0AAV?$K2VectorAllocator@PAVCTreeFrondRenderer@@@@U_Scalar_ptr_iterator_tag@0@@Z 170fd070 f i c_renderlist.obj
 0002:0003f090       ??$_Destroy_range@PAVCTreeLeafRenderer@@V?$K2VectorAllocator@PAVCTreeLeafRenderer@@@@@std@@YAXPAPAVCTreeLeafRenderer@@0AAV?$K2VectorAllocator@PAVCTreeLeafRenderer@@@@U_Scalar_ptr_iterator_tag@0@@Z 170fd090 f i c_renderlist.obj
 0002:0003f0b0       ??$_Destroy_range@PAVCTreeBillboardRenderer@@V?$K2VectorAllocator@PAVCTreeBillboardRenderer@@@@@std@@YAXPAPAVCTreeBillboardRenderer@@0AAV?$K2VectorAllocator@PAVCTreeBillboardRenderer@@@@U_Scalar_ptr_iterator_tag@0@@Z 170fd0b0 f i c_renderlist.obj
 0002:0003f0d0       ??$_Destroy_range@PAVCSkyRenderer@@V?$K2VectorAllocator@PAVCSkyRenderer@@@@@std@@YAXPAPAVCSkyRenderer@@0AAV?$K2VectorAllocator@PAVCSkyRenderer@@@@U_Scalar_ptr_iterator_tag@0@@Z 170fd0d0 f i c_renderlist.obj
 0002:0003f0f0       ??E?$_Vector_iterator@PAVIRenderer@@V?$K2VectorAllocator@PAVIRenderer@@@@@std@@QAE?AV01@H@Z 170fd0f0 f i c_renderlist.obj
 0002:0003f1a0       ??F?$_Vector_iterator@PAVIRenderer@@V?$K2VectorAllocator@PAVIRenderer@@@@@std@@QAEAAV01@XZ 170fd1a0 f i c_renderlist.obj
 0002:0003f1d0       ??G?$_Vector_iterator@PAVIRenderer@@V?$K2VectorAllocator@PAVIRenderer@@@@@std@@QBE?AV01@H@Z 170fd1d0 f i c_renderlist.obj
 0002:0003f280       ??0?$pair@V?$_Vector_iterator@PAVIRenderer@@V?$K2VectorAllocator@PAVIRenderer@@@@@std@@V12@@std@@QAE@ABV?$_Vector_iterator@PAVIRenderer@@V?$K2VectorAllocator@PAVIRenderer@@@@@1@0@Z 170fd280 f i c_renderlist.obj
 0002:0003f310       ??Z?$_Vector_iterator@PAVIRenderer@@V?$K2VectorAllocator@PAVIRenderer@@@@@std@@QAEAAV01@H@Z 170fd310 f i c_renderlist.obj
 0002:0003f340       ??F?$_Vector_const_iterator@PAVIRenderer@@V?$K2VectorAllocator@PAVIRenderer@@@@@std@@QAEAAV01@XZ 170fd340 f i c_renderlist.obj
 0002:0003f440       ??$_Debug_pointer@V?$_Vector_iterator@PAVIRenderer@@V?$K2VectorAllocator@PAVIRenderer@@@@@std@@@std@@YAXAAV?$_Vector_iterator@PAVIRenderer@@V?$K2VectorAllocator@PAVIRenderer@@@@@0@PB_WI@Z 170fd440 f i c_renderlist.obj
 0002:0003f460       ??$_Median@V?$_Vector_iterator@PAVIRenderer@@V?$K2VectorAllocator@PAVIRenderer@@@@@std@@P6A_NPAVIRenderer@@0@Z@std@@YAXV?$_Vector_iterator@PAVIRenderer@@V?$K2VectorAllocator@PAVIRenderer@@@@@0@00P6A_NPAVIRenderer@@1@Z@Z 170fd460 f i c_renderlist.obj
 0002:0003f840       ??$_Debug_lt_pred@P6A_NPAVIRenderer@@0@ZPAV1@PAV1@@std@@YA_NP6A_NPAVIRenderer@@0@ZAAPAV1@2PB_WI@Z 170fd840 f i c_renderlist.obj
 0002:0003f8c0       ??$iter_swap@V?$_Vector_iterator@PAVIRenderer@@V?$K2VectorAllocator@PAVIRenderer@@@@@std@@V12@@std@@YAXV?$_Vector_iterator@PAVIRenderer@@V?$K2VectorAllocator@PAVIRenderer@@@@@0@0@Z 170fd8c0 f i c_renderlist.obj
 0002:0003f960       ??$_Dist_type@V?$_Vector_iterator@PAVIRenderer@@V?$K2VectorAllocator@PAVIRenderer@@@@@std@@@std@@YAPAHV?$_Vector_iterator@PAVIRenderer@@V?$K2VectorAllocator@PAVIRenderer@@@@@0@@Z 170fd960 f i c_renderlist.obj
 0002:0003f990       ??$_Val_type@V?$_Vector_iterator@PAVIRenderer@@V?$K2VectorAllocator@PAVIRenderer@@@@@std@@@std@@YAPAPAVIRenderer@@V?$_Vector_iterator@PAVIRenderer@@V?$K2VectorAllocator@PAVIRenderer@@@@@0@@Z 170fd990 f i c_renderlist.obj
 0002:0003f9c0       ??$_Make_heap@V?$_Vector_iterator@PAVIRenderer@@V?$K2VectorAllocator@PAVIRenderer@@@@@std@@HPAVIRenderer@@P6A_NPAV3@0@Z@std@@YAXV?$_Vector_iterator@PAVIRenderer@@V?$K2VectorAllocator@PAVIRenderer@@@@@0@0P6A_NPAVIRenderer@@1@ZPAHPAPAV2@@Z 170fd9c0 f i c_renderlist.obj
 0002:0003fae0       ??$_Debug_heap@V?$_Vector_iterator@PAVIRenderer@@V?$K2VectorAllocator@PAVIRenderer@@@@@std@@P6A_NPAVIRenderer@@0@Z@std@@YAXV?$_Vector_iterator@PAVIRenderer@@V?$K2VectorAllocator@PAVIRenderer@@@@@0@0P6A_NPAVIRenderer@@1@Z@Z 170fdae0 f i c_renderlist.obj
 0002:0003fd20       ??$_Sort_heap@V?$_Vector_iterator@PAVIRenderer@@V?$K2VectorAllocator@PAVIRenderer@@@@@std@@P6A_NPAVIRenderer@@0@Z@std@@YAXV?$_Vector_iterator@PAVIRenderer@@V?$K2VectorAllocator@PAVIRenderer@@@@@0@0P6A_NPAVIRenderer@@1@Z@Z 170fdd20 f i c_renderlist.obj
 0002:0003fe10       ??$rotate@V?$_Vector_iterator@PAVIRenderer@@V?$K2VectorAllocator@PAVIRenderer@@@@@std@@@std@@YAXV?$_Vector_iterator@PAVIRenderer@@V?$K2VectorAllocator@PAVIRenderer@@@@@0@00@Z 170fde10 f i c_renderlist.obj
 0002:0003ff60       ??$_Iter_cat@PAPAVIRenderer@@@std@@YA?AUrandom_access_iterator_tag@0@ABQAPAVIRenderer@@@Z 170fdf60 f i c_renderlist.obj
 0002:0003ff80       ??$_Debug_range2@PAPAVIRenderer@@@std@@YAXPAPAVIRenderer@@0PB_WIUrandom_access_iterator_tag@0@@Z 170fdf80 f i c_renderlist.obj
 0002:00040000       ??$_Fill_n@PAPAVIRenderer@@IPAV1@@std@@YAXPAPAVIRenderer@@IABQAV1@Urandom_access_iterator_tag@0@U_Range_checked_iterator_tag@0@@Z 170fe000 f i c_renderlist.obj
 0002:00040060       ??$unchecked_uninitialized_copy@PAPAVIRenderer@@PAPAV1@V?$K2VectorAllocator@PAVIRenderer@@@@@stdext@@YAPAPAVIRenderer@@PAPAV1@00AAV?$K2VectorAllocator@PAVIRenderer@@@@@Z 170fe060 f i c_renderlist.obj
 0002:000400d0       ??$_Checked_base@PAPAVCScenePolyRenderer@@@std@@YAPAPAVCScenePolyRenderer@@AAPAPAV1@U_Unchanged_checked_iterator_base_type_tag@0@@Z 170fe0d0 f i c_renderlist.obj
 0002:000400f0       ??$_Debug_range@PAPAVCScenePolyRenderer@@@std@@YAXPAPAVCScenePolyRenderer@@0PB_WI@Z 170fe0f0 f i c_renderlist.obj
 0002:00040140       ??$_Debug_pointer@PAVCScenePolyRenderer@@@std@@YAXPAPAVCScenePolyRenderer@@PB_WI@Z 170fe140 f i c_renderlist.obj
 0002:00040180       ??$_Checked_base@PAPAVCTerrainRenderer@@@std@@YAPAPAVCTerrainRenderer@@AAPAPAV1@U_Unchanged_checked_iterator_base_type_tag@0@@Z 170fe180 f i c_renderlist.obj
 0002:000401a0       ??$_Debug_range@PAPAVCTerrainRenderer@@@std@@YAXPAPAVCTerrainRenderer@@0PB_WI@Z 170fe1a0 f i c_renderlist.obj
 0002:000401f0       ??$_Debug_pointer@PAVCTerrainRenderer@@@std@@YAXPAPAVCTerrainRenderer@@PB_WI@Z 170fe1f0 f i c_renderlist.obj
 0002:00040230       ??$_Checked_base@PAPAVCTreeBranchRenderer@@@std@@YAPAPAVCTreeBranchRenderer@@AAPAPAV1@U_Unchanged_checked_iterator_base_type_tag@0@@Z 170fe230 f i c_renderlist.obj
 0002:00040250       ??$_Debug_range@PAPAVCTreeBranchRenderer@@@std@@YAXPAPAVCTreeBranchRenderer@@0PB_WI@Z 170fe250 f i c_renderlist.obj
 0002:000402a0       ??$_Debug_pointer@PAVCTreeBranchRenderer@@@std@@YAXPAPAVCTreeBranchRenderer@@PB_WI@Z 170fe2a0 f i c_renderlist.obj
 0002:000402e0       ??$_Checked_base@PAPAVCTreeFrondRenderer@@@std@@YAPAPAVCTreeFrondRenderer@@AAPAPAV1@U_Unchanged_checked_iterator_base_type_tag@0@@Z 170fe2e0 f i c_renderlist.obj
 0002:00040300       ??$_Debug_range@PAPAVCTreeFrondRenderer@@@std@@YAXPAPAVCTreeFrondRenderer@@0PB_WI@Z 170fe300 f i c_renderlist.obj
 0002:00040350       ??$_Debug_pointer@PAVCTreeFrondRenderer@@@std@@YAXPAPAVCTreeFrondRenderer@@PB_WI@Z 170fe350 f i c_renderlist.obj
 0002:00040390       ??$_Checked_base@PAPAVCTreeLeafRenderer@@@std@@YAPAPAVCTreeLeafRenderer@@AAPAPAV1@U_Unchanged_checked_iterator_base_type_tag@0@@Z 170fe390 f i c_renderlist.obj
 0002:000403b0       ??$_Debug_range@PAPAVCTreeLeafRenderer@@@std@@YAXPAPAVCTreeLeafRenderer@@0PB_WI@Z 170fe3b0 f i c_renderlist.obj
 0002:00040400       ??$_Debug_pointer@PAVCTreeLeafRenderer@@@std@@YAXPAPAVCTreeLeafRenderer@@PB_WI@Z 170fe400 f i c_renderlist.obj
 0002:00040440       ??$_Checked_base@PAPAVCTreeBillboardRenderer@@@std@@YAPAPAVCTreeBillboardRenderer@@AAPAPAV1@U_Unchanged_checked_iterator_base_type_tag@0@@Z 170fe440 f i c_renderlist.obj
 0002:00040460       ??$_Debug_range@PAPAVCTreeBillboardRenderer@@@std@@YAXPAPAVCTreeBillboardRenderer@@0PB_WI@Z 170fe460 f i c_renderlist.obj
 0002:000404b0       ??$_Debug_pointer@PAVCTreeBillboardRenderer@@@std@@YAXPAPAVCTreeBillboardRenderer@@PB_WI@Z 170fe4b0 f i c_renderlist.obj
 0002:000404f0       ??$_Checked_base@PAPAVCSkyRenderer@@@std@@YAPAPAVCSkyRenderer@@AAPAPAV1@U_Unchanged_checked_iterator_base_type_tag@0@@Z 170fe4f0 f i c_renderlist.obj
 0002:00040510       ??$_Debug_range@PAPAVCSkyRenderer@@@std@@YAXPAPAVCSkyRenderer@@0PB_WI@Z 170fe510 f i c_renderlist.obj
 0002:00040560       ??$_Debug_pointer@PAVCSkyRenderer@@@std@@YAXPAPAVCSkyRenderer@@PB_WI@Z 170fe560 f i c_renderlist.obj
 0002:000405a0       ??$_Med3@V?$_Vector_iterator@PAVIRenderer@@V?$K2VectorAllocator@PAVIRenderer@@@@@std@@P6A_NPAVIRenderer@@0@Z@std@@YAXV?$_Vector_iterator@PAVIRenderer@@V?$K2VectorAllocator@PAVIRenderer@@@@@0@00P6A_NPAVIRenderer@@1@Z@Z 170fe5a0 f i c_renderlist.obj
 0002:000407c0       ??$swap@PAVIRenderer@@@std@@YAXAAPAVIRenderer@@0@Z 170fe7c0 f i c_renderlist.obj
 0002:00040800       ??$_Adjust_heap@V?$_Vector_iterator@PAVIRenderer@@V?$K2VectorAllocator@PAVIRenderer@@@@@std@@HPAVIRenderer@@P6A_NPAV3@0@Z@std@@YAXV?$_Vector_iterator@PAVIRenderer@@V?$K2VectorAllocator@PAVIRenderer@@@@@0@HHPAVIRenderer@@P6A_N11@Z@Z 170fe800 f i c_renderlist.obj
 0002:00040b40       ??$pop_heap@V?$_Vector_iterator@PAVIRenderer@@V?$K2VectorAllocator@PAVIRenderer@@@@@std@@P6A_NPAVIRenderer@@0@Z@std@@YAXV?$_Vector_iterator@PAVIRenderer@@V?$K2VectorAllocator@PAVIRenderer@@@@@0@0P6A_NPAVIRenderer@@1@Z@Z 170feb40 f i c_renderlist.obj
 0002:00040cb0       ??$_Rotate@V?$_Vector_iterator@PAVIRenderer@@V?$K2VectorAllocator@PAVIRenderer@@@@@std@@@std@@YAXV?$_Vector_iterator@PAVIRenderer@@V?$K2VectorAllocator@PAVIRenderer@@@@@0@00Urandom_access_iterator_tag@0@@Z 170fecb0 f i c_renderlist.obj
 0002:00040e00       ??$_Fill_n@PAPAVIRenderer@@IPAV1@@std@@YAXPAPAVIRenderer@@IABQAV1@U_Range_checked_iterator_tag@0@@Z 170fee00 f i c_renderlist.obj
 0002:00040e50       ??$_Uninit_copy@PAPAVIRenderer@@PAPAV1@V?$K2VectorAllocator@PAVIRenderer@@@@@std@@YAPAPAVIRenderer@@PAPAV1@00AAV?$K2VectorAllocator@PAVIRenderer@@@@U_Scalar_ptr_iterator_tag@0@U_Range_checked_iterator_tag@0@@Z 170fee50 f i c_renderlist.obj
 0002:00040ef0       ??$_Iter_cat@PAPAVCScenePolyRenderer@@@std@@YA?AUrandom_access_iterator_tag@0@ABQAPAVCScenePolyRenderer@@@Z 170feef0 f i c_renderlist.obj
 0002:00040f10       ??$_Debug_range2@PAPAVCScenePolyRenderer@@@std@@YAXPAPAVCScenePolyRenderer@@0PB_WIUrandom_access_iterator_tag@0@@Z 170fef10 f i c_renderlist.obj
 0002:00040f90       ??$_Iter_cat@PAPAVCTerrainRenderer@@@std@@YA?AUrandom_access_iterator_tag@0@ABQAPAVCTerrainRenderer@@@Z 170fef90 f i c_renderlist.obj
 0002:00040fb0       ??$_Debug_range2@PAPAVCTerrainRenderer@@@std@@YAXPAPAVCTerrainRenderer@@0PB_WIUrandom_access_iterator_tag@0@@Z 170fefb0 f i c_renderlist.obj
 0002:00041030       ??$_Iter_cat@PAPAVCTreeBranchRenderer@@@std@@YA?AUrandom_access_iterator_tag@0@ABQAPAVCTreeBranchRenderer@@@Z 170ff030 f i c_renderlist.obj
 0002:00041050       ??$_Debug_range2@PAPAVCTreeBranchRenderer@@@std@@YAXPAPAVCTreeBranchRenderer@@0PB_WIUrandom_access_iterator_tag@0@@Z 170ff050 f i c_renderlist.obj
 0002:000410d0       ??$_Iter_cat@PAPAVCTreeFrondRenderer@@@std@@YA?AUrandom_access_iterator_tag@0@ABQAPAVCTreeFrondRenderer@@@Z 170ff0d0 f i c_renderlist.obj
 0002:000410f0       ??$_Debug_range2@PAPAVCTreeFrondRenderer@@@std@@YAXPAPAVCTreeFrondRenderer@@0PB_WIUrandom_access_iterator_tag@0@@Z 170ff0f0 f i c_renderlist.obj
 0002:00041170       ??$_Iter_cat@PAPAVCTreeLeafRenderer@@@std@@YA?AUrandom_access_iterator_tag@0@ABQAPAVCTreeLeafRenderer@@@Z 170ff170 f i c_renderlist.obj
 0002:00041190       ??$_Debug_range2@PAPAVCTreeLeafRenderer@@@std@@YAXPAPAVCTreeLeafRenderer@@0PB_WIUrandom_access_iterator_tag@0@@Z 170ff190 f i c_renderlist.obj
 0002:00041210       ??$_Iter_cat@PAPAVCTreeBillboardRenderer@@@std@@YA?AUrandom_access_iterator_tag@0@ABQAPAVCTreeBillboardRenderer@@@Z 170ff210 f i c_renderlist.obj
 0002:00041230       ??$_Debug_range2@PAPAVCTreeBillboardRenderer@@@std@@YAXPAPAVCTreeBillboardRenderer@@0PB_WIUrandom_access_iterator_tag@0@@Z 170ff230 f i c_renderlist.obj
 0002:000412b0       ??$_Iter_cat@PAPAVCSkyRenderer@@@std@@YA?AUrandom_access_iterator_tag@0@ABQAPAVCSkyRenderer@@@Z 170ff2b0 f i c_renderlist.obj
 0002:000412d0       ??$_Debug_range2@PAPAVCSkyRenderer@@@std@@YAXPAPAVCSkyRenderer@@0PB_WIUrandom_access_iterator_tag@0@@Z 170ff2d0 f i c_renderlist.obj
 0002:00041350       ??$_Push_heap@V?$_Vector_iterator@PAVIRenderer@@V?$K2VectorAllocator@PAVIRenderer@@@@@std@@HPAVIRenderer@@P6A_NPAV3@0@Z@std@@YAXV?$_Vector_iterator@PAVIRenderer@@V?$K2VectorAllocator@PAVIRenderer@@@@@0@HHPAVIRenderer@@P6A_N11@Z@Z 170ff350 f i c_renderlist.obj
 0002:000415d0       ??$_Pop_heap_0@V?$_Vector_iterator@PAVIRenderer@@V?$K2VectorAllocator@PAVIRenderer@@@@@std@@PAVIRenderer@@P6A_NPAV3@0@Z@std@@YAXV?$_Vector_iterator@PAVIRenderer@@V?$K2VectorAllocator@PAVIRenderer@@@@@0@0P6A_NPAVIRenderer@@1@ZPAPAV2@@Z 170ff5d0 f i c_renderlist.obj
 0002:00041740       ??$_Rotate@V?$_Vector_iterator@PAVIRenderer@@V?$K2VectorAllocator@PAVIRenderer@@@@@std@@HPAVIRenderer@@@std@@YAXV?$_Vector_iterator@PAVIRenderer@@V?$K2VectorAllocator@PAVIRenderer@@@@@0@00PAHPAPAVIRenderer@@@Z 170ff740 f i c_renderlist.obj
 0002:00041c70       ??$_Pop_heap@V?$_Vector_iterator@PAVIRenderer@@V?$K2VectorAllocator@PAVIRenderer@@@@@std@@HPAVIRenderer@@P6A_NPAV3@0@Z@std@@YAXV?$_Vector_iterator@PAVIRenderer@@V?$K2VectorAllocator@PAVIRenderer@@@@@0@00PAVIRenderer@@P6A_N11@ZPAH@Z 170ffc70 f i c_renderlist.obj
 0002:00041d50       ??2CScenePolyRenderer@@SAPAXIPBD00F@Z 170ffd50 f   c_scenepolyrenderer.obj
 0002:00041d70       ??0CScenePolyRenderer@@QAE@IPAUSSceneFaceVert@@IH@Z 170ffd70 f   c_scenepolyrenderer.obj
 0002:00041df0       ??_GCScenePolyRenderer@@UAEPAXI@Z 170ffdf0 f i c_scenepolyrenderer.obj
 0002:00041df0       ??_ECScenePolyRenderer@@UAEPAXI@Z 170ffdf0 f i c_scenepolyrenderer.obj
 0002:00041e40       ??1CScenePolyRenderer@@UAE@XZ 170ffe40 f   c_scenepolyrenderer.obj
 0002:00041e70       ?Setup@CScenePolyRenderer@@UAEXW4EMaterialPhase@@@Z 170ffe70 f   c_scenepolyrenderer.obj
 0002:000421b0       ?Render@CScenePolyRenderer@@UAEXW4EMaterialPhase@@@Z 171001b0 f   c_scenepolyrenderer.obj
 0002:00042750       ??A?$CVec4@E@@QAEAAEH@Z    17100750 f i c_scenepolyrenderer.obj
 0002:00042780       ?Allocate@?$CPool@VCScenePolyRenderer@@@@QAEPAVCScenePolyRenderer@@XZ 17100780 f i c_scenepolyrenderer.obj
 0002:00042910       ?push_back@?$vector@PAVCScenePolyRenderer@@V?$K2VectorAllocator@PAVCScenePolyRenderer@@@@@std@@QAEXABQAVCScenePolyRenderer@@@Z 17100910 f i c_scenepolyrenderer.obj
 0002:000429c0       ?capacity@?$vector@PAVCScenePolyRenderer@@V?$K2VectorAllocator@PAVCScenePolyRenderer@@@@@std@@QBEIXZ 171009c0 f i c_scenepolyrenderer.obj
 0002:00042a10       ?size@?$vector@PAVCScenePolyRenderer@@V?$K2VectorAllocator@PAVCScenePolyRenderer@@@@@std@@QBEIXZ 17100a10 f i c_scenepolyrenderer.obj
 0002:00042a60       ?insert@?$vector@PAVCScenePolyRenderer@@V?$K2VectorAllocator@PAVCScenePolyRenderer@@@@@std@@QAE?AV?$_Vector_iterator@PAVCScenePolyRenderer@@V?$K2VectorAllocator@PAVCScenePolyRenderer@@@@@2@V32@ABQAVCScenePolyRenderer@@@Z 17100a60 f i c_scenepolyrenderer.obj
 0002:00042bd0       ?_Ufill@?$vector@PAVCScenePolyRenderer@@V?$K2VectorAllocator@PAVCScenePolyRenderer@@@@@std@@IAEPAPAVCScenePolyRenderer@@PAPAV3@IABQAV3@@Z 17100bd0 f i c_scenepolyrenderer.obj
 0002:00042c20       ??0?$_Vector_iterator@PAVCScenePolyRenderer@@V?$K2VectorAllocator@PAVCScenePolyRenderer@@@@@std@@QAE@ABV01@@Z 17100c20 f i c_scenepolyrenderer.obj
 0002:00042c50       ??0?$_Vector_const_iterator@PAVCScenePolyRenderer@@V?$K2VectorAllocator@PAVCScenePolyRenderer@@@@@std@@QAE@ABV01@@Z 17100c50 f i c_scenepolyrenderer.obj
 0002:00042c90       ??0?$_Ranit@PAVCScenePolyRenderer@@HPBQAV1@ABQAV1@@std@@QAE@ABU01@@Z 17100c90 f i c_scenepolyrenderer.obj
 0002:00042cc0       ?_Insert_n@?$vector@PAVCScenePolyRenderer@@V?$K2VectorAllocator@PAVCScenePolyRenderer@@@@@std@@IAEXV?$_Vector_iterator@PAVCScenePolyRenderer@@V?$K2VectorAllocator@PAVCScenePolyRenderer@@@@@2@IABQAVCScenePolyRenderer@@@Z 17100cc0 f i c_scenepolyrenderer.obj
 0002:00043170       ?deallocate@?$K2VectorAllocator@PAVCScenePolyRenderer@@@@QAEXPAPAVCScenePolyRenderer@@I@Z 17101170 f i c_scenepolyrenderer.obj
 0002:000431b0       ??H?$_Vector_iterator@PAVCScenePolyRenderer@@V?$K2VectorAllocator@PAVCScenePolyRenderer@@@@@std@@QBE?AV01@H@Z 171011b0 f i c_scenepolyrenderer.obj
 0002:00043260       ??G?$_Vector_iterator@PAVCScenePolyRenderer@@V?$K2VectorAllocator@PAVCScenePolyRenderer@@@@@std@@QBEHABV?$_Vector_const_iterator@PAVCScenePolyRenderer@@V?$K2VectorAllocator@PAVCScenePolyRenderer@@@@@1@@Z 17101260 f i c_scenepolyrenderer.obj
 0002:00043290       ?max_size@?$vector@PAVCScenePolyRenderer@@V?$K2VectorAllocator@PAVCScenePolyRenderer@@@@@std@@QBEIXZ 17101290 f i c_scenepolyrenderer.obj
 0002:000432c0       ?_Xlen@?$vector@PAVCScenePolyRenderer@@V?$K2VectorAllocator@PAVCScenePolyRenderer@@@@@std@@KAXXZ 171012c0 f i c_scenepolyrenderer.obj
 0002:00043370       ?allocate@?$K2VectorAllocator@PAVCScenePolyRenderer@@@@QAEPAPAVCScenePolyRenderer@@I@Z 17101370 f i c_scenepolyrenderer.obj
 0002:000433c0       ??Y?$_Vector_iterator@PAVCScenePolyRenderer@@V?$K2VectorAllocator@PAVCScenePolyRenderer@@@@@std@@QAEAAV01@H@Z 171013c0 f i c_scenepolyrenderer.obj
 0002:000433f0       ??G?$_Vector_const_iterator@PAVCScenePolyRenderer@@V?$K2VectorAllocator@PAVCScenePolyRenderer@@@@@std@@QBEHABV01@@Z 171013f0 f i c_scenepolyrenderer.obj
 0002:00043430       ?max_size@?$allocator@PAVCScenePolyRenderer@@@std@@QBEIXZ 17101430 f i c_scenepolyrenderer.obj
 0002:00043470       ??Y?$_Vector_const_iterator@PAVCScenePolyRenderer@@V?$K2VectorAllocator@PAVCScenePolyRenderer@@@@@std@@QAEAAV01@H@Z 17101470 f i c_scenepolyrenderer.obj
 0002:000435a0       ??$unchecked_uninitialized_fill_n@PAPAVCScenePolyRenderer@@IPAV1@V?$K2VectorAllocator@PAVCScenePolyRenderer@@@@@stdext@@YAXPAPAVCScenePolyRenderer@@IABQAV1@AAV?$K2VectorAllocator@PAVCScenePolyRenderer@@@@@Z 171015a0 f i c_scenepolyrenderer.obj
 0002:00043600       ??$_Umove@PAPAVCScenePolyRenderer@@@?$vector@PAVCScenePolyRenderer@@V?$K2VectorAllocator@PAVCScenePolyRenderer@@@@@std@@IAEPAPAVCScenePolyRenderer@@PAPAV2@00@Z 17101600 f i c_scenepolyrenderer.obj
 0002:00043640       ??$fill@PAPAVCScenePolyRenderer@@PAV1@@std@@YAXPAPAVCScenePolyRenderer@@0ABQAV1@@Z 17101640 f i c_scenepolyrenderer.obj
 0002:00043690       ??$_Unchecked_move_backward@PAPAVCScenePolyRenderer@@PAPAV1@@stdext@@YAPAPAVCScenePolyRenderer@@PAPAV1@00@Z 17101690 f i c_scenepolyrenderer.obj
 0002:00043720       ??$_Uninit_fill_n@PAPAVCScenePolyRenderer@@IPAV1@V?$K2VectorAllocator@PAVCScenePolyRenderer@@@@@std@@YAXPAPAVCScenePolyRenderer@@IABQAV1@AAV?$K2VectorAllocator@PAVCScenePolyRenderer@@@@U_Scalar_ptr_iterator_tag@0@U_Range_checked_iterator_tag@0@@Z 17101720 f i c_scenepolyrenderer.obj
 0002:00043750       ??$_Unchecked_uninitialized_move@PAPAVCScenePolyRenderer@@PAPAV1@V?$K2VectorAllocator@PAVCScenePolyRenderer@@@@@stdext@@YAPAPAVCScenePolyRenderer@@PAPAV1@00AAV?$K2VectorAllocator@PAVCScenePolyRenderer@@@@@Z 17101750 f i c_scenepolyrenderer.obj
 0002:000437c0       ??$_Fill@PAPAVCScenePolyRenderer@@PAV1@@std@@YAXPAPAVCScenePolyRenderer@@0ABQAV1@@Z 171017c0 f i c_scenepolyrenderer.obj
 0002:00043820       ??$_Move_cat@PAPAVCScenePolyRenderer@@@std@@YA?AU_Undefined_move_tag@0@ABQAPAVCScenePolyRenderer@@@Z 17101820 f i c_scenepolyrenderer.obj
 0002:00043840       ??$_Move_backward_opt@PAPAVCScenePolyRenderer@@PAPAV1@Urandom_access_iterator_tag@std@@U_Undefined_move_tag@3@@std@@YAPAPAVCScenePolyRenderer@@PAPAV1@00Urandom_access_iterator_tag@0@U_Undefined_move_tag@0@U_Range_checked_iterator_tag@0@@Z 17101840 f i c_scenepolyrenderer.obj
 0002:000438a0       ??$unchecked_fill_n@PAPAVCScenePolyRenderer@@IPAV1@@stdext@@YAXPAPAVCScenePolyRenderer@@IABQAV1@@Z 171018a0 f i c_scenepolyrenderer.obj
 0002:000438f0       ??$_Uninit_move@PAPAVCScenePolyRenderer@@PAPAV1@V?$K2VectorAllocator@PAVCScenePolyRenderer@@@@U_Undefined_move_tag@std@@@std@@YAPAPAVCScenePolyRenderer@@PAPAV1@00AAV?$K2VectorAllocator@PAVCScenePolyRenderer@@@@U_Undefined_move_tag@0@U_Range_checked_iterator_tag@0@@Z 171018f0 f i c_scenepolyrenderer.obj
 0002:00043930       ??$_Copy_backward_opt@PAPAVCScenePolyRenderer@@PAPAV1@Urandom_access_iterator_tag@std@@@std@@YAPAPAVCScenePolyRenderer@@PAPAV1@00Urandom_access_iterator_tag@0@U_Scalar_ptr_iterator_tag@0@U_Range_checked_iterator_tag@0@@Z 17101930 f i c_scenepolyrenderer.obj
 0002:000439e0       ??$_Fill_n@PAPAVCScenePolyRenderer@@IPAV1@@std@@YAXPAPAVCScenePolyRenderer@@IABQAV1@Urandom_access_iterator_tag@0@U_Range_checked_iterator_tag@0@@Z 171019e0 f i c_scenepolyrenderer.obj
 0002:00043a40       ??$unchecked_uninitialized_copy@PAPAVCScenePolyRenderer@@PAPAV1@V?$K2VectorAllocator@PAVCScenePolyRenderer@@@@@stdext@@YAPAPAVCScenePolyRenderer@@PAPAV1@00AAV?$K2VectorAllocator@PAVCScenePolyRenderer@@@@@Z 17101a40 f i c_scenepolyrenderer.obj
 0002:00043ab0       ??$_Fill_n@PAPAVCScenePolyRenderer@@IPAV1@@std@@YAXPAPAVCScenePolyRenderer@@IABQAV1@U_Range_checked_iterator_tag@0@@Z 17101ab0 f i c_scenepolyrenderer.obj
 0002:00043b00       ??$_Uninit_copy@PAPAVCScenePolyRenderer@@PAPAV1@V?$K2VectorAllocator@PAVCScenePolyRenderer@@@@@std@@YAPAPAVCScenePolyRenderer@@PAPAV1@00AAV?$K2VectorAllocator@PAVCScenePolyRenderer@@@@U_Scalar_ptr_iterator_tag@0@U_Range_checked_iterator_tag@0@@Z 17101b00 f i c_scenepolyrenderer.obj
 0002:00043ba0       ??0?$CPool@VCScenePolyRenderer@@@@QAE@II@Z 17101ba0 f i c_scenepolyrenderer.obj
 0002:00043c60       ??0?$vector@PAVCScenePolyRenderer@@V?$K2VectorAllocator@PAVCScenePolyRenderer@@@@@@QAE@XZ 17101c60 f i c_scenepolyrenderer.obj
 0002:00043c90       ??0?$vector@PAVCScenePolyRenderer@@V?$K2VectorAllocator@PAVCScenePolyRenderer@@@@@std@@QAE@XZ 17101c90 f i c_scenepolyrenderer.obj
 0002:00043d20       ??1?$_Vector_val@PAVCScenePolyRenderer@@V?$K2VectorAllocator@PAVCScenePolyRenderer@@@@@std@@QAE@XZ 17101d20 f i c_scenepolyrenderer.obj
 0002:00043da0       ??1?$K2VectorAllocator@PAVCScenePolyRenderer@@@@QAE@XZ 17101da0 f i c_scenepolyrenderer.obj
 0002:00043dc0       ?_Buy@?$vector@PAVCScenePolyRenderer@@V?$K2VectorAllocator@PAVCScenePolyRenderer@@@@@std@@IAE_NI@Z 17101dc0 f i c_scenepolyrenderer.obj
 0002:00043e70       ??0?$_Vector_val@PAVCScenePolyRenderer@@V?$K2VectorAllocator@PAVCScenePolyRenderer@@@@@std@@IAE@V?$K2VectorAllocator@PAVCScenePolyRenderer@@@@@Z 17101e70 f i c_scenepolyrenderer.obj
 0002:00043f10       ??0?$K2VectorAllocator@PAVCScenePolyRenderer@@@@QAE@XZ 17101f10 f i c_scenepolyrenderer.obj
 0002:00043f40       ??0?$K2VectorAllocator@PAVCScenePolyRenderer@@@@QAE@ABV0@@Z 17101f40 f i c_scenepolyrenderer.obj
 0002:00043f70       ??0?$allocator@PAVCScenePolyRenderer@@@std@@QAE@XZ 17101f70 f i c_scenepolyrenderer.obj
 0002:00043f90       ??0?$allocator@PAVCScenePolyRenderer@@@std@@QAE@ABV01@@Z 17101f90 f i c_scenepolyrenderer.obj
 0002:00043fb0       ??1?$CPool@VCScenePolyRenderer@@@@QAE@XZ 17101fb0 f i c_scenepolyrenderer.obj
 0002:00044060       ??1?$vector@PAVCScenePolyRenderer@@V?$K2VectorAllocator@PAVCScenePolyRenderer@@@@@@QAE@XZ 17102060 f i c_scenepolyrenderer.obj
 0002:00044090       ??1?$vector@PAVCScenePolyRenderer@@V?$K2VectorAllocator@PAVCScenePolyRenderer@@@@@std@@QAE@XZ 17102090 f i c_scenepolyrenderer.obj
 0002:00044110       ?_Tidy@?$vector@PAVCScenePolyRenderer@@V?$K2VectorAllocator@PAVCScenePolyRenderer@@@@@std@@IAEXXZ 17102110 f i c_scenepolyrenderer.obj
 0002:000441b0       ??2CSkyRenderer@@SAPAXIPBD00F@Z 171021b0 f   c_skyrenderer.obj
 0002:000441d0       ??0CSkyRenderer@@QAE@XZ    171021d0 f   c_skyrenderer.obj
 0002:00044400       ??_GCSkyRenderer@@UAEPAXI@Z 17102400 f i c_skyrenderer.obj
 0002:00044400       ??_ECSkyRenderer@@UAEPAXI@Z 17102400 f i c_skyrenderer.obj
 0002:00044450       ??1CSkyRenderer@@UAE@XZ    17102450 f   c_skyrenderer.obj
 0002:00044480       ?Setup@CSkyRenderer@@UAEXW4EMaterialPhase@@@Z 17102480 f   c_skyrenderer.obj
 0002:000447c0       ?GetOrigin@CCamera@@QBEABV?$CVec3@M@@XZ 171027c0 f i c_skyrenderer.obj
 0002:000447e0       ?Render@CSkyRenderer@@UAEXW4EMaterialPhase@@@Z 171027e0 f   c_skyrenderer.obj
 0002:000449e0       ?Allocate@?$CPool@VCSkyRenderer@@@@QAEPAVCSkyRenderer@@XZ 171029e0 f i c_skyrenderer.obj
 0002:00044b70       ?push_back@?$vector@PAVCSkyRenderer@@V?$K2VectorAllocator@PAVCSkyRenderer@@@@@std@@QAEXABQAVCSkyRenderer@@@Z 17102b70 f i c_skyrenderer.obj
 0002:00044c20       ?capacity@?$vector@PAVCSkyRenderer@@V?$K2VectorAllocator@PAVCSkyRenderer@@@@@std@@QBEIXZ 17102c20 f i c_skyrenderer.obj
 0002:00044c70       ?size@?$vector@PAVCSkyRenderer@@V?$K2VectorAllocator@PAVCSkyRenderer@@@@@std@@QBEIXZ 17102c70 f i c_skyrenderer.obj
 0002:00044cc0       ?insert@?$vector@PAVCSkyRenderer@@V?$K2VectorAllocator@PAVCSkyRenderer@@@@@std@@QAE?AV?$_Vector_iterator@PAVCSkyRenderer@@V?$K2VectorAllocator@PAVCSkyRenderer@@@@@2@V32@ABQAVCSkyRenderer@@@Z 17102cc0 f i c_skyrenderer.obj
 0002:00044e30       ?_Ufill@?$vector@PAVCSkyRenderer@@V?$K2VectorAllocator@PAVCSkyRenderer@@@@@std@@IAEPAPAVCSkyRenderer@@PAPAV3@IABQAV3@@Z 17102e30 f i c_skyrenderer.obj
 0002:00044e80       ??0?$_Vector_iterator@PAVCSkyRenderer@@V?$K2VectorAllocator@PAVCSkyRenderer@@@@@std@@QAE@ABV01@@Z 17102e80 f i c_skyrenderer.obj
 0002:00044eb0       ??0?$_Vector_const_iterator@PAVCSkyRenderer@@V?$K2VectorAllocator@PAVCSkyRenderer@@@@@std@@QAE@ABV01@@Z 17102eb0 f i c_skyrenderer.obj
 0002:00044ef0       ??0?$_Ranit@PAVCSkyRenderer@@HPBQAV1@ABQAV1@@std@@QAE@ABU01@@Z 17102ef0 f i c_skyrenderer.obj
 0002:00044f20       ?_Insert_n@?$vector@PAVCSkyRenderer@@V?$K2VectorAllocator@PAVCSkyRenderer@@@@@std@@IAEXV?$_Vector_iterator@PAVCSkyRenderer@@V?$K2VectorAllocator@PAVCSkyRenderer@@@@@2@IABQAVCSkyRenderer@@@Z 17102f20 f i c_skyrenderer.obj
 0002:000453d0       ?deallocate@?$K2VectorAllocator@PAVCSkyRenderer@@@@QAEXPAPAVCSkyRenderer@@I@Z 171033d0 f i c_skyrenderer.obj
 0002:00045410       ??H?$_Vector_iterator@PAVCSkyRenderer@@V?$K2VectorAllocator@PAVCSkyRenderer@@@@@std@@QBE?AV01@H@Z 17103410 f i c_skyrenderer.obj
 0002:000454c0       ??G?$_Vector_iterator@PAVCSkyRenderer@@V?$K2VectorAllocator@PAVCSkyRenderer@@@@@std@@QBEHABV?$_Vector_const_iterator@PAVCSkyRenderer@@V?$K2VectorAllocator@PAVCSkyRenderer@@@@@1@@Z 171034c0 f i c_skyrenderer.obj
 0002:000454f0       ?max_size@?$vector@PAVCSkyRenderer@@V?$K2VectorAllocator@PAVCSkyRenderer@@@@@std@@QBEIXZ 171034f0 f i c_skyrenderer.obj
 0002:00045520       ?_Xlen@?$vector@PAVCSkyRenderer@@V?$K2VectorAllocator@PAVCSkyRenderer@@@@@std@@KAXXZ 17103520 f i c_skyrenderer.obj
 0002:000455d0       ?allocate@?$K2VectorAllocator@PAVCSkyRenderer@@@@QAEPAPAVCSkyRenderer@@I@Z 171035d0 f i c_skyrenderer.obj
 0002:00045620       ??Y?$_Vector_iterator@PAVCSkyRenderer@@V?$K2VectorAllocator@PAVCSkyRenderer@@@@@std@@QAEAAV01@H@Z 17103620 f i c_skyrenderer.obj
 0002:00045650       ??G?$_Vector_const_iterator@PAVCSkyRenderer@@V?$K2VectorAllocator@PAVCSkyRenderer@@@@@std@@QBEHABV01@@Z 17103650 f i c_skyrenderer.obj
 0002:00045690       ?max_size@?$allocator@PAVCSkyRenderer@@@std@@QBEIXZ 17103690 f i c_skyrenderer.obj
 0002:000456d0       ??Y?$_Vector_const_iterator@PAVCSkyRenderer@@V?$K2VectorAllocator@PAVCSkyRenderer@@@@@std@@QAEAAV01@H@Z 171036d0 f i c_skyrenderer.obj
 0002:00045800       ??$unchecked_uninitialized_fill_n@PAPAVCSkyRenderer@@IPAV1@V?$K2VectorAllocator@PAVCSkyRenderer@@@@@stdext@@YAXPAPAVCSkyRenderer@@IABQAV1@AAV?$K2VectorAllocator@PAVCSkyRenderer@@@@@Z 17103800 f i c_skyrenderer.obj
 0002:00045860       ??$_Umove@PAPAVCSkyRenderer@@@?$vector@PAVCSkyRenderer@@V?$K2VectorAllocator@PAVCSkyRenderer@@@@@std@@IAEPAPAVCSkyRenderer@@PAPAV2@00@Z 17103860 f i c_skyrenderer.obj
 0002:000458a0       ??$fill@PAPAVCSkyRenderer@@PAV1@@std@@YAXPAPAVCSkyRenderer@@0ABQAV1@@Z 171038a0 f i c_skyrenderer.obj
 0002:000458f0       ??$_Unchecked_move_backward@PAPAVCSkyRenderer@@PAPAV1@@stdext@@YAPAPAVCSkyRenderer@@PAPAV1@00@Z 171038f0 f i c_skyrenderer.obj
 0002:00045980       ??$_Uninit_fill_n@PAPAVCSkyRenderer@@IPAV1@V?$K2VectorAllocator@PAVCSkyRenderer@@@@@std@@YAXPAPAVCSkyRenderer@@IABQAV1@AAV?$K2VectorAllocator@PAVCSkyRenderer@@@@U_Scalar_ptr_iterator_tag@0@U_Range_checked_iterator_tag@0@@Z 17103980 f i c_skyrenderer.obj
 0002:000459b0       ??$_Unchecked_uninitialized_move@PAPAVCSkyRenderer@@PAPAV1@V?$K2VectorAllocator@PAVCSkyRenderer@@@@@stdext@@YAPAPAVCSkyRenderer@@PAPAV1@00AAV?$K2VectorAllocator@PAVCSkyRenderer@@@@@Z 171039b0 f i c_skyrenderer.obj
 0002:00045a20       ??$_Fill@PAPAVCSkyRenderer@@PAV1@@std@@YAXPAPAVCSkyRenderer@@0ABQAV1@@Z 17103a20 f i c_skyrenderer.obj
 0002:00045a80       ??$_Move_cat@PAPAVCSkyRenderer@@@std@@YA?AU_Undefined_move_tag@0@ABQAPAVCSkyRenderer@@@Z 17103a80 f i c_skyrenderer.obj
 0002:00045aa0       ??$_Move_backward_opt@PAPAVCSkyRenderer@@PAPAV1@Urandom_access_iterator_tag@std@@U_Undefined_move_tag@3@@std@@YAPAPAVCSkyRenderer@@PAPAV1@00Urandom_access_iterator_tag@0@U_Undefined_move_tag@0@U_Range_checked_iterator_tag@0@@Z 17103aa0 f i c_skyrenderer.obj
 0002:00045b00       ??$unchecked_fill_n@PAPAVCSkyRenderer@@IPAV1@@stdext@@YAXPAPAVCSkyRenderer@@IABQAV1@@Z 17103b00 f i c_skyrenderer.obj
 0002:00045b50       ??$_Uninit_move@PAPAVCSkyRenderer@@PAPAV1@V?$K2VectorAllocator@PAVCSkyRenderer@@@@U_Undefined_move_tag@std@@@std@@YAPAPAVCSkyRenderer@@PAPAV1@00AAV?$K2VectorAllocator@PAVCSkyRenderer@@@@U_Undefined_move_tag@0@U_Range_checked_iterator_tag@0@@Z 17103b50 f i c_skyrenderer.obj
 0002:00045b90       ??$_Copy_backward_opt@PAPAVCSkyRenderer@@PAPAV1@Urandom_access_iterator_tag@std@@@std@@YAPAPAVCSkyRenderer@@PAPAV1@00Urandom_access_iterator_tag@0@U_Scalar_ptr_iterator_tag@0@U_Range_checked_iterator_tag@0@@Z 17103b90 f i c_skyrenderer.obj
 0002:00045c40       ??$_Fill_n@PAPAVCSkyRenderer@@IPAV1@@std@@YAXPAPAVCSkyRenderer@@IABQAV1@Urandom_access_iterator_tag@0@U_Range_checked_iterator_tag@0@@Z 17103c40 f i c_skyrenderer.obj
 0002:00045ca0       ??$unchecked_uninitialized_copy@PAPAVCSkyRenderer@@PAPAV1@V?$K2VectorAllocator@PAVCSkyRenderer@@@@@stdext@@YAPAPAVCSkyRenderer@@PAPAV1@00AAV?$K2VectorAllocator@PAVCSkyRenderer@@@@@Z 17103ca0 f i c_skyrenderer.obj
 0002:00045d10       ??$_Fill_n@PAPAVCSkyRenderer@@IPAV1@@std@@YAXPAPAVCSkyRenderer@@IABQAV1@U_Range_checked_iterator_tag@0@@Z 17103d10 f i c_skyrenderer.obj
 0002:00045d60       ??$_Uninit_copy@PAPAVCSkyRenderer@@PAPAV1@V?$K2VectorAllocator@PAVCSkyRenderer@@@@@std@@YAPAPAVCSkyRenderer@@PAPAV1@00AAV?$K2VectorAllocator@PAVCSkyRenderer@@@@U_Scalar_ptr_iterator_tag@0@U_Range_checked_iterator_tag@0@@Z 17103d60 f i c_skyrenderer.obj
 0002:00045e00       ??0?$CPool@VCSkyRenderer@@@@QAE@II@Z 17103e00 f i c_skyrenderer.obj
 0002:00045ec0       ??0?$vector@PAVCSkyRenderer@@V?$K2VectorAllocator@PAVCSkyRenderer@@@@@@QAE@XZ 17103ec0 f i c_skyrenderer.obj
 0002:00045ef0       ??0?$vector@PAVCSkyRenderer@@V?$K2VectorAllocator@PAVCSkyRenderer@@@@@std@@QAE@XZ 17103ef0 f i c_skyrenderer.obj
 0002:00045f80       ??1?$_Vector_val@PAVCSkyRenderer@@V?$K2VectorAllocator@PAVCSkyRenderer@@@@@std@@QAE@XZ 17103f80 f i c_skyrenderer.obj
 0002:00046000       ??1?$K2VectorAllocator@PAVCSkyRenderer@@@@QAE@XZ 17104000 f i c_skyrenderer.obj
 0002:00046020       ?_Buy@?$vector@PAVCSkyRenderer@@V?$K2VectorAllocator@PAVCSkyRenderer@@@@@std@@IAE_NI@Z 17104020 f i c_skyrenderer.obj
 0002:000460d0       ??0?$_Vector_val@PAVCSkyRenderer@@V?$K2VectorAllocator@PAVCSkyRenderer@@@@@std@@IAE@V?$K2VectorAllocator@PAVCSkyRenderer@@@@@Z 171040d0 f i c_skyrenderer.obj
 0002:00046170       ??0?$K2VectorAllocator@PAVCSkyRenderer@@@@QAE@XZ 17104170 f i c_skyrenderer.obj
 0002:000461a0       ??0?$K2VectorAllocator@PAVCSkyRenderer@@@@QAE@ABV0@@Z 171041a0 f i c_skyrenderer.obj
 0002:000461d0       ??0?$allocator@PAVCSkyRenderer@@@std@@QAE@XZ 171041d0 f i c_skyrenderer.obj
 0002:000461f0       ??0?$allocator@PAVCSkyRenderer@@@std@@QAE@ABV01@@Z 171041f0 f i c_skyrenderer.obj
 0002:00046210       ??1?$CPool@VCSkyRenderer@@@@QAE@XZ 17104210 f i c_skyrenderer.obj
 0002:000462c0       ??1?$vector@PAVCSkyRenderer@@V?$K2VectorAllocator@PAVCSkyRenderer@@@@@@QAE@XZ 171042c0 f i c_skyrenderer.obj
 0002:000462f0       ??1?$vector@PAVCSkyRenderer@@V?$K2VectorAllocator@PAVCSkyRenderer@@@@@std@@QAE@XZ 171042f0 f i c_skyrenderer.obj
 0002:00046370       ?_Tidy@?$vector@PAVCSkyRenderer@@V?$K2VectorAllocator@PAVCSkyRenderer@@@@@std@@IAEXXZ 17104370 f i c_skyrenderer.obj
 0002:00046410       ??2CTerrainRenderer@@SAPAXIPBD00F@Z 17104410 f   c_terrainrenderer.obj
 0002:00046430       ??0CTerrainRenderer@@QAE@XZ 17104430 f   c_terrainrenderer.obj
 0002:000465a0       ??_GCTerrainRenderer@@UAEPAXI@Z 171045a0 f i c_terrainrenderer.obj
 0002:000465a0       ??_ECTerrainRenderer@@UAEPAXI@Z 171045a0 f i c_terrainrenderer.obj
 0002:000465f0       ??1CTerrainRenderer@@UAE@XZ 171045f0 f   c_terrainrenderer.obj
 0002:00046620       ?Setup@CTerrainRenderer@@UAEXW4EMaterialPhase@@@Z 17104620 f   c_terrainrenderer.obj
 0002:00046d80       ?RenderChunk@CTerrainRenderer@@AAEXW4EMaterialPhase@@HH@Z 17104d80 f   c_terrainrenderer.obj
 0002:00047a90       ?GetInvisTexture@CResourceManager@@QBEIXZ 17105a90 f i c_terrainrenderer.obj
 0002:00047ab0       ?RenderChunkNormals@CTerrainRenderer@@AAEXW4EMaterialPhase@@HH@Z 17105ab0 f   c_terrainrenderer.obj
 0002:00048870       ?ScaleGridCoord@CWorld@@QBEMH@Z 17106870 f i c_terrainrenderer.obj
 0002:000488a0       ?GetGridPoint@CWorld@@QBEMHH@Z 171068a0 f i c_terrainrenderer.obj
 0002:000488e0       ?GetTileSplit@CWorld@@QBE?AW4ETileSplitType@@HH@Z 171068e0 f i c_terrainrenderer.obj
 0002:00048920       ?GetTileNormal@CWorld@@QBEABV?$CVec3@M@@HHW4EGridTriangles@@@Z 17106920 f i c_terrainrenderer.obj
 0002:00048960       ?GetGridNormal@CWorld@@QBEABV?$CVec3@M@@HH@Z 17106960 f i c_terrainrenderer.obj
 0002:000489a0       ?RenderChunkGrid@CTerrainRenderer@@AAEXW4EMaterialPhase@@HH@Z 171069a0 f   c_terrainrenderer.obj
 0002:00049070       ?RenderChunkCliffs@CTerrainRenderer@@AAEXW4EMaterialPhase@@HH@Z 17107070 f   c_terrainrenderer.obj
 0002:00049480       ?Render@CTerrainRenderer@@UAEXW4EMaterialPhase@@@Z 17107480 f   c_terrainrenderer.obj
 0002:000496b0       ?Allocate@?$CPool@VCTerrainRenderer@@@@QAEPAVCTerrainRenderer@@XZ 171076b0 f i c_terrainrenderer.obj
 0002:00049840       ?push_back@?$vector@PAVCTerrainRenderer@@V?$K2VectorAllocator@PAVCTerrainRenderer@@@@@std@@QAEXABQAVCTerrainRenderer@@@Z 17107840 f i c_terrainrenderer.obj
 0002:000498f0       ?capacity@?$vector@PAVCTerrainRenderer@@V?$K2VectorAllocator@PAVCTerrainRenderer@@@@@std@@QBEIXZ 171078f0 f i c_terrainrenderer.obj
 0002:00049940       ?size@?$vector@PAVCTerrainRenderer@@V?$K2VectorAllocator@PAVCTerrainRenderer@@@@@std@@QBEIXZ 17107940 f i c_terrainrenderer.obj
 0002:00049990       ?insert@?$vector@PAVCTerrainRenderer@@V?$K2VectorAllocator@PAVCTerrainRenderer@@@@@std@@QAE?AV?$_Vector_iterator@PAVCTerrainRenderer@@V?$K2VectorAllocator@PAVCTerrainRenderer@@@@@2@V32@ABQAVCTerrainRenderer@@@Z 17107990 f i c_terrainrenderer.obj
 0002:00049b00       ?_Ufill@?$vector@PAVCTerrainRenderer@@V?$K2VectorAllocator@PAVCTerrainRenderer@@@@@std@@IAEPAPAVCTerrainRenderer@@PAPAV3@IABQAV3@@Z 17107b00 f i c_terrainrenderer.obj
 0002:00049b50       ??0?$_Vector_iterator@PAVCTerrainRenderer@@V?$K2VectorAllocator@PAVCTerrainRenderer@@@@@std@@QAE@ABV01@@Z 17107b50 f i c_terrainrenderer.obj
 0002:00049b80       ??0?$_Vector_const_iterator@PAVCTerrainRenderer@@V?$K2VectorAllocator@PAVCTerrainRenderer@@@@@std@@QAE@ABV01@@Z 17107b80 f i c_terrainrenderer.obj
 0002:00049bc0       ??0?$_Ranit@PAVCTerrainRenderer@@HPBQAV1@ABQAV1@@std@@QAE@ABU01@@Z 17107bc0 f i c_terrainrenderer.obj
 0002:00049bf0       ?_Insert_n@?$vector@PAVCTerrainRenderer@@V?$K2VectorAllocator@PAVCTerrainRenderer@@@@@std@@IAEXV?$_Vector_iterator@PAVCTerrainRenderer@@V?$K2VectorAllocator@PAVCTerrainRenderer@@@@@2@IABQAVCTerrainRenderer@@@Z 17107bf0 f i c_terrainrenderer.obj
 0002:0004a0a0       ?deallocate@?$K2VectorAllocator@PAVCTerrainRenderer@@@@QAEXPAPAVCTerrainRenderer@@I@Z 171080a0 f i c_terrainrenderer.obj
 0002:0004a0e0       ??H?$_Vector_iterator@PAVCTerrainRenderer@@V?$K2VectorAllocator@PAVCTerrainRenderer@@@@@std@@QBE?AV01@H@Z 171080e0 f i c_terrainrenderer.obj
 0002:0004a190       ??G?$_Vector_iterator@PAVCTerrainRenderer@@V?$K2VectorAllocator@PAVCTerrainRenderer@@@@@std@@QBEHABV?$_Vector_const_iterator@PAVCTerrainRenderer@@V?$K2VectorAllocator@PAVCTerrainRenderer@@@@@1@@Z 17108190 f i c_terrainrenderer.obj
 0002:0004a1c0       ?max_size@?$vector@PAVCTerrainRenderer@@V?$K2VectorAllocator@PAVCTerrainRenderer@@@@@std@@QBEIXZ 171081c0 f i c_terrainrenderer.obj
 0002:0004a1f0       ?_Xlen@?$vector@PAVCTerrainRenderer@@V?$K2VectorAllocator@PAVCTerrainRenderer@@@@@std@@KAXXZ 171081f0 f i c_terrainrenderer.obj
 0002:0004a2a0       ?allocate@?$K2VectorAllocator@PAVCTerrainRenderer@@@@QAEPAPAVCTerrainRenderer@@I@Z 171082a0 f i c_terrainrenderer.obj
 0002:0004a2f0       ??Y?$_Vector_iterator@PAVCTerrainRenderer@@V?$K2VectorAllocator@PAVCTerrainRenderer@@@@@std@@QAEAAV01@H@Z 171082f0 f i c_terrainrenderer.obj
 0002:0004a320       ??G?$_Vector_const_iterator@PAVCTerrainRenderer@@V?$K2VectorAllocator@PAVCTerrainRenderer@@@@@std@@QBEHABV01@@Z 17108320 f i c_terrainrenderer.obj
 0002:0004a360       ?max_size@?$allocator@PAVCTerrainRenderer@@@std@@QBEIXZ 17108360 f i c_terrainrenderer.obj
 0002:0004a3a0       ??Y?$_Vector_const_iterator@PAVCTerrainRenderer@@V?$K2VectorAllocator@PAVCTerrainRenderer@@@@@std@@QAEAAV01@H@Z 171083a0 f i c_terrainrenderer.obj
 0002:0004a4d0       ??$unchecked_uninitialized_fill_n@PAPAVCTerrainRenderer@@IPAV1@V?$K2VectorAllocator@PAVCTerrainRenderer@@@@@stdext@@YAXPAPAVCTerrainRenderer@@IABQAV1@AAV?$K2VectorAllocator@PAVCTerrainRenderer@@@@@Z 171084d0 f i c_terrainrenderer.obj
 0002:0004a530       ??$_Umove@PAPAVCTerrainRenderer@@@?$vector@PAVCTerrainRenderer@@V?$K2VectorAllocator@PAVCTerrainRenderer@@@@@std@@IAEPAPAVCTerrainRenderer@@PAPAV2@00@Z 17108530 f i c_terrainrenderer.obj
 0002:0004a570       ??$fill@PAPAVCTerrainRenderer@@PAV1@@std@@YAXPAPAVCTerrainRenderer@@0ABQAV1@@Z 17108570 f i c_terrainrenderer.obj
 0002:0004a5c0       ??$_Unchecked_move_backward@PAPAVCTerrainRenderer@@PAPAV1@@stdext@@YAPAPAVCTerrainRenderer@@PAPAV1@00@Z 171085c0 f i c_terrainrenderer.obj
 0002:0004a650       ??$_Uninit_fill_n@PAPAVCTerrainRenderer@@IPAV1@V?$K2VectorAllocator@PAVCTerrainRenderer@@@@@std@@YAXPAPAVCTerrainRenderer@@IABQAV1@AAV?$K2VectorAllocator@PAVCTerrainRenderer@@@@U_Scalar_ptr_iterator_tag@0@U_Range_checked_iterator_tag@0@@Z 17108650 f i c_terrainrenderer.obj
 0002:0004a680       ??$_Unchecked_uninitialized_move@PAPAVCTerrainRenderer@@PAPAV1@V?$K2VectorAllocator@PAVCTerrainRenderer@@@@@stdext@@YAPAPAVCTerrainRenderer@@PAPAV1@00AAV?$K2VectorAllocator@PAVCTerrainRenderer@@@@@Z 17108680 f i c_terrainrenderer.obj
 0002:0004a6f0       ??$_Fill@PAPAVCTerrainRenderer@@PAV1@@std@@YAXPAPAVCTerrainRenderer@@0ABQAV1@@Z 171086f0 f i c_terrainrenderer.obj
 0002:0004a750       ??$_Move_cat@PAPAVCTerrainRenderer@@@std@@YA?AU_Undefined_move_tag@0@ABQAPAVCTerrainRenderer@@@Z 17108750 f i c_terrainrenderer.obj
 0002:0004a770       ??$_Move_backward_opt@PAPAVCTerrainRenderer@@PAPAV1@Urandom_access_iterator_tag@std@@U_Undefined_move_tag@3@@std@@YAPAPAVCTerrainRenderer@@PAPAV1@00Urandom_access_iterator_tag@0@U_Undefined_move_tag@0@U_Range_checked_iterator_tag@0@@Z 17108770 f i c_terrainrenderer.obj
 0002:0004a7d0       ??$unchecked_fill_n@PAPAVCTerrainRenderer@@IPAV1@@stdext@@YAXPAPAVCTerrainRenderer@@IABQAV1@@Z 171087d0 f i c_terrainrenderer.obj
 0002:0004a820       ??$_Uninit_move@PAPAVCTerrainRenderer@@PAPAV1@V?$K2VectorAllocator@PAVCTerrainRenderer@@@@U_Undefined_move_tag@std@@@std@@YAPAPAVCTerrainRenderer@@PAPAV1@00AAV?$K2VectorAllocator@PAVCTerrainRenderer@@@@U_Undefined_move_tag@0@U_Range_checked_iterator_tag@0@@Z 17108820 f i c_terrainrenderer.obj
 0002:0004a860       ??$_Copy_backward_opt@PAPAVCTerrainRenderer@@PAPAV1@Urandom_access_iterator_tag@std@@@std@@YAPAPAVCTerrainRenderer@@PAPAV1@00Urandom_access_iterator_tag@0@U_Scalar_ptr_iterator_tag@0@U_Range_checked_iterator_tag@0@@Z 17108860 f i c_terrainrenderer.obj
 0002:0004a910       ??$_Fill_n@PAPAVCTerrainRenderer@@IPAV1@@std@@YAXPAPAVCTerrainRenderer@@IABQAV1@Urandom_access_iterator_tag@0@U_Range_checked_iterator_tag@0@@Z 17108910 f i c_terrainrenderer.obj
 0002:0004a970       ??$unchecked_uninitialized_copy@PAPAVCTerrainRenderer@@PAPAV1@V?$K2VectorAllocator@PAVCTerrainRenderer@@@@@stdext@@YAPAPAVCTerrainRenderer@@PAPAV1@00AAV?$K2VectorAllocator@PAVCTerrainRenderer@@@@@Z 17108970 f i c_terrainrenderer.obj
 0002:0004a9e0       ??$_Fill_n@PAPAVCTerrainRenderer@@IPAV1@@std@@YAXPAPAVCTerrainRenderer@@IABQAV1@U_Range_checked_iterator_tag@0@@Z 171089e0 f i c_terrainrenderer.obj
 0002:0004aa30       ??$_Uninit_copy@PAPAVCTerrainRenderer@@PAPAV1@V?$K2VectorAllocator@PAVCTerrainRenderer@@@@@std@@YAPAPAVCTerrainRenderer@@PAPAV1@00AAV?$K2VectorAllocator@PAVCTerrainRenderer@@@@U_Scalar_ptr_iterator_tag@0@U_Range_checked_iterator_tag@0@@Z 17108a30 f i c_terrainrenderer.obj
 0002:0004aad0       ??0?$CPool@VCTerrainRenderer@@@@QAE@II@Z 17108ad0 f i c_terrainrenderer.obj
 0002:0004ab90       ??0?$vector@PAVCTerrainRenderer@@V?$K2VectorAllocator@PAVCTerrainRenderer@@@@@@QAE@XZ 17108b90 f i c_terrainrenderer.obj
 0002:0004abc0       ??0?$vector@PAVCTerrainRenderer@@V?$K2VectorAllocator@PAVCTerrainRenderer@@@@@std@@QAE@XZ 17108bc0 f i c_terrainrenderer.obj
 0002:0004ac50       ??1?$_Vector_val@PAVCTerrainRenderer@@V?$K2VectorAllocator@PAVCTerrainRenderer@@@@@std@@QAE@XZ 17108c50 f i c_terrainrenderer.obj
 0002:0004acd0       ??1?$K2VectorAllocator@PAVCTerrainRenderer@@@@QAE@XZ 17108cd0 f i c_terrainrenderer.obj
 0002:0004acf0       ?_Buy@?$vector@PAVCTerrainRenderer@@V?$K2VectorAllocator@PAVCTerrainRenderer@@@@@std@@IAE_NI@Z 17108cf0 f i c_terrainrenderer.obj
 0002:0004ada0       ??0?$_Vector_val@PAVCTerrainRenderer@@V?$K2VectorAllocator@PAVCTerrainRenderer@@@@@std@@IAE@V?$K2VectorAllocator@PAVCTerrainRenderer@@@@@Z 17108da0 f i c_terrainrenderer.obj
 0002:0004ae40       ??0?$K2VectorAllocator@PAVCTerrainRenderer@@@@QAE@XZ 17108e40 f i c_terrainrenderer.obj
 0002:0004ae70       ??0?$K2VectorAllocator@PAVCTerrainRenderer@@@@QAE@ABV0@@Z 17108e70 f i c_terrainrenderer.obj
 0002:0004aea0       ??0?$allocator@PAVCTerrainRenderer@@@std@@QAE@XZ 17108ea0 f i c_terrainrenderer.obj
 0002:0004aec0       ??0?$allocator@PAVCTerrainRenderer@@@std@@QAE@ABV01@@Z 17108ec0 f i c_terrainrenderer.obj
 0002:0004aee0       ??1?$CPool@VCTerrainRenderer@@@@QAE@XZ 17108ee0 f i c_terrainrenderer.obj
 0002:0004af90       ??1?$vector@PAVCTerrainRenderer@@V?$K2VectorAllocator@PAVCTerrainRenderer@@@@@@QAE@XZ 17108f90 f i c_terrainrenderer.obj
 0002:0004afc0       ??1?$vector@PAVCTerrainRenderer@@V?$K2VectorAllocator@PAVCTerrainRenderer@@@@@std@@QAE@XZ 17108fc0 f i c_terrainrenderer.obj
 0002:0004b040       ?_Tidy@?$vector@PAVCTerrainRenderer@@V?$K2VectorAllocator@PAVCTerrainRenderer@@@@@std@@IAEXXZ 17109040 f i c_terrainrenderer.obj
 0002:0004b0e0       ??2CTreeBillboardRenderer@@SAPAXIPBD00F@Z 171090e0 f   c_treebillboardrenderer.obj
 0002:0004b100       ??0CTreeBillboardRenderer@@QAE@IKIIHM@Z 17109100 f   c_treebillboardrenderer.obj
 0002:0004b230       ??_ECTreeBillboardRenderer@@UAEPAXI@Z 17109230 f i c_treebillboardrenderer.obj
 0002:0004b230       ??_GCTreeBillboardRenderer@@UAEPAXI@Z 17109230 f i c_treebillboardrenderer.obj
 0002:0004b280       ??1CTreeBillboardRenderer@@UAE@XZ 17109280 f   c_treebillboardrenderer.obj
 0002:0004b2b0       ?Setup@CTreeBillboardRenderer@@UAEXW4EMaterialPhase@@@Z 171092b0 f   c_treebillboardrenderer.obj
 0002:0004b540       ?Render@CTreeBillboardRenderer@@UAEXW4EMaterialPhase@@@Z 17109540 f   c_treebillboardrenderer.obj
 0002:0004b6d0       ?Allocate@?$CPool@VCTreeBillboardRenderer@@@@QAEPAVCTreeBillboardRenderer@@XZ 171096d0 f i c_treebillboardrenderer.obj
 0002:0004b860       ?push_back@?$vector@PAVCTreeBillboardRenderer@@V?$K2VectorAllocator@PAVCTreeBillboardRenderer@@@@@std@@QAEXABQAVCTreeBillboardRenderer@@@Z 17109860 f i c_treebillboardrenderer.obj
 0002:0004b910       ?capacity@?$vector@PAVCTreeBillboardRenderer@@V?$K2VectorAllocator@PAVCTreeBillboardRenderer@@@@@std@@QBEIXZ 17109910 f i c_treebillboardrenderer.obj
 0002:0004b960       ?size@?$vector@PAVCTreeBillboardRenderer@@V?$K2VectorAllocator@PAVCTreeBillboardRenderer@@@@@std@@QBEIXZ 17109960 f i c_treebillboardrenderer.obj
 0002:0004b9b0       ?insert@?$vector@PAVCTreeBillboardRenderer@@V?$K2VectorAllocator@PAVCTreeBillboardRenderer@@@@@std@@QAE?AV?$_Vector_iterator@PAVCTreeBillboardRenderer@@V?$K2VectorAllocator@PAVCTreeBillboardRenderer@@@@@2@V32@ABQAVCTreeBillboardRenderer@@@Z 171099b0 f i c_treebillboardrenderer.obj
 0002:0004bb20       ?_Ufill@?$vector@PAVCTreeBillboardRenderer@@V?$K2VectorAllocator@PAVCTreeBillboardRenderer@@@@@std@@IAEPAPAVCTreeBillboardRenderer@@PAPAV3@IABQAV3@@Z 17109b20 f i c_treebillboardrenderer.obj
 0002:0004bb70       ??0?$_Vector_iterator@PAVCTreeBillboardRenderer@@V?$K2VectorAllocator@PAVCTreeBillboardRenderer@@@@@std@@QAE@ABV01@@Z 17109b70 f i c_treebillboardrenderer.obj
 0002:0004bba0       ??0?$_Vector_const_iterator@PAVCTreeBillboardRenderer@@V?$K2VectorAllocator@PAVCTreeBillboardRenderer@@@@@std@@QAE@ABV01@@Z 17109ba0 f i c_treebillboardrenderer.obj
 0002:0004bbe0       ??0?$_Ranit@PAVCTreeBillboardRenderer@@HPBQAV1@ABQAV1@@std@@QAE@ABU01@@Z 17109be0 f i c_treebillboardrenderer.obj
 0002:0004bc10       ?_Insert_n@?$vector@PAVCTreeBillboardRenderer@@V?$K2VectorAllocator@PAVCTreeBillboardRenderer@@@@@std@@IAEXV?$_Vector_iterator@PAVCTreeBillboardRenderer@@V?$K2VectorAllocator@PAVCTreeBillboardRenderer@@@@@2@IABQAVCTreeBillboardRenderer@@@Z 17109c10 f i c_treebillboardrenderer.obj
 0002:0004c0c0       ?deallocate@?$K2VectorAllocator@PAVCTreeBillboardRenderer@@@@QAEXPAPAVCTreeBillboardRenderer@@I@Z 1710a0c0 f i c_treebillboardrenderer.obj
 0002:0004c100       ??H?$_Vector_iterator@PAVCTreeBillboardRenderer@@V?$K2VectorAllocator@PAVCTreeBillboardRenderer@@@@@std@@QBE?AV01@H@Z 1710a100 f i c_treebillboardrenderer.obj
 0002:0004c1b0       ??G?$_Vector_iterator@PAVCTreeBillboardRenderer@@V?$K2VectorAllocator@PAVCTreeBillboardRenderer@@@@@std@@QBEHABV?$_Vector_const_iterator@PAVCTreeBillboardRenderer@@V?$K2VectorAllocator@PAVCTreeBillboardRenderer@@@@@1@@Z 1710a1b0 f i c_treebillboardrenderer.obj
 0002:0004c1e0       ?max_size@?$vector@PAVCTreeBillboardRenderer@@V?$K2VectorAllocator@PAVCTreeBillboardRenderer@@@@@std@@QBEIXZ 1710a1e0 f i c_treebillboardrenderer.obj
 0002:0004c210       ?_Xlen@?$vector@PAVCTreeBillboardRenderer@@V?$K2VectorAllocator@PAVCTreeBillboardRenderer@@@@@std@@KAXXZ 1710a210 f i c_treebillboardrenderer.obj
 0002:0004c2c0       ?allocate@?$K2VectorAllocator@PAVCTreeBillboardRenderer@@@@QAEPAPAVCTreeBillboardRenderer@@I@Z 1710a2c0 f i c_treebillboardrenderer.obj
 0002:0004c310       ??Y?$_Vector_iterator@PAVCTreeBillboardRenderer@@V?$K2VectorAllocator@PAVCTreeBillboardRenderer@@@@@std@@QAEAAV01@H@Z 1710a310 f i c_treebillboardrenderer.obj
 0002:0004c340       ??G?$_Vector_const_iterator@PAVCTreeBillboardRenderer@@V?$K2VectorAllocator@PAVCTreeBillboardRenderer@@@@@std@@QBEHABV01@@Z 1710a340 f i c_treebillboardrenderer.obj
 0002:0004c380       ?max_size@?$allocator@PAVCTreeBillboardRenderer@@@std@@QBEIXZ 1710a380 f i c_treebillboardrenderer.obj
 0002:0004c3c0       ??Y?$_Vector_const_iterator@PAVCTreeBillboardRenderer@@V?$K2VectorAllocator@PAVCTreeBillboardRenderer@@@@@std@@QAEAAV01@H@Z 1710a3c0 f i c_treebillboardrenderer.obj
 0002:0004c4f0       ??$unchecked_uninitialized_fill_n@PAPAVCTreeBillboardRenderer@@IPAV1@V?$K2VectorAllocator@PAVCTreeBillboardRenderer@@@@@stdext@@YAXPAPAVCTreeBillboardRenderer@@IABQAV1@AAV?$K2VectorAllocator@PAVCTreeBillboardRenderer@@@@@Z 1710a4f0 f i c_treebillboardrenderer.obj
 0002:0004c550       ??$_Umove@PAPAVCTreeBillboardRenderer@@@?$vector@PAVCTreeBillboardRenderer@@V?$K2VectorAllocator@PAVCTreeBillboardRenderer@@@@@std@@IAEPAPAVCTreeBillboardRenderer@@PAPAV2@00@Z 1710a550 f i c_treebillboardrenderer.obj
 0002:0004c590       ??$fill@PAPAVCTreeBillboardRenderer@@PAV1@@std@@YAXPAPAVCTreeBillboardRenderer@@0ABQAV1@@Z 1710a590 f i c_treebillboardrenderer.obj
 0002:0004c5e0       ??$_Unchecked_move_backward@PAPAVCTreeBillboardRenderer@@PAPAV1@@stdext@@YAPAPAVCTreeBillboardRenderer@@PAPAV1@00@Z 1710a5e0 f i c_treebillboardrenderer.obj
 0002:0004c670       ??$_Uninit_fill_n@PAPAVCTreeBillboardRenderer@@IPAV1@V?$K2VectorAllocator@PAVCTreeBillboardRenderer@@@@@std@@YAXPAPAVCTreeBillboardRenderer@@IABQAV1@AAV?$K2VectorAllocator@PAVCTreeBillboardRenderer@@@@U_Scalar_ptr_iterator_tag@0@U_Range_checked_iterator_tag@0@@Z 1710a670 f i c_treebillboardrenderer.obj
 0002:0004c6a0       ??$_Unchecked_uninitialized_move@PAPAVCTreeBillboardRenderer@@PAPAV1@V?$K2VectorAllocator@PAVCTreeBillboardRenderer@@@@@stdext@@YAPAPAVCTreeBillboardRenderer@@PAPAV1@00AAV?$K2VectorAllocator@PAVCTreeBillboardRenderer@@@@@Z 1710a6a0 f i c_treebillboardrenderer.obj
 0002:0004c710       ??$_Fill@PAPAVCTreeBillboardRenderer@@PAV1@@std@@YAXPAPAVCTreeBillboardRenderer@@0ABQAV1@@Z 1710a710 f i c_treebillboardrenderer.obj
 0002:0004c770       ??$_Move_cat@PAPAVCTreeBillboardRenderer@@@std@@YA?AU_Undefined_move_tag@0@ABQAPAVCTreeBillboardRenderer@@@Z 1710a770 f i c_treebillboardrenderer.obj
 0002:0004c790       ??$_Move_backward_opt@PAPAVCTreeBillboardRenderer@@PAPAV1@Urandom_access_iterator_tag@std@@U_Undefined_move_tag@3@@std@@YAPAPAVCTreeBillboardRenderer@@PAPAV1@00Urandom_access_iterator_tag@0@U_Undefined_move_tag@0@U_Range_checked_iterator_tag@0@@Z 1710a790 f i c_treebillboardrenderer.obj
 0002:0004c7f0       ??$unchecked_fill_n@PAPAVCTreeBillboardRenderer@@IPAV1@@stdext@@YAXPAPAVCTreeBillboardRenderer@@IABQAV1@@Z 1710a7f0 f i c_treebillboardrenderer.obj
 0002:0004c840       ??$_Uninit_move@PAPAVCTreeBillboardRenderer@@PAPAV1@V?$K2VectorAllocator@PAVCTreeBillboardRenderer@@@@U_Undefined_move_tag@std@@@std@@YAPAPAVCTreeBillboardRenderer@@PAPAV1@00AAV?$K2VectorAllocator@PAVCTreeBillboardRenderer@@@@U_Undefined_move_tag@0@U_Range_checked_iterator_tag@0@@Z 1710a840 f i c_treebillboardrenderer.obj
 0002:0004c880       ??$_Copy_backward_opt@PAPAVCTreeBillboardRenderer@@PAPAV1@Urandom_access_iterator_tag@std@@@std@@YAPAPAVCTreeBillboardRenderer@@PAPAV1@00Urandom_access_iterator_tag@0@U_Scalar_ptr_iterator_tag@0@U_Range_checked_iterator_tag@0@@Z 1710a880 f i c_treebillboardrenderer.obj
 0002:0004c930       ??$_Fill_n@PAPAVCTreeBillboardRenderer@@IPAV1@@std@@YAXPAPAVCTreeBillboardRenderer@@IABQAV1@Urandom_access_iterator_tag@0@U_Range_checked_iterator_tag@0@@Z 1710a930 f i c_treebillboardrenderer.obj
 0002:0004c990       ??$unchecked_uninitialized_copy@PAPAVCTreeBillboardRenderer@@PAPAV1@V?$K2VectorAllocator@PAVCTreeBillboardRenderer@@@@@stdext@@YAPAPAVCTreeBillboardRenderer@@PAPAV1@00AAV?$K2VectorAllocator@PAVCTreeBillboardRenderer@@@@@Z 1710a990 f i c_treebillboardrenderer.obj
 0002:0004ca00       ??$_Fill_n@PAPAVCTreeBillboardRenderer@@IPAV1@@std@@YAXPAPAVCTreeBillboardRenderer@@IABQAV1@U_Range_checked_iterator_tag@0@@Z 1710aa00 f i c_treebillboardrenderer.obj
 0002:0004ca50       ??$_Uninit_copy@PAPAVCTreeBillboardRenderer@@PAPAV1@V?$K2VectorAllocator@PAVCTreeBillboardRenderer@@@@@std@@YAPAPAVCTreeBillboardRenderer@@PAPAV1@00AAV?$K2VectorAllocator@PAVCTreeBillboardRenderer@@@@U_Scalar_ptr_iterator_tag@0@U_Range_checked_iterator_tag@0@@Z 1710aa50 f i c_treebillboardrenderer.obj
 0002:0004caf0       ??0?$CPool@VCTreeBillboardRenderer@@@@QAE@II@Z 1710aaf0 f i c_treebillboardrenderer.obj
 0002:0004cbb0       ??0?$vector@PAVCTreeBillboardRenderer@@V?$K2VectorAllocator@PAVCTreeBillboardRenderer@@@@@@QAE@XZ 1710abb0 f i c_treebillboardrenderer.obj
 0002:0004cbe0       ??0?$vector@PAVCTreeBillboardRenderer@@V?$K2VectorAllocator@PAVCTreeBillboardRenderer@@@@@std@@QAE@XZ 1710abe0 f i c_treebillboardrenderer.obj
 0002:0004cc70       ??1?$_Vector_val@PAVCTreeBillboardRenderer@@V?$K2VectorAllocator@PAVCTreeBillboardRenderer@@@@@std@@QAE@XZ 1710ac70 f i c_treebillboardrenderer.obj
 0002:0004ccf0       ??1?$K2VectorAllocator@PAVCTreeBillboardRenderer@@@@QAE@XZ 1710acf0 f i c_treebillboardrenderer.obj
 0002:0004cd10       ?_Buy@?$vector@PAVCTreeBillboardRenderer@@V?$K2VectorAllocator@PAVCTreeBillboardRenderer@@@@@std@@IAE_NI@Z 1710ad10 f i c_treebillboardrenderer.obj
 0002:0004cdc0       ??0?$_Vector_val@PAVCTreeBillboardRenderer@@V?$K2VectorAllocator@PAVCTreeBillboardRenderer@@@@@std@@IAE@V?$K2VectorAllocator@PAVCTreeBillboardRenderer@@@@@Z 1710adc0 f i c_treebillboardrenderer.obj
 0002:0004ce60       ??0?$K2VectorAllocator@PAVCTreeBillboardRenderer@@@@QAE@XZ 1710ae60 f i c_treebillboardrenderer.obj
 0002:0004ce90       ??0?$K2VectorAllocator@PAVCTreeBillboardRenderer@@@@QAE@ABV0@@Z 1710ae90 f i c_treebillboardrenderer.obj
 0002:0004cec0       ??0?$allocator@PAVCTreeBillboardRenderer@@@std@@QAE@XZ 1710aec0 f i c_treebillboardrenderer.obj
 0002:0004cee0       ??0?$allocator@PAVCTreeBillboardRenderer@@@std@@QAE@ABV01@@Z 1710aee0 f i c_treebillboardrenderer.obj
 0002:0004cf00       ??1?$CPool@VCTreeBillboardRenderer@@@@QAE@XZ 1710af00 f i c_treebillboardrenderer.obj
 0002:0004cfb0       ??1?$vector@PAVCTreeBillboardRenderer@@V?$K2VectorAllocator@PAVCTreeBillboardRenderer@@@@@@QAE@XZ 1710afb0 f i c_treebillboardrenderer.obj
 0002:0004cfe0       ??1?$vector@PAVCTreeBillboardRenderer@@V?$K2VectorAllocator@PAVCTreeBillboardRenderer@@@@@std@@QAE@XZ 1710afe0 f i c_treebillboardrenderer.obj
 0002:0004d060       ?_Tidy@?$vector@PAVCTreeBillboardRenderer@@V?$K2VectorAllocator@PAVCTreeBillboardRenderer@@@@@std@@IAEXXZ 1710b060 f i c_treebillboardrenderer.obj
 0002:0004d100       ??2CTreeBranchRenderer@@SAPAXIPBD00F@Z 1710b100 f   c_treebranchrenderer.obj
 0002:0004d120       ??0CTreeBranchRenderer@@QAE@ABVCSceneEntity@@PBVCTreeModelDef@@ABU_D3DXMATRIXA16@@22@Z 1710b120 f   c_treebranchrenderer.obj
 0002:0004d250       ??0SLODData@@QAE@XZ        1710b250 f i c_treebranchrenderer.obj
 0002:0004d270       ??_GCTreeBranchRenderer@@UAEPAXI@Z 1710b270 f i c_treebranchrenderer.obj
 0002:0004d270       ??_ECTreeBranchRenderer@@UAEPAXI@Z 1710b270 f i c_treebranchrenderer.obj
 0002:0004d2c0       ??1CTreeBranchRenderer@@UAE@XZ 1710b2c0 f   c_treebranchrenderer.obj
 0002:0004d2f0       ?Setup@CTreeBranchRenderer@@UAEXW4EMaterialPhase@@@Z 1710b2f0 f   c_treebranchrenderer.obj
 0002:0004da10       ?HasBranchGeometry@CTreeModelDef@@QBE_NXZ 1710ba10 f i c_treebranchrenderer.obj
 0002:0004da50       ?HasBranchLOD@CTreeModelDef@@QBE_NH@Z 1710ba50 f i c_treebranchrenderer.obj
 0002:0004db30       ?GetBranchMaterial@CTreeModelDef@@QBEIXZ 1710bb30 f i c_treebranchrenderer.obj
 0002:0004db50       ?GetBranchGeometry@CTreeModelDef@@QBEABUSTreeGeometryBuffers@@H@Z 1710bb50 f i c_treebranchrenderer.obj
 0002:0004dc00       ??1const_iterator@?$_Tree@V?$_Tmap_traits@HUSTreeGeometryBuffers@@U?$less@H@std@@V?$K2MapAllocator@U?$pair@$$CBHUSTreeGeometryBuffers@@@std@@@@$0A@@std@@@std@@QAE@XZ 1710bc00 f i c_treebranchrenderer.obj
 0002:0004dc30       ??1?$_Bidit@U?$pair@$$CBHUSTreeGeometryBuffers@@@std@@HPBU12@ABU12@@std@@QAE@XZ 1710bc30 f i c_treebranchrenderer.obj
 0002:0004dc60       ?Render@CTreeBranchRenderer@@UAEXW4EMaterialPhase@@@Z 1710bc60 f   c_treebranchrenderer.obj
 0002:0004de90       ??A?$vector@HV?$K2VectorAllocator@H@@@std@@QBEABHI@Z 1710be90 f i c_treebranchrenderer.obj
 0002:0004dfb0       ?size@?$vector@PAUIDirect3DIndexBuffer9@@V?$K2VectorAllocator@PAUIDirect3DIndexBuffer9@@@@@std@@QBEIXZ 1710bfb0 f i c_treebranchrenderer.obj
 0002:0004e000       ??A?$vector@PAUIDirect3DIndexBuffer9@@V?$K2VectorAllocator@PAUIDirect3DIndexBuffer9@@@@@std@@QBEABQAUIDirect3DIndexBuffer9@@I@Z 1710c000 f i c_treebranchrenderer.obj
 0002:0004e120       ?end@?$_Tree@V?$_Tmap_traits@HUSTreeGeometryBuffers@@U?$less@H@std@@V?$K2MapAllocator@U?$pair@$$CBHUSTreeGeometryBuffers@@@std@@@@$0A@@std@@@std@@QBE?AVconst_iterator@12@XZ 1710c120 f i c_treebranchrenderer.obj
 0002:0004e170       ?empty@?$_Tree@V?$_Tmap_traits@HUSTreeGeometryBuffers@@U?$less@H@std@@V?$K2MapAllocator@U?$pair@$$CBHUSTreeGeometryBuffers@@@std@@@@$0A@@std@@@std@@QBE_NXZ 1710c170 f i c_treebranchrenderer.obj
 0002:0004e1a0       ?find@?$_Tree@V?$_Tmap_traits@HUSTreeGeometryBuffers@@U?$less@H@std@@V?$K2MapAllocator@U?$pair@$$CBHUSTreeGeometryBuffers@@@std@@@@$0A@@std@@@std@@QBE?AVconst_iterator@12@ABH@Z 1710c1a0 f i c_treebranchrenderer.obj
 0002:0004e380       ??Cconst_iterator@?$_Tree@V?$_Tmap_traits@HUSTreeGeometryBuffers@@U?$less@H@std@@V?$K2MapAllocator@U?$pair@$$CBHUSTreeGeometryBuffers@@@std@@@@$0A@@std@@@std@@QBEPBU?$pair@$$CBHUSTreeGeometryBuffers@@@2@XZ 1710c380 f i c_treebranchrenderer.obj
 0002:0004e3b0       ??9const_iterator@?$_Tree@V?$_Tmap_traits@HUSTreeGeometryBuffers@@U?$less@H@std@@V?$K2MapAllocator@U?$pair@$$CBHUSTreeGeometryBuffers@@@std@@@@$0A@@std@@@std@@QBE_NABV012@@Z 1710c3b0 f i c_treebranchrenderer.obj
 0002:0004e3f0       ??0const_iterator@?$_Tree@V?$_Tmap_traits@HUSTreeGeometryBuffers@@U?$less@H@std@@V?$K2MapAllocator@U?$pair@$$CBHUSTreeGeometryBuffers@@@std@@@@$0A@@std@@@std@@QAE@ABV012@@Z 1710c3f0 f i c_treebranchrenderer.obj
 0002:0004e430       ??0?$_Bidit@U?$pair@$$CBHUSTreeGeometryBuffers@@@std@@HPBU12@ABU12@@std@@QAE@ABU01@@Z 1710c430 f i c_treebranchrenderer.obj
 0002:0004e460       ?_Key@?$_Tree@V?$_Tmap_traits@HUSTreeGeometryBuffers@@U?$less@H@std@@V?$K2MapAllocator@U?$pair@$$CBHUSTreeGeometryBuffers@@@std@@@@$0A@@std@@@std@@KAABHPAU_Node@?$_Tree_nod@V?$_Tmap_traits@HUSTreeGeometryBuffers@@U?$less@H@std@@V?$K2MapAllocator@U?$pair@$$CBHUSTreeGeometryBuffers@@@std@@@@$0A@@std@@@2@@Z 1710c460 f i c_treebranchrenderer.obj
 0002:0004e490       ?size@?$_Tree@V?$_Tmap_traits@HUSTreeGeometryBuffers@@U?$less@H@std@@V?$K2MapAllocator@U?$pair@$$CBHUSTreeGeometryBuffers@@@std@@@@$0A@@std@@@std@@QBEIXZ 1710c490 f i c_treebranchrenderer.obj
 0002:0004e4b0       ?lower_bound@?$_Tree@V?$_Tmap_traits@HUSTreeGeometryBuffers@@U?$less@H@std@@V?$K2MapAllocator@U?$pair@$$CBHUSTreeGeometryBuffers@@@std@@@@$0A@@std@@@std@@QBE?AVconst_iterator@12@ABH@Z 1710c4b0 f i c_treebranchrenderer.obj
 0002:0004e510       ??0const_iterator@?$_Tree@V?$_Tmap_traits@HUSTreeGeometryBuffers@@U?$less@H@std@@V?$K2MapAllocator@U?$pair@$$CBHUSTreeGeometryBuffers@@@std@@@@$0A@@std@@@std@@QAE@PAU_Node@?$_Tree_nod@V?$_Tmap_traits@HUSTreeGeometryBuffers@@U?$less@H@std@@V?$K2MapAllocator@U?$pair@$$CBHUSTreeGeometryBuffers@@@std@@@@$0A@@std@@@2@PBV12@@Z 1710c510 f i c_treebranchrenderer.obj
 0002:0004e5a0       ??Dconst_iterator@?$_Tree@V?$_Tmap_traits@HUSTreeGeometryBuffers@@U?$less@H@std@@V?$K2MapAllocator@U?$pair@$$CBHUSTreeGeometryBuffers@@@std@@@@$0A@@std@@@std@@QBEABU?$pair@$$CBHUSTreeGeometryBuffers@@@2@XZ 1710c5a0 f i c_treebranchrenderer.obj
 0002:0004e660       ??8const_iterator@?$_Tree@V?$_Tmap_traits@HUSTreeGeometryBuffers@@U?$less@H@std@@V?$K2MapAllocator@U?$pair@$$CBHUSTreeGeometryBuffers@@@std@@@@$0A@@std@@@std@@QBE_NABV012@@Z 1710c660 f i c_treebranchrenderer.obj
 0002:0004e720       ?_Mynode@const_iterator@?$_Tree@V?$_Tmap_traits@HUSTreeGeometryBuffers@@U?$less@H@std@@V?$K2MapAllocator@U?$pair@$$CBHUSTreeGeometryBuffers@@@std@@@@$0A@@std@@@std@@QBEPAU_Node@?$_Tree_nod@V?$_Tmap_traits@HUSTreeGeometryBuffers@@U?$less@H@std@@V?$K2MapAllocator@U?$pair@$$CBHUSTreeGeometryBuffers@@@std@@@@$0A@@std@@@3@XZ 1710c720 f i c_treebranchrenderer.obj
 0002:0004e740       ??0?$_Bidit@U?$pair@$$CBHUSTreeGeometryBuffers@@@std@@HPBU12@ABU12@@std@@QAE@XZ 1710c740 f i c_treebranchrenderer.obj
 0002:0004e770       ?_Myval@?$_Tree@V?$_Tmap_traits@HUSTreeGeometryBuffers@@U?$less@H@std@@V?$K2MapAllocator@U?$pair@$$CBHUSTreeGeometryBuffers@@@std@@@@$0A@@std@@@std@@KAAAU?$pair@$$CBHUSTreeGeometryBuffers@@@2@PAU_Node@?$_Tree_nod@V?$_Tmap_traits@HUSTreeGeometryBuffers@@U?$less@H@std@@V?$K2MapAllocator@U?$pair@$$CBHUSTreeGeometryBuffers@@@std@@@@$0A@@std@@@2@@Z 1710c770 f i c_treebranchrenderer.obj
 0002:0004e790       ?_Lbound@?$_Tree@V?$_Tmap_traits@HUSTreeGeometryBuffers@@U?$less@H@std@@V?$K2MapAllocator@U?$pair@$$CBHUSTreeGeometryBuffers@@@std@@@@$0A@@std@@@std@@IBEPAU_Node@?$_Tree_nod@V?$_Tmap_traits@HUSTreeGeometryBuffers@@U?$less@H@std@@V?$K2MapAllocator@U?$pair@$$CBHUSTreeGeometryBuffers@@@std@@@@$0A@@std@@@2@ABH@Z 1710c790 f i c_treebranchrenderer.obj
 0002:0004e860       ?_Left@?$_Tree@V?$_Tmap_traits@HUSTreeGeometryBuffers@@U?$less@H@std@@V?$K2MapAllocator@U?$pair@$$CBHUSTreeGeometryBuffers@@@std@@@@$0A@@std@@@std@@KAAAPAU_Node@?$_Tree_nod@V?$_Tmap_traits@HUSTreeGeometryBuffers@@U?$less@H@std@@V?$K2MapAllocator@U?$pair@$$CBHUSTreeGeometryBuffers@@@std@@@@$0A@@std@@@2@PAU342@@Z 1710c860 f i c_treebranchrenderer.obj
 0002:0004e880       ?_Right@?$_Tree@V?$_Tmap_traits@HUSTreeGeometryBuffers@@U?$less@H@std@@V?$K2MapAllocator@U?$pair@$$CBHUSTreeGeometryBuffers@@@std@@@@$0A@@std@@@std@@KAAAPAU_Node@?$_Tree_nod@V?$_Tmap_traits@HUSTreeGeometryBuffers@@U?$less@H@std@@V?$K2MapAllocator@U?$pair@$$CBHUSTreeGeometryBuffers@@@std@@@@$0A@@std@@@2@PAU342@@Z 1710c880 f i c_treebranchrenderer.obj
 0002:0004e8a0       ?_Kfn@?$_Tmap_traits@HUSTreeGeometryBuffers@@U?$less@H@std@@V?$K2MapAllocator@U?$pair@$$CBHUSTreeGeometryBuffers@@@std@@@@$0A@@std@@SAABHABU?$pair@$$CBHUSTreeGeometryBuffers@@@2@@Z 1710c8a0 f i c_treebranchrenderer.obj
 0002:0004e8c0       ?_Isnil@?$_Tree@V?$_Tmap_traits@HUSTreeGeometryBuffers@@U?$less@H@std@@V?$K2MapAllocator@U?$pair@$$CBHUSTreeGeometryBuffers@@@std@@@@$0A@@std@@@std@@KAAADPAU_Node@?$_Tree_nod@V?$_Tmap_traits@HUSTreeGeometryBuffers@@U?$less@H@std@@V?$K2MapAllocator@U?$pair@$$CBHUSTreeGeometryBuffers@@@std@@@@$0A@@std@@@2@@Z 1710c8c0 f i c_treebranchrenderer.obj
 0002:0004e8e0       ?_Root@?$_Tree@V?$_Tmap_traits@HUSTreeGeometryBuffers@@U?$less@H@std@@V?$K2MapAllocator@U?$pair@$$CBHUSTreeGeometryBuffers@@@std@@@@$0A@@std@@@std@@IBEAAPAU_Node@?$_Tree_nod@V?$_Tmap_traits@HUSTreeGeometryBuffers@@U?$less@H@std@@V?$K2MapAllocator@U?$pair@$$CBHUSTreeGeometryBuffers@@@std@@@@$0A@@std@@@2@XZ 1710c8e0 f i c_treebranchrenderer.obj
 0002:0004e910       ?_Parent@?$_Tree@V?$_Tmap_traits@HUSTreeGeometryBuffers@@U?$less@H@std@@V?$K2MapAllocator@U?$pair@$$CBHUSTreeGeometryBuffers@@@std@@@@$0A@@std@@@std@@KAAAPAU_Node@?$_Tree_nod@V?$_Tmap_traits@HUSTreeGeometryBuffers@@U?$less@H@std@@V?$K2MapAllocator@U?$pair@$$CBHUSTreeGeometryBuffers@@@std@@@@$0A@@std@@@2@PAU342@@Z 1710c910 f i c_treebranchrenderer.obj
 0002:0004e930       ?Allocate@?$CPool@VCTreeBranchRenderer@@@@QAEPAVCTreeBranchRenderer@@XZ 1710c930 f i c_treebranchrenderer.obj
 0002:0004eac0       ??$_Debug_lt_pred@U?$less@H@std@@HH@std@@YA_NU?$less@H@0@ABH1PB_WI@Z 1710cac0 f i c_treebranchrenderer.obj
 0002:0004eb40       ??R?$less@H@std@@QBE_NABH0@Z 1710cb40 f i c_treebranchrenderer.obj
 0002:0004eb70       ?push_back@?$vector@PAVCTreeBranchRenderer@@V?$K2VectorAllocator@PAVCTreeBranchRenderer@@@@@std@@QAEXABQAVCTreeBranchRenderer@@@Z 1710cb70 f i c_treebranchrenderer.obj
 0002:0004ec20       ?capacity@?$vector@PAVCTreeBranchRenderer@@V?$K2VectorAllocator@PAVCTreeBranchRenderer@@@@@std@@QBEIXZ 1710cc20 f i c_treebranchrenderer.obj
 0002:0004ec70       ?size@?$vector@PAVCTreeBranchRenderer@@V?$K2VectorAllocator@PAVCTreeBranchRenderer@@@@@std@@QBEIXZ 1710cc70 f i c_treebranchrenderer.obj
 0002:0004ecc0       ?insert@?$vector@PAVCTreeBranchRenderer@@V?$K2VectorAllocator@PAVCTreeBranchRenderer@@@@@std@@QAE?AV?$_Vector_iterator@PAVCTreeBranchRenderer@@V?$K2VectorAllocator@PAVCTreeBranchRenderer@@@@@2@V32@ABQAVCTreeBranchRenderer@@@Z 1710ccc0 f i c_treebranchrenderer.obj
 0002:0004ee30       ?_Ufill@?$vector@PAVCTreeBranchRenderer@@V?$K2VectorAllocator@PAVCTreeBranchRenderer@@@@@std@@IAEPAPAVCTreeBranchRenderer@@PAPAV3@IABQAV3@@Z 1710ce30 f i c_treebranchrenderer.obj
 0002:0004ee80       ??0?$_Vector_iterator@PAVCTreeBranchRenderer@@V?$K2VectorAllocator@PAVCTreeBranchRenderer@@@@@std@@QAE@ABV01@@Z 1710ce80 f i c_treebranchrenderer.obj
 0002:0004eeb0       ??0?$_Vector_const_iterator@PAVCTreeBranchRenderer@@V?$K2VectorAllocator@PAVCTreeBranchRenderer@@@@@std@@QAE@ABV01@@Z 1710ceb0 f i c_treebranchrenderer.obj
 0002:0004eef0       ??0?$_Ranit@PAVCTreeBranchRenderer@@HPBQAV1@ABQAV1@@std@@QAE@ABU01@@Z 1710cef0 f i c_treebranchrenderer.obj
 0002:0004ef20       ?_Insert_n@?$vector@PAVCTreeBranchRenderer@@V?$K2VectorAllocator@PAVCTreeBranchRenderer@@@@@std@@IAEXV?$_Vector_iterator@PAVCTreeBranchRenderer@@V?$K2VectorAllocator@PAVCTreeBranchRenderer@@@@@2@IABQAVCTreeBranchRenderer@@@Z 1710cf20 f i c_treebranchrenderer.obj
 0002:0004f3d0       ?deallocate@?$K2VectorAllocator@PAVCTreeBranchRenderer@@@@QAEXPAPAVCTreeBranchRenderer@@I@Z 1710d3d0 f i c_treebranchrenderer.obj
 0002:0004f410       ??H?$_Vector_iterator@PAVCTreeBranchRenderer@@V?$K2VectorAllocator@PAVCTreeBranchRenderer@@@@@std@@QBE?AV01@H@Z 1710d410 f i c_treebranchrenderer.obj
 0002:0004f4c0       ??G?$_Vector_iterator@PAVCTreeBranchRenderer@@V?$K2VectorAllocator@PAVCTreeBranchRenderer@@@@@std@@QBEHABV?$_Vector_const_iterator@PAVCTreeBranchRenderer@@V?$K2VectorAllocator@PAVCTreeBranchRenderer@@@@@1@@Z 1710d4c0 f i c_treebranchrenderer.obj
 0002:0004f4f0       ?max_size@?$vector@PAVCTreeBranchRenderer@@V?$K2VectorAllocator@PAVCTreeBranchRenderer@@@@@std@@QBEIXZ 1710d4f0 f i c_treebranchrenderer.obj
 0002:0004f520       ?_Xlen@?$vector@PAVCTreeBranchRenderer@@V?$K2VectorAllocator@PAVCTreeBranchRenderer@@@@@std@@KAXXZ 1710d520 f i c_treebranchrenderer.obj
 0002:0004f5d0       ?allocate@?$K2VectorAllocator@PAVCTreeBranchRenderer@@@@QAEPAPAVCTreeBranchRenderer@@I@Z 1710d5d0 f i c_treebranchrenderer.obj
 0002:0004f620       ??Y?$_Vector_iterator@PAVCTreeBranchRenderer@@V?$K2VectorAllocator@PAVCTreeBranchRenderer@@@@@std@@QAEAAV01@H@Z 1710d620 f i c_treebranchrenderer.obj
 0002:0004f650       ??G?$_Vector_const_iterator@PAVCTreeBranchRenderer@@V?$K2VectorAllocator@PAVCTreeBranchRenderer@@@@@std@@QBEHABV01@@Z 1710d650 f i c_treebranchrenderer.obj
 0002:0004f690       ?max_size@?$allocator@PAVCTreeBranchRenderer@@@std@@QBEIXZ 1710d690 f i c_treebranchrenderer.obj
 0002:0004f6d0       ??Y?$_Vector_const_iterator@PAVCTreeBranchRenderer@@V?$K2VectorAllocator@PAVCTreeBranchRenderer@@@@@std@@QAEAAV01@H@Z 1710d6d0 f i c_treebranchrenderer.obj
 0002:0004f800       ??$unchecked_uninitialized_fill_n@PAPAVCTreeBranchRenderer@@IPAV1@V?$K2VectorAllocator@PAVCTreeBranchRenderer@@@@@stdext@@YAXPAPAVCTreeBranchRenderer@@IABQAV1@AAV?$K2VectorAllocator@PAVCTreeBranchRenderer@@@@@Z 1710d800 f i c_treebranchrenderer.obj
 0002:0004f860       ??$_Umove@PAPAVCTreeBranchRenderer@@@?$vector@PAVCTreeBranchRenderer@@V?$K2VectorAllocator@PAVCTreeBranchRenderer@@@@@std@@IAEPAPAVCTreeBranchRenderer@@PAPAV2@00@Z 1710d860 f i c_treebranchrenderer.obj
 0002:0004f8a0       ??$fill@PAPAVCTreeBranchRenderer@@PAV1@@std@@YAXPAPAVCTreeBranchRenderer@@0ABQAV1@@Z 1710d8a0 f i c_treebranchrenderer.obj
 0002:0004f8f0       ??$_Unchecked_move_backward@PAPAVCTreeBranchRenderer@@PAPAV1@@stdext@@YAPAPAVCTreeBranchRenderer@@PAPAV1@00@Z 1710d8f0 f i c_treebranchrenderer.obj
 0002:0004f980       ??$_Uninit_fill_n@PAPAVCTreeBranchRenderer@@IPAV1@V?$K2VectorAllocator@PAVCTreeBranchRenderer@@@@@std@@YAXPAPAVCTreeBranchRenderer@@IABQAV1@AAV?$K2VectorAllocator@PAVCTreeBranchRenderer@@@@U_Scalar_ptr_iterator_tag@0@U_Range_checked_iterator_tag@0@@Z 1710d980 f i c_treebranchrenderer.obj
 0002:0004f9b0       ??$_Unchecked_uninitialized_move@PAPAVCTreeBranchRenderer@@PAPAV1@V?$K2VectorAllocator@PAVCTreeBranchRenderer@@@@@stdext@@YAPAPAVCTreeBranchRenderer@@PAPAV1@00AAV?$K2VectorAllocator@PAVCTreeBranchRenderer@@@@@Z 1710d9b0 f i c_treebranchrenderer.obj
 0002:0004fa20       ??$_Fill@PAPAVCTreeBranchRenderer@@PAV1@@std@@YAXPAPAVCTreeBranchRenderer@@0ABQAV1@@Z 1710da20 f i c_treebranchrenderer.obj
 0002:0004fa80       ??$_Move_cat@PAPAVCTreeBranchRenderer@@@std@@YA?AU_Undefined_move_tag@0@ABQAPAVCTreeBranchRenderer@@@Z 1710da80 f i c_treebranchrenderer.obj
 0002:0004faa0       ??$_Move_backward_opt@PAPAVCTreeBranchRenderer@@PAPAV1@Urandom_access_iterator_tag@std@@U_Undefined_move_tag@3@@std@@YAPAPAVCTreeBranchRenderer@@PAPAV1@00Urandom_access_iterator_tag@0@U_Undefined_move_tag@0@U_Range_checked_iterator_tag@0@@Z 1710daa0 f i c_treebranchrenderer.obj
 0002:0004fb00       ??$unchecked_fill_n@PAPAVCTreeBranchRenderer@@IPAV1@@stdext@@YAXPAPAVCTreeBranchRenderer@@IABQAV1@@Z 1710db00 f i c_treebranchrenderer.obj
 0002:0004fb50       ??$_Uninit_move@PAPAVCTreeBranchRenderer@@PAPAV1@V?$K2VectorAllocator@PAVCTreeBranchRenderer@@@@U_Undefined_move_tag@std@@@std@@YAPAPAVCTreeBranchRenderer@@PAPAV1@00AAV?$K2VectorAllocator@PAVCTreeBranchRenderer@@@@U_Undefined_move_tag@0@U_Range_checked_iterator_tag@0@@Z 1710db50 f i c_treebranchrenderer.obj
 0002:0004fb90       ??$_Copy_backward_opt@PAPAVCTreeBranchRenderer@@PAPAV1@Urandom_access_iterator_tag@std@@@std@@YAPAPAVCTreeBranchRenderer@@PAPAV1@00Urandom_access_iterator_tag@0@U_Scalar_ptr_iterator_tag@0@U_Range_checked_iterator_tag@0@@Z 1710db90 f i c_treebranchrenderer.obj
 0002:0004fc40       ??$_Fill_n@PAPAVCTreeBranchRenderer@@IPAV1@@std@@YAXPAPAVCTreeBranchRenderer@@IABQAV1@Urandom_access_iterator_tag@0@U_Range_checked_iterator_tag@0@@Z 1710dc40 f i c_treebranchrenderer.obj
 0002:0004fca0       ??$unchecked_uninitialized_copy@PAPAVCTreeBranchRenderer@@PAPAV1@V?$K2VectorAllocator@PAVCTreeBranchRenderer@@@@@stdext@@YAPAPAVCTreeBranchRenderer@@PAPAV1@00AAV?$K2VectorAllocator@PAVCTreeBranchRenderer@@@@@Z 1710dca0 f i c_treebranchrenderer.obj
 0002:0004fd10       ??$_Fill_n@PAPAVCTreeBranchRenderer@@IPAV1@@std@@YAXPAPAVCTreeBranchRenderer@@IABQAV1@U_Range_checked_iterator_tag@0@@Z 1710dd10 f i c_treebranchrenderer.obj
 0002:0004fd60       ??$_Uninit_copy@PAPAVCTreeBranchRenderer@@PAPAV1@V?$K2VectorAllocator@PAVCTreeBranchRenderer@@@@@std@@YAPAPAVCTreeBranchRenderer@@PAPAV1@00AAV?$K2VectorAllocator@PAVCTreeBranchRenderer@@@@U_Scalar_ptr_iterator_tag@0@U_Range_checked_iterator_tag@0@@Z 1710dd60 f i c_treebranchrenderer.obj
 0002:0004fe00       ??0?$CPool@VCTreeBranchRenderer@@@@QAE@II@Z 1710de00 f i c_treebranchrenderer.obj
 0002:0004fec0       ??0?$vector@PAVCTreeBranchRenderer@@V?$K2VectorAllocator@PAVCTreeBranchRenderer@@@@@@QAE@XZ 1710dec0 f i c_treebranchrenderer.obj
 0002:0004fef0       ??0?$vector@PAVCTreeBranchRenderer@@V?$K2VectorAllocator@PAVCTreeBranchRenderer@@@@@std@@QAE@XZ 1710def0 f i c_treebranchrenderer.obj
 0002:0004ff80       ??1?$_Vector_val@PAVCTreeBranchRenderer@@V?$K2VectorAllocator@PAVCTreeBranchRenderer@@@@@std@@QAE@XZ 1710df80 f i c_treebranchrenderer.obj
 0002:00050000       ??1?$K2VectorAllocator@PAVCTreeBranchRenderer@@@@QAE@XZ 1710e000 f i c_treebranchrenderer.obj
 0002:00050020       ?_Buy@?$vector@PAVCTreeBranchRenderer@@V?$K2VectorAllocator@PAVCTreeBranchRenderer@@@@@std@@IAE_NI@Z 1710e020 f i c_treebranchrenderer.obj
 0002:000500d0       ??0?$_Vector_val@PAVCTreeBranchRenderer@@V?$K2VectorAllocator@PAVCTreeBranchRenderer@@@@@std@@IAE@V?$K2VectorAllocator@PAVCTreeBranchRenderer@@@@@Z 1710e0d0 f i c_treebranchrenderer.obj
 0002:00050170       ??0?$K2VectorAllocator@PAVCTreeBranchRenderer@@@@QAE@XZ 1710e170 f i c_treebranchrenderer.obj
 0002:000501a0       ??0?$K2VectorAllocator@PAVCTreeBranchRenderer@@@@QAE@ABV0@@Z 1710e1a0 f i c_treebranchrenderer.obj
 0002:000501d0       ??0?$allocator@PAVCTreeBranchRenderer@@@std@@QAE@XZ 1710e1d0 f i c_treebranchrenderer.obj
 0002:000501f0       ??0?$allocator@PAVCTreeBranchRenderer@@@std@@QAE@ABV01@@Z 1710e1f0 f i c_treebranchrenderer.obj
 0002:00050210       ??1?$CPool@VCTreeBranchRenderer@@@@QAE@XZ 1710e210 f i c_treebranchrenderer.obj
 0002:000502c0       ??1?$vector@PAVCTreeBranchRenderer@@V?$K2VectorAllocator@PAVCTreeBranchRenderer@@@@@@QAE@XZ 1710e2c0 f i c_treebranchrenderer.obj
 0002:000502f0       ??1?$vector@PAVCTreeBranchRenderer@@V?$K2VectorAllocator@PAVCTreeBranchRenderer@@@@@std@@QAE@XZ 1710e2f0 f i c_treebranchrenderer.obj
 0002:00050370       ?_Tidy@?$vector@PAVCTreeBranchRenderer@@V?$K2VectorAllocator@PAVCTreeBranchRenderer@@@@@std@@IAEXXZ 1710e370 f i c_treebranchrenderer.obj
 0002:00050410       ??2CTreeFrondRenderer@@SAPAXIPBD00F@Z 1710e410 f   c_treefrondrenderer.obj
 0002:00050430       ??0CTreeFrondRenderer@@QAE@ABVCSceneEntity@@PBVCTreeModelDef@@ABU_D3DXMATRIXA16@@22@Z 1710e430 f   c_treefrondrenderer.obj
 0002:00050560       ??_GCTreeFrondRenderer@@UAEPAXI@Z 1710e560 f i c_treefrondrenderer.obj
 0002:00050560       ??_ECTreeFrondRenderer@@UAEPAXI@Z 1710e560 f i c_treefrondrenderer.obj
 0002:000505b0       ??1CTreeFrondRenderer@@UAE@XZ 1710e5b0 f   c_treefrondrenderer.obj
 0002:000505e0       ?Setup@CTreeFrondRenderer@@UAEXW4EMaterialPhase@@@Z 1710e5e0 f   c_treefrondrenderer.obj
 0002:00050d10       ?HasFrondGeometry@CTreeModelDef@@QBE_NXZ 1710ed10 f i c_treefrondrenderer.obj
 0002:00050d50       ?HasFrondLOD@CTreeModelDef@@QBE_NH@Z 1710ed50 f i c_treefrondrenderer.obj
 0002:00050e30       ?GetFrondMaterial@CTreeModelDef@@QBEIXZ 1710ee30 f i c_treefrondrenderer.obj
 0002:00050e60       ?GetFrondGeometry@CTreeModelDef@@QBEABUSTreeGeometryBuffers@@H@Z 1710ee60 f i c_treefrondrenderer.obj
 0002:00050f10       ?Render@CTreeFrondRenderer@@UAEXW4EMaterialPhase@@@Z 1710ef10 f   c_treefrondrenderer.obj
 0002:00051140       ??A?$vector@IV?$K2VectorAllocator@I@@@std@@QBEABII@Z 1710f140 f i c_treefrondrenderer.obj
 0002:00051260       ?size@?$vector@IV?$K2VectorAllocator@I@@@std@@QBEIXZ 1710f260 f i c_treefrondrenderer.obj
 0002:000512b0       ?Allocate@?$CPool@VCTreeFrondRenderer@@@@QAEPAVCTreeFrondRenderer@@XZ 1710f2b0 f i c_treefrondrenderer.obj
 0002:00051440       ?push_back@?$vector@PAVCTreeFrondRenderer@@V?$K2VectorAllocator@PAVCTreeFrondRenderer@@@@@std@@QAEXABQAVCTreeFrondRenderer@@@Z 1710f440 f i c_treefrondrenderer.obj
 0002:000514f0       ?capacity@?$vector@PAVCTreeFrondRenderer@@V?$K2VectorAllocator@PAVCTreeFrondRenderer@@@@@std@@QBEIXZ 1710f4f0 f i c_treefrondrenderer.obj
 0002:00051540       ?size@?$vector@PAVCTreeFrondRenderer@@V?$K2VectorAllocator@PAVCTreeFrondRenderer@@@@@std@@QBEIXZ 1710f540 f i c_treefrondrenderer.obj
 0002:00051590       ?insert@?$vector@PAVCTreeFrondRenderer@@V?$K2VectorAllocator@PAVCTreeFrondRenderer@@@@@std@@QAE?AV?$_Vector_iterator@PAVCTreeFrondRenderer@@V?$K2VectorAllocator@PAVCTreeFrondRenderer@@@@@2@V32@ABQAVCTreeFrondRenderer@@@Z 1710f590 f i c_treefrondrenderer.obj
 0002:00051700       ?_Ufill@?$vector@PAVCTreeFrondRenderer@@V?$K2VectorAllocator@PAVCTreeFrondRenderer@@@@@std@@IAEPAPAVCTreeFrondRenderer@@PAPAV3@IABQAV3@@Z 1710f700 f i c_treefrondrenderer.obj
 0002:00051750       ??0?$_Vector_iterator@PAVCTreeFrondRenderer@@V?$K2VectorAllocator@PAVCTreeFrondRenderer@@@@@std@@QAE@ABV01@@Z 1710f750 f i c_treefrondrenderer.obj
 0002:00051780       ??0?$_Vector_const_iterator@PAVCTreeFrondRenderer@@V?$K2VectorAllocator@PAVCTreeFrondRenderer@@@@@std@@QAE@ABV01@@Z 1710f780 f i c_treefrondrenderer.obj
 0002:000517c0       ??0?$_Ranit@PAVCTreeFrondRenderer@@HPBQAV1@ABQAV1@@std@@QAE@ABU01@@Z 1710f7c0 f i c_treefrondrenderer.obj
 0002:000517f0       ?_Insert_n@?$vector@PAVCTreeFrondRenderer@@V?$K2VectorAllocator@PAVCTreeFrondRenderer@@@@@std@@IAEXV?$_Vector_iterator@PAVCTreeFrondRenderer@@V?$K2VectorAllocator@PAVCTreeFrondRenderer@@@@@2@IABQAVCTreeFrondRenderer@@@Z 1710f7f0 f i c_treefrondrenderer.obj
 0002:00051ca0       ?deallocate@?$K2VectorAllocator@PAVCTreeFrondRenderer@@@@QAEXPAPAVCTreeFrondRenderer@@I@Z 1710fca0 f i c_treefrondrenderer.obj
 0002:00051ce0       ??H?$_Vector_iterator@PAVCTreeFrondRenderer@@V?$K2VectorAllocator@PAVCTreeFrondRenderer@@@@@std@@QBE?AV01@H@Z 1710fce0 f i c_treefrondrenderer.obj
 0002:00051d90       ??G?$_Vector_iterator@PAVCTreeFrondRenderer@@V?$K2VectorAllocator@PAVCTreeFrondRenderer@@@@@std@@QBEHABV?$_Vector_const_iterator@PAVCTreeFrondRenderer@@V?$K2VectorAllocator@PAVCTreeFrondRenderer@@@@@1@@Z 1710fd90 f i c_treefrondrenderer.obj
 0002:00051dc0       ?max_size@?$vector@PAVCTreeFrondRenderer@@V?$K2VectorAllocator@PAVCTreeFrondRenderer@@@@@std@@QBEIXZ 1710fdc0 f i c_treefrondrenderer.obj
 0002:00051df0       ?_Xlen@?$vector@PAVCTreeFrondRenderer@@V?$K2VectorAllocator@PAVCTreeFrondRenderer@@@@@std@@KAXXZ 1710fdf0 f i c_treefrondrenderer.obj
 0002:00051ea0       ?allocate@?$K2VectorAllocator@PAVCTreeFrondRenderer@@@@QAEPAPAVCTreeFrondRenderer@@I@Z 1710fea0 f i c_treefrondrenderer.obj
 0002:00051ef0       ??Y?$_Vector_iterator@PAVCTreeFrondRenderer@@V?$K2VectorAllocator@PAVCTreeFrondRenderer@@@@@std@@QAEAAV01@H@Z 1710fef0 f i c_treefrondrenderer.obj
 0002:00051f20       ??G?$_Vector_const_iterator@PAVCTreeFrondRenderer@@V?$K2VectorAllocator@PAVCTreeFrondRenderer@@@@@std@@QBEHABV01@@Z 1710ff20 f i c_treefrondrenderer.obj
 0002:00051f60       ?max_size@?$allocator@PAVCTreeFrondRenderer@@@std@@QBEIXZ 1710ff60 f i c_treefrondrenderer.obj
 0002:00051fa0       ??Y?$_Vector_const_iterator@PAVCTreeFrondRenderer@@V?$K2VectorAllocator@PAVCTreeFrondRenderer@@@@@std@@QAEAAV01@H@Z 1710ffa0 f i c_treefrondrenderer.obj
 0002:000520d0       ??$unchecked_uninitialized_fill_n@PAPAVCTreeFrondRenderer@@IPAV1@V?$K2VectorAllocator@PAVCTreeFrondRenderer@@@@@stdext@@YAXPAPAVCTreeFrondRenderer@@IABQAV1@AAV?$K2VectorAllocator@PAVCTreeFrondRenderer@@@@@Z 171100d0 f i c_treefrondrenderer.obj
 0002:00052130       ??$_Umove@PAPAVCTreeFrondRenderer@@@?$vector@PAVCTreeFrondRenderer@@V?$K2VectorAllocator@PAVCTreeFrondRenderer@@@@@std@@IAEPAPAVCTreeFrondRenderer@@PAPAV2@00@Z 17110130 f i c_treefrondrenderer.obj
 0002:00052170       ??$fill@PAPAVCTreeFrondRenderer@@PAV1@@std@@YAXPAPAVCTreeFrondRenderer@@0ABQAV1@@Z 17110170 f i c_treefrondrenderer.obj
 0002:000521c0       ??$_Unchecked_move_backward@PAPAVCTreeFrondRenderer@@PAPAV1@@stdext@@YAPAPAVCTreeFrondRenderer@@PAPAV1@00@Z 171101c0 f i c_treefrondrenderer.obj
 0002:00052250       ??$_Uninit_fill_n@PAPAVCTreeFrondRenderer@@IPAV1@V?$K2VectorAllocator@PAVCTreeFrondRenderer@@@@@std@@YAXPAPAVCTreeFrondRenderer@@IABQAV1@AAV?$K2VectorAllocator@PAVCTreeFrondRenderer@@@@U_Scalar_ptr_iterator_tag@0@U_Range_checked_iterator_tag@0@@Z 17110250 f i c_treefrondrenderer.obj
 0002:00052280       ??$_Unchecked_uninitialized_move@PAPAVCTreeFrondRenderer@@PAPAV1@V?$K2VectorAllocator@PAVCTreeFrondRenderer@@@@@stdext@@YAPAPAVCTreeFrondRenderer@@PAPAV1@00AAV?$K2VectorAllocator@PAVCTreeFrondRenderer@@@@@Z 17110280 f i c_treefrondrenderer.obj
 0002:000522f0       ??$_Fill@PAPAVCTreeFrondRenderer@@PAV1@@std@@YAXPAPAVCTreeFrondRenderer@@0ABQAV1@@Z 171102f0 f i c_treefrondrenderer.obj
 0002:00052350       ??$_Move_cat@PAPAVCTreeFrondRenderer@@@std@@YA?AU_Undefined_move_tag@0@ABQAPAVCTreeFrondRenderer@@@Z 17110350 f i c_treefrondrenderer.obj
 0002:00052370       ??$_Move_backward_opt@PAPAVCTreeFrondRenderer@@PAPAV1@Urandom_access_iterator_tag@std@@U_Undefined_move_tag@3@@std@@YAPAPAVCTreeFrondRenderer@@PAPAV1@00Urandom_access_iterator_tag@0@U_Undefined_move_tag@0@U_Range_checked_iterator_tag@0@@Z 17110370 f i c_treefrondrenderer.obj
 0002:000523d0       ??$unchecked_fill_n@PAPAVCTreeFrondRenderer@@IPAV1@@stdext@@YAXPAPAVCTreeFrondRenderer@@IABQAV1@@Z 171103d0 f i c_treefrondrenderer.obj
 0002:00052420       ??$_Uninit_move@PAPAVCTreeFrondRenderer@@PAPAV1@V?$K2VectorAllocator@PAVCTreeFrondRenderer@@@@U_Undefined_move_tag@std@@@std@@YAPAPAVCTreeFrondRenderer@@PAPAV1@00AAV?$K2VectorAllocator@PAVCTreeFrondRenderer@@@@U_Undefined_move_tag@0@U_Range_checked_iterator_tag@0@@Z 17110420 f i c_treefrondrenderer.obj
 0002:00052460       ??$_Copy_backward_opt@PAPAVCTreeFrondRenderer@@PAPAV1@Urandom_access_iterator_tag@std@@@std@@YAPAPAVCTreeFrondRenderer@@PAPAV1@00Urandom_access_iterator_tag@0@U_Scalar_ptr_iterator_tag@0@U_Range_checked_iterator_tag@0@@Z 17110460 f i c_treefrondrenderer.obj
 0002:00052510       ??$_Fill_n@PAPAVCTreeFrondRenderer@@IPAV1@@std@@YAXPAPAVCTreeFrondRenderer@@IABQAV1@Urandom_access_iterator_tag@0@U_Range_checked_iterator_tag@0@@Z 17110510 f i c_treefrondrenderer.obj
 0002:00052570       ??$unchecked_uninitialized_copy@PAPAVCTreeFrondRenderer@@PAPAV1@V?$K2VectorAllocator@PAVCTreeFrondRenderer@@@@@stdext@@YAPAPAVCTreeFrondRenderer@@PAPAV1@00AAV?$K2VectorAllocator@PAVCTreeFrondRenderer@@@@@Z 17110570 f i c_treefrondrenderer.obj
 0002:000525e0       ??$_Fill_n@PAPAVCTreeFrondRenderer@@IPAV1@@std@@YAXPAPAVCTreeFrondRenderer@@IABQAV1@U_Range_checked_iterator_tag@0@@Z 171105e0 f i c_treefrondrenderer.obj
 0002:00052630       ??$_Uninit_copy@PAPAVCTreeFrondRenderer@@PAPAV1@V?$K2VectorAllocator@PAVCTreeFrondRenderer@@@@@std@@YAPAPAVCTreeFrondRenderer@@PAPAV1@00AAV?$K2VectorAllocator@PAVCTreeFrondRenderer@@@@U_Scalar_ptr_iterator_tag@0@U_Range_checked_iterator_tag@0@@Z 17110630 f i c_treefrondrenderer.obj
 0002:000526d0       ??0?$CPool@VCTreeFrondRenderer@@@@QAE@II@Z 171106d0 f i c_treefrondrenderer.obj
 0002:00052790       ??0?$vector@PAVCTreeFrondRenderer@@V?$K2VectorAllocator@PAVCTreeFrondRenderer@@@@@@QAE@XZ 17110790 f i c_treefrondrenderer.obj
 0002:000527c0       ??0?$vector@PAVCTreeFrondRenderer@@V?$K2VectorAllocator@PAVCTreeFrondRenderer@@@@@std@@QAE@XZ 171107c0 f i c_treefrondrenderer.obj
 0002:00052850       ??1?$_Vector_val@PAVCTreeFrondRenderer@@V?$K2VectorAllocator@PAVCTreeFrondRenderer@@@@@std@@QAE@XZ 17110850 f i c_treefrondrenderer.obj
 0002:000528d0       ??1?$K2VectorAllocator@PAVCTreeFrondRenderer@@@@QAE@XZ 171108d0 f i c_treefrondrenderer.obj
 0002:000528f0       ?_Buy@?$vector@PAVCTreeFrondRenderer@@V?$K2VectorAllocator@PAVCTreeFrondRenderer@@@@@std@@IAE_NI@Z 171108f0 f i c_treefrondrenderer.obj
 0002:000529a0       ??0?$_Vector_val@PAVCTreeFrondRenderer@@V?$K2VectorAllocator@PAVCTreeFrondRenderer@@@@@std@@IAE@V?$K2VectorAllocator@PAVCTreeFrondRenderer@@@@@Z 171109a0 f i c_treefrondrenderer.obj
 0002:00052a40       ??0?$K2VectorAllocator@PAVCTreeFrondRenderer@@@@QAE@XZ 17110a40 f i c_treefrondrenderer.obj
 0002:00052a70       ??0?$K2VectorAllocator@PAVCTreeFrondRenderer@@@@QAE@ABV0@@Z 17110a70 f i c_treefrondrenderer.obj
 0002:00052aa0       ??0?$allocator@PAVCTreeFrondRenderer@@@std@@QAE@XZ 17110aa0 f i c_treefrondrenderer.obj
 0002:00052ac0       ??0?$allocator@PAVCTreeFrondRenderer@@@std@@QAE@ABV01@@Z 17110ac0 f i c_treefrondrenderer.obj
 0002:00052ae0       ??1?$CPool@VCTreeFrondRenderer@@@@QAE@XZ 17110ae0 f i c_treefrondrenderer.obj
 0002:00052b90       ??1?$vector@PAVCTreeFrondRenderer@@V?$K2VectorAllocator@PAVCTreeFrondRenderer@@@@@@QAE@XZ 17110b90 f i c_treefrondrenderer.obj
 0002:00052bc0       ??1?$vector@PAVCTreeFrondRenderer@@V?$K2VectorAllocator@PAVCTreeFrondRenderer@@@@@std@@QAE@XZ 17110bc0 f i c_treefrondrenderer.obj
 0002:00052c40       ?_Tidy@?$vector@PAVCTreeFrondRenderer@@V?$K2VectorAllocator@PAVCTreeFrondRenderer@@@@@std@@IAEXXZ 17110c40 f i c_treefrondrenderer.obj
 0002:00052ce0       ??2CTreeLeafRenderer@@SAPAXIPBD00F@Z 17110ce0 f   c_treeleafrenderer.obj
 0002:00052d00       ??0CTreeLeafRenderer@@QAE@ABVCSceneEntity@@PBVCTreeModelDef@@ABU_D3DXMATRIXA16@@22@Z 17110d00 f   c_treeleafrenderer.obj
 0002:00052ef0       ??_ECTreeLeafRenderer@@UAEPAXI@Z 17110ef0 f i c_treeleafrenderer.obj
 0002:00052ef0       ??_GCTreeLeafRenderer@@UAEPAXI@Z 17110ef0 f i c_treeleafrenderer.obj
 0002:00052f40       ??1CTreeLeafRenderer@@UAE@XZ 17110f40 f   c_treeleafrenderer.obj
 0002:00052f70       ?Setup@CTreeLeafRenderer@@UAEXW4EMaterialPhase@@@Z 17110f70 f   c_treeleafrenderer.obj
 0002:00053690       ?HasLeafGeometry@CTreeModelDef@@QBE_NXZ 17111690 f i c_treeleafrenderer.obj
 0002:000536d0       ?GetLeafMaterial@CTreeModelDef@@QBEIXZ 171116d0 f i c_treeleafrenderer.obj
 0002:00053700       ?GetLeafGeometry@CTreeModelDef@@QBEABUSTreeGeometryBuffers@@H@Z 17111700 f i c_treeleafrenderer.obj
 0002:000537b0       ?Render@CTreeLeafRenderer@@UAEXW4EMaterialPhase@@@Z 171117b0 f   c_treeleafrenderer.obj
 0002:00053b00       ?Copy@CMemManager@@SAPAXPAXPBXI@Z 17111b00 f i c_treeleafrenderer.obj
 0002:00053b30       ?Allocate@?$CPool@VCTreeLeafRenderer@@@@QAEPAVCTreeLeafRenderer@@XZ 17111b30 f i c_treeleafrenderer.obj
 0002:00053cc0       ?push_back@?$vector@PAVCTreeLeafRenderer@@V?$K2VectorAllocator@PAVCTreeLeafRenderer@@@@@std@@QAEXABQAVCTreeLeafRenderer@@@Z 17111cc0 f i c_treeleafrenderer.obj
 0002:00053d70       ?capacity@?$vector@PAVCTreeLeafRenderer@@V?$K2VectorAllocator@PAVCTreeLeafRenderer@@@@@std@@QBEIXZ 17111d70 f i c_treeleafrenderer.obj
 0002:00053dc0       ?size@?$vector@PAVCTreeLeafRenderer@@V?$K2VectorAllocator@PAVCTreeLeafRenderer@@@@@std@@QBEIXZ 17111dc0 f i c_treeleafrenderer.obj
 0002:00053e10       ?insert@?$vector@PAVCTreeLeafRenderer@@V?$K2VectorAllocator@PAVCTreeLeafRenderer@@@@@std@@QAE?AV?$_Vector_iterator@PAVCTreeLeafRenderer@@V?$K2VectorAllocator@PAVCTreeLeafRenderer@@@@@2@V32@ABQAVCTreeLeafRenderer@@@Z 17111e10 f i c_treeleafrenderer.obj
 0002:00053f80       ?_Ufill@?$vector@PAVCTreeLeafRenderer@@V?$K2VectorAllocator@PAVCTreeLeafRenderer@@@@@std@@IAEPAPAVCTreeLeafRenderer@@PAPAV3@IABQAV3@@Z 17111f80 f i c_treeleafrenderer.obj
 0002:00053fd0       ??0?$_Vector_iterator@PAVCTreeLeafRenderer@@V?$K2VectorAllocator@PAVCTreeLeafRenderer@@@@@std@@QAE@ABV01@@Z 17111fd0 f i c_treeleafrenderer.obj
 0002:00054000       ??0?$_Vector_const_iterator@PAVCTreeLeafRenderer@@V?$K2VectorAllocator@PAVCTreeLeafRenderer@@@@@std@@QAE@ABV01@@Z 17112000 f i c_treeleafrenderer.obj
 0002:00054040       ??0?$_Ranit@PAVCTreeLeafRenderer@@HPBQAV1@ABQAV1@@std@@QAE@ABU01@@Z 17112040 f i c_treeleafrenderer.obj
 0002:00054070       ?_Insert_n@?$vector@PAVCTreeLeafRenderer@@V?$K2VectorAllocator@PAVCTreeLeafRenderer@@@@@std@@IAEXV?$_Vector_iterator@PAVCTreeLeafRenderer@@V?$K2VectorAllocator@PAVCTreeLeafRenderer@@@@@2@IABQAVCTreeLeafRenderer@@@Z 17112070 f i c_treeleafrenderer.obj
 0002:00054520       ?deallocate@?$K2VectorAllocator@PAVCTreeLeafRenderer@@@@QAEXPAPAVCTreeLeafRenderer@@I@Z 17112520 f i c_treeleafrenderer.obj
 0002:00054560       ??H?$_Vector_iterator@PAVCTreeLeafRenderer@@V?$K2VectorAllocator@PAVCTreeLeafRenderer@@@@@std@@QBE?AV01@H@Z 17112560 f i c_treeleafrenderer.obj
 0002:00054610       ??G?$_Vector_iterator@PAVCTreeLeafRenderer@@V?$K2VectorAllocator@PAVCTreeLeafRenderer@@@@@std@@QBEHABV?$_Vector_const_iterator@PAVCTreeLeafRenderer@@V?$K2VectorAllocator@PAVCTreeLeafRenderer@@@@@1@@Z 17112610 f i c_treeleafrenderer.obj
 0002:00054640       ?max_size@?$vector@PAVCTreeLeafRenderer@@V?$K2VectorAllocator@PAVCTreeLeafRenderer@@@@@std@@QBEIXZ 17112640 f i c_treeleafrenderer.obj
 0002:00054670       ?_Xlen@?$vector@PAVCTreeLeafRenderer@@V?$K2VectorAllocator@PAVCTreeLeafRenderer@@@@@std@@KAXXZ 17112670 f i c_treeleafrenderer.obj
 0002:00054720       ?allocate@?$K2VectorAllocator@PAVCTreeLeafRenderer@@@@QAEPAPAVCTreeLeafRenderer@@I@Z 17112720 f i c_treeleafrenderer.obj
 0002:00054770       ??Y?$_Vector_iterator@PAVCTreeLeafRenderer@@V?$K2VectorAllocator@PAVCTreeLeafRenderer@@@@@std@@QAEAAV01@H@Z 17112770 f i c_treeleafrenderer.obj
 0002:000547a0       ??G?$_Vector_const_iterator@PAVCTreeLeafRenderer@@V?$K2VectorAllocator@PAVCTreeLeafRenderer@@@@@std@@QBEHABV01@@Z 171127a0 f i c_treeleafrenderer.obj
 0002:000547e0       ?max_size@?$allocator@PAVCTreeLeafRenderer@@@std@@QBEIXZ 171127e0 f i c_treeleafrenderer.obj
 0002:00054820       ??Y?$_Vector_const_iterator@PAVCTreeLeafRenderer@@V?$K2VectorAllocator@PAVCTreeLeafRenderer@@@@@std@@QAEAAV01@H@Z 17112820 f i c_treeleafrenderer.obj
 0002:00054950       ??0?$basic_string@DU?$char_traits@D@std@@V?$K2StringAllocator@D@@@std@@QAE@PBD@Z 17112950 f i c_treeleafrenderer.obj
 0002:00054a00       ??1?$basic_string@DU?$char_traits@D@std@@V?$K2StringAllocator@D@@@std@@QAE@XZ 17112a00 f i c_treeleafrenderer.obj
 0002:00054a80       ??$unchecked_uninitialized_fill_n@PAPAVCTreeLeafRenderer@@IPAV1@V?$K2VectorAllocator@PAVCTreeLeafRenderer@@@@@stdext@@YAXPAPAVCTreeLeafRenderer@@IABQAV1@AAV?$K2VectorAllocator@PAVCTreeLeafRenderer@@@@@Z 17112a80 f i c_treeleafrenderer.obj
 0002:00054ae0       ??$_Umove@PAPAVCTreeLeafRenderer@@@?$vector@PAVCTreeLeafRenderer@@V?$K2VectorAllocator@PAVCTreeLeafRenderer@@@@@std@@IAEPAPAVCTreeLeafRenderer@@PAPAV2@00@Z 17112ae0 f i c_treeleafrenderer.obj
 0002:00054b20       ??$fill@PAPAVCTreeLeafRenderer@@PAV1@@std@@YAXPAPAVCTreeLeafRenderer@@0ABQAV1@@Z 17112b20 f i c_treeleafrenderer.obj
 0002:00054b70       ??$_Unchecked_move_backward@PAPAVCTreeLeafRenderer@@PAPAV1@@stdext@@YAPAPAVCTreeLeafRenderer@@PAPAV1@00@Z 17112b70 f i c_treeleafrenderer.obj
 0002:00054c00       ??1?$_String_val@DV?$K2StringAllocator@D@@@std@@QAE@XZ 17112c00 f i c_treeleafrenderer.obj
 0002:00054c80       ??$_Uninit_fill_n@PAPAVCTreeLeafRenderer@@IPAV1@V?$K2VectorAllocator@PAVCTreeLeafRenderer@@@@@std@@YAXPAPAVCTreeLeafRenderer@@IABQAV1@AAV?$K2VectorAllocator@PAVCTreeLeafRenderer@@@@U_Scalar_ptr_iterator_tag@0@U_Range_checked_iterator_tag@0@@Z 17112c80 f i c_treeleafrenderer.obj
 0002:00054cb0       ??$_Unchecked_uninitialized_move@PAPAVCTreeLeafRenderer@@PAPAV1@V?$K2VectorAllocator@PAVCTreeLeafRenderer@@@@@stdext@@YAPAPAVCTreeLeafRenderer@@PAPAV1@00AAV?$K2VectorAllocator@PAVCTreeLeafRenderer@@@@@Z 17112cb0 f i c_treeleafrenderer.obj
 0002:00054d20       ??$_Fill@PAPAVCTreeLeafRenderer@@PAV1@@std@@YAXPAPAVCTreeLeafRenderer@@0ABQAV1@@Z 17112d20 f i c_treeleafrenderer.obj
 0002:00054d80       ??$_Move_cat@PAPAVCTreeLeafRenderer@@@std@@YA?AU_Undefined_move_tag@0@ABQAPAVCTreeLeafRenderer@@@Z 17112d80 f i c_treeleafrenderer.obj
 0002:00054da0       ??$_Move_backward_opt@PAPAVCTreeLeafRenderer@@PAPAV1@Urandom_access_iterator_tag@std@@U_Undefined_move_tag@3@@std@@YAPAPAVCTreeLeafRenderer@@PAPAV1@00Urandom_access_iterator_tag@0@U_Undefined_move_tag@0@U_Range_checked_iterator_tag@0@@Z 17112da0 f i c_treeleafrenderer.obj
 0002:00054e00       ??$unchecked_fill_n@PAPAVCTreeLeafRenderer@@IPAV1@@stdext@@YAXPAPAVCTreeLeafRenderer@@IABQAV1@@Z 17112e00 f i c_treeleafrenderer.obj
 0002:00054e50       ??$_Uninit_move@PAPAVCTreeLeafRenderer@@PAPAV1@V?$K2VectorAllocator@PAVCTreeLeafRenderer@@@@U_Undefined_move_tag@std@@@std@@YAPAPAVCTreeLeafRenderer@@PAPAV1@00AAV?$K2VectorAllocator@PAVCTreeLeafRenderer@@@@U_Undefined_move_tag@0@U_Range_checked_iterator_tag@0@@Z 17112e50 f i c_treeleafrenderer.obj
 0002:00054e90       ??$_Copy_backward_opt@PAPAVCTreeLeafRenderer@@PAPAV1@Urandom_access_iterator_tag@std@@@std@@YAPAPAVCTreeLeafRenderer@@PAPAV1@00Urandom_access_iterator_tag@0@U_Scalar_ptr_iterator_tag@0@U_Range_checked_iterator_tag@0@@Z 17112e90 f i c_treeleafrenderer.obj
 0002:00054f40       ?assign@?$basic_string@DU?$char_traits@D@std@@V?$K2StringAllocator@D@@@std@@QAEAAV12@PBD@Z 17112f40 f i c_treeleafrenderer.obj
 0002:00054f80       ?_Tidy@?$basic_string@DU?$char_traits@D@std@@V?$K2StringAllocator@D@@@std@@IAEX_NI@Z 17112f80 f i c_treeleafrenderer.obj
 0002:00055020       ??0?$_String_val@DV?$K2StringAllocator@D@@@std@@IAE@V?$K2StringAllocator@D@@@Z 17113020 f i c_treeleafrenderer.obj
 0002:000550c0       ??0?$K2StringAllocator@D@@QAE@XZ 171130c0 f i c_treeleafrenderer.obj
 0002:000550f0       ??1?$K2StringAllocator@D@@QAE@XZ 171130f0 f i c_treeleafrenderer.obj
 0002:00055110       ??$_Fill_n@PAPAVCTreeLeafRenderer@@IPAV1@@std@@YAXPAPAVCTreeLeafRenderer@@IABQAV1@Urandom_access_iterator_tag@0@U_Range_checked_iterator_tag@0@@Z 17113110 f i c_treeleafrenderer.obj
 0002:00055170       ??$unchecked_uninitialized_copy@PAPAVCTreeLeafRenderer@@PAPAV1@V?$K2VectorAllocator@PAVCTreeLeafRenderer@@@@@stdext@@YAPAPAVCTreeLeafRenderer@@PAPAV1@00AAV?$K2VectorAllocator@PAVCTreeLeafRenderer@@@@@Z 17113170 f i c_treeleafrenderer.obj
 0002:000551e0       ??$_Fill_n@PAPAVCTreeLeafRenderer@@IPAV1@@std@@YAXPAPAVCTreeLeafRenderer@@IABQAV1@U_Range_checked_iterator_tag@0@@Z 171131e0 f i c_treeleafrenderer.obj
 0002:00055230       ??$_Uninit_copy@PAPAVCTreeLeafRenderer@@PAPAV1@V?$K2VectorAllocator@PAVCTreeLeafRenderer@@@@@std@@YAPAPAVCTreeLeafRenderer@@PAPAV1@00AAV?$K2VectorAllocator@PAVCTreeLeafRenderer@@@@U_Scalar_ptr_iterator_tag@0@U_Range_checked_iterator_tag@0@@Z 17113230 f i c_treeleafrenderer.obj
 0002:000552d0       ?assign@?$basic_string@DU?$char_traits@D@std@@V?$K2StringAllocator@D@@@std@@QAEAAV12@PBDI@Z 171132d0 f i c_treeleafrenderer.obj
 0002:00055380       ?assign@?$basic_string@DU?$char_traits@D@std@@V?$K2StringAllocator@D@@@std@@QAEAAV12@ABV12@II@Z 17113380 f i c_treeleafrenderer.obj
 0002:00055470       ?_Myptr@?$basic_string@DU?$char_traits@D@std@@V?$K2StringAllocator@D@@@std@@IBEPBDXZ 17113470 f i c_treeleafrenderer.obj
 0002:000554b0       ?erase@?$basic_string@DU?$char_traits@D@std@@V?$K2StringAllocator@D@@@std@@QAEAAV12@II@Z 171134b0 f i c_treeleafrenderer.obj
 0002:00055580       ?size@?$basic_string@DU?$char_traits@D@std@@V?$K2StringAllocator@D@@@std@@QBEIXZ 17113580 f i c_treeleafrenderer.obj
 0002:000555a0       ?_Eos@?$basic_string@DU?$char_traits@D@std@@V?$K2StringAllocator@D@@@std@@IAEXI@Z 171135a0 f i c_treeleafrenderer.obj
 0002:000555f0       ?_Grow@?$basic_string@DU?$char_traits@D@std@@V?$K2StringAllocator@D@@@std@@IAE_NI_N@Z 171135f0 f i c_treeleafrenderer.obj
 0002:000556c0       ?_Myptr@?$basic_string@DU?$char_traits@D@std@@V?$K2StringAllocator@D@@@std@@IAEPADXZ 171136c0 f i c_treeleafrenderer.obj
 0002:00055700       ??0?$K2StringAllocator@D@@QAE@ABV0@@Z 17113700 f i c_treeleafrenderer.obj
 0002:00055730       ?deallocate@?$K2StringAllocator@D@@QAEXPADI@Z 17113730 f i c_treeleafrenderer.obj
 0002:00055770       ?max_size@?$basic_string@DU?$char_traits@D@std@@V?$K2StringAllocator@D@@@std@@QBEIXZ 17113770 f i c_treeleafrenderer.obj
 0002:000557c0       ?_Copy@?$basic_string@DU?$char_traits@D@std@@V?$K2StringAllocator@D@@@std@@IAEXII@Z 171137c0 f i c_treeleafrenderer.obj
 0002:000559b0       ?_Inside@?$basic_string@DU?$char_traits@D@std@@V?$K2StringAllocator@D@@@std@@IAE_NPBD@Z 171139b0 f i c_treeleafrenderer.obj
 0002:00055a20       ?allocate@?$K2StringAllocator@D@@QAEPADI@Z 17113a20 f i c_treeleafrenderer.obj
 0002:00055a70       ??$_Debug_pointer@D@std@@YAXPBDPB_WI@Z 17113a70 f i c_treeleafrenderer.obj
 0002:00055ab0       ??$copy_s@U?$char_traits@D@std@@@_Traits_helper@std@@YAPADPADIPBDI@Z 17113ab0 f i c_treeleafrenderer.obj
 0002:00055b00       ??$_Char_traits_cat@U?$char_traits@D@std@@@std@@YA?AU_Secure_char_traits_tag@0@XZ 17113b00 f i c_treeleafrenderer.obj
 0002:00055b20       ??$copy_s@U?$char_traits@D@std@@@_Traits_helper@std@@YAPADPADIPBDIU_Secure_char_traits_tag@1@@Z 17113b20 f i c_treeleafrenderer.obj
 0002:00055b60       ??$move_s@U?$char_traits@D@std@@@_Traits_helper@std@@YAPADPADIPBDI@Z 17113b60 f i c_treeleafrenderer.obj
 0002:00055bb0       ??$move_s@U?$char_traits@D@std@@@_Traits_helper@std@@YAPADPADIPBDIU_Secure_char_traits_tag@1@@Z 17113bb0 f i c_treeleafrenderer.obj
 0002:00055bf0       ??0?$CPool@VCTreeLeafRenderer@@@@QAE@II@Z 17113bf0 f i c_treeleafrenderer.obj
 0002:00055cb0       ??0?$vector@PAVCTreeLeafRenderer@@V?$K2VectorAllocator@PAVCTreeLeafRenderer@@@@@@QAE@XZ 17113cb0 f i c_treeleafrenderer.obj
 0002:00055ce0       ??0?$vector@PAVCTreeLeafRenderer@@V?$K2VectorAllocator@PAVCTreeLeafRenderer@@@@@std@@QAE@XZ 17113ce0 f i c_treeleafrenderer.obj
 0002:00055d70       ??1?$_Vector_val@PAVCTreeLeafRenderer@@V?$K2VectorAllocator@PAVCTreeLeafRenderer@@@@@std@@QAE@XZ 17113d70 f i c_treeleafrenderer.obj
 0002:00055df0       ??1?$K2VectorAllocator@PAVCTreeLeafRenderer@@@@QAE@XZ 17113df0 f i c_treeleafrenderer.obj
 0002:00055e10       ?_Buy@?$vector@PAVCTreeLeafRenderer@@V?$K2VectorAllocator@PAVCTreeLeafRenderer@@@@@std@@IAE_NI@Z 17113e10 f i c_treeleafrenderer.obj
 0002:00055ec0       ??0?$_Vector_val@PAVCTreeLeafRenderer@@V?$K2VectorAllocator@PAVCTreeLeafRenderer@@@@@std@@IAE@V?$K2VectorAllocator@PAVCTreeLeafRenderer@@@@@Z 17113ec0 f i c_treeleafrenderer.obj
 0002:00055f60       ??0?$K2VectorAllocator@PAVCTreeLeafRenderer@@@@QAE@XZ 17113f60 f i c_treeleafrenderer.obj
 0002:00055f90       ??0?$K2VectorAllocator@PAVCTreeLeafRenderer@@@@QAE@ABV0@@Z 17113f90 f i c_treeleafrenderer.obj
 0002:00055fc0       ??0?$allocator@PAVCTreeLeafRenderer@@@std@@QAE@XZ 17113fc0 f i c_treeleafrenderer.obj
 0002:00055fe0       ??0?$allocator@PAVCTreeLeafRenderer@@@std@@QAE@ABV01@@Z 17113fe0 f i c_treeleafrenderer.obj
 0002:00056000       ??1?$CPool@VCTreeLeafRenderer@@@@QAE@XZ 17114000 f i c_treeleafrenderer.obj
 0002:000560b0       ??1?$vector@PAVCTreeLeafRenderer@@V?$K2VectorAllocator@PAVCTreeLeafRenderer@@@@@@QAE@XZ 171140b0 f i c_treeleafrenderer.obj
 0002:000560e0       ??1?$vector@PAVCTreeLeafRenderer@@V?$K2VectorAllocator@PAVCTreeLeafRenderer@@@@@std@@QAE@XZ 171140e0 f i c_treeleafrenderer.obj
 0002:00056160       ?_Tidy@?$vector@PAVCTreeLeafRenderer@@V?$K2VectorAllocator@PAVCTreeLeafRenderer@@@@@std@@IAEXXZ 17114160 f i c_treeleafrenderer.obj
 0002:00056200       ??0IDebugRenderer@@QAE@XZ  17114200 f   i_debugrenderer.obj
 0002:00056300       ??_GIDebugRenderer@@UAEPAXI@Z 17114300 f i i_debugrenderer.obj
 0002:00056300       ??_EIDebugRenderer@@UAEPAXI@Z 17114300 f i i_debugrenderer.obj
 0002:00056350       ??1IDebugRenderer@@UAE@XZ  17114350 f   i_debugrenderer.obj
 0002:00056380       ?Setup@IDebugRenderer@@UAEXW4EMaterialPhase@@@Z 17114380 f   i_debugrenderer.obj
 0002:000565c0       ??0IEffectRenderer@@QAE@IIIHM@Z 171145c0 f   i_effectrenderer.obj
 0002:000566e0       ??_GIEffectRenderer@@UAEPAXI@Z 171146e0 f i i_effectrenderer.obj
 0002:000566e0       ??_EIEffectRenderer@@UAEPAXI@Z 171146e0 f i i_effectrenderer.obj
 0002:00056730       ??1IEffectRenderer@@UAE@XZ 17114730 f   i_effectrenderer.obj
 0002:00056760       ?Setup@IEffectRenderer@@UAEXW4EMaterialPhase@@@Z 17114760 f   i_effectrenderer.obj
 0002:000569f0       ??1IInstancer@@UAE@XZ      171149f0 f   i_instancer.obj
 0002:00056a20       ??_GIInstancer@@UAEPAXI@Z  17114a20 f i i_instancer.obj
 0002:00056a20       ??_EIInstancer@@UAEPAXI@Z  17114a20 f i i_instancer.obj
 0002:00056a70       ??0IInstancer@@QAE@XZ      17114a70 f   i_instancer.obj
 0002:00056b30       ??0SInstanceShaderVars@IInstancer@@QAE@XZ 17114b30 f i i_instancer.obj
 0002:00056b70       ?SetShaderVars@IInstancer@@QAEXXZ 17114b70 f   i_instancer.obj
 0002:00056de0       ??0IRenderer@@QAE@W4ERenderType@@@Z 17114de0 f   i_renderer.obj
 0002:00056fe0       ??_GIRenderer@@UAEPAXI@Z   17114fe0 f i i_renderer.obj
 0002:00056fe0       ??_EIRenderer@@UAEPAXI@Z   17114fe0 f i i_renderer.obj
 0002:00057030       ??1IRenderer@@UAE@XZ       17115030 f   i_renderer.obj
 0002:00057060       ?SetShaderVars@IRenderer@@QAEXXZ 17115060 f   i_renderer.obj
 0002:00057360       ??0CFogofWar@@QAE@XZ       17115360 f   c_fogofwar.obj
 0002:00057430       ??1CFogofWar@@QAE@XZ       17115430 f   c_fogofwar.obj
 0002:00057450       ?Initialize@CFogofWar@@QAEXIIH@Z 17115450 f   c_fogofwar.obj
 0002:00057af0       ?Release@CFogofWar@@QAEXXZ 17115af0 f   c_fogofwar.obj
 0002:00057c80       ?Render@CFogofWar@@QAEXM_NM@Z 17115c80 f   c_fogofwar.obj
 0002:000582c0       ?SetIndex@CTexture@@QAEXH@Z 171162c0 f i c_fogofwar.obj
 0002:000582f0       ?GetWorldWidth@CWorld@@QBEMXZ 171162f0 f i c_fogofwar.obj
 0002:00058330       ?GetWorldHeight@CWorld@@QBEMXZ 17116330 f i c_fogofwar.obj
 0002:00058370       ?Update@CFogofWar@@QAEXABVCBitmap@@@Z 17116370 f   c_fogofwar.obj
 0002:00058440       ?DrawTexture@CFogofWar@@AAEXM@Z 17116440 f   c_fogofwar.obj
 0002:00058b20       ?GetShaderTime@CSceneManager@@QAEMXZ 17116b20 f i c_fogofwar.obj
 0002:00058b40       ?SetTexture@CMaterialSampler@@QAEXI@Z 17116b40 f i c_fogofwar.obj
 0002:00058b70       ?SetSrcBlend@CMaterialPhase@@QAEXW4eBlendMode@@@Z 17116b70 f i c_fogofwar.obj
 0002:00058ba0       ?SetDstBlend@CMaterialPhase@@QAEXW4eBlendMode@@@Z 17116ba0 f i c_fogofwar.obj
 0002:00058bd0       ?SetCullMode@CMaterialPhase@@QAEXW4eCullMode@@@Z 17116bd0 f i c_fogofwar.obj
 0002:00058c00       ?BYTE_ROUND@@YAEM@Z        17116c00 f i c_fogofwar.obj
 0002:00058c40       ??$TOGGLE@H@@YAHH@Z        17116c40 f i c_fogofwar.obj
 0002:00058c60       ??1CGamma@@QAE@XZ          17116c60 f   c_gamma.obj
 0002:00058c80       ??0CGamma@@QAE@XZ          17116c80 f   c_gamma.obj
 0002:00058cd0       ?SaveGDIGammaRamp@CGamma@@QAEXXZ 17116cd0 f   c_gamma.obj
 0002:00058d40       ?RestoreGDIGammaRamp@CGamma@@QAEXXZ 17116d40 f   c_gamma.obj
 0002:00058db0       ?UpdateD3DGamma@CGamma@@AAEXM@Z 17116db0 f   c_gamma.obj
 0002:00058f70       ?UpdateGDIGamma@CGamma@@AAEXM@Z 17116f70 f   c_gamma.obj
 0002:00059120       ?Update@CGamma@@QAEXM@Z    17117120 f   c_gamma.obj
 0002:000591a0       ?pow@@YAMMM@Z              171171a0 f i c_gamma.obj
 0002:000591d0       _powf                      171171d0 f i c_gamma.obj
 0002:00059210       ??0CPostBuffer@@QAE@XZ     17117210 f   c_postbuffer.obj
 0002:000592e0       ??1CPostBuffer@@QAE@XZ     171172e0 f   c_postbuffer.obj
 0002:00059300       ?Initialize@CPostBuffer@@QAEXHH@Z 17117300 f   c_postbuffer.obj
 0002:00059b70       ?Release@CPostBuffer@@QAEXXZ 17117b70 f   c_postbuffer.obj
 0002:00059d10       ?Render@CPostBuffer@@QAEXXZ 17117d10 f   c_postbuffer.obj
 0002:0005aa90       ?ToggleBuffer@CPostBuffer@@AAEXXZ 17118a90 f i c_postbuffer.obj
 0002:0005aac0       ?GetCurrentSurface@CPostBuffer@@AAEPAUIDirect3DSurface9@@XZ 17118ac0 f i c_postbuffer.obj
 0002:0005aaf0       ?GetCurrentHandle@CPostBuffer@@AAEIXZ 17118af0 f i c_postbuffer.obj
 0002:0005ab20       ?GetNextSurface@CPostBuffer@@AAEPAUIDirect3DSurface9@@XZ 17118b20 f i c_postbuffer.obj
 0002:0005ab50       ?GetMaterial@CPostFilter@@QBEIXZ 17118b50 f i c_postbuffer.obj
 0002:0005ab70       ?GetFilters@CPostEffect@@QBEABV?$vector@VCPostFilter@@V?$K2VectorAllocator@VCPostFilter@@@@@@XZ 17118b70 f i c_postbuffer.obj
 0002:0005aba0       ??1?$_Vector_const_iterator@VCPostFilter@@V?$K2VectorAllocator@VCPostFilter@@@@@std@@QAE@XZ 17118ba0 f i c_postbuffer.obj
 0002:0005abd0       ??1?$_Ranit@VCPostFilter@@HPBV1@ABV1@@std@@QAE@XZ 17118bd0 f i c_postbuffer.obj
 0002:0005ac00       ?begin@?$vector@VCPostFilter@@V?$K2VectorAllocator@VCPostFilter@@@@@std@@QBE?AV?$_Vector_const_iterator@VCPostFilter@@V?$K2VectorAllocator@VCPostFilter@@@@@2@XZ 17118c00 f i c_postbuffer.obj
 0002:0005ac50       ?end@?$vector@VCPostFilter@@V?$K2VectorAllocator@VCPostFilter@@@@@std@@QBE?AV?$_Vector_const_iterator@VCPostFilter@@V?$K2VectorAllocator@VCPostFilter@@@@@2@XZ 17118c50 f i c_postbuffer.obj
 0002:0005aca0       ?size@?$vector@VCPostFilter@@V?$K2VectorAllocator@VCPostFilter@@@@@std@@QBEIXZ 17118ca0 f i c_postbuffer.obj
 0002:0005acf0       ??C?$_Vector_const_iterator@VCPostFilter@@V?$K2VectorAllocator@VCPostFilter@@@@@std@@QBEPBVCPostFilter@@XZ 17118cf0 f i c_postbuffer.obj
 0002:0005ad20       ??E?$_Vector_const_iterator@VCPostFilter@@V?$K2VectorAllocator@VCPostFilter@@@@@std@@QAEAAV01@XZ 17118d20 f i c_postbuffer.obj
 0002:0005ae10       ??G?$_Vector_const_iterator@VCPostFilter@@V?$K2VectorAllocator@VCPostFilter@@@@@std@@QBE?AV01@H@Z 17118e10 f i c_postbuffer.obj
 0002:0005aec0       ??9?$_Vector_const_iterator@VCPostFilter@@V?$K2VectorAllocator@VCPostFilter@@@@@std@@QBE_NABV01@@Z 17118ec0 f i c_postbuffer.obj
 0002:0005af00       ??0?$_Vector_const_iterator@VCPostFilter@@V?$K2VectorAllocator@VCPostFilter@@@@@std@@QAE@ABV01@@Z 17118f00 f i c_postbuffer.obj
 0002:0005af40       ??0?$_Ranit@VCPostFilter@@HPBV1@ABV1@@std@@QAE@ABU01@@Z 17118f40 f i c_postbuffer.obj
 0002:0005af70       ??0?$_Vector_const_iterator@VCPostFilter@@V?$K2VectorAllocator@VCPostFilter@@@@@std@@QAE@PAVCPostFilter@@PBV_Container_base@1@@Z 17118f70 f i c_postbuffer.obj
 0002:0005b070       ??D?$_Vector_const_iterator@VCPostFilter@@V?$K2VectorAllocator@VCPostFilter@@@@@std@@QBEABVCPostFilter@@XZ 17119070 f i c_postbuffer.obj
 0002:0005b130       ??Z?$_Vector_const_iterator@VCPostFilter@@V?$K2VectorAllocator@VCPostFilter@@@@@std@@QAEAAV01@H@Z 17119130 f i c_postbuffer.obj
 0002:0005b160       ??8?$_Vector_const_iterator@VCPostFilter@@V?$K2VectorAllocator@VCPostFilter@@@@@std@@QBE_NABV01@@Z 17119160 f i c_postbuffer.obj
 0002:0005b1a0       ??0?$_Ranit@VCPostFilter@@HPBV1@ABV1@@std@@QAE@XZ 171191a0 f i c_postbuffer.obj
 0002:0005b1d0       ??Y?$_Vector_const_iterator@VCPostFilter@@V?$K2VectorAllocator@VCPostFilter@@@@@std@@QAEAAV01@H@Z 171191d0 f i c_postbuffer.obj
 0002:0005b300       ?_Compat@?$_Vector_const_iterator@VCPostFilter@@V?$K2VectorAllocator@VCPostFilter@@@@@std@@QBEXABV12@@Z 17119300 f i c_postbuffer.obj
 0002:0005b3b0       ??$MIN@M@@YAABMABM0@Z      171193b0 f i c_postbuffer.obj
 0002:0005b400       ??6CConsoleStream@@QAEAAV0@I@Z 17119400 f i c_postbuffer.obj
 0002:0005b4b0       ?XtoW@@YA?AV?$basic_string@_WU?$char_traits@_W@std@@V?$K2StringAllocator@_W@@@std@@IHHH@Z 171194b0 f i c_postbuffer.obj
 0002:0005b500       ??B?$CCvar@V?$basic_string@_WU?$char_traits@_W@std@@V?$K2StringAllocator@_W@@@std@@V12@@@QBE?AV?$basic_string@_WU?$char_traits@_W@std@@V?$K2StringAllocator@_W@@@std@@XZ 17119500 f i c_postbuffer.obj
 0002:0005b550       ??$_UItoW@I@@YA?AV?$basic_string@_WU?$char_traits@_W@std@@V?$K2StringAllocator@_W@@@std@@IHHH@Z 17119550 f i c_postbuffer.obj
 0002:0005b630       ??0?$CCvar@V?$basic_string@_WU?$char_traits@_W@std@@V?$K2StringAllocator@_W@@@std@@V12@@@QAE@ABV?$basic_string@_WU?$char_traits@_W@std@@V?$K2StringAllocator@_W@@@std@@0HP6A_NPAVCConsoleElement@@ABV?$vector@V?$basic_string@_WU?$char_traits@_W@std@@V?$K2StringAllocator@_W@@@std@@V?$K2VectorAllocator@V?$basic_string@_WU?$char_traits@_W@std@@V?$K2StringAllocator@_W@@@std@@@@@@@Z@Z 17119630 f i c_postbuffer.obj
 0002:0005b770       ?Reset@?$CCvar@V?$basic_string@_WU?$char_traits@_W@std@@V?$K2StringAllocator@_W@@@std@@V12@@@UAEXXZ 17119770 f i c_postbuffer.obj
 0002:0005b7e0       ?IsDefault@?$CCvar@V?$basic_string@_WU?$char_traits@_W@std@@V?$K2StringAllocator@_W@@@std@@V12@@@UBE_NXZ 171197e0 f i c_postbuffer.obj
 0002:0005b820       ?StoreValue@?$CCvar@V?$basic_string@_WU?$char_traits@_W@std@@V?$K2StringAllocator@_W@@@std@@V12@@@UAEXXZ 17119820 f i c_postbuffer.obj
 0002:0005b860       ?RestoreStored@?$CCvar@V?$basic_string@_WU?$char_traits@_W@std@@V?$K2StringAllocator@_W@@@std@@V12@@@UAEXXZ 17119860 f i c_postbuffer.obj
 0002:0005b8a0       ?GetString@?$CCvar@V?$basic_string@_WU?$char_traits@_W@std@@V?$K2StringAllocator@_W@@@std@@V12@@@UBE?AV?$basic_string@_WU?$char_traits@_W@std@@V?$K2StringAllocator@_W@@@std@@XZ 171198a0 f i c_postbuffer.obj
 0002:0005b8f0       ?SetIndex@?$CCvar@V?$basic_string@_WU?$char_traits@_W@std@@V?$K2StringAllocator@_W@@@std@@V12@@@UAEXIABV?$basic_string@_WU?$char_traits@_W@std@@V?$K2StringAllocator@_W@@@std@@@Z 171198f0 f i c_postbuffer.obj
 0002:0005b910       ?GetRangeString@?$CCvar@V?$basic_string@_WU?$char_traits@_W@std@@V?$K2StringAllocator@_W@@@std@@V12@@@UBE?AV?$basic_string@_WU?$char_traits@_W@std@@V?$K2StringAllocator@_W@@@std@@XZ 17119910 f i c_postbuffer.obj
 0002:0005b960       ??_G?$CCvar@V?$basic_string@_WU?$char_traits@_W@std@@V?$K2StringAllocator@_W@@@std@@V12@@@UAEPAXI@Z 17119960 f i c_postbuffer.obj
 0002:0005b960       ??_E?$CCvar@V?$basic_string@_WU?$char_traits@_W@std@@V?$K2StringAllocator@_W@@@std@@V12@@@UAEPAXI@Z 17119960 f i c_postbuffer.obj
 0002:0005b9b0       ??1?$CCvar@V?$basic_string@_WU?$char_traits@_W@std@@V?$K2StringAllocator@_W@@@std@@V12@@@UAE@XZ 171199b0 f i c_postbuffer.obj
 0002:0005ba70       ?Set@?$CCvar@V?$basic_string@_WU?$char_traits@_W@std@@V?$K2StringAllocator@_W@@@std@@V12@@@UAEXABV?$basic_string@_WU?$char_traits@_W@std@@V?$K2StringAllocator@_W@@@std@@@Z 17119a70 f i c_postbuffer.obj
 0002:0005bb60       ?Inc@?$CCvar@V?$basic_string@_WU?$char_traits@_W@std@@V?$K2StringAllocator@_W@@@std@@V12@@@UAEXABV?$basic_string@_WU?$char_traits@_W@std@@V?$K2StringAllocator@_W@@@std@@@Z 17119b60 f i c_postbuffer.obj
 0002:0005bd20       ??6CConsoleStream@@QAEAAV0@PBD@Z 17119d20 f i c_postbuffer.obj
 0002:0005bdb0       ?AddOutputHistory@CConsoleStream@@AAEXABV?$basic_string@DU?$char_traits@D@std@@V?$K2StringAllocator@D@@@std@@@Z 17119db0 f i c_postbuffer.obj
 0002:0005be50       ?Toggle@?$CCvar@V?$basic_string@_WU?$char_traits@_W@std@@V?$K2StringAllocator@_W@@@std@@V12@@@UAEXXZ 17119e50 f i c_postbuffer.obj
 0002:0005bea0       ??$?8_WU?$char_traits@_W@std@@V?$K2StringAllocator@_W@@@std@@YA_NABV?$basic_string@_WU?$char_traits@_W@std@@V?$K2StringAllocator@_W@@@0@0@Z 17119ea0 f i c_postbuffer.obj
 0002:0005bed0       ?compare@?$basic_string@_WU?$char_traits@_W@std@@V?$K2StringAllocator@_W@@@std@@QBEHABV12@@Z 17119ed0 f i c_postbuffer.obj
 0002:0005bf20       ?compare@?$basic_string@_WU?$char_traits@_W@std@@V?$K2StringAllocator@_W@@@std@@QBEHIIPB_WI@Z 17119f20 f i c_postbuffer.obj
 0002:0005c020       ??$?9_WU?$char_traits@_W@std@@V?$K2StringAllocator@_W@@@std@@YA_NABV?$basic_string@_WU?$char_traits@_W@std@@V?$K2StringAllocator@_W@@@0@0@Z 1711a020 f i c_postbuffer.obj
 0002:0005c060       ??0CProcedural@@QAE@ABV?$basic_string@_WU?$char_traits@_W@std@@V?$K2StringAllocator@_W@@@std@@HHW4ETextureFormat@@HP6A?AV?$CVec4@M@@PBV0@MM@Z@Z 1711a060 f   c_procedural.obj
 0002:0005c180       ??0CProcedural@@QAE@ABV?$basic_string@_WU?$char_traits@_W@std@@V?$K2StringAllocator@_W@@@std@@HHW4ETextureFormat@@HP6A?AV?$CVec4@M@@PBV0@MMH@Z@Z 1711a180 f   c_procedural.obj
 0002:0005c2a0       ??1CProcedural@@QAE@XZ     1711a2a0 f   c_procedural.obj
 0002:0005c330       ?IsReleased@CProceduralRegistry@@SA_NXZ 1711a330 f i c_procedural.obj
 0002:0005c350       ?Get@CProcedural@@QBE?AV?$CVec4@M@@MM@Z 1711a350 f   c_procedural.obj
 0002:0005c3c0       ?Get@CProcedural@@QBE?AV?$CVec4@M@@MMH@Z 1711a3c0 f   c_procedural.obj
 0002:0005c430       ?cmdProceduralListFn@@YA_NPAVCConsoleElement@@ABV?$vector@V?$basic_string@_WU?$char_traits@_W@std@@V?$K2StringAllocator@_W@@@std@@V?$K2VectorAllocator@V?$basic_string@_WU?$char_traits@_W@std@@V?$K2StringAllocator@_W@@@std@@@@@@@Z 1711a430 f   c_procedural.obj
 0002:0005c610       ?GetName@CProcedural@@QBEABV?$basic_string@_WU?$char_traits@_W@std@@V?$K2StringAllocator@_W@@@std@@XZ 1711a610 f i c_procedural.obj
 0002:0005c630       ?GetProceduralMap@CProceduralRegistry@@QAEABV?$map@V?$basic_string@_WU?$char_traits@_W@std@@V?$K2StringAllocator@_W@@@std@@PAVCProcedural@@U?$less@V?$basic_string@_WU?$char_traits@_W@std@@V?$K2StringAllocator@_W@@@std@@@2@V?$K2MapAllocator@U?$pair@$$CBV?$basic_string@_WU?$char_traits@_W@std@@V?$K2StringAllocator@_W@@@std@@PAVCProcedural@@@std@@@@@@XZ 1711a630 f i c_procedural.obj
 0002:0005c650       ??1const_iterator@?$_Tree@V?$_Tmap_traits@V?$basic_string@_WU?$char_traits@_W@std@@V?$K2StringAllocator@_W@@@std@@PAVCProcedural@@U?$less@V?$basic_string@_WU?$char_traits@_W@std@@V?$K2StringAllocator@_W@@@std@@@2@V?$K2MapAllocator@U?$pair@$$CBV?$basic_string@_WU?$char_traits@_W@std@@V?$K2StringAllocator@_W@@@std@@PAVCProcedural@@@std@@@@$0A@@std@@@std@@QAE@XZ 1711a650 f i c_procedural.obj
 0002:0005c680       ??1?$_Bidit@U?$pair@$$CBV?$basic_string@_WU?$char_traits@_W@std@@V?$K2StringAllocator@_W@@@std@@PAVCProcedural@@@std@@HPBU12@ABU12@@std@@QAE@XZ 1711a680 f i c_procedural.obj
 0002:0005c6b0       ?find@?$basic_string@_WU?$char_traits@_W@std@@V?$K2StringAllocator@_W@@@std@@QBEIABV12@I@Z 1711a6b0 f i c_procedural.obj
 0002:0005c6f0       ?begin@?$_Tree@V?$_Tmap_traits@V?$basic_string@_WU?$char_traits@_W@std@@V?$K2StringAllocator@_W@@@std@@PAVCProcedural@@U?$less@V?$basic_string@_WU?$char_traits@_W@std@@V?$K2StringAllocator@_W@@@std@@@2@V?$K2MapAllocator@U?$pair@$$CBV?$basic_string@_WU?$char_traits@_W@std@@V?$K2StringAllocator@_W@@@std@@PAVCProcedural@@@std@@@@$0A@@std@@@std@@QBE?AVconst_iterator@12@XZ 1711a6f0 f i c_procedural.obj
 0002:0005c740       ?end@?$_Tree@V?$_Tmap_traits@V?$basic_string@_WU?$char_traits@_W@std@@V?$K2StringAllocator@_W@@@std@@PAVCProcedural@@U?$less@V?$basic_string@_WU?$char_traits@_W@std@@V?$K2StringAllocator@_W@@@std@@@2@V?$K2MapAllocator@U?$pair@$$CBV?$basic_string@_WU?$char_traits@_W@std@@V?$K2StringAllocator@_W@@@std@@PAVCProcedural@@@std@@@@$0A@@std@@@std@@QBE?AVconst_iterator@12@XZ 1711a740 f i c_procedural.obj
 0002:0005c790       ??Cconst_iterator@?$_Tree@V?$_Tmap_traits@V?$basic_string@_WU?$char_traits@_W@std@@V?$K2StringAllocator@_W@@@std@@PAVCProcedural@@U?$less@V?$basic_string@_WU?$char_traits@_W@std@@V?$K2StringAllocator@_W@@@std@@@2@V?$K2MapAllocator@U?$pair@$$CBV?$basic_string@_WU?$char_traits@_W@std@@V?$K2StringAllocator@_W@@@std@@PAVCProcedural@@@std@@@@$0A@@std@@@std@@QBEPBU?$pair@$$CBV?$basic_string@_WU?$char_traits@_W@std@@V?$K2StringAllocator@_W@@@std@@PAVCProcedural@@@2@XZ 1711a790 f i c_procedural.obj
 0002:0005c7c0       ??Econst_iterator@?$_Tree@V?$_Tmap_traits@V?$basic_string@_WU?$char_traits@_W@std@@V?$K2StringAllocator@_W@@@std@@PAVCProcedural@@U?$less@V?$basic_string@_WU?$char_traits@_W@std@@V?$K2StringAllocator@_W@@@std@@@2@V?$K2MapAllocator@U?$pair@$$CBV?$basic_string@_WU?$char_traits@_W@std@@V?$K2StringAllocator@_W@@@std@@PAVCProcedural@@@std@@@@$0A@@std@@@std@@QAEAAV012@XZ 1711a7c0 f i c_procedural.obj
 0002:0005c7f0       ??9const_iterator@?$_Tree@V?$_Tmap_traits@V?$basic_string@_WU?$char_traits@_W@std@@V?$K2StringAllocator@_W@@@std@@PAVCProcedural@@U?$less@V?$basic_string@_WU?$char_traits@_W@std@@V?$K2StringAllocator@_W@@@std@@@2@V?$K2MapAllocator@U?$pair@$$CBV?$basic_string@_WU?$char_traits@_W@std@@V?$K2StringAllocator@_W@@@std@@PAVCProcedural@@@std@@@@$0A@@std@@@std@@QBE_NABV012@@Z 1711a7f0 f i c_procedural.obj
 0002:0005c830       ??8const_iterator@?$_Tree@V?$_Tmap_traits@V?$basic_string@_WU?$char_traits@_W@std@@V?$K2StringAllocator@_W@@@std@@PAVCProcedural@@U?$less@V?$basic_string@_WU?$char_traits@_W@std@@V?$K2StringAllocator@_W@@@std@@@2@V?$K2MapAllocator@U?$pair@$$CBV?$basic_string@_WU?$char_traits@_W@std@@V?$K2StringAllocator@_W@@@std@@PAVCProcedural@@@std@@@@$0A@@std@@@std@@QBE_NABV012@@Z 1711a830 f i c_procedural.obj
 0002:0005c8f0       ?find@?$basic_string@_WU?$char_traits@_W@std@@V?$K2StringAllocator@_W@@@std@@QBEIPB_WII@Z 1711a8f0 f i c_procedural.obj
 0002:0005ca30       ?_Lmost@?$_Tree@V?$_Tmap_traits@V?$basic_string@_WU?$char_traits@_W@std@@V?$K2StringAllocator@_W@@@std@@PAVCProcedural@@U?$less@V?$basic_string@_WU?$char_traits@_W@std@@V?$K2StringAllocator@_W@@@std@@@2@V?$K2MapAllocator@U?$pair@$$CBV?$basic_string@_WU?$char_traits@_W@std@@V?$K2StringAllocator@_W@@@std@@PAVCProcedural@@@std@@@@$0A@@std@@@std@@IBEAAPAU_Node@?$_Tree_nod@V?$_Tmap_traits@V?$basic_string@_WU?$char_traits@_W@std@@V?$K2StringAllocator@_W@@@std@@PAVCProcedural@@U?$less@V?$basic_string@_WU?$char_traits@_W@std@@V?$K2StringAllocator@_W@@@std@@@2@V?$K2MapAllocator@U?$pair@$$CBV?$basic_string@_WU?$char_traits@_W@std@@V?$K2StringAllocator@_W@@@std@@PAVCProcedural@@@std@@@@$0A@@std@@@2@XZ 1711aa30 f i c_procedural.obj
 0002:0005ca60       ??0const_iterator@?$_Tree@V?$_Tmap_traits@V?$basic_string@_WU?$char_traits@_W@std@@V?$K2StringAllocator@_W@@@std@@PAVCProcedural@@U?$less@V?$basic_string@_WU?$char_traits@_W@std@@V?$K2StringAllocator@_W@@@std@@@2@V?$K2MapAllocator@U?$pair@$$CBV?$basic_string@_WU?$char_traits@_W@std@@V?$K2StringAllocator@_W@@@std@@PAVCProcedural@@@std@@@@$0A@@std@@@std@@QAE@PAU_Node@?$_Tree_nod@V?$_Tmap_traits@V?$basic_string@_WU?$char_traits@_W@std@@V?$K2StringAllocator@_W@@@std@@PAVCProcedural@@U?$less@V?$basic_string@_WU?$char_traits@_W@std@@V?$K2StringAllocator@_W@@@std@@@2@V?$K2MapAllocator@U?$pair@$$CBV?$basic_string@_WU?$char_traits@_W@std@@V?$K2StringAllocator@_W@@@std@@PAVCProcedural@@@std@@@@$0A@@std@@@2@PBV12@@Z 1711aa60 f i c_procedural.obj
 0002:0005caf0       ??Dconst_iterator@?$_Tree@V?$_Tmap_traits@V?$basic_string@_WU?$char_traits@_W@std@@V?$K2StringAllocator@_W@@@std@@PAVCProcedural@@U?$less@V?$basic_string@_WU?$char_traits@_W@std@@V?$K2StringAllocator@_W@@@std@@@2@V?$K2MapAllocator@U?$pair@$$CBV?$basic_string@_WU?$char_traits@_W@std@@V?$K2StringAllocator@_W@@@std@@PAVCProcedural@@@std@@@@$0A@@std@@@std@@QBEABU?$pair@$$CBV?$basic_string@_WU?$char_traits@_W@std@@V?$K2StringAllocator@_W@@@std@@PAVCProcedural@@@2@XZ 1711aaf0 f i c_procedural.obj
 0002:0005cbb0       ?_Inc@const_iterator@?$_Tree@V?$_Tmap_traits@V?$basic_string@_WU?$char_traits@_W@std@@V?$K2StringAllocator@_W@@@std@@PAVCProcedural@@U?$less@V?$basic_string@_WU?$char_traits@_W@std@@V?$K2StringAllocator@_W@@@std@@@2@V?$K2MapAllocator@U?$pair@$$CBV?$basic_string@_WU?$char_traits@_W@std@@V?$K2StringAllocator@_W@@@std@@PAVCProcedural@@@std@@@@$0A@@std@@@std@@QAEXXZ 1711abb0 f i c_procedural.obj
 0002:0005cd20       ??0?$_Bidit@U?$pair@$$CBV?$basic_string@_WU?$char_traits@_W@std@@V?$K2StringAllocator@_W@@@std@@PAVCProcedural@@@std@@HPBU12@ABU12@@std@@QAE@XZ 1711ad20 f i c_procedural.obj
 0002:0005cd50       ?_Isnil@?$_Tree@V?$_Tmap_traits@V?$basic_string@_WU?$char_traits@_W@std@@V?$K2StringAllocator@_W@@@std@@PAVCProcedural@@U?$less@V?$basic_string@_WU?$char_traits@_W@std@@V?$K2StringAllocator@_W@@@std@@@2@V?$K2MapAllocator@U?$pair@$$CBV?$basic_string@_WU?$char_traits@_W@std@@V?$K2StringAllocator@_W@@@std@@PAVCProcedural@@@std@@@@$0A@@std@@@std@@KAAADPAU_Node@?$_Tree_nod@V?$_Tmap_traits@V?$basic_string@_WU?$char_traits@_W@std@@V?$K2StringAllocator@_W@@@std@@PAVCProcedural@@U?$less@V?$basic_string@_WU?$char_traits@_W@std@@V?$K2StringAllocator@_W@@@std@@@2@V?$K2MapAllocator@U?$pair@$$CBV?$basic_string@_WU?$char_traits@_W@std@@V?$K2StringAllocator@_W@@@std@@PAVCProcedural@@@std@@@@$0A@@std@@@2@@Z 1711ad50 f i c_procedural.obj
 0002:0005cd70       ?_Left@?$_Tree@V?$_Tmap_traits@V?$basic_string@_WU?$char_traits@_W@std@@V?$K2StringAllocator@_W@@@std@@PAVCProcedural@@U?$less@V?$basic_string@_WU?$char_traits@_W@std@@V?$K2StringAllocator@_W@@@std@@@2@V?$K2MapAllocator@U?$pair@$$CBV?$basic_string@_WU?$char_traits@_W@std@@V?$K2StringAllocator@_W@@@std@@PAVCProcedural@@@std@@@@$0A@@std@@@std@@KAAAPAU_Node@?$_Tree_nod@V?$_Tmap_traits@V?$basic_string@_WU?$char_traits@_W@std@@V?$K2StringAllocator@_W@@@std@@PAVCProcedural@@U?$less@V?$basic_string@_WU?$char_traits@_W@std@@V?$K2StringAllocator@_W@@@std@@@2@V?$K2MapAllocator@U?$pair@$$CBV?$basic_string@_WU?$char_traits@_W@std@@V?$K2StringAllocator@_W@@@std@@PAVCProcedural@@@std@@@@$0A@@std@@@2@PAU342@@Z 1711ad70 f i c_procedural.obj
 0002:0005cd90       ?_Parent@?$_Tree@V?$_Tmap_traits@V?$basic_string@_WU?$char_traits@_W@std@@V?$K2StringAllocator@_W@@@std@@PAVCProcedural@@U?$less@V?$basic_string@_WU?$char_traits@_W@std@@V?$K2StringAllocator@_W@@@std@@@2@V?$K2MapAllocator@U?$pair@$$CBV?$basic_string@_WU?$char_traits@_W@std@@V?$K2StringAllocator@_W@@@std@@PAVCProcedural@@@std@@@@$0A@@std@@@std@@KAAAPAU_Node@?$_Tree_nod@V?$_Tmap_traits@V?$basic_string@_WU?$char_traits@_W@std@@V?$K2StringAllocator@_W@@@std@@PAVCProcedural@@U?$less@V?$basic_string@_WU?$char_traits@_W@std@@V?$K2StringAllocator@_W@@@std@@@2@V?$K2MapAllocator@U?$pair@$$CBV?$basic_string@_WU?$char_traits@_W@std@@V?$K2StringAllocator@_W@@@std@@PAVCProcedural@@@std@@@@$0A@@std@@@2@PAU342@@Z 1711ad90 f i c_procedural.obj
 0002:0005cdb0       ?_Right@?$_Tree@V?$_Tmap_traits@V?$basic_string@_WU?$char_traits@_W@std@@V?$K2StringAllocator@_W@@@std@@PAVCProcedural@@U?$less@V?$basic_string@_WU?$char_traits@_W@std@@V?$K2StringAllocator@_W@@@std@@@2@V?$K2MapAllocator@U?$pair@$$CBV?$basic_string@_WU?$char_traits@_W@std@@V?$K2StringAllocator@_W@@@std@@PAVCProcedural@@@std@@@@$0A@@std@@@std@@KAAAPAU_Node@?$_Tree_nod@V?$_Tmap_traits@V?$basic_string@_WU?$char_traits@_W@std@@V?$K2StringAllocator@_W@@@std@@PAVCProcedural@@U?$less@V?$basic_string@_WU?$char_traits@_W@std@@V?$K2StringAllocator@_W@@@std@@@2@V?$K2MapAllocator@U?$pair@$$CBV?$basic_string@_WU?$char_traits@_W@std@@V?$K2StringAllocator@_W@@@std@@PAVCProcedural@@@std@@@@$0A@@std@@@2@PAU342@@Z 1711adb0 f i c_procedural.obj
 0002:0005cdd0       ?_Myval@?$_Tree@V?$_Tmap_traits@V?$basic_string@_WU?$char_traits@_W@std@@V?$K2StringAllocator@_W@@@std@@PAVCProcedural@@U?$less@V?$basic_string@_WU?$char_traits@_W@std@@V?$K2StringAllocator@_W@@@std@@@2@V?$K2MapAllocator@U?$pair@$$CBV?$basic_string@_WU?$char_traits@_W@std@@V?$K2StringAllocator@_W@@@std@@PAVCProcedural@@@std@@@@$0A@@std@@@std@@KAAAU?$pair@$$CBV?$basic_string@_WU?$char_traits@_W@std@@V?$K2StringAllocator@_W@@@std@@PAVCProcedural@@@2@PAU_Node@?$_Tree_nod@V?$_Tmap_traits@V?$basic_string@_WU?$char_traits@_W@std@@V?$K2StringAllocator@_W@@@std@@PAVCProcedural@@U?$less@V?$basic_string@_WU?$char_traits@_W@std@@V?$K2StringAllocator@_W@@@std@@@2@V?$K2MapAllocator@U?$pair@$$CBV?$basic_string@_WU?$char_traits@_W@std@@V?$K2StringAllocator@_W@@@std@@PAVCProcedural@@@std@@@@$0A@@std@@@2@@Z 1711add0 f i c_procedural.obj
 0002:0005cdf0       ?_Min@?$_Tree@V?$_Tmap_traits@V?$basic_string@_WU?$char_traits@_W@std@@V?$K2StringAllocator@_W@@@std@@PAVCProcedural@@U?$less@V?$basic_string@_WU?$char_traits@_W@std@@V?$K2StringAllocator@_W@@@std@@@2@V?$K2MapAllocator@U?$pair@$$CBV?$basic_string@_WU?$char_traits@_W@std@@V?$K2StringAllocator@_W@@@std@@PAVCProcedural@@@std@@@@$0A@@std@@@std@@KAPAU_Node@?$_Tree_nod@V?$_Tmap_traits@V?$basic_string@_WU?$char_traits@_W@std@@V?$K2StringAllocator@_W@@@std@@PAVCProcedural@@U?$less@V?$basic_string@_WU?$char_traits@_W@std@@V?$K2StringAllocator@_W@@@std@@@2@V?$K2MapAllocator@U?$pair@$$CBV?$basic_string@_WU?$char_traits@_W@std@@V?$K2StringAllocator@_W@@@std@@PAVCProcedural@@@std@@@@$0A@@std@@@2@PAU342@@Z 1711adf0 f i c_procedural.obj
 0002:0005ce50       ??6CConsole@@QAEAAVCConsoleStream@@ABV?$basic_string@_WU?$char_traits@_W@std@@V?$K2StringAllocator@_W@@@std@@@Z 1711ae50 f i c_procedural.obj
 0002:0005ce80       ??A?$vector@V?$basic_string@_WU?$char_traits@_W@std@@V?$K2StringAllocator@_W@@@std@@V?$K2VectorAllocator@V?$basic_string@_WU?$char_traits@_W@std@@V?$K2StringAllocator@_W@@@std@@@@@std@@QBEABV?$basic_string@_WU?$char_traits@_W@std@@V?$K2StringAllocator@_W@@@1@I@Z 1711ae80 f i c_procedural.obj
 0002:0005cfa0       ?GetInstance@CProceduralRegistry@@SAPAV1@XZ 1711afa0 f   c_proceduralregistry.obj
 0002:0005d0c0       ??0CProceduralRegistry@@AAE@XZ 1711b0c0 f i c_proceduralregistry.obj
 0002:0005d140       ??1?$map@V?$basic_string@_WU?$char_traits@_W@std@@V?$K2StringAllocator@_W@@@std@@PAVCProcedural@@U?$less@V?$basic_string@_WU?$char_traits@_W@std@@V?$K2StringAllocator@_W@@@std@@@2@V?$K2MapAllocator@U?$pair@$$CBV?$basic_string@_WU?$char_traits@_W@std@@V?$K2StringAllocator@_W@@@std@@PAVCProcedural@@@std@@@@@@QAE@XZ 1711b140 f i c_proceduralregistry.obj
 0002:0005d170       ??1?$map@V?$basic_string@_WU?$char_traits@_W@std@@V?$K2StringAllocator@_W@@@std@@PAVCProcedural@@U?$less@V?$basic_string@_WU?$char_traits@_W@std@@V?$K2StringAllocator@_W@@@std@@@2@V?$K2MapAllocator@U?$pair@$$CBV?$basic_string@_WU?$char_traits@_W@std@@V?$K2StringAllocator@_W@@@std@@PAVCProcedural@@@std@@@@@std@@QAE@XZ 1711b170 f i c_proceduralregistry.obj
 0002:0005d1a0       ?Release@CProceduralRegistry@@SAXXZ 1711b1a0 f   c_proceduralregistry.obj
 0002:0005d230       ??_GCProceduralRegistry@@QAEPAXI@Z 1711b230 f i c_proceduralregistry.obj
 0002:0005d280       ??1CProceduralRegistry@@QAE@XZ 1711b280 f i c_proceduralregistry.obj
 0002:0005d300       ??1?$map@V?$basic_string@_WU?$char_traits@_W@std@@V?$K2StringAllocator@_W@@@std@@HU?$less@V?$basic_string@_WU?$char_traits@_W@std@@V?$K2StringAllocator@_W@@@std@@@2@V?$K2MapAllocator@U?$pair@$$CBV?$basic_string@_WU?$char_traits@_W@std@@V?$K2StringAllocator@_W@@@std@@H@std@@@@@@QAE@XZ 1711b300 f i c_proceduralregistry.obj
 0002:0005d330       ??1?$map@V?$basic_string@_WU?$char_traits@_W@std@@V?$K2StringAllocator@_W@@@std@@HU?$less@V?$basic_string@_WU?$char_traits@_W@std@@V?$K2StringAllocator@_W@@@std@@@2@V?$K2MapAllocator@U?$pair@$$CBV?$basic_string@_WU?$char_traits@_W@std@@V?$K2StringAllocator@_W@@@std@@H@std@@@@@std@@QAE@XZ 1711b330 f i c_proceduralregistry.obj
 0002:0005d360       ?Register@CProceduralRegistry@@QAEXPAVCProcedural@@@Z 1711b360 f   c_proceduralregistry.obj
 0002:0005d540       ??1iterator@?$_Tree@V?$_Tmap_traits@V?$basic_string@_WU?$char_traits@_W@std@@V?$K2StringAllocator@_W@@@std@@PAVCProcedural@@U?$less@V?$basic_string@_WU?$char_traits@_W@std@@V?$K2StringAllocator@_W@@@std@@@2@V?$K2MapAllocator@U?$pair@$$CBV?$basic_string@_WU?$char_traits@_W@std@@V?$K2StringAllocator@_W@@@std@@PAVCProcedural@@@std@@@@$0A@@std@@@std@@QAE@XZ 1711b540 f i c_proceduralregistry.obj
 0002:0005d570       ?Unregister@CProceduralRegistry@@QAEXABV?$basic_string@_WU?$char_traits@_W@std@@V?$K2StringAllocator@_W@@@std@@@Z 1711b570 f   c_proceduralregistry.obj
 0002:0005d680       ??0iterator@?$_Tree@V?$_Tmap_traits@V?$basic_string@_WU?$char_traits@_W@std@@V?$K2StringAllocator@_W@@@std@@PAVCProcedural@@U?$less@V?$basic_string@_WU?$char_traits@_W@std@@V?$K2StringAllocator@_W@@@std@@@2@V?$K2MapAllocator@U?$pair@$$CBV?$basic_string@_WU?$char_traits@_W@std@@V?$K2StringAllocator@_W@@@std@@PAVCProcedural@@@std@@@@$0A@@std@@@std@@QAE@ABV012@@Z 1711b680 f i c_proceduralregistry.obj
 0002:0005d6b0       ??0const_iterator@?$_Tree@V?$_Tmap_traits@V?$basic_string@_WU?$char_traits@_W@std@@V?$K2StringAllocator@_W@@@std@@PAVCProcedural@@U?$less@V?$basic_string@_WU?$char_traits@_W@std@@V?$K2StringAllocator@_W@@@std@@@2@V?$K2MapAllocator@U?$pair@$$CBV?$basic_string@_WU?$char_traits@_W@std@@V?$K2StringAllocator@_W@@@std@@PAVCProcedural@@@std@@@@$0A@@std@@@std@@QAE@ABV012@@Z 1711b6b0 f i c_proceduralregistry.obj
 0002:0005d6f0       ??0?$_Bidit@U?$pair@$$CBV?$basic_string@_WU?$char_traits@_W@std@@V?$K2StringAllocator@_W@@@std@@PAVCProcedural@@@std@@HPBU12@ABU12@@std@@QAE@ABU01@@Z 1711b6f0 f i c_proceduralregistry.obj
 0002:0005d720       ?RegisterProcedurals@CProceduralRegistry@@QAEXXZ 1711b720 f   c_proceduralregistry.obj
 0002:0005d9e0       ?GetFlags@CProcedural@@QBEHXZ 1711b9e0 f i c_proceduralregistry.obj
 0002:0005da00       ??0STextureMapEntry@@QAE@HHI@Z 1711ba00 f i c_proceduralregistry.obj
 0002:0005da40       ??1iterator@?$_Tree@V?$_Tmap_traits@V?$basic_string@_WU?$char_traits@_W@std@@V?$K2StringAllocator@_W@@@std@@USTextureMapEntry@@U?$less@V?$basic_string@_WU?$char_traits@_W@std@@V?$K2StringAllocator@_W@@@std@@@2@V?$K2MapAllocator@U?$pair@$$CBV?$basic_string@_WU?$char_traits@_W@std@@V?$K2StringAllocator@_W@@@std@@USTextureMapEntry@@@std@@@@$0A@@std@@@std@@QAE@XZ 1711ba40 f i c_proceduralregistry.obj
 0002:0005da70       ??1const_iterator@?$_Tree@V?$_Tmap_traits@V?$basic_string@_WU?$char_traits@_W@std@@V?$K2StringAllocator@_W@@@std@@USTextureMapEntry@@U?$less@V?$basic_string@_WU?$char_traits@_W@std@@V?$K2StringAllocator@_W@@@std@@@2@V?$K2MapAllocator@U?$pair@$$CBV?$basic_string@_WU?$char_traits@_W@std@@V?$K2StringAllocator@_W@@@std@@USTextureMapEntry@@@std@@@@$0A@@std@@@std@@QAE@XZ 1711ba70 f i c_proceduralregistry.obj
 0002:0005daa0       ??1?$_Bidit@U?$pair@$$CBV?$basic_string@_WU?$char_traits@_W@std@@V?$K2StringAllocator@_W@@@std@@USTextureMapEntry@@@std@@HPBU12@ABU12@@std@@QAE@XZ 1711baa0 f i c_proceduralregistry.obj
 0002:0005dad0       ?GetTextureIndex@CProceduralRegistry@@QAEHABV?$basic_string@_WU?$char_traits@_W@std@@V?$K2StringAllocator@_W@@@std@@@Z 1711bad0 f   c_proceduralregistry.obj
 0002:0005dee0       ??1iterator@?$_Tree@V?$_Tmap_traits@V?$basic_string@_WU?$char_traits@_W@std@@V?$K2StringAllocator@_W@@@std@@HU?$less@V?$basic_string@_WU?$char_traits@_W@std@@V?$K2StringAllocator@_W@@@std@@@2@V?$K2MapAllocator@U?$pair@$$CBV?$basic_string@_WU?$char_traits@_W@std@@V?$K2StringAllocator@_W@@@std@@H@std@@@@$0A@@std@@@std@@QAE@XZ 1711bee0 f i c_proceduralregistry.obj
 0002:0005df10       ??1const_iterator@?$_Tree@V?$_Tmap_traits@V?$basic_string@_WU?$char_traits@_W@std@@V?$K2StringAllocator@_W@@@std@@HU?$less@V?$basic_string@_WU?$char_traits@_W@std@@V?$K2StringAllocator@_W@@@std@@@2@V?$K2MapAllocator@U?$pair@$$CBV?$basic_string@_WU?$char_traits@_W@std@@V?$K2StringAllocator@_W@@@std@@H@std@@@@$0A@@std@@@std@@QAE@XZ 1711bf10 f i c_proceduralregistry.obj
 0002:0005df40       ??1?$_Bidit@U?$pair@$$CBV?$basic_string@_WU?$char_traits@_W@std@@V?$K2StringAllocator@_W@@@std@@H@std@@HPBU12@ABU12@@std@@QAE@XZ 1711bf40 f i c_proceduralregistry.obj
 0002:0005df70       ??0?$map@V?$basic_string@_WU?$char_traits@_W@std@@V?$K2StringAllocator@_W@@@std@@PAVCProcedural@@U?$less@V?$basic_string@_WU?$char_traits@_W@std@@V?$K2StringAllocator@_W@@@std@@@2@V?$K2MapAllocator@U?$pair@$$CBV?$basic_string@_WU?$char_traits@_W@std@@V?$K2StringAllocator@_W@@@std@@PAVCProcedural@@@std@@@@@@QAE@XZ 1711bf70 f i c_proceduralregistry.obj
 0002:0005dfa0       ??A?$map@V?$basic_string@_WU?$char_traits@_W@std@@V?$K2StringAllocator@_W@@@std@@PAVCProcedural@@U?$less@V?$basic_string@_WU?$char_traits@_W@std@@V?$K2StringAllocator@_W@@@std@@@2@V?$K2MapAllocator@U?$pair@$$CBV?$basic_string@_WU?$char_traits@_W@std@@V?$K2StringAllocator@_W@@@std@@PAVCProcedural@@@std@@@@@std@@QAEAAPAVCProcedural@@ABV?$basic_string@_WU?$char_traits@_W@std@@V?$K2StringAllocator@_W@@@1@@Z 1711bfa0 f i c_proceduralregistry.obj
 0002:0005e1f0       ??1?$_Tree@V?$_Tmap_traits@V?$basic_string@_WU?$char_traits@_W@std@@V?$K2StringAllocator@_W@@@std@@PAVCProcedural@@U?$less@V?$basic_string@_WU?$char_traits@_W@std@@V?$K2StringAllocator@_W@@@std@@@2@V?$K2MapAllocator@U?$pair@$$CBV?$basic_string@_WU?$char_traits@_W@std@@V?$K2StringAllocator@_W@@@std@@PAVCProcedural@@@std@@@@$0A@@std@@@std@@QAE@XZ 1711c1f0 f i c_proceduralregistry.obj
 0002:0005e270       ?begin@?$_Tree@V?$_Tmap_traits@V?$basic_string@_WU?$char_traits@_W@std@@V?$K2StringAllocator@_W@@@std@@PAVCProcedural@@U?$less@V?$basic_string@_WU?$char_traits@_W@std@@V?$K2StringAllocator@_W@@@std@@@2@V?$K2MapAllocator@U?$pair@$$CBV?$basic_string@_WU?$char_traits@_W@std@@V?$K2StringAllocator@_W@@@std@@PAVCProcedural@@@std@@@@$0A@@std@@@std@@QAE?AViterator@12@XZ 1711c270 f i c_proceduralregistry.obj
 0002:0005e2c0       ?end@?$_Tree@V?$_Tmap_traits@V?$basic_string@_WU?$char_traits@_W@std@@V?$K2StringAllocator@_W@@@std@@PAVCProcedural@@U?$less@V?$basic_string@_WU?$char_traits@_W@std@@V?$K2StringAllocator@_W@@@std@@@2@V?$K2MapAllocator@U?$pair@$$CBV?$basic_string@_WU?$char_traits@_W@std@@V?$K2StringAllocator@_W@@@std@@PAVCProcedural@@@std@@@@$0A@@std@@@std@@QAE?AViterator@12@XZ 1711c2c0 f i c_proceduralregistry.obj
 0002:0005e310       ?erase@?$_Tree@V?$_Tmap_traits@V?$basic_string@_WU?$char_traits@_W@std@@V?$K2StringAllocator@_W@@@std@@PAVCProcedural@@U?$less@V?$basic_string@_WU?$char_traits@_W@std@@V?$K2StringAllocator@_W@@@std@@@2@V?$K2MapAllocator@U?$pair@$$CBV?$basic_string@_WU?$char_traits@_W@std@@V?$K2StringAllocator@_W@@@std@@PAVCProcedural@@@std@@@@$0A@@std@@@std@@QAE?AViterator@12@V312@@Z 1711c310 f i c_proceduralregistry.obj
 0002:0005ecf0       ?find@?$_Tree@V?$_Tmap_traits@V?$basic_string@_WU?$char_traits@_W@std@@V?$K2StringAllocator@_W@@@std@@PAVCProcedural@@U?$less@V?$basic_string@_WU?$char_traits@_W@std@@V?$K2StringAllocator@_W@@@std@@@2@V?$K2MapAllocator@U?$pair@$$CBV?$basic_string@_WU?$char_traits@_W@std@@V?$K2StringAllocator@_W@@@std@@PAVCProcedural@@@std@@@@$0A@@std@@@std@@QAE?AViterator@12@ABV?$basic_string@_WU?$char_traits@_W@std@@V?$K2StringAllocator@_W@@@2@@Z 1711ccf0 f i c_proceduralregistry.obj
 0002:0005eed0       ??0?$map@V?$basic_string@_WU?$char_traits@_W@std@@V?$K2StringAllocator@_W@@@std@@HU?$less@V?$basic_string@_WU?$char_traits@_W@std@@V?$K2StringAllocator@_W@@@std@@@2@V?$K2MapAllocator@U?$pair@$$CBV?$basic_string@_WU?$char_traits@_W@std@@V?$K2StringAllocator@_W@@@std@@H@std@@@@@@QAE@XZ 1711ced0 f i c_proceduralregistry.obj
 0002:0005ef00       ??A?$map@V?$basic_string@_WU?$char_traits@_W@std@@V?$K2StringAllocator@_W@@@std@@HU?$less@V?$basic_string@_WU?$char_traits@_W@std@@V?$K2StringAllocator@_W@@@std@@@2@V?$K2MapAllocator@U?$pair@$$CBV?$basic_string@_WU?$char_traits@_W@std@@V?$K2StringAllocator@_W@@@std@@H@std@@@@@std@@QAEAAHABV?$basic_string@_WU?$char_traits@_W@std@@V?$K2StringAllocator@_W@@@1@@Z 1711cf00 f i c_proceduralregistry.obj
 0002:0005f150       ??1?$_Tree@V?$_Tmap_traits@V?$basic_string@_WU?$char_traits@_W@std@@V?$K2StringAllocator@_W@@@std@@HU?$less@V?$basic_string@_WU?$char_traits@_W@std@@V?$K2StringAllocator@_W@@@std@@@2@V?$K2MapAllocator@U?$pair@$$CBV?$basic_string@_WU?$char_traits@_W@std@@V?$K2StringAllocator@_W@@@std@@H@std@@@@$0A@@std@@@std@@QAE@XZ 1711d150 f i c_proceduralregistry.obj
 0002:0005f1d0       ?end@?$_Tree@V?$_Tmap_traits@V?$basic_string@_WU?$char_traits@_W@std@@V?$K2StringAllocator@_W@@@std@@HU?$less@V?$basic_string@_WU?$char_traits@_W@std@@V?$K2StringAllocator@_W@@@std@@@2@V?$K2MapAllocator@U?$pair@$$CBV?$basic_string@_WU?$char_traits@_W@std@@V?$K2StringAllocator@_W@@@std@@H@std@@@@$0A@@std@@@std@@QAE?AViterator@12@XZ 1711d1d0 f i c_proceduralregistry.obj
 0002:0005f220       ?find@?$_Tree@V?$_Tmap_traits@V?$basic_string@_WU?$char_traits@_W@std@@V?$K2StringAllocator@_W@@@std@@HU?$less@V?$basic_string@_WU?$char_traits@_W@std@@V?$K2StringAllocator@_W@@@std@@@2@V?$K2MapAllocator@U?$pair@$$CBV?$basic_string@_WU?$char_traits@_W@std@@V?$K2StringAllocator@_W@@@std@@H@std@@@@$0A@@std@@@std@@QAE?AViterator@12@ABV?$basic_string@_WU?$char_traits@_W@std@@V?$K2StringAllocator@_W@@@2@@Z 1711d220 f i c_proceduralregistry.obj
 0002:0005f400       ??Citerator@?$_Tree@V?$_Tmap_traits@V?$basic_string@_WU?$char_traits@_W@std@@V?$K2StringAllocator@_W@@@std@@PAVCProcedural@@U?$less@V?$basic_string@_WU?$char_traits@_W@std@@V?$K2StringAllocator@_W@@@std@@@2@V?$K2MapAllocator@U?$pair@$$CBV?$basic_string@_WU?$char_traits@_W@std@@V?$K2StringAllocator@_W@@@std@@PAVCProcedural@@@std@@@@$0A@@std@@@std@@QBEPAU?$pair@$$CBV?$basic_string@_WU?$char_traits@_W@std@@V?$K2StringAllocator@_W@@@std@@PAVCProcedural@@@2@XZ 1711d400 f i c_proceduralregistry.obj
 0002:0005f430       ??Eiterator@?$_Tree@V?$_Tmap_traits@V?$basic_string@_WU?$char_traits@_W@std@@V?$K2StringAllocator@_W@@@std@@PAVCProcedural@@U?$less@V?$basic_string@_WU?$char_traits@_W@std@@V?$K2StringAllocator@_W@@@std@@@2@V?$K2MapAllocator@U?$pair@$$CBV?$basic_string@_WU?$char_traits@_W@std@@V?$K2StringAllocator@_W@@@std@@PAVCProcedural@@@std@@@@$0A@@std@@@std@@QAEAAV012@XZ 1711d430 f i c_proceduralregistry.obj
 0002:0005f460       ??A?$map@V?$basic_string@_WU?$char_traits@_W@std@@V?$K2StringAllocator@_W@@@std@@USTextureMapEntry@@U?$less@V?$basic_string@_WU?$char_traits@_W@std@@V?$K2StringAllocator@_W@@@std@@@2@V?$K2MapAllocator@U?$pair@$$CBV?$basic_string@_WU?$char_traits@_W@std@@V?$K2StringAllocator@_W@@@std@@USTextureMapEntry@@@std@@@@@std@@QAEAAUSTextureMapEntry@@ABV?$basic_string@_WU?$char_traits@_W@std@@V?$K2StringAllocator@_W@@@1@@Z 1711d460 f i c_proceduralregistry.obj
 0002:0005f6b0       ??0STextureMapEntry@@QAE@XZ 1711d6b0 f i c_proceduralregistry.obj
 0002:0005f6d0       ?end@?$_Tree@V?$_Tmap_traits@V?$basic_string@_WU?$char_traits@_W@std@@V?$K2StringAllocator@_W@@@std@@USTextureMapEntry@@U?$less@V?$basic_string@_WU?$char_traits@_W@std@@V?$K2StringAllocator@_W@@@std@@@2@V?$K2MapAllocator@U?$pair@$$CBV?$basic_string@_WU?$char_traits@_W@std@@V?$K2StringAllocator@_W@@@std@@USTextureMapEntry@@@std@@@@$0A@@std@@@std@@QAE?AViterator@12@XZ 1711d6d0 f i c_proceduralregistry.obj
 0002:0005f720       ?find@?$_Tree@V?$_Tmap_traits@V?$basic_string@_WU?$char_traits@_W@std@@V?$K2StringAllocator@_W@@@std@@USTextureMapEntry@@U?$less@V?$basic_string@_WU?$char_traits@_W@std@@V?$K2StringAllocator@_W@@@std@@@2@V?$K2MapAllocator@U?$pair@$$CBV?$basic_string@_WU?$char_traits@_W@std@@V?$K2StringAllocator@_W@@@std@@USTextureMapEntry@@@std@@@@$0A@@std@@@std@@QAE?AViterator@12@ABV?$basic_string@_WU?$char_traits@_W@std@@V?$K2StringAllocator@_W@@@2@@Z 1711d720 f i c_proceduralregistry.obj
 0002:0005f900       ??Citerator@?$_Tree@V?$_Tmap_traits@V?$basic_string@_WU?$char_traits@_W@std@@V?$K2StringAllocator@_W@@@std@@USTextureMapEntry@@U?$less@V?$basic_string@_WU?$char_traits@_W@std@@V?$K2StringAllocator@_W@@@std@@@2@V?$K2MapAllocator@U?$pair@$$CBV?$basic_string@_WU?$char_traits@_W@std@@V?$K2StringAllocator@_W@@@std@@USTextureMapEntry@@@std@@@@$0A@@std@@@std@@QBEPAU?$pair@$$CBV?$basic_string@_WU?$char_traits@_W@std@@V?$K2StringAllocator@_W@@@std@@USTextureMapEntry@@@2@XZ 1711d900 f i c_proceduralregistry.obj
 0002:0005f930       ??9const_iterator@?$_Tree@V?$_Tmap_traits@V?$basic_string@_WU?$char_traits@_W@std@@V?$K2StringAllocator@_W@@@std@@USTextureMapEntry@@U?$less@V?$basic_string@_WU?$char_traits@_W@std@@V?$K2StringAllocator@_W@@@std@@@2@V?$K2MapAllocator@U?$pair@$$CBV?$basic_string@_WU?$char_traits@_W@std@@V?$K2StringAllocator@_W@@@std@@USTextureMapEntry@@@std@@@@$0A@@std@@@std@@QBE_NABV012@@Z 1711d930 f i c_proceduralregistry.obj
 0002:0005f970       ??Citerator@?$_Tree@V?$_Tmap_traits@V?$basic_string@_WU?$char_traits@_W@std@@V?$K2StringAllocator@_W@@@std@@HU?$less@V?$basic_string@_WU?$char_traits@_W@std@@V?$K2StringAllocator@_W@@@std@@@2@V?$K2MapAllocator@U?$pair@$$CBV?$basic_string@_WU?$char_traits@_W@std@@V?$K2StringAllocator@_W@@@std@@H@std@@@@$0A@@std@@@std@@QBEPAU?$pair@$$CBV?$basic_string@_WU?$char_traits@_W@std@@V?$K2StringAllocator@_W@@@std@@H@2@XZ 1711d970 f i c_proceduralregistry.obj
 0002:0005f9a0       ??9const_iterator@?$_Tree@V?$_Tmap_traits@V?$basic_string@_WU?$char_traits@_W@std@@V?$K2StringAllocator@_W@@@std@@HU?$less@V?$basic_string@_WU?$char_traits@_W@std@@V?$K2StringAllocator@_W@@@std@@@2@V?$K2MapAllocator@U?$pair@$$CBV?$basic_string@_WU?$char_traits@_W@std@@V?$K2StringAllocator@_W@@@std@@H@std@@@@$0A@@std@@@std@@QBE_NABV012@@Z 1711d9a0 f i c_proceduralregistry.obj
 0002:0005f9e0       ??1?$pair@$$CBV?$basic_string@_WU?$char_traits@_W@std@@V?$K2StringAllocator@_W@@@std@@PAVCProcedural@@@std@@QAE@XZ 1711d9e0 f i c_proceduralregistry.obj
 0002:0005fa10       ??4iterator@?$_Tree@V?$_Tmap_traits@V?$basic_string@_WU?$char_traits@_W@std@@V?$K2StringAllocator@_W@@@std@@PAVCProcedural@@U?$less@V?$basic_string@_WU?$char_traits@_W@std@@V?$K2StringAllocator@_W@@@std@@@2@V?$K2MapAllocator@U?$pair@$$CBV?$basic_string@_WU?$char_traits@_W@std@@V?$K2StringAllocator@_W@@@std@@PAVCProcedural@@@std@@@@$0A@@std@@@std@@QAEAAV012@ABV012@@Z 1711da10 f i c_proceduralregistry.obj
 0002:0005fa40       ??1?$_Tree_val@V?$_Tmap_traits@V?$basic_string@_WU?$char_traits@_W@std@@V?$K2StringAllocator@_W@@@std@@PAVCProcedural@@U?$less@V?$basic_string@_WU?$char_traits@_W@std@@V?$K2StringAllocator@_W@@@std@@@2@V?$K2MapAllocator@U?$pair@$$CBV?$basic_string@_WU?$char_traits@_W@std@@V?$K2StringAllocator@_W@@@std@@PAVCProcedural@@@std@@@@$0A@@std@@@std@@QAE@XZ 1711da40 f i c_proceduralregistry.obj
 0002:0005fac0       ??1?$pair@$$CBV?$basic_string@_WU?$char_traits@_W@std@@V?$K2StringAllocator@_W@@@std@@H@std@@QAE@XZ 1711dac0 f i c_proceduralregistry.obj
 0002:0005faf0       ??0iterator@?$_Tree@V?$_Tmap_traits@V?$basic_string@_WU?$char_traits@_W@std@@V?$K2StringAllocator@_W@@@std@@HU?$less@V?$basic_string@_WU?$char_traits@_W@std@@V?$K2StringAllocator@_W@@@std@@@2@V?$K2MapAllocator@U?$pair@$$CBV?$basic_string@_WU?$char_traits@_W@std@@V?$K2StringAllocator@_W@@@std@@H@std@@@@$0A@@std@@@std@@QAE@ABV012@@Z 1711daf0 f i c_proceduralregistry.obj
 0002:0005fb20       ??4iterator@?$_Tree@V?$_Tmap_traits@V?$basic_string@_WU?$char_traits@_W@std@@V?$K2StringAllocator@_W@@@std@@HU?$less@V?$basic_string@_WU?$char_traits@_W@std@@V?$K2StringAllocator@_W@@@std@@@2@V?$K2MapAllocator@U?$pair@$$CBV?$basic_string@_WU?$char_traits@_W@std@@V?$K2StringAllocator@_W@@@std@@H@std@@@@$0A@@std@@@std@@QAEAAV012@ABV012@@Z 1711db20 f i c_proceduralregistry.obj
 0002:0005fb50       ??1?$_Tree_val@V?$_Tmap_traits@V?$basic_string@_WU?$char_traits@_W@std@@V?$K2StringAllocator@_W@@@std@@HU?$less@V?$basic_string@_WU?$char_traits@_W@std@@V?$K2StringAllocator@_W@@@std@@@2@V?$K2MapAllocator@U?$pair@$$CBV?$basic_string@_WU?$char_traits@_W@std@@V?$K2StringAllocator@_W@@@std@@H@std@@@@$0A@@std@@@std@@QAE@XZ 1711db50 f i c_proceduralregistry.obj
 0002:0005fbd0       ??1?$pair@$$CBV?$basic_string@_WU?$char_traits@_W@std@@V?$K2StringAllocator@_W@@@std@@USTextureMapEntry@@@std@@QAE@XZ 1711dbd0 f i c_proceduralregistry.obj
 0002:0005fc00       ??0iterator@?$_Tree@V?$_Tmap_traits@V?$basic_string@_WU?$char_traits@_W@std@@V?$K2StringAllocator@_W@@@std@@USTextureMapEntry@@U?$less@V?$basic_string@_WU?$char_traits@_W@std@@V?$K2StringAllocator@_W@@@std@@@2@V?$K2MapAllocator@U?$pair@$$CBV?$basic_string@_WU?$char_traits@_W@std@@V?$K2StringAllocator@_W@@@std@@USTextureMapEntry@@@std@@@@$0A@@std@@@std@@QAE@ABV012@@Z 1711dc00 f i c_proceduralregistry.obj
 0002:0005fc30       ??4iterator@?$_Tree@V?$_Tmap_traits@V?$basic_string@_WU?$char_traits@_W@std@@V?$K2StringAllocator@_W@@@std@@USTextureMapEntry@@U?$less@V?$basic_string@_WU?$char_traits@_W@std@@V?$K2StringAllocator@_W@@@std@@@2@V?$K2MapAllocator@U?$pair@$$CBV?$basic_string@_WU?$char_traits@_W@std@@V?$K2StringAllocator@_W@@@std@@USTextureMapEntry@@@std@@@@$0A@@std@@@std@@QAEAAV012@ABV012@@Z 1711dc30 f i c_proceduralregistry.obj
 0002:0005fc60       ??4const_iterator@?$_Tree@V?$_Tmap_traits@V?$basic_string@_WU?$char_traits@_W@std@@V?$K2StringAllocator@_W@@@std@@PAVCProcedural@@U?$less@V?$basic_string@_WU?$char_traits@_W@std@@V?$K2StringAllocator@_W@@@std@@@2@V?$K2MapAllocator@U?$pair@$$CBV?$basic_string@_WU?$char_traits@_W@std@@V?$K2StringAllocator@_W@@@std@@PAVCProcedural@@@std@@@@$0A@@std@@@std@@QAEAAV012@ABV012@@Z 1711dc60 f i c_proceduralregistry.obj
 0002:0005fca0       ??1?$_Tree_ptr@V?$_Tmap_traits@V?$basic_string@_WU?$char_traits@_W@std@@V?$K2StringAllocator@_W@@@std@@PAVCProcedural@@U?$less@V?$basic_string@_WU?$char_traits@_W@std@@V?$K2StringAllocator@_W@@@std@@@2@V?$K2MapAllocator@U?$pair@$$CBV?$basic_string@_WU?$char_traits@_W@std@@V?$K2StringAllocator@_W@@@std@@PAVCProcedural@@@std@@@@$0A@@std@@@std@@QAE@XZ 1711dca0 f i c_proceduralregistry.obj
 0002:0005fd20       ??0const_iterator@?$_Tree@V?$_Tmap_traits@V?$basic_string@_WU?$char_traits@_W@std@@V?$K2StringAllocator@_W@@@std@@HU?$less@V?$basic_string@_WU?$char_traits@_W@std@@V?$K2StringAllocator@_W@@@std@@@2@V?$K2MapAllocator@U?$pair@$$CBV?$basic_string@_WU?$char_traits@_W@std@@V?$K2StringAllocator@_W@@@std@@H@std@@@@$0A@@std@@@std@@QAE@ABV012@@Z 1711dd20 f i c_proceduralregistry.obj
 0002:0005fd60       ??4const_iterator@?$_Tree@V?$_Tmap_traits@V?$basic_string@_WU?$char_traits@_W@std@@V?$K2StringAllocator@_W@@@std@@HU?$less@V?$basic_string@_WU?$char_traits@_W@std@@V?$K2StringAllocator@_W@@@std@@@2@V?$K2MapAllocator@U?$pair@$$CBV?$basic_string@_WU?$char_traits@_W@std@@V?$K2StringAllocator@_W@@@std@@H@std@@@@$0A@@std@@@std@@QAEAAV012@ABV012@@Z 1711dd60 f i c_proceduralregistry.obj
 0002:0005fda0       ??1?$_Tree_ptr@V?$_Tmap_traits@V?$basic_string@_WU?$char_traits@_W@std@@V?$K2StringAllocator@_W@@@std@@HU?$less@V?$basic_string@_WU?$char_traits@_W@std@@V?$K2StringAllocator@_W@@@std@@@2@V?$K2MapAllocator@U?$pair@$$CBV?$basic_string@_WU?$char_traits@_W@std@@V?$K2StringAllocator@_W@@@std@@H@std@@@@$0A@@std@@@std@@QAE@XZ 1711dda0 f i c_proceduralregistry.obj
 0002:0005fe20       ??0const_iterator@?$_Tree@V?$_Tmap_traits@V?$basic_string@_WU?$char_traits@_W@std@@V?$K2StringAllocator@_W@@@std@@USTextureMapEntry@@U?$less@V?$basic_string@_WU?$char_traits@_W@std@@V?$K2StringAllocator@_W@@@std@@@2@V?$K2MapAllocator@U?$pair@$$CBV?$basic_string@_WU?$char_traits@_W@std@@V?$K2StringAllocator@_W@@@std@@USTextureMapEntry@@@std@@@@$0A@@std@@@std@@QAE@ABV012@@Z 1711de20 f i c_proceduralregistry.obj
 0002:0005fe60       ??4const_iterator@?$_Tree@V?$_Tmap_traits@V?$basic_string@_WU?$char_traits@_W@std@@V?$K2StringAllocator@_W@@@std@@USTextureMapEntry@@U?$less@V?$basic_string@_WU?$char_traits@_W@std@@V?$K2StringAllocator@_W@@@std@@@2@V?$K2MapAllocator@U?$pair@$$CBV?$basic_string@_WU?$char_traits@_W@std@@V?$K2StringAllocator@_W@@@std@@USTextureMapEntry@@@std@@@@$0A@@std@@@std@@QAEAAV012@ABV012@@Z 1711de60 f i c_proceduralregistry.obj
 0002:0005fea0       ??4?$_Bidit@U?$pair@$$CBV?$basic_string@_WU?$char_traits@_W@std@@V?$K2StringAllocator@_W@@@std@@PAVCProcedural@@@std@@HPBU12@ABU12@@std@@QAEAAU01@ABU01@@Z 1711dea0 f i c_proceduralregistry.obj
 0002:0005fed0       ??1?$_Tree_nod@V?$_Tmap_traits@V?$basic_string@_WU?$char_traits@_W@std@@V?$K2StringAllocator@_W@@@std@@PAVCProcedural@@U?$less@V?$basic_string@_WU?$char_traits@_W@std@@V?$K2StringAllocator@_W@@@std@@@2@V?$K2MapAllocator@U?$pair@$$CBV?$basic_string@_WU?$char_traits@_W@std@@V?$K2StringAllocator@_W@@@std@@PAVCProcedural@@@std@@@@$0A@@std@@@std@@QAE@XZ 1711ded0 f i c_proceduralregistry.obj
 0002:0005ff50       ??0?$_Bidit@U?$pair@$$CBV?$basic_string@_WU?$char_traits@_W@std@@V?$K2StringAllocator@_W@@@std@@H@std@@HPBU12@ABU12@@std@@QAE@ABU01@@Z 1711df50 f i c_proceduralregistry.obj
 0002:0005ff80       ??4?$_Bidit@U?$pair@$$CBV?$basic_string@_WU?$char_traits@_W@std@@V?$K2StringAllocator@_W@@@std@@H@std@@HPBU12@ABU12@@std@@QAEAAU01@ABU01@@Z 1711df80 f i c_proceduralregistry.obj
 0002:0005ffb0       ??1?$_Tree_nod@V?$_Tmap_traits@V?$basic_string@_WU?$char_traits@_W@std@@V?$K2StringAllocator@_W@@@std@@HU?$less@V?$basic_string@_WU?$char_traits@_W@std@@V?$K2StringAllocator@_W@@@std@@@2@V?$K2MapAllocator@U?$pair@$$CBV?$basic_string@_WU?$char_traits@_W@std@@V?$K2StringAllocator@_W@@@std@@H@std@@@@$0A@@std@@@std@@QAE@XZ 1711dfb0 f i c_proceduralregistry.obj
 0002:00060030       ??0?$_Bidit@U?$pair@$$CBV?$basic_string@_WU?$char_traits@_W@std@@V?$K2StringAllocator@_W@@@std@@USTextureMapEntry@@@std@@HPBU12@ABU12@@std@@QAE@ABU01@@Z 1711e030 f i c_proceduralregistry.obj
 0002:00060060       ??4?$_Bidit@U?$pair@$$CBV?$basic_string@_WU?$char_traits@_W@std@@V?$K2StringAllocator@_W@@@std@@USTextureMapEntry@@@std@@HPBU12@ABU12@@std@@QAEAAU01@ABU01@@Z 1711e060 f i c_proceduralregistry.obj
 0002:00060090       ??1?$_Tmap_traits@V?$basic_string@_WU?$char_traits@_W@std@@V?$K2StringAllocator@_W@@@std@@PAVCProcedural@@U?$less@V?$basic_string@_WU?$char_traits@_W@std@@V?$K2StringAllocator@_W@@@std@@@2@V?$K2MapAllocator@U?$pair@$$CBV?$basic_string@_WU?$char_traits@_W@std@@V?$K2StringAllocator@_W@@@std@@PAVCProcedural@@@std@@@@$0A@@std@@QAE@XZ 1711e090 f i c_proceduralregistry.obj
 0002:000600c0       ??1?$_Tmap_traits@V?$basic_string@_WU?$char_traits@_W@std@@V?$K2StringAllocator@_W@@@std@@HU?$less@V?$basic_string@_WU?$char_traits@_W@std@@V?$K2StringAllocator@_W@@@std@@@2@V?$K2MapAllocator@U?$pair@$$CBV?$basic_string@_WU?$char_traits@_W@std@@V?$K2StringAllocator@_W@@@std@@H@std@@@@$0A@@std@@QAE@XZ 1711e0c0 f i c_proceduralregistry.obj
 0002:000600f0       ??R?$less@V?$basic_string@_WU?$char_traits@_W@std@@V?$K2StringAllocator@_W@@@std@@@std@@QBE_NABV?$basic_string@_WU?$char_traits@_W@std@@V?$K2StringAllocator@_W@@@1@0@Z 1711e0f0 f i c_proceduralregistry.obj
 0002:00060120       ??0?$map@V?$basic_string@_WU?$char_traits@_W@std@@V?$K2StringAllocator@_W@@@std@@PAVCProcedural@@U?$less@V?$basic_string@_WU?$char_traits@_W@std@@V?$K2StringAllocator@_W@@@std@@@2@V?$K2MapAllocator@U?$pair@$$CBV?$basic_string@_WU?$char_traits@_W@std@@V?$K2StringAllocator@_W@@@std@@PAVCProcedural@@@std@@@@@std@@QAE@XZ 1711e120 f i c_proceduralregistry.obj
 0002:000601c0       ?_Color@?$_Tree@V?$_Tmap_traits@V?$basic_string@_WU?$char_traits@_W@std@@V?$K2StringAllocator@_W@@@std@@PAVCProcedural@@U?$less@V?$basic_string@_WU?$char_traits@_W@std@@V?$K2StringAllocator@_W@@@std@@@2@V?$K2MapAllocator@U?$pair@$$CBV?$basic_string@_WU?$char_traits@_W@std@@V?$K2StringAllocator@_W@@@std@@PAVCProcedural@@@std@@@@$0A@@std@@@std@@KAAADPAU_Node@?$_Tree_nod@V?$_Tmap_traits@V?$basic_string@_WU?$char_traits@_W@std@@V?$K2StringAllocator@_W@@@std@@PAVCProcedural@@U?$less@V?$basic_string@_WU?$char_traits@_W@std@@V?$K2StringAllocator@_W@@@std@@@2@V?$K2MapAllocator@U?$pair@$$CBV?$basic_string@_WU?$char_traits@_W@std@@V?$K2StringAllocator@_W@@@std@@PAVCProcedural@@@std@@@@$0A@@std@@@2@@Z 1711e1c0 f i c_proceduralregistry.obj
 0002:000601e0       ?_Key@?$_Tree@V?$_Tmap_traits@V?$basic_string@_WU?$char_traits@_W@std@@V?$K2StringAllocator@_W@@@std@@PAVCProcedural@@U?$less@V?$basic_string@_WU?$char_traits@_W@std@@V?$K2StringAllocator@_W@@@std@@@2@V?$K2MapAllocator@U?$pair@$$CBV?$basic_string@_WU?$char_traits@_W@std@@V?$K2StringAllocator@_W@@@std@@PAVCProcedural@@@std@@@@$0A@@std@@@std@@KAABV?$basic_string@_WU?$char_traits@_W@std@@V?$K2StringAllocator@_W@@@2@PAU_Node@?$_Tree_nod@V?$_Tmap_traits@V?$basic_string@_WU?$char_traits@_W@std@@V?$K2StringAllocator@_W@@@std@@PAVCProcedural@@U?$less@V?$basic_string@_WU?$char_traits@_W@std@@V?$K2StringAllocator@_W@@@std@@@2@V?$K2MapAllocator@U?$pair@$$CBV?$basic_string@_WU?$char_traits@_W@std@@V?$K2StringAllocator@_W@@@std@@PAVCProcedural@@@std@@@@$0A@@std@@@2@@Z 1711e1e0 f i c_proceduralregistry.obj
 0002:00060210       ?insert@?$_Tree@V?$_Tmap_traits@V?$basic_string@_WU?$char_traits@_W@std@@V?$K2StringAllocator@_W@@@std@@PAVCProcedural@@U?$less@V?$basic_string@_WU?$char_traits@_W@std@@V?$K2StringAllocator@_W@@@std@@@2@V?$K2MapAllocator@U?$pair@$$CBV?$basic_string@_WU?$char_traits@_W@std@@V?$K2StringAllocator@_W@@@std@@PAVCProcedural@@@std@@@@$0A@@std@@@std@@QAE?AViterator@12@V312@ABU?$pair@$$CBV?$basic_string@_WU?$char_traits@_W@std@@V?$K2StringAllocator@_W@@@std@@PAVCProcedural@@@2@@Z 1711e210 f i c_proceduralregistry.obj
 0002:00060fd0       ?lower_bound@?$_Tree@V?$_Tmap_traits@V?$basic_string@_WU?$char_traits@_W@std@@V?$K2StringAllocator@_W@@@std@@PAVCProcedural@@U?$less@V?$basic_string@_WU?$char_traits@_W@std@@V?$K2StringAllocator@_W@@@std@@@2@V?$K2MapAllocator@U?$pair@$$CBV?$basic_string@_WU?$char_traits@_W@std@@V?$K2StringAllocator@_W@@@std@@PAVCProcedural@@@std@@@@$0A@@std@@@std@@QAE?AViterator@12@ABV?$basic_string@_WU?$char_traits@_W@std@@V?$K2StringAllocator@_W@@@2@@Z 1711efd0 f i c_proceduralregistry.obj
 0002:00061030       ?_Lrotate@?$_Tree@V?$_Tmap_traits@V?$basic_string@_WU?$char_traits@_W@std@@V?$K2StringAllocator@_W@@@std@@PAVCProcedural@@U?$less@V?$basic_string@_WU?$char_traits@_W@std@@V?$K2StringAllocator@_W@@@std@@@2@V?$K2MapAllocator@U?$pair@$$CBV?$basic_string@_WU?$char_traits@_W@std@@V?$K2StringAllocator@_W@@@std@@PAVCProcedural@@@std@@@@$0A@@std@@@std@@IAEXPAU_Node@?$_Tree_nod@V?$_Tmap_traits@V?$basic_string@_WU?$char_traits@_W@std@@V?$K2StringAllocator@_W@@@std@@PAVCProcedural@@U?$less@V?$basic_string@_WU?$char_traits@_W@std@@V?$K2StringAllocator@_W@@@std@@@2@V?$K2MapAllocator@U?$pair@$$CBV?$basic_string@_WU?$char_traits@_W@std@@V?$K2StringAllocator@_W@@@std@@PAVCProcedural@@@std@@@@$0A@@std@@@2@@Z 1711f030 f i c_proceduralregistry.obj
 0002:000611c0       ?_Max@?$_Tree@V?$_Tmap_traits@V?$basic_string@_WU?$char_traits@_W@std@@V?$K2StringAllocator@_W@@@std@@PAVCProcedural@@U?$less@V?$basic_string@_WU?$char_traits@_W@std@@V?$K2StringAllocator@_W@@@std@@@2@V?$K2MapAllocator@U?$pair@$$CBV?$basic_string@_WU?$char_traits@_W@std@@V?$K2StringAllocator@_W@@@std@@PAVCProcedural@@@std@@@@$0A@@std@@@std@@KAPAU_Node@?$_Tree_nod@V?$_Tmap_traits@V?$basic_string@_WU?$char_traits@_W@std@@V?$K2StringAllocator@_W@@@std@@PAVCProcedural@@U?$less@V?$basic_string@_WU?$char_traits@_W@std@@V?$K2StringAllocator@_W@@@std@@@2@V?$K2MapAllocator@U?$pair@$$CBV?$basic_string@_WU?$char_traits@_W@std@@V?$K2StringAllocator@_W@@@std@@PAVCProcedural@@@std@@@@$0A@@std@@@2@PAU342@@Z 1711f1c0 f i c_proceduralregistry.obj
 0002:00061220       ?_Rmost@?$_Tree@V?$_Tmap_traits@V?$basic_string@_WU?$char_traits@_W@std@@V?$K2StringAllocator@_W@@@std@@PAVCProcedural@@U?$less@V?$basic_string@_WU?$char_traits@_W@std@@V?$K2StringAllocator@_W@@@std@@@2@V?$K2MapAllocator@U?$pair@$$CBV?$basic_string@_WU?$char_traits@_W@std@@V?$K2StringAllocator@_W@@@std@@PAVCProcedural@@@std@@@@$0A@@std@@@std@@IBEAAPAU_Node@?$_Tree_nod@V?$_Tmap_traits@V?$basic_string@_WU?$char_traits@_W@std@@V?$K2StringAllocator@_W@@@std@@PAVCProcedural@@U?$less@V?$basic_string@_WU?$char_traits@_W@std@@V?$K2StringAllocator@_W@@@std@@@2@V?$K2MapAllocator@U?$pair@$$CBV?$basic_string@_WU?$char_traits@_W@std@@V?$K2StringAllocator@_W@@@std@@PAVCProcedural@@@std@@@@$0A@@std@@@2@XZ 1711f220 f i c_proceduralregistry.obj
 0002:00061250       ?_Root@?$_Tree@V?$_Tmap_traits@V?$basic_string@_WU?$char_traits@_W@std@@V?$K2StringAllocator@_W@@@std@@PAVCProcedural@@U?$less@V?$basic_string@_WU?$char_traits@_W@std@@V?$K2StringAllocator@_W@@@std@@@2@V?$K2MapAllocator@U?$pair@$$CBV?$basic_string@_WU?$char_traits@_W@std@@V?$K2StringAllocator@_W@@@std@@PAVCProcedural@@@std@@@@$0A@@std@@@std@@IBEAAPAU_Node@?$_Tree_nod@V?$_Tmap_traits@V?$basic_string@_WU?$char_traits@_W@std@@V?$K2StringAllocator@_W@@@std@@PAVCProcedural@@U?$less@V?$basic_string@_WU?$char_traits@_W@std@@V?$K2StringAllocator@_W@@@std@@@2@V?$K2MapAllocator@U?$pair@$$CBV?$basic_string@_WU?$char_traits@_W@std@@V?$K2StringAllocator@_W@@@std@@PAVCProcedural@@@std@@@@$0A@@std@@@2@XZ 1711f250 f i c_proceduralregistry.obj
 0002:00061280       ?_Rrotate@?$_Tree@V?$_Tmap_traits@V?$basic_string@_WU?$char_traits@_W@std@@V?$K2StringAllocator@_W@@@std@@PAVCProcedural@@U?$less@V?$basic_string@_WU?$char_traits@_W@std@@V?$K2StringAllocator@_W@@@std@@@2@V?$K2MapAllocator@U?$pair@$$CBV?$basic_string@_WU?$char_traits@_W@std@@V?$K2StringAllocator@_W@@@std@@PAVCProcedural@@@std@@@@$0A@@std@@@std@@IAEXPAU_Node@?$_Tree_nod@V?$_Tmap_traits@V?$basic_string@_WU?$char_traits@_W@std@@V?$K2StringAllocator@_W@@@std@@PAVCProcedural@@U?$less@V?$basic_string@_WU?$char_traits@_W@std@@V?$K2StringAllocator@_W@@@std@@@2@V?$K2MapAllocator@U?$pair@$$CBV?$basic_string@_WU?$char_traits@_W@std@@V?$K2StringAllocator@_W@@@std@@PAVCProcedural@@@std@@@@$0A@@std@@@2@@Z 1711f280 f i c_proceduralregistry.obj
 0002:00061410       ?_Orphan_ptr@?$_Tree@V?$_Tmap_traits@V?$basic_string@_WU?$char_traits@_W@std@@V?$K2StringAllocator@_W@@@std@@PAVCProcedural@@U?$less@V?$basic_string@_WU?$char_traits@_W@std@@V?$K2StringAllocator@_W@@@std@@@2@V?$K2MapAllocator@U?$pair@$$CBV?$basic_string@_WU?$char_traits@_W@std@@V?$K2StringAllocator@_W@@@std@@PAVCProcedural@@@std@@@@$0A@@std@@@std@@IBEXAAV12@PAU_Node@?$_Tree_nod@V?$_Tmap_traits@V?$basic_string@_WU?$char_traits@_W@std@@V?$K2StringAllocator@_W@@@std@@PAVCProcedural@@U?$less@V?$basic_string@_WU?$char_traits@_W@std@@V?$K2StringAllocator@_W@@@std@@@2@V?$K2MapAllocator@U?$pair@$$CBV?$basic_string@_WU?$char_traits@_W@std@@V?$K2StringAllocator@_W@@@std@@PAVCProcedural@@@std@@@@$0A@@std@@@2@@Z 1711f410 f i c_proceduralregistry.obj
 0002:000614c0       ?_Tidy@?$_Tree@V?$_Tmap_traits@V?$basic_string@_WU?$char_traits@_W@std@@V?$K2StringAllocator@_W@@@std@@PAVCProcedural@@U?$less@V?$basic_string@_WU?$char_traits@_W@std@@V?$K2StringAllocator@_W@@@std@@@2@V?$K2MapAllocator@U?$pair@$$CBV?$basic_string@_WU?$char_traits@_W@std@@V?$K2StringAllocator@_W@@@std@@PAVCProcedural@@@std@@@@$0A@@std@@@std@@IAEXXZ 1711f4c0 f i c_proceduralregistry.obj
 0002:00061610       ??1?$K2MapAllocator@U?$pair@$$CBV?$basic_string@_WU?$char_traits@_W@std@@V?$K2StringAllocator@_W@@@std@@PAVCProcedural@@@std@@@@QAE@XZ 1711f610 f i c_proceduralregistry.obj
 0002:00061630       ??1?$K2MapAllocator@U_Node@?$_Tree_nod@V?$_Tmap_traits@V?$basic_string@_WU?$char_traits@_W@std@@V?$K2StringAllocator@_W@@@std@@PAVCProcedural@@U?$less@V?$basic_string@_WU?$char_traits@_W@std@@V?$K2StringAllocator@_W@@@std@@@2@V?$K2MapAllocator@U?$pair@$$CBV?$basic_string@_WU?$char_traits@_W@std@@V?$K2StringAllocator@_W@@@std@@PAVCProcedural@@@std@@@@$0A@@std@@@std@@@@QAE@XZ 1711f630 f i c_proceduralregistry.obj
 0002:00061650       ?deallocate@?$K2MapAllocator@U_Node@?$_Tree_nod@V?$_Tmap_traits@V?$basic_string@_WU?$char_traits@_W@std@@V?$K2StringAllocator@_W@@@std@@PAVCProcedural@@U?$less@V?$basic_string@_WU?$char_traits@_W@std@@V?$K2StringAllocator@_W@@@std@@@2@V?$K2MapAllocator@U?$pair@$$CBV?$basic_string@_WU?$char_traits@_W@std@@V?$K2StringAllocator@_W@@@std@@PAVCProcedural@@@std@@@@$0A@@std@@@std@@@@QAEXPAU_Node@?$_Tree_nod@V?$_Tmap_traits@V?$basic_string@_WU?$char_traits@_W@std@@V?$K2StringAllocator@_W@@@std@@PAVCProcedural@@U?$less@V?$basic_string@_WU?$char_traits@_W@std@@V?$K2StringAllocator@_W@@@std@@@2@V?$K2MapAllocator@U?$pair@$$CBV?$basic_string@_WU?$char_traits@_W@std@@V?$K2StringAllocator@_W@@@std@@PAVCProcedural@@@std@@@@$0A@@std@@@std@@I@Z 1711f650 f i c_proceduralregistry.obj
 0002:00061690       ?destroy@?$allocator@U_Node@?$_Tree_nod@V?$_Tmap_traits@V?$basic_string@_WU?$char_traits@_W@std@@V?$K2StringAllocator@_W@@@std@@PAVCProcedural@@U?$less@V?$basic_string@_WU?$char_traits@_W@std@@V?$K2StringAllocator@_W@@@std@@@2@V?$K2MapAllocator@U?$pair@$$CBV?$basic_string@_WU?$char_traits@_W@std@@V?$K2StringAllocator@_W@@@std@@PAVCProcedural@@@std@@@@$0A@@std@@@std@@@std@@QAEXPAU_Node@?$_Tree_nod@V?$_Tmap_traits@V?$basic_string@_WU?$char_traits@_W@std@@V?$K2StringAllocator@_W@@@std@@PAVCProcedural@@U?$less@V?$basic_string@_WU?$char_traits@_W@std@@V?$K2StringAllocator@_W@@@std@@@2@V?$K2MapAllocator@U?$pair@$$CBV?$basic_string@_WU?$char_traits@_W@std@@V?$K2StringAllocator@_W@@@std@@PAVCProcedural@@@std@@@@$0A@@std@@@2@@Z 1711f690 f i c_proceduralregistry.obj
 0002:000616c0       ??1?$K2MapAllocator@PAU_Node@?$_Tree_nod@V?$_Tmap_traits@V?$basic_string@_WU?$char_traits@_W@std@@V?$K2StringAllocator@_W@@@std@@PAVCProcedural@@U?$less@V?$basic_string@_WU?$char_traits@_W@std@@V?$K2StringAllocator@_W@@@std@@@2@V?$K2MapAllocator@U?$pair@$$CBV?$basic_string@_WU?$char_traits@_W@std@@V?$K2StringAllocator@_W@@@std@@PAVCProcedural@@@std@@@@$0A@@std@@@std@@@@QAE@XZ 1711f6c0 f i c_proceduralregistry.obj
 0002:000616e0       ??0?$map@V?$basic_string@_WU?$char_traits@_W@std@@V?$K2StringAllocator@_W@@@std@@HU?$less@V?$basic_string@_WU?$char_traits@_W@std@@V?$K2StringAllocator@_W@@@std@@@2@V?$K2MapAllocator@U?$pair@$$CBV?$basic_string@_WU?$char_traits@_W@std@@V?$K2StringAllocator@_W@@@std@@H@std@@@@@std@@QAE@XZ 1711f6e0 f i c_proceduralregistry.obj
 0002:00061780       ?_Key@?$_Tree@V?$_Tmap_traits@V?$basic_string@_WU?$char_traits@_W@std@@V?$K2StringAllocator@_W@@@std@@HU?$less@V?$basic_string@_WU?$char_traits@_W@std@@V?$K2StringAllocator@_W@@@std@@@2@V?$K2MapAllocator@U?$pair@$$CBV?$basic_string@_WU?$char_traits@_W@std@@V?$K2StringAllocator@_W@@@std@@H@std@@@@$0A@@std@@@std@@KAABV?$basic_string@_WU?$char_traits@_W@std@@V?$K2StringAllocator@_W@@@2@PAU_Node@?$_Tree_nod@V?$_Tmap_traits@V?$basic_string@_WU?$char_traits@_W@std@@V?$K2StringAllocator@_W@@@std@@HU?$less@V?$basic_string@_WU?$char_traits@_W@std@@V?$K2StringAllocator@_W@@@std@@@2@V?$K2MapAllocator@U?$pair@$$CBV?$basic_string@_WU?$char_traits@_W@std@@V?$K2StringAllocator@_W@@@std@@H@std@@@@$0A@@std@@@2@@Z 1711f780 f i c_proceduralregistry.obj
 0002:000617b0       ?insert@?$_Tree@V?$_Tmap_traits@V?$basic_string@_WU?$char_traits@_W@std@@V?$K2StringAllocator@_W@@@std@@HU?$less@V?$basic_string@_WU?$char_traits@_W@std@@V?$K2StringAllocator@_W@@@std@@@2@V?$K2MapAllocator@U?$pair@$$CBV?$basic_string@_WU?$char_traits@_W@std@@V?$K2StringAllocator@_W@@@std@@H@std@@@@$0A@@std@@@std@@QAE?AViterator@12@V312@ABU?$pair@$$CBV?$basic_string@_WU?$char_traits@_W@std@@V?$K2StringAllocator@_W@@@std@@H@2@@Z 1711f7b0 f i c_proceduralregistry.obj
 0002:00062570       ?lower_bound@?$_Tree@V?$_Tmap_traits@V?$basic_string@_WU?$char_traits@_W@std@@V?$K2StringAllocator@_W@@@std@@HU?$less@V?$basic_string@_WU?$char_traits@_W@std@@V?$K2StringAllocator@_W@@@std@@@2@V?$K2MapAllocator@U?$pair@$$CBV?$basic_string@_WU?$char_traits@_W@std@@V?$K2StringAllocator@_W@@@std@@H@std@@@@$0A@@std@@@std@@QAE?AViterator@12@ABV?$basic_string@_WU?$char_traits@_W@std@@V?$K2StringAllocator@_W@@@2@@Z 17120570 f i c_proceduralregistry.obj
 0002:000625d0       ?_Tidy@?$_Tree@V?$_Tmap_traits@V?$basic_string@_WU?$char_traits@_W@std@@V?$K2StringAllocator@_W@@@std@@HU?$less@V?$basic_string@_WU?$char_traits@_W@std@@V?$K2StringAllocator@_W@@@std@@@2@V?$K2MapAllocator@U?$pair@$$CBV?$basic_string@_WU?$char_traits@_W@std@@V?$K2StringAllocator@_W@@@std@@H@std@@@@$0A@@std@@@std@@IAEXXZ 171205d0 f i c_proceduralregistry.obj
 0002:00062720       ??1?$K2MapAllocator@U?$pair@$$CBV?$basic_string@_WU?$char_traits@_W@std@@V?$K2StringAllocator@_W@@@std@@H@std@@@@QAE@XZ 17120720 f i c_proceduralregistry.obj
 0002:00062740       ??1?$K2MapAllocator@U_Node@?$_Tree_nod@V?$_Tmap_traits@V?$basic_string@_WU?$char_traits@_W@std@@V?$K2StringAllocator@_W@@@std@@HU?$less@V?$basic_string@_WU?$char_traits@_W@std@@V?$K2StringAllocator@_W@@@std@@@2@V?$K2MapAllocator@U?$pair@$$CBV?$basic_string@_WU?$char_traits@_W@std@@V?$K2StringAllocator@_W@@@std@@H@std@@@@$0A@@std@@@std@@@@QAE@XZ 17120740 f i c_proceduralregistry.obj
 0002:00062760       ??1?$K2MapAllocator@PAU_Node@?$_Tree_nod@V?$_Tmap_traits@V?$basic_string@_WU?$char_traits@_W@std@@V?$K2StringAllocator@_W@@@std@@HU?$less@V?$basic_string@_WU?$char_traits@_W@std@@V?$K2StringAllocator@_W@@@std@@@2@V?$K2MapAllocator@U?$pair@$$CBV?$basic_string@_WU?$char_traits@_W@std@@V?$K2StringAllocator@_W@@@std@@H@std@@@@$0A@@std@@@std@@@@QAE@XZ 17120760 f i c_proceduralregistry.obj
 0002:00062780       ??0iterator@?$_Tree@V?$_Tmap_traits@V?$basic_string@_WU?$char_traits@_W@std@@V?$K2StringAllocator@_W@@@std@@PAVCProcedural@@U?$less@V?$basic_string@_WU?$char_traits@_W@std@@V?$K2StringAllocator@_W@@@std@@@2@V?$K2MapAllocator@U?$pair@$$CBV?$basic_string@_WU?$char_traits@_W@std@@V?$K2StringAllocator@_W@@@std@@PAVCProcedural@@@std@@@@$0A@@std@@@std@@QAE@PAU_Node@?$_Tree_nod@V?$_Tmap_traits@V?$basic_string@_WU?$char_traits@_W@std@@V?$K2StringAllocator@_W@@@std@@PAVCProcedural@@U?$less@V?$basic_string@_WU?$char_traits@_W@std@@V?$K2StringAllocator@_W@@@std@@@2@V?$K2MapAllocator@U?$pair@$$CBV?$basic_string@_WU?$char_traits@_W@std@@V?$K2StringAllocator@_W@@@std@@PAVCProcedural@@@std@@@@$0A@@std@@@2@PBV12@@Z 17120780 f i c_proceduralregistry.obj
 0002:000627c0       ??Diterator@?$_Tree@V?$_Tmap_traits@V?$basic_string@_WU?$char_traits@_W@std@@V?$K2StringAllocator@_W@@@std@@PAVCProcedural@@U?$less@V?$basic_string@_WU?$char_traits@_W@std@@V?$K2StringAllocator@_W@@@std@@@2@V?$K2MapAllocator@U?$pair@$$CBV?$basic_string@_WU?$char_traits@_W@std@@V?$K2StringAllocator@_W@@@std@@PAVCProcedural@@@std@@@@$0A@@std@@@std@@QBEAAU?$pair@$$CBV?$basic_string@_WU?$char_traits@_W@std@@V?$K2StringAllocator@_W@@@std@@PAVCProcedural@@@2@XZ 171207c0 f i c_proceduralregistry.obj
 0002:000627f0       ?_Mynode@const_iterator@?$_Tree@V?$_Tmap_traits@V?$basic_string@_WU?$char_traits@_W@std@@V?$K2StringAllocator@_W@@@std@@PAVCProcedural@@U?$less@V?$basic_string@_WU?$char_traits@_W@std@@V?$K2StringAllocator@_W@@@std@@@2@V?$K2MapAllocator@U?$pair@$$CBV?$basic_string@_WU?$char_traits@_W@std@@V?$K2StringAllocator@_W@@@std@@PAVCProcedural@@@std@@@@$0A@@std@@@std@@QBEPAU_Node@?$_Tree_nod@V?$_Tmap_traits@V?$basic_string@_WU?$char_traits@_W@std@@V?$K2StringAllocator@_W@@@std@@PAVCProcedural@@U?$less@V?$basic_string@_WU?$char_traits@_W@std@@V?$K2StringAllocator@_W@@@std@@@2@V?$K2MapAllocator@U?$pair@$$CBV?$basic_string@_WU?$char_traits@_W@std@@V?$K2StringAllocator@_W@@@std@@PAVCProcedural@@@std@@@@$0A@@std@@@3@XZ 171207f0 f i c_proceduralregistry.obj
 0002:00062810       ??0?$pair@$$CBV?$basic_string@_WU?$char_traits@_W@std@@V?$K2StringAllocator@_W@@@std@@PAVCProcedural@@@std@@QAE@ABV?$basic_string@_WU?$char_traits@_W@std@@V?$K2StringAllocator@_W@@@1@ABQAVCProcedural@@@Z 17120810 f i c_proceduralregistry.obj
 0002:00062850       ?_Key@?$_Tree@V?$_Tmap_traits@V?$basic_string@_WU?$char_traits@_W@std@@V?$K2StringAllocator@_W@@@std@@USTextureMapEntry@@U?$less@V?$basic_string@_WU?$char_traits@_W@std@@V?$K2StringAllocator@_W@@@std@@@2@V?$K2MapAllocator@U?$pair@$$CBV?$basic_string@_WU?$char_traits@_W@std@@V?$K2StringAllocator@_W@@@std@@USTextureMapEntry@@@std@@@@$0A@@std@@@std@@KAABV?$basic_string@_WU?$char_traits@_W@std@@V?$K2StringAllocator@_W@@@2@PAU_Node@?$_Tree_nod@V?$_Tmap_traits@V?$basic_string@_WU?$char_traits@_W@std@@V?$K2StringAllocator@_W@@@std@@USTextureMapEntry@@U?$less@V?$basic_string@_WU?$char_traits@_W@std@@V?$K2StringAllocator@_W@@@std@@@2@V?$K2MapAllocator@U?$pair@$$CBV?$basic_string@_WU?$char_traits@_W@std@@V?$K2StringAllocator@_W@@@std@@USTextureMapEntry@@@std@@@@$0A@@std@@@2@@Z 17120850 f i c_proceduralregistry.obj
 0002:00062880       ?insert@?$_Tree@V?$_Tmap_traits@V?$basic_string@_WU?$char_traits@_W@std@@V?$K2StringAllocator@_W@@@std@@USTextureMapEntry@@U?$less@V?$basic_string@_WU?$char_traits@_W@std@@V?$K2StringAllocator@_W@@@std@@@2@V?$K2MapAllocator@U?$pair@$$CBV?$basic_string@_WU?$char_traits@_W@std@@V?$K2StringAllocator@_W@@@std@@USTextureMapEntry@@@std@@@@$0A@@std@@@std@@QAE?AViterator@12@V312@ABU?$pair@$$CBV?$basic_string@_WU?$char_traits@_W@std@@V?$K2StringAllocator@_W@@@std@@USTextureMapEntry@@@2@@Z 17120880 f i c_proceduralregistry.obj
 0002:00063640       ?lower_bound@?$_Tree@V?$_Tmap_traits@V?$basic_string@_WU?$char_traits@_W@std@@V?$K2StringAllocator@_W@@@std@@USTextureMapEntry@@U?$less@V?$basic_string@_WU?$char_traits@_W@std@@V?$K2StringAllocator@_W@@@std@@@2@V?$K2MapAllocator@U?$pair@$$CBV?$basic_string@_WU?$char_traits@_W@std@@V?$K2StringAllocator@_W@@@std@@USTextureMapEntry@@@std@@@@$0A@@std@@@std@@QAE?AViterator@12@ABV?$basic_string@_WU?$char_traits@_W@std@@V?$K2StringAllocator@_W@@@2@@Z 17121640 f i c_proceduralregistry.obj
 0002:000636a0       ??0iterator@?$_Tree@V?$_Tmap_traits@V?$basic_string@_WU?$char_traits@_W@std@@V?$K2StringAllocator@_W@@@std@@USTextureMapEntry@@U?$less@V?$basic_string@_WU?$char_traits@_W@std@@V?$K2StringAllocator@_W@@@std@@@2@V?$K2MapAllocator@U?$pair@$$CBV?$basic_string@_WU?$char_traits@_W@std@@V?$K2StringAllocator@_W@@@std@@USTextureMapEntry@@@std@@@@$0A@@std@@@std@@QAE@PAU_Node@?$_Tree_nod@V?$_Tmap_traits@V?$basic_string@_WU?$char_traits@_W@std@@V?$K2StringAllocator@_W@@@std@@USTextureMapEntry@@U?$less@V?$basic_string@_WU?$char_traits@_W@std@@V?$K2StringAllocator@_W@@@std@@@2@V?$K2MapAllocator@U?$pair@$$CBV?$basic_string@_WU?$char_traits@_W@std@@V?$K2StringAllocator@_W@@@std@@USTextureMapEntry@@@std@@@@$0A@@std@@@2@PBV12@@Z 171216a0 f i c_proceduralregistry.obj
 0002:000636e0       ??Diterator@?$_Tree@V?$_Tmap_traits@V?$basic_string@_WU?$char_traits@_W@std@@V?$K2StringAllocator@_W@@@std@@USTextureMapEntry@@U?$less@V?$basic_string@_WU?$char_traits@_W@std@@V?$K2StringAllocator@_W@@@std@@@2@V?$K2MapAllocator@U?$pair@$$CBV?$basic_string@_WU?$char_traits@_W@std@@V?$K2StringAllocator@_W@@@std@@USTextureMapEntry@@@std@@@@$0A@@std@@@std@@QBEAAU?$pair@$$CBV?$basic_string@_WU?$char_traits@_W@std@@V?$K2StringAllocator@_W@@@std@@USTextureMapEntry@@@2@XZ 171216e0 f i c_proceduralregistry.obj
 0002:00063710       ??8const_iterator@?$_Tree@V?$_Tmap_traits@V?$basic_string@_WU?$char_traits@_W@std@@V?$K2StringAllocator@_W@@@std@@USTextureMapEntry@@U?$less@V?$basic_string@_WU?$char_traits@_W@std@@V?$K2StringAllocator@_W@@@std@@@2@V?$K2MapAllocator@U?$pair@$$CBV?$basic_string@_WU?$char_traits@_W@std@@V?$K2StringAllocator@_W@@@std@@USTextureMapEntry@@@std@@@@$0A@@std@@@std@@QBE_NABV012@@Z 17121710 f i c_proceduralregistry.obj
 0002:000637d0       ?_Mynode@const_iterator@?$_Tree@V?$_Tmap_traits@V?$basic_string@_WU?$char_traits@_W@std@@V?$K2StringAllocator@_W@@@std@@USTextureMapEntry@@U?$less@V?$basic_string@_WU?$char_traits@_W@std@@V?$K2StringAllocator@_W@@@std@@@2@V?$K2MapAllocator@U?$pair@$$CBV?$basic_string@_WU?$char_traits@_W@std@@V?$K2StringAllocator@_W@@@std@@USTextureMapEntry@@@std@@@@$0A@@std@@@std@@QBEPAU_Node@?$_Tree_nod@V?$_Tmap_traits@V?$basic_string@_WU?$char_traits@_W@std@@V?$K2StringAllocator@_W@@@std@@USTextureMapEntry@@U?$less@V?$basic_string@_WU?$char_traits@_W@std@@V?$K2StringAllocator@_W@@@std@@@2@V?$K2MapAllocator@U?$pair@$$CBV?$basic_string@_WU?$char_traits@_W@std@@V?$K2StringAllocator@_W@@@std@@USTextureMapEntry@@@std@@@@$0A@@std@@@3@XZ 171217d0 f i c_proceduralregistry.obj
 0002:000637f0       ??0iterator@?$_Tree@V?$_Tmap_traits@V?$basic_string@_WU?$char_traits@_W@std@@V?$K2StringAllocator@_W@@@std@@HU?$less@V?$basic_string@_WU?$char_traits@_W@std@@V?$K2StringAllocator@_W@@@std@@@2@V?$K2MapAllocator@U?$pair@$$CBV?$basic_string@_WU?$char_traits@_W@std@@V?$K2StringAllocator@_W@@@std@@H@std@@@@$0A@@std@@@std@@QAE@PAU_Node@?$_Tree_nod@V?$_Tmap_traits@V?$basic_string@_WU?$char_traits@_W@std@@V?$K2StringAllocator@_W@@@std@@HU?$less@V?$basic_string@_WU?$char_traits@_W@std@@V?$K2StringAllocator@_W@@@std@@@2@V?$K2MapAllocator@U?$pair@$$CBV?$basic_string@_WU?$char_traits@_W@std@@V?$K2StringAllocator@_W@@@std@@H@std@@@@$0A@@std@@@2@PBV12@@Z 171217f0 f i c_proceduralregistry.obj
 0002:00063830       ??Diterator@?$_Tree@V?$_Tmap_traits@V?$basic_string@_WU?$char_traits@_W@std@@V?$K2StringAllocator@_W@@@std@@HU?$less@V?$basic_string@_WU?$char_traits@_W@std@@V?$K2StringAllocator@_W@@@std@@@2@V?$K2MapAllocator@U?$pair@$$CBV?$basic_string@_WU?$char_traits@_W@std@@V?$K2StringAllocator@_W@@@std@@H@std@@@@$0A@@std@@@std@@QBEAAU?$pair@$$CBV?$basic_string@_WU?$char_traits@_W@std@@V?$K2StringAllocator@_W@@@std@@H@2@XZ 17121830 f i c_proceduralregistry.obj
 0002:00063860       ??8const_iterator@?$_Tree@V?$_Tmap_traits@V?$basic_string@_WU?$char_traits@_W@std@@V?$K2StringAllocator@_W@@@std@@HU?$less@V?$basic_string@_WU?$char_traits@_W@std@@V?$K2StringAllocator@_W@@@std@@@2@V?$K2MapAllocator@U?$pair@$$CBV?$basic_string@_WU?$char_traits@_W@std@@V?$K2StringAllocator@_W@@@std@@H@std@@@@$0A@@std@@@std@@QBE_NABV012@@Z 17121860 f i c_proceduralregistry.obj
 0002:00063920       ?_Mynode@const_iterator@?$_Tree@V?$_Tmap_traits@V?$basic_string@_WU?$char_traits@_W@std@@V?$K2StringAllocator@_W@@@std@@HU?$less@V?$basic_string@_WU?$char_traits@_W@std@@V?$K2StringAllocator@_W@@@std@@@2@V?$K2MapAllocator@U?$pair@$$CBV?$basic_string@_WU?$char_traits@_W@std@@V?$K2StringAllocator@_W@@@std@@H@std@@@@$0A@@std@@@std@@QBEPAU_Node@?$_Tree_nod@V?$_Tmap_traits@V?$basic_string@_WU?$char_traits@_W@std@@V?$K2StringAllocator@_W@@@std@@HU?$less@V?$basic_string@_WU?$char_traits@_W@std@@V?$K2StringAllocator@_W@@@std@@@2@V?$K2MapAllocator@U?$pair@$$CBV?$basic_string@_WU?$char_traits@_W@std@@V?$K2StringAllocator@_W@@@std@@H@std@@@@$0A@@std@@@3@XZ 17121920 f i c_proceduralregistry.obj
 0002:00063940       ??0?$pair@$$CBV?$basic_string@_WU?$char_traits@_W@std@@V?$K2StringAllocator@_W@@@std@@H@std@@QAE@ABV?$basic_string@_WU?$char_traits@_W@std@@V?$K2StringAllocator@_W@@@1@ABH@Z 17121940 f i c_proceduralregistry.obj
 0002:00063980       ??0?$pair@$$CBV?$basic_string@_WU?$char_traits@_W@std@@V?$K2StringAllocator@_W@@@std@@USTextureMapEntry@@@std@@QAE@ABV?$basic_string@_WU?$char_traits@_W@std@@V?$K2StringAllocator@_W@@@1@ABUSTextureMapEntry@@@Z 17121980 f i c_proceduralregistry.obj
 0002:000639d0       ??1?$pair@Viterator@?$_Tree@V?$_Tmap_traits@V?$basic_string@_WU?$char_traits@_W@std@@V?$K2StringAllocator@_W@@@std@@PAVCProcedural@@U?$less@V?$basic_string@_WU?$char_traits@_W@std@@V?$K2StringAllocator@_W@@@std@@@2@V?$K2MapAllocator@U?$pair@$$CBV?$basic_string@_WU?$char_traits@_W@std@@V?$K2StringAllocator@_W@@@std@@PAVCProcedural@@@std@@@@$0A@@std@@@std@@_N@std@@QAE@XZ 171219d0 f i c_proceduralregistry.obj
 0002:00063a00       ??1?$pair@Viterator@?$_Tree@V?$_Tmap_traits@V?$basic_string@_WU?$char_traits@_W@std@@V?$K2StringAllocator@_W@@@std@@HU?$less@V?$basic_string@_WU?$char_traits@_W@std@@V?$K2StringAllocator@_W@@@std@@@2@V?$K2MapAllocator@U?$pair@$$CBV?$basic_string@_WU?$char_traits@_W@std@@V?$K2StringAllocator@_W@@@std@@H@std@@@@$0A@@std@@@std@@_N@std@@QAE@XZ 17121a00 f i c_proceduralregistry.obj
 0002:00063a30       ??1?$pair@Viterator@?$_Tree@V?$_Tmap_traits@V?$basic_string@_WU?$char_traits@_W@std@@V?$K2StringAllocator@_W@@@std@@USTextureMapEntry@@U?$less@V?$basic_string@_WU?$char_traits@_W@std@@V?$K2StringAllocator@_W@@@std@@@2@V?$K2MapAllocator@U?$pair@$$CBV?$basic_string@_WU?$char_traits@_W@std@@V?$K2StringAllocator@_W@@@std@@USTextureMapEntry@@@std@@@@$0A@@std@@@std@@_N@std@@QAE@XZ 17121a30 f i c_proceduralregistry.obj
 0002:00063a60       ??0?$_Tree@V?$_Tmap_traits@V?$basic_string@_WU?$char_traits@_W@std@@V?$K2StringAllocator@_W@@@std@@PAVCProcedural@@U?$less@V?$basic_string@_WU?$char_traits@_W@std@@V?$K2StringAllocator@_W@@@std@@@2@V?$K2MapAllocator@U?$pair@$$CBV?$basic_string@_WU?$char_traits@_W@std@@V?$K2StringAllocator@_W@@@std@@PAVCProcedural@@@std@@@@$0A@@std@@@std@@QAE@ABU?$less@V?$basic_string@_WU?$char_traits@_W@std@@V?$K2StringAllocator@_W@@@std@@@1@ABV?$K2MapAllocator@U?$pair@$$CBV?$basic_string@_WU?$char_traits@_W@std@@V?$K2StringAllocator@_W@@@std@@PAVCProcedural@@@std@@@@@Z 17121a60 f i c_proceduralregistry.obj
 0002:00063b00       ?size@?$_Tree@V?$_Tmap_traits@V?$basic_string@_WU?$char_traits@_W@std@@V?$K2StringAllocator@_W@@@std@@PAVCProcedural@@U?$less@V?$basic_string@_WU?$char_traits@_W@std@@V?$K2StringAllocator@_W@@@std@@@2@V?$K2MapAllocator@U?$pair@$$CBV?$basic_string@_WU?$char_traits@_W@std@@V?$K2StringAllocator@_W@@@std@@PAVCProcedural@@@std@@@@$0A@@std@@@std@@QBEIXZ 17121b00 f i c_proceduralregistry.obj
 0002:00063b20       ?insert@?$_Tree@V?$_Tmap_traits@V?$basic_string@_WU?$char_traits@_W@std@@V?$K2StringAllocator@_W@@@std@@PAVCProcedural@@U?$less@V?$basic_string@_WU?$char_traits@_W@std@@V?$K2StringAllocator@_W@@@std@@@2@V?$K2MapAllocator@U?$pair@$$CBV?$basic_string@_WU?$char_traits@_W@std@@V?$K2StringAllocator@_W@@@std@@PAVCProcedural@@@std@@@@$0A@@std@@@std@@QAE?AU?$pair@Viterator@?$_Tree@V?$_Tmap_traits@V?$basic_string@_WU?$char_traits@_W@std@@V?$K2StringAllocator@_W@@@std@@PAVCProcedural@@U?$less@V?$basic_string@_WU?$char_traits@_W@std@@V?$K2StringAllocator@_W@@@std@@@2@V?$K2MapAllocator@U?$pair@$$CBV?$basic_string@_WU?$char_traits@_W@std@@V?$K2StringAllocator@_W@@@std@@PAVCProcedural@@@std@@@@$0A@@std@@@std@@_N@2@ABU?$pair@$$CBV?$basic_string@_WU?$char_traits@_W@std@@V?$K2StringAllocator@_W@@@std@@PAVCProcedural@@@2@@Z 17121b20 f i c_proceduralregistry.obj
 0002:00063f40       ?erase@?$_Tree@V?$_Tmap_traits@V?$basic_string@_WU?$char_traits@_W@std@@V?$K2StringAllocator@_W@@@std@@PAVCProcedural@@U?$less@V?$basic_string@_WU?$char_traits@_W@std@@V?$K2StringAllocator@_W@@@std@@@2@V?$K2MapAllocator@U?$pair@$$CBV?$basic_string@_WU?$char_traits@_W@std@@V?$K2StringAllocator@_W@@@std@@PAVCProcedural@@@std@@@@$0A@@std@@@std@@QAE?AViterator@12@V312@0@Z 17121f40 f i c_proceduralregistry.obj
 0002:000641d0       ?_Insert@?$_Tree@V?$_Tmap_traits@V?$basic_string@_WU?$char_traits@_W@std@@V?$K2StringAllocator@_W@@@std@@PAVCProcedural@@U?$less@V?$basic_string@_WU?$char_traits@_W@std@@V?$K2StringAllocator@_W@@@std@@@2@V?$K2MapAllocator@U?$pair@$$CBV?$basic_string@_WU?$char_traits@_W@std@@V?$K2StringAllocator@_W@@@std@@PAVCProcedural@@@std@@@@$0A@@std@@@std@@IAE?AViterator@12@_NPAU_Node@?$_Tree_nod@V?$_Tmap_traits@V?$basic_string@_WU?$char_traits@_W@std@@V?$K2StringAllocator@_W@@@std@@PAVCProcedural@@U?$less@V?$basic_string@_WU?$char_traits@_W@std@@V?$K2StringAllocator@_W@@@std@@@2@V?$K2MapAllocator@U?$pair@$$CBV?$basic_string@_WU?$char_traits@_W@std@@V?$K2StringAllocator@_W@@@std@@PAVCProcedural@@@std@@@@$0A@@std@@@2@ABU?$pair@$$CBV?$basic_string@_WU?$char_traits@_W@std@@V?$K2StringAllocator@_W@@@std@@PAVCProcedural@@@2@@Z 171221d0 f i c_proceduralregistry.obj
 0002:00064790       ?_Lbound@?$_Tree@V?$_Tmap_traits@V?$basic_string@_WU?$char_traits@_W@std@@V?$K2StringAllocator@_W@@@std@@PAVCProcedural@@U?$less@V?$basic_string@_WU?$char_traits@_W@std@@V?$K2StringAllocator@_W@@@std@@@2@V?$K2MapAllocator@U?$pair@$$CBV?$basic_string@_WU?$char_traits@_W@std@@V?$K2StringAllocator@_W@@@std@@PAVCProcedural@@@std@@@@$0A@@std@@@std@@IBEPAU_Node@?$_Tree_nod@V?$_Tmap_traits@V?$basic_string@_WU?$char_traits@_W@std@@V?$K2StringAllocator@_W@@@std@@PAVCProcedural@@U?$less@V?$basic_string@_WU?$char_traits@_W@std@@V?$K2StringAllocator@_W@@@std@@@2@V?$K2MapAllocator@U?$pair@$$CBV?$basic_string@_WU?$char_traits@_W@std@@V?$K2StringAllocator@_W@@@std@@PAVCProcedural@@@std@@@@$0A@@std@@@2@ABV?$basic_string@_WU?$char_traits@_W@std@@V?$K2StringAllocator@_W@@@2@@Z 17122790 f i c_proceduralregistry.obj
 0002:00064860       ?_Kfn@?$_Tmap_traits@V?$basic_string@_WU?$char_traits@_W@std@@V?$K2StringAllocator@_W@@@std@@PAVCProcedural@@U?$less@V?$basic_string@_WU?$char_traits@_W@std@@V?$K2StringAllocator@_W@@@std@@@2@V?$K2MapAllocator@U?$pair@$$CBV?$basic_string@_WU?$char_traits@_W@std@@V?$K2StringAllocator@_W@@@std@@PAVCProcedural@@@std@@@@$0A@@std@@SAABV?$basic_string@_WU?$char_traits@_W@std@@V?$K2StringAllocator@_W@@@2@ABU?$pair@$$CBV?$basic_string@_WU?$char_traits@_W@std@@V?$K2StringAllocator@_W@@@std@@PAVCProcedural@@@2@@Z 17122860 f i c_proceduralregistry.obj
 0002:00064880       ??0?$K2MapAllocator@U?$pair@$$CBV?$basic_string@_WU?$char_traits@_W@std@@V?$K2StringAllocator@_W@@@std@@PAVCProcedural@@@std@@@@QAE@XZ 17122880 f i c_proceduralregistry.obj
 0002:000648b0       ?destroy@?$allocator@PAU_Node@?$_Tree_nod@V?$_Tmap_traits@V?$basic_string@_WU?$char_traits@_W@std@@V?$K2StringAllocator@_W@@@std@@PAVCProcedural@@U?$less@V?$basic_string@_WU?$char_traits@_W@std@@V?$K2StringAllocator@_W@@@std@@@2@V?$K2MapAllocator@U?$pair@$$CBV?$basic_string@_WU?$char_traits@_W@std@@V?$K2StringAllocator@_W@@@std@@PAVCProcedural@@@std@@@@$0A@@std@@@std@@@std@@QAEXPAPAU_Node@?$_Tree_nod@V?$_Tmap_traits@V?$basic_string@_WU?$char_traits@_W@std@@V?$K2StringAllocator@_W@@@std@@PAVCProcedural@@U?$less@V?$basic_string@_WU?$char_traits@_W@std@@V?$K2StringAllocator@_W@@@std@@@2@V?$K2MapAllocator@U?$pair@$$CBV?$basic_string@_WU?$char_traits@_W@std@@V?$K2StringAllocator@_W@@@std@@PAVCProcedural@@@std@@@@$0A@@std@@@2@@Z 171228b0 f i c_proceduralregistry.obj
 0002:000648e0       ?_Isnil@?$_Tree@V?$_Tmap_traits@V?$basic_string@_WU?$char_traits@_W@std@@V?$K2StringAllocator@_W@@@std@@HU?$less@V?$basic_string@_WU?$char_traits@_W@std@@V?$K2StringAllocator@_W@@@std@@@2@V?$K2MapAllocator@U?$pair@$$CBV?$basic_string@_WU?$char_traits@_W@std@@V?$K2StringAllocator@_W@@@std@@H@std@@@@$0A@@std@@@std@@KAAADPAU_Node@?$_Tree_nod@V?$_Tmap_traits@V?$basic_string@_WU?$char_traits@_W@std@@V?$K2StringAllocator@_W@@@std@@HU?$less@V?$basic_string@_WU?$char_traits@_W@std@@V?$K2StringAllocator@_W@@@std@@@2@V?$K2MapAllocator@U?$pair@$$CBV?$basic_string@_WU?$char_traits@_W@std@@V?$K2StringAllocator@_W@@@std@@H@std@@@@$0A@@std@@@2@@Z 171228e0 f i c_proceduralregistry.obj
 0002:00064900       ?_Left@?$_Tree@V?$_Tmap_traits@V?$basic_string@_WU?$char_traits@_W@std@@V?$K2StringAllocator@_W@@@std@@HU?$less@V?$basic_string@_WU?$char_traits@_W@std@@V?$K2StringAllocator@_W@@@std@@@2@V?$K2MapAllocator@U?$pair@$$CBV?$basic_string@_WU?$char_traits@_W@std@@V?$K2StringAllocator@_W@@@std@@H@std@@@@$0A@@std@@@std@@KAAAPAU_Node@?$_Tree_nod@V?$_Tmap_traits@V?$basic_string@_WU?$char_traits@_W@std@@V?$K2StringAllocator@_W@@@std@@HU?$less@V?$basic_string@_WU?$char_traits@_W@std@@V?$K2StringAllocator@_W@@@std@@@2@V?$K2MapAllocator@U?$pair@$$CBV?$basic_string@_WU?$char_traits@_W@std@@V?$K2StringAllocator@_W@@@std@@H@std@@@@$0A@@std@@@2@PAU342@@Z 17122900 f i c_proceduralregistry.obj
 0002:00064920       ?_Parent@?$_Tree@V?$_Tmap_traits@V?$basic_string@_WU?$char_traits@_W@std@@V?$K2StringAllocator@_W@@@std@@HU?$less@V?$basic_string@_WU?$char_traits@_W@std@@V?$K2StringAllocator@_W@@@std@@@2@V?$K2MapAllocator@U?$pair@$$CBV?$basic_string@_WU?$char_traits@_W@std@@V?$K2StringAllocator@_W@@@std@@H@std@@@@$0A@@std@@@std@@KAAAPAU_Node@?$_Tree_nod@V?$_Tmap_traits@V?$basic_string@_WU?$char_traits@_W@std@@V?$K2StringAllocator@_W@@@std@@HU?$less@V?$basic_string@_WU?$char_traits@_W@std@@V?$K2StringAllocator@_W@@@std@@@2@V?$K2MapAllocator@U?$pair@$$CBV?$basic_string@_WU?$char_traits@_W@std@@V?$K2StringAllocator@_W@@@std@@H@std@@@@$0A@@std@@@2@PAU342@@Z 17122920 f i c_proceduralregistry.obj
 0002:00064940       ?_Right@?$_Tree@V?$_Tmap_traits@V?$basic_string@_WU?$char_traits@_W@std@@V?$K2StringAllocator@_W@@@std@@HU?$less@V?$basic_string@_WU?$char_traits@_W@std@@V?$K2StringAllocator@_W@@@std@@@2@V?$K2MapAllocator@U?$pair@$$CBV?$basic_string@_WU?$char_traits@_W@std@@V?$K2StringAllocator@_W@@@std@@H@std@@@@$0A@@std@@@std@@KAAAPAU_Node@?$_Tree_nod@V?$_Tmap_traits@V?$basic_string@_WU?$char_traits@_W@std@@V?$K2StringAllocator@_W@@@std@@HU?$less@V?$basic_string@_WU?$char_traits@_W@std@@V?$K2StringAllocator@_W@@@std@@@2@V?$K2MapAllocator@U?$pair@$$CBV?$basic_string@_WU?$char_traits@_W@std@@V?$K2StringAllocator@_W@@@std@@H@std@@@@$0A@@std@@@2@PAU342@@Z 17122940 f i c_proceduralregistry.obj
 0002:00064960       ?_Myval@?$_Tree@V?$_Tmap_traits@V?$basic_string@_WU?$char_traits@_W@std@@V?$K2StringAllocator@_W@@@std@@HU?$less@V?$basic_string@_WU?$char_traits@_W@std@@V?$K2StringAllocator@_W@@@std@@@2@V?$K2MapAllocator@U?$pair@$$CBV?$basic_string@_WU?$char_traits@_W@std@@V?$K2StringAllocator@_W@@@std@@H@std@@@@$0A@@std@@@std@@KAAAU?$pair@$$CBV?$basic_string@_WU?$char_traits@_W@std@@V?$K2StringAllocator@_W@@@std@@H@2@PAU_Node@?$_Tree_nod@V?$_Tmap_traits@V?$basic_string@_WU?$char_traits@_W@std@@V?$K2StringAllocator@_W@@@std@@HU?$less@V?$basic_string@_WU?$char_traits@_W@std@@V?$K2StringAllocator@_W@@@std@@@2@V?$K2MapAllocator@U?$pair@$$CBV?$basic_string@_WU?$char_traits@_W@std@@V?$K2StringAllocator@_W@@@std@@H@std@@@@$0A@@std@@@2@@Z 17122960 f i c_proceduralregistry.obj
 0002:00064980       ??0?$_Tree@V?$_Tmap_traits@V?$basic_string@_WU?$char_traits@_W@std@@V?$K2StringAllocator@_W@@@std@@HU?$less@V?$basic_string@_WU?$char_traits@_W@std@@V?$K2StringAllocator@_W@@@std@@@2@V?$K2MapAllocator@U?$pair@$$CBV?$basic_string@_WU?$char_traits@_W@std@@V?$K2StringAllocator@_W@@@std@@H@std@@@@$0A@@std@@@std@@QAE@ABU?$less@V?$basic_string@_WU?$char_traits@_W@std@@V?$K2StringAllocator@_W@@@std@@@1@ABV?$K2MapAllocator@U?$pair@$$CBV?$basic_string@_WU?$char_traits@_W@std@@V?$K2StringAllocator@_W@@@std@@H@std@@@@@Z 17122980 f i c_proceduralregistry.obj
 0002:00064a20       ?begin@?$_Tree@V?$_Tmap_traits@V?$basic_string@_WU?$char_traits@_W@std@@V?$K2StringAllocator@_W@@@std@@HU?$less@V?$basic_string@_WU?$char_traits@_W@std@@V?$K2StringAllocator@_W@@@std@@@2@V?$K2MapAllocator@U?$pair@$$CBV?$basic_string@_WU?$char_traits@_W@std@@V?$K2StringAllocator@_W@@@std@@H@std@@@@$0A@@std@@@std@@QAE?AViterator@12@XZ 17122a20 f i c_proceduralregistry.obj
 0002:00064a70       ?size@?$_Tree@V?$_Tmap_traits@V?$basic_string@_WU?$char_traits@_W@std@@V?$K2StringAllocator@_W@@@std@@HU?$less@V?$basic_string@_WU?$char_traits@_W@std@@V?$K2StringAllocator@_W@@@std@@@2@V?$K2MapAllocator@U?$pair@$$CBV?$basic_string@_WU?$char_traits@_W@std@@V?$K2StringAllocator@_W@@@std@@H@std@@@@$0A@@std@@@std@@QBEIXZ 17122a70 f i c_proceduralregistry.obj
 0002:00064a90       ?insert@?$_Tree@V?$_Tmap_traits@V?$basic_string@_WU?$char_traits@_W@std@@V?$K2StringAllocator@_W@@@std@@HU?$less@V?$basic_string@_WU?$char_traits@_W@std@@V?$K2StringAllocator@_W@@@std@@@2@V?$K2MapAllocator@U?$pair@$$CBV?$basic_string@_WU?$char_traits@_W@std@@V?$K2StringAllocator@_W@@@std@@H@std@@@@$0A@@std@@@std@@QAE?AU?$pair@Viterator@?$_Tree@V?$_Tmap_traits@V?$basic_string@_WU?$char_traits@_W@std@@V?$K2StringAllocator@_W@@@std@@HU?$less@V?$basic_string@_WU?$char_traits@_W@std@@V?$K2StringAllocator@_W@@@std@@@2@V?$K2MapAllocator@U?$pair@$$CBV?$basic_string@_WU?$char_traits@_W@std@@V?$K2StringAllocator@_W@@@std@@H@std@@@@$0A@@std@@@std@@_N@2@ABU?$pair@$$CBV?$basic_string@_WU?$char_traits@_W@std@@V?$K2StringAllocator@_W@@@std@@H@2@@Z 17122a90 f i c_proceduralregistry.obj
 0002:00064eb0       ?erase@?$_Tree@V?$_Tmap_traits@V?$basic_string@_WU?$char_traits@_W@std@@V?$K2StringAllocator@_W@@@std@@HU?$less@V?$basic_string@_WU?$char_traits@_W@std@@V?$K2StringAllocator@_W@@@std@@@2@V?$K2MapAllocator@U?$pair@$$CBV?$basic_string@_WU?$char_traits@_W@std@@V?$K2StringAllocator@_W@@@std@@H@std@@@@$0A@@std@@@std@@QAE?AViterator@12@V312@0@Z 17122eb0 f i c_proceduralregistry.obj
 0002:00065140       ?_Insert@?$_Tree@V?$_Tmap_traits@V?$basic_string@_WU?$char_traits@_W@std@@V?$K2StringAllocator@_W@@@std@@HU?$less@V?$basic_string@_WU?$char_traits@_W@std@@V?$K2StringAllocator@_W@@@std@@@2@V?$K2MapAllocator@U?$pair@$$CBV?$basic_string@_WU?$char_traits@_W@std@@V?$K2StringAllocator@_W@@@std@@H@std@@@@$0A@@std@@@std@@IAE?AViterator@12@_NPAU_Node@?$_Tree_nod@V?$_Tmap_traits@V?$basic_string@_WU?$char_traits@_W@std@@V?$K2StringAllocator@_W@@@std@@HU?$less@V?$basic_string@_WU?$char_traits@_W@std@@V?$K2StringAllocator@_W@@@std@@@2@V?$K2MapAllocator@U?$pair@$$CBV?$basic_string@_WU?$char_traits@_W@std@@V?$K2StringAllocator@_W@@@std@@H@std@@@@$0A@@std@@@2@ABU?$pair@$$CBV?$basic_string@_WU?$char_traits@_W@std@@V?$K2StringAllocator@_W@@@std@@H@2@@Z 17123140 f i c_proceduralregistry.obj
 0002:00065700       ?_Lbound@?$_Tree@V?$_Tmap_traits@V?$basic_string@_WU?$char_traits@_W@std@@V?$K2StringAllocator@_W@@@std@@HU?$less@V?$basic_string@_WU?$char_traits@_W@std@@V?$K2StringAllocator@_W@@@std@@@2@V?$K2MapAllocator@U?$pair@$$CBV?$basic_string@_WU?$char_traits@_W@std@@V?$K2StringAllocator@_W@@@std@@H@std@@@@$0A@@std@@@std@@IBEPAU_Node@?$_Tree_nod@V?$_Tmap_traits@V?$basic_string@_WU?$char_traits@_W@std@@V?$K2StringAllocator@_W@@@std@@HU?$less@V?$basic_string@_WU?$char_traits@_W@std@@V?$K2StringAllocator@_W@@@std@@@2@V?$K2MapAllocator@U?$pair@$$CBV?$basic_string@_WU?$char_traits@_W@std@@V?$K2StringAllocator@_W@@@std@@H@std@@@@$0A@@std@@@2@ABV?$basic_string@_WU?$char_traits@_W@std@@V?$K2StringAllocator@_W@@@2@@Z 17123700 f i c_proceduralregistry.obj
 0002:000657d0       ?_Rmost@?$_Tree@V?$_Tmap_traits@V?$basic_string@_WU?$char_traits@_W@std@@V?$K2StringAllocator@_W@@@std@@HU?$less@V?$basic_string@_WU?$char_traits@_W@std@@V?$K2StringAllocator@_W@@@std@@@2@V?$K2MapAllocator@U?$pair@$$CBV?$basic_string@_WU?$char_traits@_W@std@@V?$K2StringAllocator@_W@@@std@@H@std@@@@$0A@@std@@@std@@IBEAAPAU_Node@?$_Tree_nod@V?$_Tmap_traits@V?$basic_string@_WU?$char_traits@_W@std@@V?$K2StringAllocator@_W@@@std@@HU?$less@V?$basic_string@_WU?$char_traits@_W@std@@V?$K2StringAllocator@_W@@@std@@@2@V?$K2MapAllocator@U?$pair@$$CBV?$basic_string@_WU?$char_traits@_W@std@@V?$K2StringAllocator@_W@@@std@@H@std@@@@$0A@@std@@@2@XZ 171237d0 f i c_proceduralregistry.obj
 0002:00065800       ?_Kfn@?$_Tmap_traits@V?$basic_string@_WU?$char_traits@_W@std@@V?$K2StringAllocator@_W@@@std@@HU?$less@V?$basic_string@_WU?$char_traits@_W@std@@V?$K2StringAllocator@_W@@@std@@@2@V?$K2MapAllocator@U?$pair@$$CBV?$basic_string@_WU?$char_traits@_W@std@@V?$K2StringAllocator@_W@@@std@@H@std@@@@$0A@@std@@SAABV?$basic_string@_WU?$char_traits@_W@std@@V?$K2StringAllocator@_W@@@2@ABU?$pair@$$CBV?$basic_string@_WU?$char_traits@_W@std@@V?$K2StringAllocator@_W@@@std@@H@2@@Z 17123800 f i c_proceduralregistry.obj
 0002:00065820       ??0?$K2MapAllocator@U?$pair@$$CBV?$basic_string@_WU?$char_traits@_W@std@@V?$K2StringAllocator@_W@@@std@@H@std@@@@QAE@XZ 17123820 f i c_proceduralregistry.obj
 0002:00065850       ?deallocate@?$K2MapAllocator@U_Node@?$_Tree_nod@V?$_Tmap_traits@V?$basic_string@_WU?$char_traits@_W@std@@V?$K2StringAllocator@_W@@@std@@HU?$less@V?$basic_string@_WU?$char_traits@_W@std@@V?$K2StringAllocator@_W@@@std@@@2@V?$K2MapAllocator@U?$pair@$$CBV?$basic_string@_WU?$char_traits@_W@std@@V?$K2StringAllocator@_W@@@std@@H@std@@@@$0A@@std@@@std@@@@QAEXPAU_Node@?$_Tree_nod@V?$_Tmap_traits@V?$basic_string@_WU?$char_traits@_W@std@@V?$K2StringAllocator@_W@@@std@@HU?$less@V?$basic_string@_WU?$char_traits@_W@std@@V?$K2StringAllocator@_W@@@std@@@2@V?$K2MapAllocator@U?$pair@$$CBV?$basic_string@_WU?$char_traits@_W@std@@V?$K2StringAllocator@_W@@@std@@H@std@@@@$0A@@std@@@std@@I@Z 17123850 f i c_proceduralregistry.obj
 0002:00065890       ?destroy@?$allocator@PAU_Node@?$_Tree_nod@V?$_Tmap_traits@V?$basic_string@_WU?$char_traits@_W@std@@V?$K2StringAllocator@_W@@@std@@HU?$less@V?$basic_string@_WU?$char_traits@_W@std@@V?$K2StringAllocator@_W@@@std@@@2@V?$K2MapAllocator@U?$pair@$$CBV?$basic_string@_WU?$char_traits@_W@std@@V?$K2StringAllocator@_W@@@std@@H@std@@@@$0A@@std@@@std@@@std@@QAEXPAPAU_Node@?$_Tree_nod@V?$_Tmap_traits@V?$basic_string@_WU?$char_traits@_W@std@@V?$K2StringAllocator@_W@@@std@@HU?$less@V?$basic_string@_WU?$char_traits@_W@std@@V?$K2StringAllocator@_W@@@std@@@2@V?$K2MapAllocator@U?$pair@$$CBV?$basic_string@_WU?$char_traits@_W@std@@V?$K2StringAllocator@_W@@@std@@H@std@@@@$0A@@std@@@2@@Z 17123890 f i c_proceduralregistry.obj
 0002:000658c0       ??0iterator@?$_Tree@V?$_Tmap_traits@V?$basic_string@_WU?$char_traits@_W@std@@V?$K2StringAllocator@_W@@@std@@PAVCProcedural@@U?$less@V?$basic_string@_WU?$char_traits@_W@std@@V?$K2StringAllocator@_W@@@std@@@2@V?$K2MapAllocator@U?$pair@$$CBV?$basic_string@_WU?$char_traits@_W@std@@V?$K2StringAllocator@_W@@@std@@PAVCProcedural@@@std@@@@$0A@@std@@@std@@QAE@XZ 171238c0 f i c_proceduralregistry.obj
 0002:000658f0       ??Fiterator@?$_Tree@V?$_Tmap_traits@V?$basic_string@_WU?$char_traits@_W@std@@V?$K2StringAllocator@_W@@@std@@PAVCProcedural@@U?$less@V?$basic_string@_WU?$char_traits@_W@std@@V?$K2StringAllocator@_W@@@std@@@2@V?$K2MapAllocator@U?$pair@$$CBV?$basic_string@_WU?$char_traits@_W@std@@V?$K2StringAllocator@_W@@@std@@PAVCProcedural@@@std@@@@$0A@@std@@@std@@QAEAAV012@XZ 171238f0 f i c_proceduralregistry.obj
 0002:00065920       ?_Isnil@?$_Tree@V?$_Tmap_traits@V?$basic_string@_WU?$char_traits@_W@std@@V?$K2StringAllocator@_W@@@std@@USTextureMapEntry@@U?$less@V?$basic_string@_WU?$char_traits@_W@std@@V?$K2StringAllocator@_W@@@std@@@2@V?$K2MapAllocator@U?$pair@$$CBV?$basic_string@_WU?$char_traits@_W@std@@V?$K2StringAllocator@_W@@@std@@USTextureMapEntry@@@std@@@@$0A@@std@@@std@@KAAADPAU_Node@?$_Tree_nod@V?$_Tmap_traits@V?$basic_string@_WU?$char_traits@_W@std@@V?$K2StringAllocator@_W@@@std@@USTextureMapEntry@@U?$less@V?$basic_string@_WU?$char_traits@_W@std@@V?$K2StringAllocator@_W@@@std@@@2@V?$K2MapAllocator@U?$pair@$$CBV?$basic_string@_WU?$char_traits@_W@std@@V?$K2StringAllocator@_W@@@std@@USTextureMapEntry@@@std@@@@$0A@@std@@@2@@Z 17123920 f i c_proceduralregistry.obj
 0002:00065940       ?_Right@?$_Tree@V?$_Tmap_traits@V?$basic_string@_WU?$char_traits@_W@std@@V?$K2StringAllocator@_W@@@std@@USTextureMapEntry@@U?$less@V?$basic_string@_WU?$char_traits@_W@std@@V?$K2StringAllocator@_W@@@std@@@2@V?$K2MapAllocator@U?$pair@$$CBV?$basic_string@_WU?$char_traits@_W@std@@V?$K2StringAllocator@_W@@@std@@USTextureMapEntry@@@std@@@@$0A@@std@@@std@@KAAAPAU_Node@?$_Tree_nod@V?$_Tmap_traits@V?$basic_string@_WU?$char_traits@_W@std@@V?$K2StringAllocator@_W@@@std@@USTextureMapEntry@@U?$less@V?$basic_string@_WU?$char_traits@_W@std@@V?$K2StringAllocator@_W@@@std@@@2@V?$K2MapAllocator@U?$pair@$$CBV?$basic_string@_WU?$char_traits@_W@std@@V?$K2StringAllocator@_W@@@std@@USTextureMapEntry@@@std@@@@$0A@@std@@@2@PAU342@@Z 17123940 f i c_proceduralregistry.obj
 0002:00065960       ?_Myval@?$_Tree@V?$_Tmap_traits@V?$basic_string@_WU?$char_traits@_W@std@@V?$K2StringAllocator@_W@@@std@@USTextureMapEntry@@U?$less@V?$basic_string@_WU?$char_traits@_W@std@@V?$K2StringAllocator@_W@@@std@@@2@V?$K2MapAllocator@U?$pair@$$CBV?$basic_string@_WU?$char_traits@_W@std@@V?$K2StringAllocator@_W@@@std@@USTextureMapEntry@@@std@@@@$0A@@std@@@std@@KAAAU?$pair@$$CBV?$basic_string@_WU?$char_traits@_W@std@@V?$K2StringAllocator@_W@@@std@@USTextureMapEntry@@@2@PAU_Node@?$_Tree_nod@V?$_Tmap_traits@V?$basic_string@_WU?$char_traits@_W@std@@V?$K2StringAllocator@_W@@@std@@USTextureMapEntry@@U?$less@V?$basic_string@_WU?$char_traits@_W@std@@V?$K2StringAllocator@_W@@@std@@@2@V?$K2MapAllocator@U?$pair@$$CBV?$basic_string@_WU?$char_traits@_W@std@@V?$K2StringAllocator@_W@@@std@@USTextureMapEntry@@@std@@@@$0A@@std@@@2@@Z 17123960 f i c_proceduralregistry.obj
 0002:00065980       ?begin@?$_Tree@V?$_Tmap_traits@V?$basic_string@_WU?$char_traits@_W@std@@V?$K2StringAllocator@_W@@@std@@USTextureMapEntry@@U?$less@V?$basic_string@_WU?$char_traits@_W@std@@V?$K2StringAllocator@_W@@@std@@@2@V?$K2MapAllocator@U?$pair@$$CBV?$basic_string@_WU?$char_traits@_W@std@@V?$K2StringAllocator@_W@@@std@@USTextureMapEntry@@@std@@@@$0A@@std@@@std@@QAE?AViterator@12@XZ 17123980 f i c_proceduralregistry.obj
 0002:000659d0       ?size@?$_Tree@V?$_Tmap_traits@V?$basic_string@_WU?$char_traits@_W@std@@V?$K2StringAllocator@_W@@@std@@USTextureMapEntry@@U?$less@V?$basic_string@_WU?$char_traits@_W@std@@V?$K2StringAllocator@_W@@@std@@@2@V?$K2MapAllocator@U?$pair@$$CBV?$basic_string@_WU?$char_traits@_W@std@@V?$K2StringAllocator@_W@@@std@@USTextureMapEntry@@@std@@@@$0A@@std@@@std@@QBEIXZ 171239d0 f i c_proceduralregistry.obj
 0002:000659f0       ?insert@?$_Tree@V?$_Tmap_traits@V?$basic_string@_WU?$char_traits@_W@std@@V?$K2StringAllocator@_W@@@std@@USTextureMapEntry@@U?$less@V?$basic_string@_WU?$char_traits@_W@std@@V?$K2StringAllocator@_W@@@std@@@2@V?$K2MapAllocator@U?$pair@$$CBV?$basic_string@_WU?$char_traits@_W@std@@V?$K2StringAllocator@_W@@@std@@USTextureMapEntry@@@std@@@@$0A@@std@@@std@@QAE?AU?$pair@Viterator@?$_Tree@V?$_Tmap_traits@V?$basic_string@_WU?$char_traits@_W@std@@V?$K2StringAllocator@_W@@@std@@USTextureMapEntry@@U?$less@V?$basic_string@_WU?$char_traits@_W@std@@V?$K2StringAllocator@_W@@@std@@@2@V?$K2MapAllocator@U?$pair@$$CBV?$basic_string@_WU?$char_traits@_W@std@@V?$K2StringAllocator@_W@@@std@@USTextureMapEntry@@@std@@@@$0A@@std@@@std@@_N@2@ABU?$pair@$$CBV?$basic_string@_WU?$char_traits@_W@std@@V?$K2StringAllocator@_W@@@std@@USTextureMapEntry@@@2@@Z 171239f0 f i c_proceduralregistry.obj
 0002:00065e10       ?_Insert@?$_Tree@V?$_Tmap_traits@V?$basic_string@_WU?$char_traits@_W@std@@V?$K2StringAllocator@_W@@@std@@USTextureMapEntry@@U?$less@V?$basic_string@_WU?$char_traits@_W@std@@V?$K2StringAllocator@_W@@@std@@@2@V?$K2MapAllocator@U?$pair@$$CBV?$basic_string@_WU?$char_traits@_W@std@@V?$K2StringAllocator@_W@@@std@@USTextureMapEntry@@@std@@@@$0A@@std@@@std@@IAE?AViterator@12@_NPAU_Node@?$_Tree_nod@V?$_Tmap_traits@V?$basic_string@_WU?$char_traits@_W@std@@V?$K2StringAllocator@_W@@@std@@USTextureMapEntry@@U?$less@V?$basic_string@_WU?$char_traits@_W@std@@V?$K2StringAllocator@_W@@@std@@@2@V?$K2MapAllocator@U?$pair@$$CBV?$basic_string@_WU?$char_traits@_W@std@@V?$K2StringAllocator@_W@@@std@@USTextureMapEntry@@@std@@@@$0A@@std@@@2@ABU?$pair@$$CBV?$basic_string@_WU?$char_traits@_W@std@@V?$K2StringAllocator@_W@@@std@@USTextureMapEntry@@@2@@Z 17123e10 f i c_proceduralregistry.obj
 0002:000663d0       ?_Lbound@?$_Tree@V?$_Tmap_traits@V?$basic_string@_WU?$char_traits@_W@std@@V?$K2StringAllocator@_W@@@std@@USTextureMapEntry@@U?$less@V?$basic_string@_WU?$char_traits@_W@std@@V?$K2StringAllocator@_W@@@std@@@2@V?$K2MapAllocator@U?$pair@$$CBV?$basic_string@_WU?$char_traits@_W@std@@V?$K2StringAllocator@_W@@@std@@USTextureMapEntry@@@std@@@@$0A@@std@@@std@@IBEPAU_Node@?$_Tree_nod@V?$_Tmap_traits@V?$basic_string@_WU?$char_traits@_W@std@@V?$K2StringAllocator@_W@@@std@@USTextureMapEntry@@U?$less@V?$basic_string@_WU?$char_traits@_W@std@@V?$K2StringAllocator@_W@@@std@@@2@V?$K2MapAllocator@U?$pair@$$CBV?$basic_string@_WU?$char_traits@_W@std@@V?$K2StringAllocator@_W@@@std@@USTextureMapEntry@@@std@@@@$0A@@std@@@2@ABV?$basic_string@_WU?$char_traits@_W@std@@V?$K2StringAllocator@_W@@@2@@Z 171243d0 f i c_proceduralregistry.obj
 0002:000664a0       ?_Rmost@?$_Tree@V?$_Tmap_traits@V?$basic_string@_WU?$char_traits@_W@std@@V?$K2StringAllocator@_W@@@std@@USTextureMapEntry@@U?$less@V?$basic_string@_WU?$char_traits@_W@std@@V?$K2StringAllocator@_W@@@std@@@2@V?$K2MapAllocator@U?$pair@$$CBV?$basic_string@_WU?$char_traits@_W@std@@V?$K2StringAllocator@_W@@@std@@USTextureMapEntry@@@std@@@@$0A@@std@@@std@@IBEAAPAU_Node@?$_Tree_nod@V?$_Tmap_traits@V?$basic_string@_WU?$char_traits@_W@std@@V?$K2StringAllocator@_W@@@std@@USTextureMapEntry@@U?$less@V?$basic_string@_WU?$char_traits@_W@std@@V?$K2StringAllocator@_W@@@std@@@2@V?$K2MapAllocator@U?$pair@$$CBV?$basic_string@_WU?$char_traits@_W@std@@V?$K2StringAllocator@_W@@@std@@USTextureMapEntry@@@std@@@@$0A@@std@@@2@XZ 171244a0 f i c_proceduralregistry.obj
 0002:000664d0       ?_Kfn@?$_Tmap_traits@V?$basic_string@_WU?$char_traits@_W@std@@V?$K2StringAllocator@_W@@@std@@USTextureMapEntry@@U?$less@V?$basic_string@_WU?$char_traits@_W@std@@V?$K2StringAllocator@_W@@@std@@@2@V?$K2MapAllocator@U?$pair@$$CBV?$basic_string@_WU?$char_traits@_W@std@@V?$K2StringAllocator@_W@@@std@@USTextureMapEntry@@@std@@@@$0A@@std@@SAABV?$basic_string@_WU?$char_traits@_W@std@@V?$K2StringAllocator@_W@@@2@ABU?$pair@$$CBV?$basic_string@_WU?$char_traits@_W@std@@V?$K2StringAllocator@_W@@@std@@USTextureMapEntry@@@2@@Z 171244d0 f i c_proceduralregistry.obj
 0002:000664f0       ??0iterator@?$_Tree@V?$_Tmap_traits@V?$basic_string@_WU?$char_traits@_W@std@@V?$K2StringAllocator@_W@@@std@@USTextureMapEntry@@U?$less@V?$basic_string@_WU?$char_traits@_W@std@@V?$K2StringAllocator@_W@@@std@@@2@V?$K2MapAllocator@U?$pair@$$CBV?$basic_string@_WU?$char_traits@_W@std@@V?$K2StringAllocator@_W@@@std@@USTextureMapEntry@@@std@@@@$0A@@std@@@std@@QAE@XZ 171244f0 f i c_proceduralregistry.obj
 0002:00066520       ??Eiterator@?$_Tree@V?$_Tmap_traits@V?$basic_string@_WU?$char_traits@_W@std@@V?$K2StringAllocator@_W@@@std@@USTextureMapEntry@@U?$less@V?$basic_string@_WU?$char_traits@_W@std@@V?$K2StringAllocator@_W@@@std@@@2@V?$K2MapAllocator@U?$pair@$$CBV?$basic_string@_WU?$char_traits@_W@std@@V?$K2StringAllocator@_W@@@std@@USTextureMapEntry@@@std@@@@$0A@@std@@@std@@QAEAAV012@XZ 17124520 f i c_proceduralregistry.obj
 0002:00066550       ??Fiterator@?$_Tree@V?$_Tmap_traits@V?$basic_string@_WU?$char_traits@_W@std@@V?$K2StringAllocator@_W@@@std@@USTextureMapEntry@@U?$less@V?$basic_string@_WU?$char_traits@_W@std@@V?$K2StringAllocator@_W@@@std@@@2@V?$K2MapAllocator@U?$pair@$$CBV?$basic_string@_WU?$char_traits@_W@std@@V?$K2StringAllocator@_W@@@std@@USTextureMapEntry@@@std@@@@$0A@@std@@@std@@QAEAAV012@XZ 17124550 f i c_proceduralregistry.obj
 0002:00066580       ??0const_iterator@?$_Tree@V?$_Tmap_traits@V?$basic_string@_WU?$char_traits@_W@std@@V?$K2StringAllocator@_W@@@std@@USTextureMapEntry@@U?$less@V?$basic_string@_WU?$char_traits@_W@std@@V?$K2StringAllocator@_W@@@std@@@2@V?$K2MapAllocator@U?$pair@$$CBV?$basic_string@_WU?$char_traits@_W@std@@V?$K2StringAllocator@_W@@@std@@USTextureMapEntry@@@std@@@@$0A@@std@@@std@@QAE@PAU_Node@?$_Tree_nod@V?$_Tmap_traits@V?$basic_string@_WU?$char_traits@_W@std@@V?$K2StringAllocator@_W@@@std@@USTextureMapEntry@@U?$less@V?$basic_string@_WU?$char_traits@_W@std@@V?$K2StringAllocator@_W@@@std@@@2@V?$K2MapAllocator@U?$pair@$$CBV?$basic_string@_WU?$char_traits@_W@std@@V?$K2StringAllocator@_W@@@std@@USTextureMapEntry@@@std@@@@$0A@@std@@@2@PBV12@@Z 17124580 f i c_proceduralregistry.obj
 0002:00066610       ??Dconst_iterator@?$_Tree@V?$_Tmap_traits@V?$basic_string@_WU?$char_traits@_W@std@@V?$K2StringAllocator@_W@@@std@@USTextureMapEntry@@U?$less@V?$basic_string@_WU?$char_traits@_W@std@@V?$K2StringAllocator@_W@@@std@@@2@V?$K2MapAllocator@U?$pair@$$CBV?$basic_string@_WU?$char_traits@_W@std@@V?$K2StringAllocator@_W@@@std@@USTextureMapEntry@@@std@@@@$0A@@std@@@std@@QBEABU?$pair@$$CBV?$basic_string@_WU?$char_traits@_W@std@@V?$K2StringAllocator@_W@@@std@@USTextureMapEntry@@@2@XZ 17124610 f i c_proceduralregistry.obj
 0002:000666d0       ??0iterator@?$_Tree@V?$_Tmap_traits@V?$basic_string@_WU?$char_traits@_W@std@@V?$K2StringAllocator@_W@@@std@@HU?$less@V?$basic_string@_WU?$char_traits@_W@std@@V?$K2StringAllocator@_W@@@std@@@2@V?$K2MapAllocator@U?$pair@$$CBV?$basic_string@_WU?$char_traits@_W@std@@V?$K2StringAllocator@_W@@@std@@H@std@@@@$0A@@std@@@std@@QAE@XZ 171246d0 f i c_proceduralregistry.obj
 0002:00066700       ??Eiterator@?$_Tree@V?$_Tmap_traits@V?$basic_string@_WU?$char_traits@_W@std@@V?$K2StringAllocator@_W@@@std@@HU?$less@V?$basic_string@_WU?$char_traits@_W@std@@V?$K2StringAllocator@_W@@@std@@@2@V?$K2MapAllocator@U?$pair@$$CBV?$basic_string@_WU?$char_traits@_W@std@@V?$K2StringAllocator@_W@@@std@@H@std@@@@$0A@@std@@@std@@QAEAAV012@XZ 17124700 f i c_proceduralregistry.obj
 0002:00066730       ??Fiterator@?$_Tree@V?$_Tmap_traits@V?$basic_string@_WU?$char_traits@_W@std@@V?$K2StringAllocator@_W@@@std@@HU?$less@V?$basic_string@_WU?$char_traits@_W@std@@V?$K2StringAllocator@_W@@@std@@@2@V?$K2MapAllocator@U?$pair@$$CBV?$basic_string@_WU?$char_traits@_W@std@@V?$K2StringAllocator@_W@@@std@@H@std@@@@$0A@@std@@@std@@QAEAAV012@XZ 17124730 f i c_proceduralregistry.obj
 0002:00066760       ??0const_iterator@?$_Tree@V?$_Tmap_traits@V?$basic_string@_WU?$char_traits@_W@std@@V?$K2StringAllocator@_W@@@std@@HU?$less@V?$basic_string@_WU?$char_traits@_W@std@@V?$K2StringAllocator@_W@@@std@@@2@V?$K2MapAllocator@U?$pair@$$CBV?$basic_string@_WU?$char_traits@_W@std@@V?$K2StringAllocator@_W@@@std@@H@std@@@@$0A@@std@@@std@@QAE@PAU_Node@?$_Tree_nod@V?$_Tmap_traits@V?$basic_string@_WU?$char_traits@_W@std@@V?$K2StringAllocator@_W@@@std@@HU?$less@V?$basic_string@_WU?$char_traits@_W@std@@V?$K2StringAllocator@_W@@@std@@@2@V?$K2MapAllocator@U?$pair@$$CBV?$basic_string@_WU?$char_traits@_W@std@@V?$K2StringAllocator@_W@@@std@@H@std@@@@$0A@@std@@@2@PBV12@@Z 17124760 f i c_proceduralregistry.obj
 0002:000667f0       ??Dconst_iterator@?$_Tree@V?$_Tmap_traits@V?$basic_string@_WU?$char_traits@_W@std@@V?$K2StringAllocator@_W@@@std@@HU?$less@V?$basic_string@_WU?$char_traits@_W@std@@V?$K2StringAllocator@_W@@@std@@@2@V?$K2MapAllocator@U?$pair@$$CBV?$basic_string@_WU?$char_traits@_W@std@@V?$K2StringAllocator@_W@@@std@@H@std@@@@$0A@@std@@@std@@QBEABU?$pair@$$CBV?$basic_string@_WU?$char_traits@_W@std@@V?$K2StringAllocator@_W@@@std@@H@2@XZ 171247f0 f i c_proceduralregistry.obj
 0002:000668b0       ??0?$_Bidit@U?$pair@$$CBV?$basic_string@_WU?$char_traits@_W@std@@V?$K2StringAllocator@_W@@@std@@USTextureMapEntry@@@std@@HPBU12@ABU12@@std@@QAE@XZ 171248b0 f i c_proceduralregistry.obj
 0002:000668e0       ??0?$_Bidit@U?$pair@$$CBV?$basic_string@_WU?$char_traits@_W@std@@V?$K2StringAllocator@_W@@@std@@H@std@@HPBU12@ABU12@@std@@QAE@XZ 171248e0 f i c_proceduralregistry.obj
 0002:00066910       ?max_size@?$_Tree@V?$_Tmap_traits@V?$basic_string@_WU?$char_traits@_W@std@@V?$K2StringAllocator@_W@@@std@@PAVCProcedural@@U?$less@V?$basic_string@_WU?$char_traits@_W@std@@V?$K2StringAllocator@_W@@@std@@@2@V?$K2MapAllocator@U?$pair@$$CBV?$basic_string@_WU?$char_traits@_W@std@@V?$K2StringAllocator@_W@@@std@@PAVCProcedural@@@std@@@@$0A@@std@@@std@@QBEIXZ 17124910 f i c_proceduralregistry.obj
 0002:00066940       ?clear@?$_Tree@V?$_Tmap_traits@V?$basic_string@_WU?$char_traits@_W@std@@V?$K2StringAllocator@_W@@@std@@PAVCProcedural@@U?$less@V?$basic_string@_WU?$char_traits@_W@std@@V?$K2StringAllocator@_W@@@std@@@2@V?$K2MapAllocator@U?$pair@$$CBV?$basic_string@_WU?$char_traits@_W@std@@V?$K2StringAllocator@_W@@@std@@PAVCProcedural@@@std@@@@$0A@@std@@@std@@QAEXXZ 17124940 f i c_proceduralregistry.obj
 0002:000669d0       ?_Init@?$_Tree@V?$_Tmap_traits@V?$basic_string@_WU?$char_traits@_W@std@@V?$K2StringAllocator@_W@@@std@@PAVCProcedural@@U?$less@V?$basic_string@_WU?$char_traits@_W@std@@V?$K2StringAllocator@_W@@@std@@@2@V?$K2MapAllocator@U?$pair@$$CBV?$basic_string@_WU?$char_traits@_W@std@@V?$K2StringAllocator@_W@@@std@@PAVCProcedural@@@std@@@@$0A@@std@@@std@@IAEXXZ 171249d0 f i c_proceduralregistry.obj
 0002:00066a60       ?_Buynode@?$_Tree@V?$_Tmap_traits@V?$basic_string@_WU?$char_traits@_W@std@@V?$K2StringAllocator@_W@@@std@@PAVCProcedural@@U?$less@V?$basic_string@_WU?$char_traits@_W@std@@V?$K2StringAllocator@_W@@@std@@@2@V?$K2MapAllocator@U?$pair@$$CBV?$basic_string@_WU?$char_traits@_W@std@@V?$K2StringAllocator@_W@@@std@@PAVCProcedural@@@std@@@@$0A@@std@@@std@@IAEPAU_Node@?$_Tree_nod@V?$_Tmap_traits@V?$basic_string@_WU?$char_traits@_W@std@@V?$K2StringAllocator@_W@@@std@@PAVCProcedural@@U?$less@V?$basic_string@_WU?$char_traits@_W@std@@V?$K2StringAllocator@_W@@@std@@@2@V?$K2MapAllocator@U?$pair@$$CBV?$basic_string@_WU?$char_traits@_W@std@@V?$K2StringAllocator@_W@@@std@@PAVCProcedural@@@std@@@@$0A@@std@@@2@PAU342@00ABU?$pair@$$CBV?$basic_string@_WU?$char_traits@_W@std@@V?$K2StringAllocator@_W@@@std@@PAVCProcedural@@@2@D@Z 17124a60 f i c_proceduralregistry.obj
 0002:00066b80       ??0?$_Tree_val@V?$_Tmap_traits@V?$basic_string@_WU?$char_traits@_W@std@@V?$K2StringAllocator@_W@@@std@@PAVCProcedural@@U?$less@V?$basic_string@_WU?$char_traits@_W@std@@V?$K2StringAllocator@_W@@@std@@@2@V?$K2MapAllocator@U?$pair@$$CBV?$basic_string@_WU?$char_traits@_W@std@@V?$K2StringAllocator@_W@@@std@@PAVCProcedural@@@std@@@@$0A@@std@@@std@@IAE@ABU?$less@V?$basic_string@_WU?$char_traits@_W@std@@V?$K2StringAllocator@_W@@@std@@@1@V?$K2MapAllocator@U?$pair@$$CBV?$basic_string@_WU?$char_traits@_W@std@@V?$K2StringAllocator@_W@@@std@@PAVCProcedural@@@std@@@@@Z 17124b80 f i c_proceduralregistry.obj
 0002:00066c30       ??0?$K2MapAllocator@U?$pair@$$CBV?$basic_string@_WU?$char_traits@_W@std@@V?$K2StringAllocator@_W@@@std@@PAVCProcedural@@@std@@@@QAE@ABV0@@Z 17124c30 f i c_proceduralregistry.obj
 0002:00066c60       ??0?$allocator@U?$pair@$$CBV?$basic_string@_WU?$char_traits@_W@std@@V?$K2StringAllocator@_W@@@std@@PAVCProcedural@@@std@@@std@@QAE@XZ 17124c60 f i c_proceduralregistry.obj
 0002:00066c80       ?_Color@?$_Tree@V?$_Tmap_traits@V?$basic_string@_WU?$char_traits@_W@std@@V?$K2StringAllocator@_W@@@std@@HU?$less@V?$basic_string@_WU?$char_traits@_W@std@@V?$K2StringAllocator@_W@@@std@@@2@V?$K2MapAllocator@U?$pair@$$CBV?$basic_string@_WU?$char_traits@_W@std@@V?$K2StringAllocator@_W@@@std@@H@std@@@@$0A@@std@@@std@@KAAADPAU_Node@?$_Tree_nod@V?$_Tmap_traits@V?$basic_string@_WU?$char_traits@_W@std@@V?$K2StringAllocator@_W@@@std@@HU?$less@V?$basic_string@_WU?$char_traits@_W@std@@V?$K2StringAllocator@_W@@@std@@@2@V?$K2MapAllocator@U?$pair@$$CBV?$basic_string@_WU?$char_traits@_W@std@@V?$K2StringAllocator@_W@@@std@@H@std@@@@$0A@@std@@@2@@Z 17124c80 f i c_proceduralregistry.obj
 0002:00066ca0       ?max_size@?$_Tree@V?$_Tmap_traits@V?$basic_string@_WU?$char_traits@_W@std@@V?$K2StringAllocator@_W@@@std@@HU?$less@V?$basic_string@_WU?$char_traits@_W@std@@V?$K2StringAllocator@_W@@@std@@@2@V?$K2MapAllocator@U?$pair@$$CBV?$basic_string@_WU?$char_traits@_W@std@@V?$K2StringAllocator@_W@@@std@@H@std@@@@$0A@@std@@@std@@QBEIXZ 17124ca0 f i c_proceduralregistry.obj
 0002:00066cd0       ?erase@?$_Tree@V?$_Tmap_traits@V?$basic_string@_WU?$char_traits@_W@std@@V?$K2StringAllocator@_W@@@std@@HU?$less@V?$basic_string@_WU?$char_traits@_W@std@@V?$K2StringAllocator@_W@@@std@@@2@V?$K2MapAllocator@U?$pair@$$CBV?$basic_string@_WU?$char_traits@_W@std@@V?$K2StringAllocator@_W@@@std@@H@std@@@@$0A@@std@@@std@@QAE?AViterator@12@V312@@Z 17124cd0 f i c_proceduralregistry.obj
 0002:000676b0       ?clear@?$_Tree@V?$_Tmap_traits@V?$basic_string@_WU?$char_traits@_W@std@@V?$K2StringAllocator@_W@@@std@@HU?$less@V?$basic_string@_WU?$char_traits@_W@std@@V?$K2StringAllocator@_W@@@std@@@2@V?$K2MapAllocator@U?$pair@$$CBV?$basic_string@_WU?$char_traits@_W@std@@V?$K2StringAllocator@_W@@@std@@H@std@@@@$0A@@std@@@std@@QAEXXZ 171256b0 f i c_proceduralregistry.obj
 0002:00067740       ?_Init@?$_Tree@V?$_Tmap_traits@V?$basic_string@_WU?$char_traits@_W@std@@V?$K2StringAllocator@_W@@@std@@HU?$less@V?$basic_string@_WU?$char_traits@_W@std@@V?$K2StringAllocator@_W@@@std@@@2@V?$K2MapAllocator@U?$pair@$$CBV?$basic_string@_WU?$char_traits@_W@std@@V?$K2StringAllocator@_W@@@std@@H@std@@@@$0A@@std@@@std@@IAEXXZ 17125740 f i c_proceduralregistry.obj
 0002:000677d0       ?_Lmost@?$_Tree@V?$_Tmap_traits@V?$basic_string@_WU?$char_traits@_W@std@@V?$K2StringAllocator@_W@@@std@@HU?$less@V?$basic_string@_WU?$char_traits@_W@std@@V?$K2StringAllocator@_W@@@std@@@2@V?$K2MapAllocator@U?$pair@$$CBV?$basic_string@_WU?$char_traits@_W@std@@V?$K2StringAllocator@_W@@@std@@H@std@@@@$0A@@std@@@std@@IBEAAPAU_Node@?$_Tree_nod@V?$_Tmap_traits@V?$basic_string@_WU?$char_traits@_W@std@@V?$K2StringAllocator@_W@@@std@@HU?$less@V?$basic_string@_WU?$char_traits@_W@std@@V?$K2StringAllocator@_W@@@std@@@2@V?$K2MapAllocator@U?$pair@$$CBV?$basic_string@_WU?$char_traits@_W@std@@V?$K2StringAllocator@_W@@@std@@H@std@@@@$0A@@std@@@2@XZ 171257d0 f i c_proceduralregistry.obj
 0002:00067800       ?_Lrotate@?$_Tree@V?$_Tmap_traits@V?$basic_string@_WU?$char_traits@_W@std@@V?$K2StringAllocator@_W@@@std@@HU?$less@V?$basic_string@_WU?$char_traits@_W@std@@V?$K2StringAllocator@_W@@@std@@@2@V?$K2MapAllocator@U?$pair@$$CBV?$basic_string@_WU?$char_traits@_W@std@@V?$K2StringAllocator@_W@@@std@@H@std@@@@$0A@@std@@@std@@IAEXPAU_Node@?$_Tree_nod@V?$_Tmap_traits@V?$basic_string@_WU?$char_traits@_W@std@@V?$K2StringAllocator@_W@@@std@@HU?$less@V?$basic_string@_WU?$char_traits@_W@std@@V?$K2StringAllocator@_W@@@std@@@2@V?$K2MapAllocator@U?$pair@$$CBV?$basic_string@_WU?$char_traits@_W@std@@V?$K2StringAllocator@_W@@@std@@H@std@@@@$0A@@std@@@2@@Z 17125800 f i c_proceduralregistry.obj
 0002:00067990       ?_Root@?$_Tree@V?$_Tmap_traits@V?$basic_string@_WU?$char_traits@_W@std@@V?$K2StringAllocator@_W@@@std@@HU?$less@V?$basic_string@_WU?$char_traits@_W@std@@V?$K2StringAllocator@_W@@@std@@@2@V?$K2MapAllocator@U?$pair@$$CBV?$basic_string@_WU?$char_traits@_W@std@@V?$K2StringAllocator@_W@@@std@@H@std@@@@$0A@@std@@@std@@IBEAAPAU_Node@?$_Tree_nod@V?$_Tmap_traits@V?$basic_string@_WU?$char_traits@_W@std@@V?$K2StringAllocator@_W@@@std@@HU?$less@V?$basic_string@_WU?$char_traits@_W@std@@V?$K2StringAllocator@_W@@@std@@@2@V?$K2MapAllocator@U?$pair@$$CBV?$basic_string@_WU?$char_traits@_W@std@@V?$K2StringAllocator@_W@@@std@@H@std@@@@$0A@@std@@@2@XZ 17125990 f i c_proceduralregistry.obj
 0002:000679c0       ?_Rrotate@?$_Tree@V?$_Tmap_traits@V?$basic_string@_WU?$char_traits@_W@std@@V?$K2StringAllocator@_W@@@std@@HU?$less@V?$basic_string@_WU?$char_traits@_W@std@@V?$K2StringAllocator@_W@@@std@@@2@V?$K2MapAllocator@U?$pair@$$CBV?$basic_string@_WU?$char_traits@_W@std@@V?$K2StringAllocator@_W@@@std@@H@std@@@@$0A@@std@@@std@@IAEXPAU_Node@?$_Tree_nod@V?$_Tmap_traits@V?$basic_string@_WU?$char_traits@_W@std@@V?$K2StringAllocator@_W@@@std@@HU?$less@V?$basic_string@_WU?$char_traits@_W@std@@V?$K2StringAllocator@_W@@@std@@@2@V?$K2MapAllocator@U?$pair@$$CBV?$basic_string@_WU?$char_traits@_W@std@@V?$K2StringAllocator@_W@@@std@@H@std@@@@$0A@@std@@@2@@Z 171259c0 f i c_proceduralregistry.obj
 0002:00067b50       ?_Buynode@?$_Tree@V?$_Tmap_traits@V?$basic_string@_WU?$char_traits@_W@std@@V?$K2StringAllocator@_W@@@std@@HU?$less@V?$basic_string@_WU?$char_traits@_W@std@@V?$K2StringAllocator@_W@@@std@@@2@V?$K2MapAllocator@U?$pair@$$CBV?$basic_string@_WU?$char_traits@_W@std@@V?$K2StringAllocator@_W@@@std@@H@std@@@@$0A@@std@@@std@@IAEPAU_Node@?$_Tree_nod@V?$_Tmap_traits@V?$basic_string@_WU?$char_traits@_W@std@@V?$K2StringAllocator@_W@@@std@@HU?$less@V?$basic_string@_WU?$char_traits@_W@std@@V?$K2StringAllocator@_W@@@std@@@2@V?$K2MapAllocator@U?$pair@$$CBV?$basic_string@_WU?$char_traits@_W@std@@V?$K2StringAllocator@_W@@@std@@H@std@@@@$0A@@std@@@2@PAU342@00ABU?$pair@$$CBV?$basic_string@_WU?$char_traits@_W@std@@V?$K2StringAllocator@_W@@@std@@H@2@D@Z 17125b50 f i c_proceduralregistry.obj
 0002:00067c70       ??0?$_Tree_val@V?$_Tmap_traits@V?$basic_string@_WU?$char_traits@_W@std@@V?$K2StringAllocator@_W@@@std@@HU?$less@V?$basic_string@_WU?$char_traits@_W@std@@V?$K2StringAllocator@_W@@@std@@@2@V?$K2MapAllocator@U?$pair@$$CBV?$basic_string@_WU?$char_traits@_W@std@@V?$K2StringAllocator@_W@@@std@@H@std@@@@$0A@@std@@@std@@IAE@ABU?$less@V?$basic_string@_WU?$char_traits@_W@std@@V?$K2StringAllocator@_W@@@std@@@1@V?$K2MapAllocator@U?$pair@$$CBV?$basic_string@_WU?$char_traits@_W@std@@V?$K2StringAllocator@_W@@@std@@H@std@@@@@Z 17125c70 f i c_proceduralregistry.obj
 0002:00067d20       ??0?$K2MapAllocator@U?$pair@$$CBV?$basic_string@_WU?$char_traits@_W@std@@V?$K2StringAllocator@_W@@@std@@H@std@@@@QAE@ABV0@@Z 17125d20 f i c_proceduralregistry.obj
 0002:00067d50       ??0?$allocator@U?$pair@$$CBV?$basic_string@_WU?$char_traits@_W@std@@V?$K2StringAllocator@_W@@@std@@H@std@@@std@@QAE@XZ 17125d50 f i c_proceduralregistry.obj
 0002:00067d70       ??Eiterator@?$_Tree@V?$_Tmap_traits@V?$basic_string@_WU?$char_traits@_W@std@@V?$K2StringAllocator@_W@@@std@@PAVCProcedural@@U?$less@V?$basic_string@_WU?$char_traits@_W@std@@V?$K2StringAllocator@_W@@@std@@@2@V?$K2MapAllocator@U?$pair@$$CBV?$basic_string@_WU?$char_traits@_W@std@@V?$K2StringAllocator@_W@@@std@@PAVCProcedural@@@std@@@@$0A@@std@@@std@@QAE?AV012@H@Z 17125d70 f i c_proceduralregistry.obj
 0002:00067e20       ??0const_iterator@?$_Tree@V?$_Tmap_traits@V?$basic_string@_WU?$char_traits@_W@std@@V?$K2StringAllocator@_W@@@std@@PAVCProcedural@@U?$less@V?$basic_string@_WU?$char_traits@_W@std@@V?$K2StringAllocator@_W@@@std@@@2@V?$K2MapAllocator@U?$pair@$$CBV?$basic_string@_WU?$char_traits@_W@std@@V?$K2StringAllocator@_W@@@std@@PAVCProcedural@@@std@@@@$0A@@std@@@std@@QAE@XZ 17125e20 f i c_proceduralregistry.obj
 0002:00067e60       ??Fconst_iterator@?$_Tree@V?$_Tmap_traits@V?$basic_string@_WU?$char_traits@_W@std@@V?$K2StringAllocator@_W@@@std@@PAVCProcedural@@U?$less@V?$basic_string@_WU?$char_traits@_W@std@@V?$K2StringAllocator@_W@@@std@@@2@V?$K2MapAllocator@U?$pair@$$CBV?$basic_string@_WU?$char_traits@_W@std@@V?$K2StringAllocator@_W@@@std@@PAVCProcedural@@@std@@@@$0A@@std@@@std@@QAEAAV012@XZ 17125e60 f i c_proceduralregistry.obj
 0002:00067e90       ?_Color@?$_Tree@V?$_Tmap_traits@V?$basic_string@_WU?$char_traits@_W@std@@V?$K2StringAllocator@_W@@@std@@USTextureMapEntry@@U?$less@V?$basic_string@_WU?$char_traits@_W@std@@V?$K2StringAllocator@_W@@@std@@@2@V?$K2MapAllocator@U?$pair@$$CBV?$basic_string@_WU?$char_traits@_W@std@@V?$K2StringAllocator@_W@@@std@@USTextureMapEntry@@@std@@@@$0A@@std@@@std@@KAAADPAU_Node@?$_Tree_nod@V?$_Tmap_traits@V?$basic_string@_WU?$char_traits@_W@std@@V?$K2StringAllocator@_W@@@std@@USTextureMapEntry@@U?$less@V?$basic_string@_WU?$char_traits@_W@std@@V?$K2StringAllocator@_W@@@std@@@2@V?$K2MapAllocator@U?$pair@$$CBV?$basic_string@_WU?$char_traits@_W@std@@V?$K2StringAllocator@_W@@@std@@USTextureMapEntry@@@std@@@@$0A@@std@@@2@@Z 17125e90 f i c_proceduralregistry.obj
 0002:00067eb0       ?_Left@?$_Tree@V?$_Tmap_traits@V?$basic_string@_WU?$char_traits@_W@std@@V?$K2StringAllocator@_W@@@std@@USTextureMapEntry@@U?$less@V?$basic_string@_WU?$char_traits@_W@std@@V?$K2StringAllocator@_W@@@std@@@2@V?$K2MapAllocator@U?$pair@$$CBV?$basic_string@_WU?$char_traits@_W@std@@V?$K2StringAllocator@_W@@@std@@USTextureMapEntry@@@std@@@@$0A@@std@@@std@@KAAAPAU_Node@?$_Tree_nod@V?$_Tmap_traits@V?$basic_string@_WU?$char_traits@_W@std@@V?$K2StringAllocator@_W@@@std@@USTextureMapEntry@@U?$less@V?$basic_string@_WU?$char_traits@_W@std@@V?$K2StringAllocator@_W@@@std@@@2@V?$K2MapAllocator@U?$pair@$$CBV?$basic_string@_WU?$char_traits@_W@std@@V?$K2StringAllocator@_W@@@std@@USTextureMapEntry@@@std@@@@$0A@@std@@@2@PAU342@@Z 17125eb0 f i c_proceduralregistry.obj
 0002:00067ed0       ?_Parent@?$_Tree@V?$_Tmap_traits@V?$basic_string@_WU?$char_traits@_W@std@@V?$K2StringAllocator@_W@@@std@@USTextureMapEntry@@U?$less@V?$basic_string@_WU?$char_traits@_W@std@@V?$K2StringAllocator@_W@@@std@@@2@V?$K2MapAllocator@U?$pair@$$CBV?$basic_string@_WU?$char_traits@_W@std@@V?$K2StringAllocator@_W@@@std@@USTextureMapEntry@@@std@@@@$0A@@std@@@std@@KAAAPAU_Node@?$_Tree_nod@V?$_Tmap_traits@V?$basic_string@_WU?$char_traits@_W@std@@V?$K2StringAllocator@_W@@@std@@USTextureMapEntry@@U?$less@V?$basic_string@_WU?$char_traits@_W@std@@V?$K2StringAllocator@_W@@@std@@@2@V?$K2MapAllocator@U?$pair@$$CBV?$basic_string@_WU?$char_traits@_W@std@@V?$K2StringAllocator@_W@@@std@@USTextureMapEntry@@@std@@@@$0A@@std@@@2@PAU342@@Z 17125ed0 f i c_proceduralregistry.obj
 0002:00067ef0       ?max_size@?$_Tree@V?$_Tmap_traits@V?$basic_string@_WU?$char_traits@_W@std@@V?$K2StringAllocator@_W@@@std@@USTextureMapEntry@@U?$less@V?$basic_string@_WU?$char_traits@_W@std@@V?$K2StringAllocator@_W@@@std@@@2@V?$K2MapAllocator@U?$pair@$$CBV?$basic_string@_WU?$char_traits@_W@std@@V?$K2StringAllocator@_W@@@std@@USTextureMapEntry@@@std@@@@$0A@@std@@@std@@QBEIXZ 17125ef0 f i c_proceduralregistry.obj
 0002:00067f20       ?_Lmost@?$_Tree@V?$_Tmap_traits@V?$basic_string@_WU?$char_traits@_W@std@@V?$K2StringAllocator@_W@@@std@@USTextureMapEntry@@U?$less@V?$basic_string@_WU?$char_traits@_W@std@@V?$K2StringAllocator@_W@@@std@@@2@V?$K2MapAllocator@U?$pair@$$CBV?$basic_string@_WU?$char_traits@_W@std@@V?$K2StringAllocator@_W@@@std@@USTextureMapEntry@@@std@@@@$0A@@std@@@std@@IBEAAPAU_Node@?$_Tree_nod@V?$_Tmap_traits@V?$basic_string@_WU?$char_traits@_W@std@@V?$K2StringAllocator@_W@@@std@@USTextureMapEntry@@U?$less@V?$basic_string@_WU?$char_traits@_W@std@@V?$K2StringAllocator@_W@@@std@@@2@V?$K2MapAllocator@U?$pair@$$CBV?$basic_string@_WU?$char_traits@_W@std@@V?$K2StringAllocator@_W@@@std@@USTextureMapEntry@@@std@@@@$0A@@std@@@2@XZ 17125f20 f i c_proceduralregistry.obj
 0002:00067f50       ?_Lrotate@?$_Tree@V?$_Tmap_traits@V?$basic_string@_WU?$char_traits@_W@std@@V?$K2StringAllocator@_W@@@std@@USTextureMapEntry@@U?$less@V?$basic_string@_WU?$char_traits@_W@std@@V?$K2StringAllocator@_W@@@std@@@2@V?$K2MapAllocator@U?$pair@$$CBV?$basic_string@_WU?$char_traits@_W@std@@V?$K2StringAllocator@_W@@@std@@USTextureMapEntry@@@std@@@@$0A@@std@@@std@@IAEXPAU_Node@?$_Tree_nod@V?$_Tmap_traits@V?$basic_string@_WU?$char_traits@_W@std@@V?$K2StringAllocator@_W@@@std@@USTextureMapEntry@@U?$less@V?$basic_string@_WU?$char_traits@_W@std@@V?$K2StringAllocator@_W@@@std@@@2@V?$K2MapAllocator@U?$pair@$$CBV?$basic_string@_WU?$char_traits@_W@std@@V?$K2StringAllocator@_W@@@std@@USTextureMapEntry@@@std@@@@$0A@@std@@@2@@Z 17125f50 f i c_proceduralregistry.obj
 0002:000680e0       ?_Root@?$_Tree@V?$_Tmap_traits@V?$basic_string@_WU?$char_traits@_W@std@@V?$K2StringAllocator@_W@@@std@@USTextureMapEntry@@U?$less@V?$basic_string@_WU?$char_traits@_W@std@@V?$K2StringAllocator@_W@@@std@@@2@V?$K2MapAllocator@U?$pair@$$CBV?$basic_string@_WU?$char_traits@_W@std@@V?$K2StringAllocator@_W@@@std@@USTextureMapEntry@@@std@@@@$0A@@std@@@std@@IBEAAPAU_Node@?$_Tree_nod@V?$_Tmap_traits@V?$basic_string@_WU?$char_traits@_W@std@@V?$K2StringAllocator@_W@@@std@@USTextureMapEntry@@U?$less@V?$basic_string@_WU?$char_traits@_W@std@@V?$K2StringAllocator@_W@@@std@@@2@V?$K2MapAllocator@U?$pair@$$CBV?$basic_string@_WU?$char_traits@_W@std@@V?$K2StringAllocator@_W@@@std@@USTextureMapEntry@@@std@@@@$0A@@std@@@2@XZ 171260e0 f i c_proceduralregistry.obj
 0002:00068110       ?_Rrotate@?$_Tree@V?$_Tmap_traits@V?$basic_string@_WU?$char_traits@_W@std@@V?$K2StringAllocator@_W@@@std@@USTextureMapEntry@@U?$less@V?$basic_string@_WU?$char_traits@_W@std@@V?$K2StringAllocator@_W@@@std@@@2@V?$K2MapAllocator@U?$pair@$$CBV?$basic_string@_WU?$char_traits@_W@std@@V?$K2StringAllocator@_W@@@std@@USTextureMapEntry@@@std@@@@$0A@@std@@@std@@IAEXPAU_Node@?$_Tree_nod@V?$_Tmap_traits@V?$basic_string@_WU?$char_traits@_W@std@@V?$K2StringAllocator@_W@@@std@@USTextureMapEntry@@U?$less@V?$basic_string@_WU?$char_traits@_W@std@@V?$K2StringAllocator@_W@@@std@@@2@V?$K2MapAllocator@U?$pair@$$CBV?$basic_string@_WU?$char_traits@_W@std@@V?$K2StringAllocator@_W@@@std@@USTextureMapEntry@@@std@@@@$0A@@std@@@2@@Z 17126110 f i c_proceduralregistry.obj
 0002:000682a0       ?_Buynode@?$_Tree@V?$_Tmap_traits@V?$basic_string@_WU?$char_traits@_W@std@@V?$K2StringAllocator@_W@@@std@@USTextureMapEntry@@U?$less@V?$basic_string@_WU?$char_traits@_W@std@@V?$K2StringAllocator@_W@@@std@@@2@V?$K2MapAllocator@U?$pair@$$CBV?$basic_string@_WU?$char_traits@_W@std@@V?$K2StringAllocator@_W@@@std@@USTextureMapEntry@@@std@@@@$0A@@std@@@std@@IAEPAU_Node@?$_Tree_nod@V?$_Tmap_traits@V?$basic_string@_WU?$char_traits@_W@std@@V?$K2StringAllocator@_W@@@std@@USTextureMapEntry@@U?$less@V?$basic_string@_WU?$char_traits@_W@std@@V?$K2StringAllocator@_W@@@std@@@2@V?$K2MapAllocator@U?$pair@$$CBV?$basic_string@_WU?$char_traits@_W@std@@V?$K2StringAllocator@_W@@@std@@USTextureMapEntry@@@std@@@@$0A@@std@@@2@PAU342@00ABU?$pair@$$CBV?$basic_string@_WU?$char_traits@_W@std@@V?$K2StringAllocator@_W@@@std@@USTextureMapEntry@@@2@D@Z 171262a0 f i c_proceduralregistry.obj
 0002:000683c0       ??0const_iterator@?$_Tree@V?$_Tmap_traits@V?$basic_string@_WU?$char_traits@_W@std@@V?$K2StringAllocator@_W@@@std@@USTextureMapEntry@@U?$less@V?$basic_string@_WU?$char_traits@_W@std@@V?$K2StringAllocator@_W@@@std@@@2@V?$K2MapAllocator@U?$pair@$$CBV?$basic_string@_WU?$char_traits@_W@std@@V?$K2StringAllocator@_W@@@std@@USTextureMapEntry@@@std@@@@$0A@@std@@@std@@QAE@XZ 171263c0 f i c_proceduralregistry.obj
 0002:00068400       ??Econst_iterator@?$_Tree@V?$_Tmap_traits@V?$basic_string@_WU?$char_traits@_W@std@@V?$K2StringAllocator@_W@@@std@@USTextureMapEntry@@U?$less@V?$basic_string@_WU?$char_traits@_W@std@@V?$K2StringAllocator@_W@@@std@@@2@V?$K2MapAllocator@U?$pair@$$CBV?$basic_string@_WU?$char_traits@_W@std@@V?$K2StringAllocator@_W@@@std@@USTextureMapEntry@@@std@@@@$0A@@std@@@std@@QAEAAV012@XZ 17126400 f i c_proceduralregistry.obj
 0002:00068430       ??Fconst_iterator@?$_Tree@V?$_Tmap_traits@V?$basic_string@_WU?$char_traits@_W@std@@V?$K2StringAllocator@_W@@@std@@USTextureMapEntry@@U?$less@V?$basic_string@_WU?$char_traits@_W@std@@V?$K2StringAllocator@_W@@@std@@@2@V?$K2MapAllocator@U?$pair@$$CBV?$basic_string@_WU?$char_traits@_W@std@@V?$K2StringAllocator@_W@@@std@@USTextureMapEntry@@@std@@@@$0A@@std@@@std@@QAEAAV012@XZ 17126430 f i c_proceduralregistry.obj
 0002:00068460       ??Eiterator@?$_Tree@V?$_Tmap_traits@V?$basic_string@_WU?$char_traits@_W@std@@V?$K2StringAllocator@_W@@@std@@HU?$less@V?$basic_string@_WU?$char_traits@_W@std@@V?$K2StringAllocator@_W@@@std@@@2@V?$K2MapAllocator@U?$pair@$$CBV?$basic_string@_WU?$char_traits@_W@std@@V?$K2StringAllocator@_W@@@std@@H@std@@@@$0A@@std@@@std@@QAE?AV012@H@Z 17126460 f i c_proceduralregistry.obj
 0002:00068510       ??0const_iterator@?$_Tree@V?$_Tmap_traits@V?$basic_string@_WU?$char_traits@_W@std@@V?$K2StringAllocator@_W@@@std@@HU?$less@V?$basic_string@_WU?$char_traits@_W@std@@V?$K2StringAllocator@_W@@@std@@@2@V?$K2MapAllocator@U?$pair@$$CBV?$basic_string@_WU?$char_traits@_W@std@@V?$K2StringAllocator@_W@@@std@@H@std@@@@$0A@@std@@@std@@QAE@XZ 17126510 f i c_proceduralregistry.obj
 0002:00068550       ??Econst_iterator@?$_Tree@V?$_Tmap_traits@V?$basic_string@_WU?$char_traits@_W@std@@V?$K2StringAllocator@_W@@@std@@HU?$less@V?$basic_string@_WU?$char_traits@_W@std@@V?$K2StringAllocator@_W@@@std@@@2@V?$K2MapAllocator@U?$pair@$$CBV?$basic_string@_WU?$char_traits@_W@std@@V?$K2StringAllocator@_W@@@std@@H@std@@@@$0A@@std@@@std@@QAEAAV012@XZ 17126550 f i c_proceduralregistry.obj
 0002:00068580       ??Fconst_iterator@?$_Tree@V?$_Tmap_traits@V?$basic_string@_WU?$char_traits@_W@std@@V?$K2StringAllocator@_W@@@std@@HU?$less@V?$basic_string@_WU?$char_traits@_W@std@@V?$K2StringAllocator@_W@@@std@@@2@V?$K2MapAllocator@U?$pair@$$CBV?$basic_string@_WU?$char_traits@_W@std@@V?$K2StringAllocator@_W@@@std@@H@std@@@@$0A@@std@@@std@@QAEAAV012@XZ 17126580 f i c_proceduralregistry.obj
 0002:000685b0       ??0?$pair@Viterator@?$_Tree@V?$_Tmap_traits@V?$basic_string@_WU?$char_traits@_W@std@@V?$K2StringAllocator@_W@@@std@@PAVCProcedural@@U?$less@V?$basic_string@_WU?$char_traits@_W@std@@V?$K2StringAllocator@_W@@@std@@@2@V?$K2MapAllocator@U?$pair@$$CBV?$basic_string@_WU?$char_traits@_W@std@@V?$K2StringAllocator@_W@@@std@@PAVCProcedural@@@std@@@@$0A@@std@@@std@@_N@std@@QAE@ABViterator@?$_Tree@V?$_Tmap_traits@V?$basic_string@_WU?$char_traits@_W@std@@V?$K2StringAllocator@_W@@@std@@PAVCProcedural@@U?$less@V?$basic_string@_WU?$char_traits@_W@std@@V?$K2StringAllocator@_W@@@std@@@2@V?$K2MapAllocator@U?$pair@$$CBV?$basic_string@_WU?$char_traits@_W@std@@V?$K2StringAllocator@_W@@@std@@PAVCProcedural@@@std@@@@$0A@@std@@@1@AB_N@Z 171265b0 f i c_proceduralregistry.obj
 0002:000685f0       ??0?$pair@Viterator@?$_Tree@V?$_Tmap_traits@V?$basic_string@_WU?$char_traits@_W@std@@V?$K2StringAllocator@_W@@@std@@HU?$less@V?$basic_string@_WU?$char_traits@_W@std@@V?$K2StringAllocator@_W@@@std@@@2@V?$K2MapAllocator@U?$pair@$$CBV?$basic_string@_WU?$char_traits@_W@std@@V?$K2StringAllocator@_W@@@std@@H@std@@@@$0A@@std@@@std@@_N@std@@QAE@ABViterator@?$_Tree@V?$_Tmap_traits@V?$basic_string@_WU?$char_traits@_W@std@@V?$K2StringAllocator@_W@@@std@@HU?$less@V?$basic_string@_WU?$char_traits@_W@std@@V?$K2StringAllocator@_W@@@std@@@2@V?$K2MapAllocator@U?$pair@$$CBV?$basic_string@_WU?$char_traits@_W@std@@V?$K2StringAllocator@_W@@@std@@H@std@@@@$0A@@std@@@1@AB_N@Z 171265f0 f i c_proceduralregistry.obj
 0002:00068630       ??0?$pair@Viterator@?$_Tree@V?$_Tmap_traits@V?$basic_string@_WU?$char_traits@_W@std@@V?$K2StringAllocator@_W@@@std@@USTextureMapEntry@@U?$less@V?$basic_string@_WU?$char_traits@_W@std@@V?$K2StringAllocator@_W@@@std@@@2@V?$K2MapAllocator@U?$pair@$$CBV?$basic_string@_WU?$char_traits@_W@std@@V?$K2StringAllocator@_W@@@std@@USTextureMapEntry@@@std@@@@$0A@@std@@@std@@_N@std@@QAE@ABViterator@?$_Tree@V?$_Tmap_traits@V?$basic_string@_WU?$char_traits@_W@std@@V?$K2StringAllocator@_W@@@std@@USTextureMapEntry@@U?$less@V?$basic_string@_WU?$char_traits@_W@std@@V?$K2StringAllocator@_W@@@std@@@2@V?$K2MapAllocator@U?$pair@$$CBV?$basic_string@_WU?$char_traits@_W@std@@V?$K2StringAllocator@_W@@@std@@USTextureMapEntry@@@std@@@@$0A@@std@@@1@AB_N@Z 17126630 f i c_proceduralregistry.obj
 0002:00068670       ?_Erase@?$_Tree@V?$_Tmap_traits@V?$basic_string@_WU?$char_traits@_W@std@@V?$K2StringAllocator@_W@@@std@@PAVCProcedural@@U?$less@V?$basic_string@_WU?$char_traits@_W@std@@V?$K2StringAllocator@_W@@@std@@@2@V?$K2MapAllocator@U?$pair@$$CBV?$basic_string@_WU?$char_traits@_W@std@@V?$K2StringAllocator@_W@@@std@@PAVCProcedural@@@std@@@@$0A@@std@@@std@@IAEXPAU_Node@?$_Tree_nod@V?$_Tmap_traits@V?$basic_string@_WU?$char_traits@_W@std@@V?$K2StringAllocator@_W@@@std@@PAVCProcedural@@U?$less@V?$basic_string@_WU?$char_traits@_W@std@@V?$K2StringAllocator@_W@@@std@@@2@V?$K2MapAllocator@U?$pair@$$CBV?$basic_string@_WU?$char_traits@_W@std@@V?$K2StringAllocator@_W@@@std@@PAVCProcedural@@@std@@@@$0A@@std@@@2@@Z 17126670 f i c_proceduralregistry.obj
 0002:00068710       ?_Buynode@?$_Tree@V?$_Tmap_traits@V?$basic_string@_WU?$char_traits@_W@std@@V?$K2StringAllocator@_W@@@std@@PAVCProcedural@@U?$less@V?$basic_string@_WU?$char_traits@_W@std@@V?$K2StringAllocator@_W@@@std@@@2@V?$K2MapAllocator@U?$pair@$$CBV?$basic_string@_WU?$char_traits@_W@std@@V?$K2StringAllocator@_W@@@std@@PAVCProcedural@@@std@@@@$0A@@std@@@std@@IAEPAU_Node@?$_Tree_nod@V?$_Tmap_traits@V?$basic_string@_WU?$char_traits@_W@std@@V?$K2StringAllocator@_W@@@std@@PAVCProcedural@@U?$less@V?$basic_string@_WU?$char_traits@_W@std@@V?$K2StringAllocator@_W@@@std@@@2@V?$K2MapAllocator@U?$pair@$$CBV?$basic_string@_WU?$char_traits@_W@std@@V?$K2StringAllocator@_W@@@std@@PAVCProcedural@@@std@@@@$0A@@std@@@2@XZ 17126710 f i c_proceduralregistry.obj
 0002:000688f0       ??0?$_Tree_ptr@V?$_Tmap_traits@V?$basic_string@_WU?$char_traits@_W@std@@V?$K2StringAllocator@_W@@@std@@PAVCProcedural@@U?$less@V?$basic_string@_WU?$char_traits@_W@std@@V?$K2StringAllocator@_W@@@std@@@2@V?$K2MapAllocator@U?$pair@$$CBV?$basic_string@_WU?$char_traits@_W@std@@V?$K2StringAllocator@_W@@@std@@PAVCProcedural@@@std@@@@$0A@@std@@@std@@QAE@ABU?$less@V?$basic_string@_WU?$char_traits@_W@std@@V?$K2StringAllocator@_W@@@std@@@1@V?$K2MapAllocator@U?$pair@$$CBV?$basic_string@_WU?$char_traits@_W@std@@V?$K2StringAllocator@_W@@@std@@PAVCProcedural@@@std@@@@@Z 171268f0 f i c_proceduralregistry.obj
 0002:000689a0       ??0?$allocator@U?$pair@$$CBV?$basic_string@_WU?$char_traits@_W@std@@V?$K2StringAllocator@_W@@@std@@PAVCProcedural@@@std@@@std@@QAE@ABV01@@Z 171269a0 f i c_proceduralregistry.obj
 0002:000689c0       ?max_size@?$allocator@U?$pair@$$CBV?$basic_string@_WU?$char_traits@_W@std@@V?$K2StringAllocator@_W@@@std@@PAVCProcedural@@@std@@@std@@QBEIXZ 171269c0 f i c_proceduralregistry.obj
 0002:00068a00       ?allocate@?$K2MapAllocator@U_Node@?$_Tree_nod@V?$_Tmap_traits@V?$basic_string@_WU?$char_traits@_W@std@@V?$K2StringAllocator@_W@@@std@@PAVCProcedural@@U?$less@V?$basic_string@_WU?$char_traits@_W@std@@V?$K2StringAllocator@_W@@@std@@@2@V?$K2MapAllocator@U?$pair@$$CBV?$basic_string@_WU?$char_traits@_W@std@@V?$K2StringAllocator@_W@@@std@@PAVCProcedural@@@std@@@@$0A@@std@@@std@@@@QAEPAU_Node@?$_Tree_nod@V?$_Tmap_traits@V?$basic_string@_WU?$char_traits@_W@std@@V?$K2StringAllocator@_W@@@std@@PAVCProcedural@@U?$less@V?$basic_string@_WU?$char_traits@_W@std@@V?$K2StringAllocator@_W@@@std@@@2@V?$K2MapAllocator@U?$pair@$$CBV?$basic_string@_WU?$char_traits@_W@std@@V?$K2StringAllocator@_W@@@std@@PAVCProcedural@@@std@@@@$0A@@std@@@std@@I@Z 17126a00 f i c_proceduralregistry.obj
 0002:00068a50       ?_Erase@?$_Tree@V?$_Tmap_traits@V?$basic_string@_WU?$char_traits@_W@std@@V?$K2StringAllocator@_W@@@std@@HU?$less@V?$basic_string@_WU?$char_traits@_W@std@@V?$K2StringAllocator@_W@@@std@@@2@V?$K2MapAllocator@U?$pair@$$CBV?$basic_string@_WU?$char_traits@_W@std@@V?$K2StringAllocator@_W@@@std@@H@std@@@@$0A@@std@@@std@@IAEXPAU_Node@?$_Tree_nod@V?$_Tmap_traits@V?$basic_string@_WU?$char_traits@_W@std@@V?$K2StringAllocator@_W@@@std@@HU?$less@V?$basic_string@_WU?$char_traits@_W@std@@V?$K2StringAllocator@_W@@@std@@@2@V?$K2MapAllocator@U?$pair@$$CBV?$basic_string@_WU?$char_traits@_W@std@@V?$K2StringAllocator@_W@@@std@@H@std@@@@$0A@@std@@@2@@Z 17126a50 f i c_proceduralregistry.obj
 0002:00068af0       ?_Max@?$_Tree@V?$_Tmap_traits@V?$basic_string@_WU?$char_traits@_W@std@@V?$K2StringAllocator@_W@@@std@@HU?$less@V?$basic_string@_WU?$char_traits@_W@std@@V?$K2StringAllocator@_W@@@std@@@2@V?$K2MapAllocator@U?$pair@$$CBV?$basic_string@_WU?$char_traits@_W@std@@V?$K2StringAllocator@_W@@@std@@H@std@@@@$0A@@std@@@std@@KAPAU_Node@?$_Tree_nod@V?$_Tmap_traits@V?$basic_string@_WU?$char_traits@_W@std@@V?$K2StringAllocator@_W@@@std@@HU?$less@V?$basic_string@_WU?$char_traits@_W@std@@V?$K2StringAllocator@_W@@@std@@@2@V?$K2MapAllocator@U?$pair@$$CBV?$basic_string@_WU?$char_traits@_W@std@@V?$K2StringAllocator@_W@@@std@@H@std@@@@$0A@@std@@@2@PAU342@@Z 17126af0 f i c_proceduralregistry.obj
 0002:00068b50       ?_Min@?$_Tree@V?$_Tmap_traits@V?$basic_string@_WU?$char_traits@_W@std@@V?$K2StringAllocator@_W@@@std@@HU?$less@V?$basic_string@_WU?$char_traits@_W@std@@V?$K2StringAllocator@_W@@@std@@@2@V?$K2MapAllocator@U?$pair@$$CBV?$basic_string@_WU?$char_traits@_W@std@@V?$K2StringAllocator@_W@@@std@@H@std@@@@$0A@@std@@@std@@KAPAU_Node@?$_Tree_nod@V?$_Tmap_traits@V?$basic_string@_WU?$char_traits@_W@std@@V?$K2StringAllocator@_W@@@std@@HU?$less@V?$basic_string@_WU?$char_traits@_W@std@@V?$K2StringAllocator@_W@@@std@@@2@V?$K2MapAllocator@U?$pair@$$CBV?$basic_string@_WU?$char_traits@_W@std@@V?$K2StringAllocator@_W@@@std@@H@std@@@@$0A@@std@@@2@PAU342@@Z 17126b50 f i c_proceduralregistry.obj
 0002:00068bb0       ?_Orphan_ptr@?$_Tree@V?$_Tmap_traits@V?$basic_string@_WU?$char_traits@_W@std@@V?$K2StringAllocator@_W@@@std@@HU?$less@V?$basic_string@_WU?$char_traits@_W@std@@V?$K2StringAllocator@_W@@@std@@@2@V?$K2MapAllocator@U?$pair@$$CBV?$basic_string@_WU?$char_traits@_W@std@@V?$K2StringAllocator@_W@@@std@@H@std@@@@$0A@@std@@@std@@IBEXAAV12@PAU_Node@?$_Tree_nod@V?$_Tmap_traits@V?$basic_string@_WU?$char_traits@_W@std@@V?$K2StringAllocator@_W@@@std@@HU?$less@V?$basic_string@_WU?$char_traits@_W@std@@V?$K2StringAllocator@_W@@@std@@@2@V?$K2MapAllocator@U?$pair@$$CBV?$basic_string@_WU?$char_traits@_W@std@@V?$K2StringAllocator@_W@@@std@@H@std@@@@$0A@@std@@@2@@Z 17126bb0 f i c_proceduralregistry.obj
 0002:00068c60       ?_Buynode@?$_Tree@V?$_Tmap_traits@V?$basic_string@_WU?$char_traits@_W@std@@V?$K2StringAllocator@_W@@@std@@HU?$less@V?$basic_string@_WU?$char_traits@_W@std@@V?$K2StringAllocator@_W@@@std@@@2@V?$K2MapAllocator@U?$pair@$$CBV?$basic_string@_WU?$char_traits@_W@std@@V?$K2StringAllocator@_W@@@std@@H@std@@@@$0A@@std@@@std@@IAEPAU_Node@?$_Tree_nod@V?$_Tmap_traits@V?$basic_string@_WU?$char_traits@_W@std@@V?$K2StringAllocator@_W@@@std@@HU?$less@V?$basic_string@_WU?$char_traits@_W@std@@V?$K2StringAllocator@_W@@@std@@@2@V?$K2MapAllocator@U?$pair@$$CBV?$basic_string@_WU?$char_traits@_W@std@@V?$K2StringAllocator@_W@@@std@@H@std@@@@$0A@@std@@@2@XZ 17126c60 f i c_proceduralregistry.obj
 0002:00068e40       ??0?$_Tree_ptr@V?$_Tmap_traits@V?$basic_string@_WU?$char_traits@_W@std@@V?$K2StringAllocator@_W@@@std@@HU?$less@V?$basic_string@_WU?$char_traits@_W@std@@V?$K2StringAllocator@_W@@@std@@@2@V?$K2MapAllocator@U?$pair@$$CBV?$basic_string@_WU?$char_traits@_W@std@@V?$K2StringAllocator@_W@@@std@@H@std@@@@$0A@@std@@@std@@QAE@ABU?$less@V?$basic_string@_WU?$char_traits@_W@std@@V?$K2StringAllocator@_W@@@std@@@1@V?$K2MapAllocator@U?$pair@$$CBV?$basic_string@_WU?$char_traits@_W@std@@V?$K2StringAllocator@_W@@@std@@H@std@@@@@Z 17126e40 f i c_proceduralregistry.obj
 0002:00068ef0       ??0?$allocator@U?$pair@$$CBV?$basic_string@_WU?$char_traits@_W@std@@V?$K2StringAllocator@_W@@@std@@H@std@@@std@@QAE@ABV01@@Z 17126ef0 f i c_proceduralregistry.obj
 0002:00068f10       ?max_size@?$allocator@U?$pair@$$CBV?$basic_string@_WU?$char_traits@_W@std@@V?$K2StringAllocator@_W@@@std@@H@std@@@std@@QBEIXZ 17126f10 f i c_proceduralregistry.obj
 0002:00068f50       ?allocate@?$K2MapAllocator@U_Node@?$_Tree_nod@V?$_Tmap_traits@V?$basic_string@_WU?$char_traits@_W@std@@V?$K2StringAllocator@_W@@@std@@HU?$less@V?$basic_string@_WU?$char_traits@_W@std@@V?$K2StringAllocator@_W@@@std@@@2@V?$K2MapAllocator@U?$pair@$$CBV?$basic_string@_WU?$char_traits@_W@std@@V?$K2StringAllocator@_W@@@std@@H@std@@@@$0A@@std@@@std@@@@QAEPAU_Node@?$_Tree_nod@V?$_Tmap_traits@V?$basic_string@_WU?$char_traits@_W@std@@V?$K2StringAllocator@_W@@@std@@HU?$less@V?$basic_string@_WU?$char_traits@_W@std@@V?$K2StringAllocator@_W@@@std@@@2@V?$K2MapAllocator@U?$pair@$$CBV?$basic_string@_WU?$char_traits@_W@std@@V?$K2StringAllocator@_W@@@std@@H@std@@@@$0A@@std@@@std@@I@Z 17126f50 f i c_proceduralregistry.obj
 0002:00068fa0       ?destroy@?$allocator@U_Node@?$_Tree_nod@V?$_Tmap_traits@V?$basic_string@_WU?$char_traits@_W@std@@V?$K2StringAllocator@_W@@@std@@HU?$less@V?$basic_string@_WU?$char_traits@_W@std@@V?$K2StringAllocator@_W@@@std@@@2@V?$K2MapAllocator@U?$pair@$$CBV?$basic_string@_WU?$char_traits@_W@std@@V?$K2StringAllocator@_W@@@std@@H@std@@@@$0A@@std@@@std@@@std@@QAEXPAU_Node@?$_Tree_nod@V?$_Tmap_traits@V?$basic_string@_WU?$char_traits@_W@std@@V?$K2StringAllocator@_W@@@std@@HU?$less@V?$basic_string@_WU?$char_traits@_W@std@@V?$K2StringAllocator@_W@@@std@@@2@V?$K2MapAllocator@U?$pair@$$CBV?$basic_string@_WU?$char_traits@_W@std@@V?$K2StringAllocator@_W@@@std@@H@std@@@@$0A@@std@@@2@@Z 17126fa0 f i c_proceduralregistry.obj
 0002:00068fd0       ?_Dec@const_iterator@?$_Tree@V?$_Tmap_traits@V?$basic_string@_WU?$char_traits@_W@std@@V?$K2StringAllocator@_W@@@std@@PAVCProcedural@@U?$less@V?$basic_string@_WU?$char_traits@_W@std@@V?$K2StringAllocator@_W@@@std@@@2@V?$K2MapAllocator@U?$pair@$$CBV?$basic_string@_WU?$char_traits@_W@std@@V?$K2StringAllocator@_W@@@std@@PAVCProcedural@@@std@@@@$0A@@std@@@std@@QAEXXZ 17126fd0 f i c_proceduralregistry.obj
 0002:00069290       ?max_size@?$allocator@U?$pair@$$CBV?$basic_string@_WU?$char_traits@_W@std@@V?$K2StringAllocator@_W@@@std@@USTextureMapEntry@@@std@@@std@@QBEIXZ 17127290 f i c_proceduralregistry.obj
 0002:000692d0       ?allocate@?$K2MapAllocator@U_Node@?$_Tree_nod@V?$_Tmap_traits@V?$basic_string@_WU?$char_traits@_W@std@@V?$K2StringAllocator@_W@@@std@@USTextureMapEntry@@U?$less@V?$basic_string@_WU?$char_traits@_W@std@@V?$K2StringAllocator@_W@@@std@@@2@V?$K2MapAllocator@U?$pair@$$CBV?$basic_string@_WU?$char_traits@_W@std@@V?$K2StringAllocator@_W@@@std@@USTextureMapEntry@@@std@@@@$0A@@std@@@std@@@@QAEPAU_Node@?$_Tree_nod@V?$_Tmap_traits@V?$basic_string@_WU?$char_traits@_W@std@@V?$K2StringAllocator@_W@@@std@@USTextureMapEntry@@U?$less@V?$basic_string@_WU?$char_traits@_W@std@@V?$K2StringAllocator@_W@@@std@@@2@V?$K2MapAllocator@U?$pair@$$CBV?$basic_string@_WU?$char_traits@_W@std@@V?$K2StringAllocator@_W@@@std@@USTextureMapEntry@@@std@@@@$0A@@std@@@std@@I@Z 171272d0 f i c_proceduralregistry.obj
 0002:00069320       ?deallocate@?$K2MapAllocator@U_Node@?$_Tree_nod@V?$_Tmap_traits@V?$basic_string@_WU?$char_traits@_W@std@@V?$K2StringAllocator@_W@@@std@@USTextureMapEntry@@U?$less@V?$basic_string@_WU?$char_traits@_W@std@@V?$K2StringAllocator@_W@@@std@@@2@V?$K2MapAllocator@U?$pair@$$CBV?$basic_string@_WU?$char_traits@_W@std@@V?$K2StringAllocator@_W@@@std@@USTextureMapEntry@@@std@@@@$0A@@std@@@std@@@@QAEXPAU_Node@?$_Tree_nod@V?$_Tmap_traits@V?$basic_string@_WU?$char_traits@_W@std@@V?$K2StringAllocator@_W@@@std@@USTextureMapEntry@@U?$less@V?$basic_string@_WU?$char_traits@_W@std@@V?$K2StringAllocator@_W@@@std@@@2@V?$K2MapAllocator@U?$pair@$$CBV?$basic_string@_WU?$char_traits@_W@std@@V?$K2StringAllocator@_W@@@std@@USTextureMapEntry@@@std@@@@$0A@@std@@@std@@I@Z 17127320 f i c_proceduralregistry.obj
 0002:00069360       ?_Dec@const_iterator@?$_Tree@V?$_Tmap_traits@V?$basic_string@_WU?$char_traits@_W@std@@V?$K2StringAllocator@_W@@@std@@USTextureMapEntry@@U?$less@V?$basic_string@_WU?$char_traits@_W@std@@V?$K2StringAllocator@_W@@@std@@@2@V?$K2MapAllocator@U?$pair@$$CBV?$basic_string@_WU?$char_traits@_W@std@@V?$K2StringAllocator@_W@@@std@@USTextureMapEntry@@@std@@@@$0A@@std@@@std@@QAEXXZ 17127360 f i c_proceduralregistry.obj
 0002:00069620       ?_Inc@const_iterator@?$_Tree@V?$_Tmap_traits@V?$basic_string@_WU?$char_traits@_W@std@@V?$K2StringAllocator@_W@@@std@@USTextureMapEntry@@U?$less@V?$basic_string@_WU?$char_traits@_W@std@@V?$K2StringAllocator@_W@@@std@@@2@V?$K2MapAllocator@U?$pair@$$CBV?$basic_string@_WU?$char_traits@_W@std@@V?$K2StringAllocator@_W@@@std@@USTextureMapEntry@@@std@@@@$0A@@std@@@std@@QAEXXZ 17127620 f i c_proceduralregistry.obj
 0002:00069790       ?_Dec@const_iterator@?$_Tree@V?$_Tmap_traits@V?$basic_string@_WU?$char_traits@_W@std@@V?$K2StringAllocator@_W@@@std@@HU?$less@V?$basic_string@_WU?$char_traits@_W@std@@V?$K2StringAllocator@_W@@@std@@@2@V?$K2MapAllocator@U?$pair@$$CBV?$basic_string@_WU?$char_traits@_W@std@@V?$K2StringAllocator@_W@@@std@@H@std@@@@$0A@@std@@@std@@QAEXXZ 17127790 f i c_proceduralregistry.obj
 0002:00069a50       ?_Inc@const_iterator@?$_Tree@V?$_Tmap_traits@V?$basic_string@_WU?$char_traits@_W@std@@V?$K2StringAllocator@_W@@@std@@HU?$less@V?$basic_string@_WU?$char_traits@_W@std@@V?$K2StringAllocator@_W@@@std@@@2@V?$K2MapAllocator@U?$pair@$$CBV?$basic_string@_WU?$char_traits@_W@std@@V?$K2StringAllocator@_W@@@std@@H@std@@@@$0A@@std@@@std@@QAEXXZ 17127a50 f i c_proceduralregistry.obj
 0002:00069bc0       ??0_Node@?$_Tree_nod@V?$_Tmap_traits@V?$basic_string@_WU?$char_traits@_W@std@@V?$K2StringAllocator@_W@@@std@@PAVCProcedural@@U?$less@V?$basic_string@_WU?$char_traits@_W@std@@V?$K2StringAllocator@_W@@@std@@@2@V?$K2MapAllocator@U?$pair@$$CBV?$basic_string@_WU?$char_traits@_W@std@@V?$K2StringAllocator@_W@@@std@@PAVCProcedural@@@std@@@@$0A@@std@@@std@@QAE@PAU012@00ABU?$pair@$$CBV?$basic_string@_WU?$char_traits@_W@std@@V?$K2StringAllocator@_W@@@std@@PAVCProcedural@@@2@D@Z 17127bc0 f i c_proceduralregistry.obj
 0002:00069c30       ??0_Node@?$_Tree_nod@V?$_Tmap_traits@V?$basic_string@_WU?$char_traits@_W@std@@V?$K2StringAllocator@_W@@@std@@HU?$less@V?$basic_string@_WU?$char_traits@_W@std@@V?$K2StringAllocator@_W@@@std@@@2@V?$K2MapAllocator@U?$pair@$$CBV?$basic_string@_WU?$char_traits@_W@std@@V?$K2StringAllocator@_W@@@std@@H@std@@@@$0A@@std@@@std@@QAE@PAU012@00ABU?$pair@$$CBV?$basic_string@_WU?$char_traits@_W@std@@V?$K2StringAllocator@_W@@@std@@H@2@D@Z 17127c30 f i c_proceduralregistry.obj
 0002:00069ca0       ??0_Node@?$_Tree_nod@V?$_Tmap_traits@V?$basic_string@_WU?$char_traits@_W@std@@V?$K2StringAllocator@_W@@@std@@USTextureMapEntry@@U?$less@V?$basic_string@_WU?$char_traits@_W@std@@V?$K2StringAllocator@_W@@@std@@@2@V?$K2MapAllocator@U?$pair@$$CBV?$basic_string@_WU?$char_traits@_W@std@@V?$K2StringAllocator@_W@@@std@@USTextureMapEntry@@@std@@@@$0A@@std@@@std@@QAE@PAU012@00ABU?$pair@$$CBV?$basic_string@_WU?$char_traits@_W@std@@V?$K2StringAllocator@_W@@@std@@USTextureMapEntry@@@2@D@Z 17127ca0 f i c_proceduralregistry.obj
 0002:00069d10       ??0?$pair@$$CBV?$basic_string@_WU?$char_traits@_W@std@@V?$K2StringAllocator@_W@@@std@@PAVCProcedural@@@std@@QAE@ABU01@@Z 17127d10 f i c_proceduralregistry.obj
 0002:00069d50       ??0?$pair@$$CBV?$basic_string@_WU?$char_traits@_W@std@@V?$K2StringAllocator@_W@@@std@@H@std@@QAE@ABU01@@Z 17127d50 f i c_proceduralregistry.obj
 0002:00069d90       ??0?$pair@$$CBV?$basic_string@_WU?$char_traits@_W@std@@V?$K2StringAllocator@_W@@@std@@USTextureMapEntry@@@std@@QAE@ABU01@@Z 17127d90 f i c_proceduralregistry.obj
 0002:00069de0       ??0?$_Tree_nod@V?$_Tmap_traits@V?$basic_string@_WU?$char_traits@_W@std@@V?$K2StringAllocator@_W@@@std@@PAVCProcedural@@U?$less@V?$basic_string@_WU?$char_traits@_W@std@@V?$K2StringAllocator@_W@@@std@@@2@V?$K2MapAllocator@U?$pair@$$CBV?$basic_string@_WU?$char_traits@_W@std@@V?$K2StringAllocator@_W@@@std@@PAVCProcedural@@@std@@@@$0A@@std@@@std@@IAE@ABU?$less@V?$basic_string@_WU?$char_traits@_W@std@@V?$K2StringAllocator@_W@@@std@@@1@V?$K2MapAllocator@U?$pair@$$CBV?$basic_string@_WU?$char_traits@_W@std@@V?$K2StringAllocator@_W@@@std@@PAVCProcedural@@@std@@@@@Z 17127de0 f i c_proceduralregistry.obj
 0002:00069e80       ?construct@?$allocator@PAU_Node@?$_Tree_nod@V?$_Tmap_traits@V?$basic_string@_WU?$char_traits@_W@std@@V?$K2StringAllocator@_W@@@std@@PAVCProcedural@@U?$less@V?$basic_string@_WU?$char_traits@_W@std@@V?$K2StringAllocator@_W@@@std@@@2@V?$K2MapAllocator@U?$pair@$$CBV?$basic_string@_WU?$char_traits@_W@std@@V?$K2StringAllocator@_W@@@std@@PAVCProcedural@@@std@@@@$0A@@std@@@std@@@std@@QAEXPAPAU_Node@?$_Tree_nod@V?$_Tmap_traits@V?$basic_string@_WU?$char_traits@_W@std@@V?$K2StringAllocator@_W@@@std@@PAVCProcedural@@U?$less@V?$basic_string@_WU?$char_traits@_W@std@@V?$K2StringAllocator@_W@@@std@@@2@V?$K2MapAllocator@U?$pair@$$CBV?$basic_string@_WU?$char_traits@_W@std@@V?$K2StringAllocator@_W@@@std@@PAVCProcedural@@@std@@@@$0A@@std@@@2@ABQAU342@@Z 17127e80 f i c_proceduralregistry.obj
 0002:00069eb0       ??0?$_Tree_nod@V?$_Tmap_traits@V?$basic_string@_WU?$char_traits@_W@std@@V?$K2StringAllocator@_W@@@std@@HU?$less@V?$basic_string@_WU?$char_traits@_W@std@@V?$K2StringAllocator@_W@@@std@@@2@V?$K2MapAllocator@U?$pair@$$CBV?$basic_string@_WU?$char_traits@_W@std@@V?$K2StringAllocator@_W@@@std@@H@std@@@@$0A@@std@@@std@@IAE@ABU?$less@V?$basic_string@_WU?$char_traits@_W@std@@V?$K2StringAllocator@_W@@@std@@@1@V?$K2MapAllocator@U?$pair@$$CBV?$basic_string@_WU?$char_traits@_W@std@@V?$K2StringAllocator@_W@@@std@@H@std@@@@@Z 17127eb0 f i c_proceduralregistry.obj
 0002:00069f50       ?construct@?$allocator@PAU_Node@?$_Tree_nod@V?$_Tmap_traits@V?$basic_string@_WU?$char_traits@_W@std@@V?$K2StringAllocator@_W@@@std@@HU?$less@V?$basic_string@_WU?$char_traits@_W@std@@V?$K2StringAllocator@_W@@@std@@@2@V?$K2MapAllocator@U?$pair@$$CBV?$basic_string@_WU?$char_traits@_W@std@@V?$K2StringAllocator@_W@@@std@@H@std@@@@$0A@@std@@@std@@@std@@QAEXPAPAU_Node@?$_Tree_nod@V?$_Tmap_traits@V?$basic_string@_WU?$char_traits@_W@std@@V?$K2StringAllocator@_W@@@std@@HU?$less@V?$basic_string@_WU?$char_traits@_W@std@@V?$K2StringAllocator@_W@@@std@@@2@V?$K2MapAllocator@U?$pair@$$CBV?$basic_string@_WU?$char_traits@_W@std@@V?$K2StringAllocator@_W@@@std@@H@std@@@@$0A@@std@@@2@ABQAU342@@Z 17127f50 f i c_proceduralregistry.obj
 0002:00069f80       ?_Max@?$_Tree@V?$_Tmap_traits@V?$basic_string@_WU?$char_traits@_W@std@@V?$K2StringAllocator@_W@@@std@@USTextureMapEntry@@U?$less@V?$basic_string@_WU?$char_traits@_W@std@@V?$K2StringAllocator@_W@@@std@@@2@V?$K2MapAllocator@U?$pair@$$CBV?$basic_string@_WU?$char_traits@_W@std@@V?$K2StringAllocator@_W@@@std@@USTextureMapEntry@@@std@@@@$0A@@std@@@std@@KAPAU_Node@?$_Tree_nod@V?$_Tmap_traits@V?$basic_string@_WU?$char_traits@_W@std@@V?$K2StringAllocator@_W@@@std@@USTextureMapEntry@@U?$less@V?$basic_string@_WU?$char_traits@_W@std@@V?$K2StringAllocator@_W@@@std@@@2@V?$K2MapAllocator@U?$pair@$$CBV?$basic_string@_WU?$char_traits@_W@std@@V?$K2StringAllocator@_W@@@std@@USTextureMapEntry@@@std@@@@$0A@@std@@@2@PAU342@@Z 17127f80 f i c_proceduralregistry.obj
 0002:00069fe0       ?_Min@?$_Tree@V?$_Tmap_traits@V?$basic_string@_WU?$char_traits@_W@std@@V?$K2StringAllocator@_W@@@std@@USTextureMapEntry@@U?$less@V?$basic_string@_WU?$char_traits@_W@std@@V?$K2StringAllocator@_W@@@std@@@2@V?$K2MapAllocator@U?$pair@$$CBV?$basic_string@_WU?$char_traits@_W@std@@V?$K2StringAllocator@_W@@@std@@USTextureMapEntry@@@std@@@@$0A@@std@@@std@@KAPAU_Node@?$_Tree_nod@V?$_Tmap_traits@V?$basic_string@_WU?$char_traits@_W@std@@V?$K2StringAllocator@_W@@@std@@USTextureMapEntry@@U?$less@V?$basic_string@_WU?$char_traits@_W@std@@V?$K2StringAllocator@_W@@@std@@@2@V?$K2MapAllocator@U?$pair@$$CBV?$basic_string@_WU?$char_traits@_W@std@@V?$K2StringAllocator@_W@@@std@@USTextureMapEntry@@@std@@@@$0A@@std@@@2@PAU342@@Z 17127fe0 f i c_proceduralregistry.obj
 0002:0006a040       ??0?$_Tmap_traits@V?$basic_string@_WU?$char_traits@_W@std@@V?$K2StringAllocator@_W@@@std@@PAVCProcedural@@U?$less@V?$basic_string@_WU?$char_traits@_W@std@@V?$K2StringAllocator@_W@@@std@@@2@V?$K2MapAllocator@U?$pair@$$CBV?$basic_string@_WU?$char_traits@_W@std@@V?$K2StringAllocator@_W@@@std@@PAVCProcedural@@@std@@@@$0A@@std@@QAE@U?$less@V?$basic_string@_WU?$char_traits@_W@std@@V?$K2StringAllocator@_W@@@std@@@1@@Z 17128040 f i c_proceduralregistry.obj
 0002:0006a070       ??0?$_Tmap_traits@V?$basic_string@_WU?$char_traits@_W@std@@V?$K2StringAllocator@_W@@@std@@HU?$less@V?$basic_string@_WU?$char_traits@_W@std@@V?$K2StringAllocator@_W@@@std@@@2@V?$K2MapAllocator@U?$pair@$$CBV?$basic_string@_WU?$char_traits@_W@std@@V?$K2StringAllocator@_W@@@std@@H@std@@@@$0A@@std@@QAE@U?$less@V?$basic_string@_WU?$char_traits@_W@std@@V?$K2StringAllocator@_W@@@std@@@1@@Z 17128070 f i c_proceduralregistry.obj
 0002:0006a0a0       ??$_Debug_lt_pred@U?$less@V?$basic_string@_WU?$char_traits@_W@std@@V?$K2StringAllocator@_W@@@std@@@std@@V?$basic_string@_WU?$char_traits@_W@std@@V?$K2StringAllocator@_W@@@2@V32@@std@@YA_NU?$less@V?$basic_string@_WU?$char_traits@_W@std@@V?$K2StringAllocator@_W@@@std@@@0@ABV?$basic_string@_WU?$char_traits@_W@std@@V?$K2StringAllocator@_W@@@0@1PB_WI@Z 171280a0 f i c_proceduralregistry.obj
 0002:0006a120       ??$_Destroy@U_Node@?$_Tree_nod@V?$_Tmap_traits@V?$basic_string@_WU?$char_traits@_W@std@@V?$K2StringAllocator@_W@@@std@@PAVCProcedural@@U?$less@V?$basic_string@_WU?$char_traits@_W@std@@V?$K2StringAllocator@_W@@@std@@@2@V?$K2MapAllocator@U?$pair@$$CBV?$basic_string@_WU?$char_traits@_W@std@@V?$K2StringAllocator@_W@@@std@@PAVCProcedural@@@std@@@@$0A@@std@@@std@@@std@@YAXPAU_Node@?$_Tree_nod@V?$_Tmap_traits@V?$basic_string@_WU?$char_traits@_W@std@@V?$K2StringAllocator@_W@@@std@@PAVCProcedural@@U?$less@V?$basic_string@_WU?$char_traits@_W@std@@V?$K2StringAllocator@_W@@@std@@@2@V?$K2MapAllocator@U?$pair@$$CBV?$basic_string@_WU?$char_traits@_W@std@@V?$K2StringAllocator@_W@@@std@@PAVCProcedural@@@std@@@@$0A@@std@@@0@@Z 17128120 f i c_proceduralregistry.obj
 0002:0006a140       ??$_Destroy@PAU_Node@?$_Tree_nod@V?$_Tmap_traits@V?$basic_string@_WU?$char_traits@_W@std@@V?$K2StringAllocator@_W@@@std@@PAVCProcedural@@U?$less@V?$basic_string@_WU?$char_traits@_W@std@@V?$K2StringAllocator@_W@@@std@@@2@V?$K2MapAllocator@U?$pair@$$CBV?$basic_string@_WU?$char_traits@_W@std@@V?$K2StringAllocator@_W@@@std@@PAVCProcedural@@@std@@@@$0A@@std@@@std@@@std@@YAXPAPAU_Node@?$_Tree_nod@V?$_Tmap_traits@V?$basic_string@_WU?$char_traits@_W@std@@V?$K2StringAllocator@_W@@@std@@PAVCProcedural@@U?$less@V?$basic_string@_WU?$char_traits@_W@std@@V?$K2StringAllocator@_W@@@std@@@2@V?$K2MapAllocator@U?$pair@$$CBV?$basic_string@_WU?$char_traits@_W@std@@V?$K2StringAllocator@_W@@@std@@PAVCProcedural@@@std@@@@$0A@@std@@@0@@Z 17128140 f i c_proceduralregistry.obj
 0002:0006a160       ??$_Destroy@PAU_Node@?$_Tree_nod@V?$_Tmap_traits@V?$basic_string@_WU?$char_traits@_W@std@@V?$K2StringAllocator@_W@@@std@@HU?$less@V?$basic_string@_WU?$char_traits@_W@std@@V?$K2StringAllocator@_W@@@std@@@2@V?$K2MapAllocator@U?$pair@$$CBV?$basic_string@_WU?$char_traits@_W@std@@V?$K2StringAllocator@_W@@@std@@H@std@@@@$0A@@std@@@std@@@std@@YAXPAPAU_Node@?$_Tree_nod@V?$_Tmap_traits@V?$basic_string@_WU?$char_traits@_W@std@@V?$K2StringAllocator@_W@@@std@@HU?$less@V?$basic_string@_WU?$char_traits@_W@std@@V?$K2StringAllocator@_W@@@std@@@2@V?$K2MapAllocator@U?$pair@$$CBV?$basic_string@_WU?$char_traits@_W@std@@V?$K2StringAllocator@_W@@@std@@H@std@@@@$0A@@std@@@0@@Z 17128160 f i c_proceduralregistry.obj
 0002:0006a180       ??$?0U?$pair@$$CBV?$basic_string@_WU?$char_traits@_W@std@@V?$K2StringAllocator@_W@@@std@@PAVCProcedural@@@std@@@?$K2MapAllocator@PAU_Node@?$_Tree_nod@V?$_Tmap_traits@V?$basic_string@_WU?$char_traits@_W@std@@V?$K2StringAllocator@_W@@@std@@PAVCProcedural@@U?$less@V?$basic_string@_WU?$char_traits@_W@std@@V?$K2StringAllocator@_W@@@std@@@2@V?$K2MapAllocator@U?$pair@$$CBV?$basic_string@_WU?$char_traits@_W@std@@V?$K2StringAllocator@_W@@@std@@PAVCProcedural@@@std@@@@$0A@@std@@@std@@@@QAE@ABV?$K2MapAllocator@U?$pair@$$CBV?$basic_string@_WU?$char_traits@_W@std@@V?$K2StringAllocator@_W@@@std@@PAVCProcedural@@@std@@@@@Z 17128180 f i c_proceduralregistry.obj
 0002:0006a1b0       ??$?0U?$pair@$$CBV?$basic_string@_WU?$char_traits@_W@std@@V?$K2StringAllocator@_W@@@std@@H@std@@@?$K2MapAllocator@PAU_Node@?$_Tree_nod@V?$_Tmap_traits@V?$basic_string@_WU?$char_traits@_W@std@@V?$K2StringAllocator@_W@@@std@@HU?$less@V?$basic_string@_WU?$char_traits@_W@std@@V?$K2StringAllocator@_W@@@std@@@2@V?$K2MapAllocator@U?$pair@$$CBV?$basic_string@_WU?$char_traits@_W@std@@V?$K2StringAllocator@_W@@@std@@H@std@@@@$0A@@std@@@std@@@@QAE@ABV?$K2MapAllocator@U?$pair@$$CBV?$basic_string@_WU?$char_traits@_W@std@@V?$K2StringAllocator@_W@@@std@@H@std@@@@@Z 171281b0 f i c_proceduralregistry.obj
 0002:0006a1e0       ??$_Destroy@U_Node@?$_Tree_nod@V?$_Tmap_traits@V?$basic_string@_WU?$char_traits@_W@std@@V?$K2StringAllocator@_W@@@std@@HU?$less@V?$basic_string@_WU?$char_traits@_W@std@@V?$K2StringAllocator@_W@@@std@@@2@V?$K2MapAllocator@U?$pair@$$CBV?$basic_string@_WU?$char_traits@_W@std@@V?$K2StringAllocator@_W@@@std@@H@std@@@@$0A@@std@@@std@@@std@@YAXPAU_Node@?$_Tree_nod@V?$_Tmap_traits@V?$basic_string@_WU?$char_traits@_W@std@@V?$K2StringAllocator@_W@@@std@@HU?$less@V?$basic_string@_WU?$char_traits@_W@std@@V?$K2StringAllocator@_W@@@std@@@2@V?$K2MapAllocator@U?$pair@$$CBV?$basic_string@_WU?$char_traits@_W@std@@V?$K2StringAllocator@_W@@@std@@H@std@@@@$0A@@std@@@0@@Z 171281e0 f i c_proceduralregistry.obj
 0002:0006a200       ??$?0U?$pair@$$CBV?$basic_string@_WU?$char_traits@_W@std@@V?$K2StringAllocator@_W@@@std@@PAVCProcedural@@@std@@@?$K2MapAllocator@U_Node@?$_Tree_nod@V?$_Tmap_traits@V?$basic_string@_WU?$char_traits@_W@std@@V?$K2StringAllocator@_W@@@std@@PAVCProcedural@@U?$less@V?$basic_string@_WU?$char_traits@_W@std@@V?$K2StringAllocator@_W@@@std@@@2@V?$K2MapAllocator@U?$pair@$$CBV?$basic_string@_WU?$char_traits@_W@std@@V?$K2StringAllocator@_W@@@std@@PAVCProcedural@@@std@@@@$0A@@std@@@std@@@@QAE@ABV?$K2MapAllocator@U?$pair@$$CBV?$basic_string@_WU?$char_traits@_W@std@@V?$K2StringAllocator@_W@@@std@@PAVCProcedural@@@std@@@@@Z 17128200 f i c_proceduralregistry.obj
 0002:0006a230       ??$_Construct@PAU_Node@?$_Tree_nod@V?$_Tmap_traits@V?$basic_string@_WU?$char_traits@_W@std@@V?$K2StringAllocator@_W@@@std@@PAVCProcedural@@U?$less@V?$basic_string@_WU?$char_traits@_W@std@@V?$K2StringAllocator@_W@@@std@@@2@V?$K2MapAllocator@U?$pair@$$CBV?$basic_string@_WU?$char_traits@_W@std@@V?$K2StringAllocator@_W@@@std@@PAVCProcedural@@@std@@@@$0A@@std@@@std@@PAU123@@std@@YAXPAPAU_Node@?$_Tree_nod@V?$_Tmap_traits@V?$basic_string@_WU?$char_traits@_W@std@@V?$K2StringAllocator@_W@@@std@@PAVCProcedural@@U?$less@V?$basic_string@_WU?$char_traits@_W@std@@V?$K2StringAllocator@_W@@@std@@@2@V?$K2MapAllocator@U?$pair@$$CBV?$basic_string@_WU?$char_traits@_W@std@@V?$K2StringAllocator@_W@@@std@@PAVCProcedural@@@std@@@@$0A@@std@@@0@ABQAU120@@Z 17128230 f i c_proceduralregistry.obj
 0002:0006a290       ??$?0U?$pair@$$CBV?$basic_string@_WU?$char_traits@_W@std@@V?$K2StringAllocator@_W@@@std@@H@std@@@?$K2MapAllocator@U_Node@?$_Tree_nod@V?$_Tmap_traits@V?$basic_string@_WU?$char_traits@_W@std@@V?$K2StringAllocator@_W@@@std@@HU?$less@V?$basic_string@_WU?$char_traits@_W@std@@V?$K2StringAllocator@_W@@@std@@@2@V?$K2MapAllocator@U?$pair@$$CBV?$basic_string@_WU?$char_traits@_W@std@@V?$K2StringAllocator@_W@@@std@@H@std@@@@$0A@@std@@@std@@@@QAE@ABV?$K2MapAllocator@U?$pair@$$CBV?$basic_string@_WU?$char_traits@_W@std@@V?$K2StringAllocator@_W@@@std@@H@std@@@@@Z 17128290 f i c_proceduralregistry.obj
 0002:0006a2c0       ??$_Construct@PAU_Node@?$_Tree_nod@V?$_Tmap_traits@V?$basic_string@_WU?$char_traits@_W@std@@V?$K2StringAllocator@_W@@@std@@HU?$less@V?$basic_string@_WU?$char_traits@_W@std@@V?$K2StringAllocator@_W@@@std@@@2@V?$K2MapAllocator@U?$pair@$$CBV?$basic_string@_WU?$char_traits@_W@std@@V?$K2StringAllocator@_W@@@std@@H@std@@@@$0A@@std@@@std@@PAU123@@std@@YAXPAPAU_Node@?$_Tree_nod@V?$_Tmap_traits@V?$basic_string@_WU?$char_traits@_W@std@@V?$K2StringAllocator@_W@@@std@@HU?$less@V?$basic_string@_WU?$char_traits@_W@std@@V?$K2StringAllocator@_W@@@std@@@2@V?$K2MapAllocator@U?$pair@$$CBV?$basic_string@_WU?$char_traits@_W@std@@V?$K2StringAllocator@_W@@@std@@H@std@@@@$0A@@std@@@0@ABQAU120@@Z 171282c0 f i c_proceduralregistry.obj
 0002:0006a320       ??_G_Node@?$_Tree_nod@V?$_Tmap_traits@V?$basic_string@_WU?$char_traits@_W@std@@V?$K2StringAllocator@_W@@@std@@PAVCProcedural@@U?$less@V?$basic_string@_WU?$char_traits@_W@std@@V?$K2StringAllocator@_W@@@std@@@2@V?$K2MapAllocator@U?$pair@$$CBV?$basic_string@_WU?$char_traits@_W@std@@V?$K2StringAllocator@_W@@@std@@PAVCProcedural@@@std@@@@$0A@@std@@@std@@QAEPAXI@Z 17128320 f i c_proceduralregistry.obj
 0002:0006a370       ??_G_Node@?$_Tree_nod@V?$_Tmap_traits@V?$basic_string@_WU?$char_traits@_W@std@@V?$K2StringAllocator@_W@@@std@@HU?$less@V?$basic_string@_WU?$char_traits@_W@std@@V?$K2StringAllocator@_W@@@std@@@2@V?$K2MapAllocator@U?$pair@$$CBV?$basic_string@_WU?$char_traits@_W@std@@V?$K2StringAllocator@_W@@@std@@H@std@@@@$0A@@std@@@std@@QAEPAXI@Z 17128370 f i c_proceduralregistry.obj
 0002:0006a3c0       ??1_Node@?$_Tree_nod@V?$_Tmap_traits@V?$basic_string@_WU?$char_traits@_W@std@@V?$K2StringAllocator@_W@@@std@@PAVCProcedural@@U?$less@V?$basic_string@_WU?$char_traits@_W@std@@V?$K2StringAllocator@_W@@@std@@@2@V?$K2MapAllocator@U?$pair@$$CBV?$basic_string@_WU?$char_traits@_W@std@@V?$K2StringAllocator@_W@@@std@@PAVCProcedural@@@std@@@@$0A@@std@@@std@@QAE@XZ 171283c0 f i c_proceduralregistry.obj
 0002:0006a3f0       ??1_Node@?$_Tree_nod@V?$_Tmap_traits@V?$basic_string@_WU?$char_traits@_W@std@@V?$K2StringAllocator@_W@@@std@@HU?$less@V?$basic_string@_WU?$char_traits@_W@std@@V?$K2StringAllocator@_W@@@std@@@2@V?$K2MapAllocator@U?$pair@$$CBV?$basic_string@_WU?$char_traits@_W@std@@V?$K2StringAllocator@_W@@@std@@H@std@@@@$0A@@std@@@std@@QAE@XZ 171283f0 f i c_proceduralregistry.obj
 0002:0006a420       ??0?$allocator@U_Node@?$_Tree_nod@V?$_Tmap_traits@V?$basic_string@_WU?$char_traits@_W@std@@V?$K2StringAllocator@_W@@@std@@PAVCProcedural@@U?$less@V?$basic_string@_WU?$char_traits@_W@std@@V?$K2StringAllocator@_W@@@std@@@2@V?$K2MapAllocator@U?$pair@$$CBV?$basic_string@_WU?$char_traits@_W@std@@V?$K2StringAllocator@_W@@@std@@PAVCProcedural@@@std@@@@$0A@@std@@@std@@@std@@QAE@XZ 17128420 f i c_proceduralregistry.obj
 0002:0006a440       ??0?$allocator@PAU_Node@?$_Tree_nod@V?$_Tmap_traits@V?$basic_string@_WU?$char_traits@_W@std@@V?$K2StringAllocator@_W@@@std@@PAVCProcedural@@U?$less@V?$basic_string@_WU?$char_traits@_W@std@@V?$K2StringAllocator@_W@@@std@@@2@V?$K2MapAllocator@U?$pair@$$CBV?$basic_string@_WU?$char_traits@_W@std@@V?$K2StringAllocator@_W@@@std@@PAVCProcedural@@@std@@@@$0A@@std@@@std@@@std@@QAE@XZ 17128440 f i c_proceduralregistry.obj
 0002:0006a460       ??0?$allocator@U_Node@?$_Tree_nod@V?$_Tmap_traits@V?$basic_string@_WU?$char_traits@_W@std@@V?$K2StringAllocator@_W@@@std@@HU?$less@V?$basic_string@_WU?$char_traits@_W@std@@V?$K2StringAllocator@_W@@@std@@@2@V?$K2MapAllocator@U?$pair@$$CBV?$basic_string@_WU?$char_traits@_W@std@@V?$K2StringAllocator@_W@@@std@@H@std@@@@$0A@@std@@@std@@@std@@QAE@XZ 17128460 f i c_proceduralregistry.obj
 0002:0006a480       ??0?$allocator@PAU_Node@?$_Tree_nod@V?$_Tmap_traits@V?$basic_string@_WU?$char_traits@_W@std@@V?$K2StringAllocator@_W@@@std@@HU?$less@V?$basic_string@_WU?$char_traits@_W@std@@V?$K2StringAllocator@_W@@@std@@@2@V?$K2MapAllocator@U?$pair@$$CBV?$basic_string@_WU?$char_traits@_W@std@@V?$K2StringAllocator@_W@@@std@@H@std@@@@$0A@@std@@@std@@@std@@QAE@XZ 17128480 f i c_proceduralregistry.obj
 0002:0006a4a0       ??$?M_WU?$char_traits@_W@std@@V?$K2StringAllocator@_W@@@std@@YA_NABV?$basic_string@_WU?$char_traits@_W@std@@V?$K2StringAllocator@_W@@@0@0@Z 171284a0 f i c_proceduralregistry.obj
 0002:0006a4d0       ??$QuoteStr@V?$basic_string@_WU?$char_traits@_W@std@@V?$K2StringAllocator@_W@@@std@@@@YA?AV?$basic_string@_WU?$char_traits@_W@std@@V?$K2StringAllocator@_W@@@std@@V01@@Z 171284d0 f i c_proceduralregistry.obj
 0002:0006a5b0       ?XtoW@@YAABV?$basic_string@_WU?$char_traits@_W@std@@V?$K2StringAllocator@_W@@@std@@ABV12@@Z 171285b0 f i c_proceduralregistry.obj
 0002:0006a5d0       ??$swap@D@std@@YAXAAD0@Z   171285d0 f i c_proceduralregistry.obj
 0002:0006a610       ??0CReflectionMap@@QAE@XZ  17128610 f   c_reflectionmap.obj
 0002:0006a680       ??1CReflectionMap@@QAE@XZ  17128680 f   c_reflectionmap.obj
 0002:0006a6a0       ?Initialize@CReflectionMap@@QAEXHH@Z 171286a0 f   c_reflectionmap.obj
 0002:0006a9e0       ?Release@CReflectionMap@@QAEXXZ 171289e0 f   c_reflectionmap.obj
 0002:0006ab30       ?Render@CReflectionMap@@QAEXABVCCamera@@@Z 17128b30 f   c_reflectionmap.obj
 0002:0006b250       ??1CCamera@@QAE@XZ         17129250 f i c_reflectionmap.obj
 0002:0006b280       ?GetReflect@CCamera@@QBEABVCPlane@@XZ 17129280 f i c_reflectionmap.obj
 0002:0006b2b0       ?SetOrigin@CCamera@@QAEXABV?$CVec3@M@@@Z 171292b0 f i c_reflectionmap.obj
 0002:0006b2f0       ??0D3DXPLANE@@QAE@XZ       171292f0 f i c_reflectionmap.obj
 0002:0006b310       ??0D3DXPLANE@@QAE@MMMM@Z   17129310 f i c_reflectionmap.obj
 0002:0006b370       ??BD3DXPLANE@@QAEPAMXZ     17129370 f i c_reflectionmap.obj
 0002:0006b390       ??1CAxis@@QAE@XZ           17129390 f i c_reflectionmap.obj
 0002:0006b3b0       ?Reflect@@YA?AV?$CVec3@M@@ABV1@ABVCPlane@@@Z 171293b0 f i c_reflectionmap.obj
 0002:0006b430       ?Distance@CPlane@@QBEMABV?$CVec3@M@@@Z 17129430 f i c_reflectionmap.obj
 0002:0006b470       ??0CSceneBuffer@@QAE@XZ    17129470 f   c_scenebuffer.obj
 0002:0006b4e0       ??1CSceneBuffer@@QAE@XZ    171294e0 f   c_scenebuffer.obj
 0002:0006b500       ?Initialize@CSceneBuffer@@QAEXHH@Z 17129500 f   c_scenebuffer.obj
 0002:0006b810       ?Release@CSceneBuffer@@QAEXXZ 17129810 f   c_scenebuffer.obj
 0002:0006b930       ?Render@CSceneBuffer@@QAEXXZ 17129930 f   c_scenebuffer.obj
 0002:0006bb50       ??1CShaderCacheNode@@QAE@XZ 17129b50 f   c_shadercache.obj
 0002:0006be00       ?GetLength@IBuffer@@UBEIXZ 17129e00 f i c_shadercache.obj
 0002:0006be20       ?Get@IBuffer@@UBEPBDXZ     17129e20 f i c_shadercache.obj
 0002:0006be50       ??6@YAAAVIBuffer@@AAV0@_W@Z 17129e50 f i c_shadercache.obj
 0002:0006be80       ??6@YAAAVIBuffer@@AAV0@I@Z 17129e80 f i c_shadercache.obj
 0002:0006beb0       ?WriteInt@IBuffer@@QAEXH@Z 17129eb0 f i c_shadercache.obj
 0002:0006bef0       ??6@YAAAVIBuffer@@AAV0@_J@Z 17129ef0 f i c_shadercache.obj
 0002:0006bf20       ?WriteInt64@IBuffer@@QAEX_J@Z 17129f20 f i c_shadercache.obj
 0002:0006bf60       ??6@YAAAVIBuffer@@AAV0@ABV?$basic_string@_WU?$char_traits@_W@std@@V?$K2StringAllocator@_W@@@std@@@Z 17129f60 f i c_shadercache.obj
 0002:0006bfb0       ??0CBufferDynamic@@QAE@XZ  17129fb0 f i c_shadercache.obj
 0002:0006c040       ?GetReadPos@IBuffer@@UBEIXZ 1712a040 f i c_shadercache.obj
 0002:0006c060       ?Rewind@IBuffer@@UBEXXZ    1712a060 f i c_shadercache.obj
 0002:0006c090       ?Duplicate@IBuffer@@UAEPADI@Z 1712a090 f i c_shadercache.obj
 0002:0006c0d0       ?Duplicate@IBuffer@@UAEPADXZ 1712a0d0 f i c_shadercache.obj
 0002:0006c110       ?Clear@IBuffer@@UAEXXZ     1712a110 f i c_shadercache.obj
 0002:0006c150       ?ClearFaults@IBuffer@@QAEXXZ 1712a150 f i c_shadercache.obj
 0002:0006c180       ?Clear@IBuffer@@UAEXD@Z    1712a180 f i c_shadercache.obj
 0002:0006c1e0       ??4IBuffer@@UAEAAV0@PB_W@Z 1712a1e0 f i c_shadercache.obj
 0002:0006c230       ??4IBuffer@@UAEAAV0@ABV0@@Z 1712a230 f i c_shadercache.obj
 0002:0006c290       ??AIBuffer@@UAEAADI@Z      1712a290 f i c_shadercache.obj
 0002:0006c360       ??AIBuffer@@UBEDI@Z        1712a360 f i c_shadercache.obj
 0002:0006c430       ?Duplicate@IBuffer@@UAEPADII@Z 1712a430 f i c_shadercache.obj
 0002:0006c4c0       ?Get@IBuffer@@UBEPBDI@Z    1712a4c0 f i c_shadercache.obj
 0002:0006c500       ??_GCBufferDynamic@@UAEPAXI@Z 1712a500 f i c_shadercache.obj
 0002:0006c500       ??_ECBufferDynamic@@UAEPAXI@Z 1712a500 f i c_shadercache.obj
 0002:0006c550       ??1CBufferDynamic@@UAE@XZ  1712a550 f i c_shadercache.obj
 0002:0006c580       ?Append@CBufferDynamic@@UAE_NPBXI@Z 1712a580 f i c_shadercache.obj
 0002:0006c690       ??1?$map@V?$basic_string@_WU?$char_traits@_W@std@@V?$K2StringAllocator@_W@@@std@@USShaderCacheFileEntry@CShaderCacheNode@@U?$less@V?$basic_string@_WU?$char_traits@_W@std@@V?$K2StringAllocator@_W@@@std@@@2@V?$K2MapAllocator@U?$pair@$$CBV?$basic_string@_WU?$char_traits@_W@std@@V?$K2StringAllocator@_W@@@std@@USShaderCacheFileEntry@CShaderCacheNode@@@std@@@@@@QAE@XZ 1712a690 f i c_shadercache.obj
 0002:0006c6c0       ??1?$map@V?$basic_string@_WU?$char_traits@_W@std@@V?$K2StringAllocator@_W@@@std@@USShaderCacheFileEntry@CShaderCacheNode@@U?$less@V?$basic_string@_WU?$char_traits@_W@std@@V?$K2StringAllocator@_W@@@std@@@2@V?$K2MapAllocator@U?$pair@$$CBV?$basic_string@_WU?$char_traits@_W@std@@V?$K2StringAllocator@_W@@@std@@USShaderCacheFileEntry@CShaderCacheNode@@@std@@@@@std@@QAE@XZ 1712a6c0 f i c_shadercache.obj
 0002:0006c6f0       ?GetArchiveWrite@CShaderCache@@QAEAAVCArchive@@XZ 1712a6f0 f i c_shadercache.obj
 0002:0006c720       ??1iterator@?$_Tree@V?$_Tmap_traits@V?$basic_string@_WU?$char_traits@_W@std@@V?$K2StringAllocator@_W@@@std@@USShaderCacheFileEntry@CShaderCacheNode@@U?$less@V?$basic_string@_WU?$char_traits@_W@std@@V?$K2StringAllocator@_W@@@std@@@2@V?$K2MapAllocator@U?$pair@$$CBV?$basic_string@_WU?$char_traits@_W@std@@V?$K2StringAllocator@_W@@@std@@USShaderCacheFileEntry@CShaderCacheNode@@@std@@@@$0A@@std@@@std@@QAE@XZ 1712a720 f i c_shadercache.obj
 0002:0006c750       ??1const_iterator@?$_Tree@V?$_Tmap_traits@V?$basic_string@_WU?$char_traits@_W@std@@V?$K2StringAllocator@_W@@@std@@USShaderCacheFileEntry@CShaderCacheNode@@U?$less@V?$basic_string@_WU?$char_traits@_W@std@@V?$K2StringAllocator@_W@@@std@@@2@V?$K2MapAllocator@U?$pair@$$CBV?$basic_string@_WU?$char_traits@_W@std@@V?$K2StringAllocator@_W@@@std@@USShaderCacheFileEntry@CShaderCacheNode@@@std@@@@$0A@@std@@@std@@QAE@XZ 1712a750 f i c_shadercache.obj
 0002:0006c780       ??1?$_Bidit@U?$pair@$$CBV?$basic_string@_WU?$char_traits@_W@std@@V?$K2StringAllocator@_W@@@std@@USShaderCacheFileEntry@CShaderCacheNode@@@std@@HPBU12@ABU12@@std@@QAE@XZ 1712a780 f i c_shadercache.obj
 0002:0006c7b0       ??0CShaderCacheNode@@QAE@ABV?$basic_string@_WU?$char_traits@_W@std@@V?$K2StringAllocator@_W@@@std@@ABV?$basic_string@DU?$char_traits@D@std@@V?$K2StringAllocator@D@@@2@@Z 1712a7b0 f   c_shadercache.obj
 0002:0006c880       ?Load@CShaderCacheNode@@AAEXXZ 1712a880 f   c_shadercache.obj
 0002:0006cac0       ?GetFaults@IBuffer@@QBEHXZ 1712aac0 f i c_shadercache.obj
 0002:0006cae0       ?ReadInt@IBuffer@@QBEHXZ   1712aae0 f i c_shadercache.obj
 0002:0006cb20       ?ReadInt64@IBuffer@@QBE_JXZ 1712ab20 f i c_shadercache.obj
 0002:0006cb70       ?Advance@CBufferDynamic@@QBE_NI@Z 1712ab70 f i c_shadercache.obj
 0002:0006cbe0       ??0SShaderCacheFileEntry@CShaderCacheNode@@QAE@II_JI@Z 1712abe0 f i c_shadercache.obj
 0002:0006cc40       ?GetArchiveRead@CShaderCache@@QAEAAVCArchive@@XZ 1712ac40 f i c_shadercache.obj
 0002:0006cc60       ?CacheShader@CShaderCacheNode@@QAEXABV?$basic_string@_WU?$char_traits@_W@std@@V?$K2StringAllocator@_W@@@std@@PBEI_JI@Z 1712ac60 f   c_shadercache.obj
 0002:0006ceb0       ?LoadShader@CShaderCacheNode@@QAE_NABV?$basic_string@_WU?$char_traits@_W@std@@V?$K2StringAllocator@_W@@@std@@AAVIBuffer@@_JAAI@Z 1712aeb0 f   c_shadercache.obj
 0002:0006d0b0       ??1CShaderCache@@QAE@XZ    1712b0b0 f   c_shadercache.obj
 0002:0006d170       ??1?$vector@PAVCShaderCacheNode@@V?$K2VectorAllocator@PAVCShaderCacheNode@@@@@@QAE@XZ 1712b170 f i c_shadercache.obj
 0002:0006d1a0       ??0CShaderCache@@QAE@XZ    1712b1a0 f   c_shadercache.obj
 0002:0006d270       ?Initialize@CShaderCache@@QAEXXZ 1712b270 f   c_shadercache.obj
 0002:0006d4c0       ?Close@CShaderCache@@QAEXXZ 1712b4c0 f   c_shadercache.obj
 0002:0006d7f0       ?NeedsWrite@CShaderCacheNode@@QAE_NXZ 1712b7f0 f i c_shadercache.obj
 0002:0006d820       ??1?$_Vector_iterator@PAVCShaderCacheNode@@V?$K2VectorAllocator@PAVCShaderCacheNode@@@@@std@@QAE@XZ 1712b820 f i c_shadercache.obj
 0002:0006d850       ??4?$_Vector_iterator@PAVCShaderCacheNode@@V?$K2VectorAllocator@PAVCShaderCacheNode@@@@@std@@QAEAAV01@ABV01@@Z 1712b850 f i c_shadercache.obj
 0002:0006d880       ??_GCShaderCacheNode@@QAEPAXI@Z 1712b880 f i c_shadercache.obj
 0002:0006d8d0       ??1?$_Vector_const_iterator@PAVCShaderCacheNode@@V?$K2VectorAllocator@PAVCShaderCacheNode@@@@@std@@QAE@XZ 1712b8d0 f i c_shadercache.obj
 0002:0006d900       ??4?$_Vector_const_iterator@PAVCShaderCacheNode@@V?$K2VectorAllocator@PAVCShaderCacheNode@@@@@std@@QAEAAV01@ABV01@@Z 1712b900 f i c_shadercache.obj
 0002:0006d940       ??1?$_Ranit@PAVCShaderCacheNode@@HPBQAV1@ABQAV1@@std@@QAE@XZ 1712b940 f i c_shadercache.obj
 0002:0006d970       ??4?$_Ranit@PAVCShaderCacheNode@@HPBQAV1@ABQAV1@@std@@QAEAAU01@ABU01@@Z 1712b970 f i c_shadercache.obj
 0002:0006d9a0       ?RegisterNode@CShaderCache@@QAEIABV?$basic_string@_WU?$char_traits@_W@std@@V?$K2StringAllocator@_W@@@std@@ABV?$basic_string@DU?$char_traits@D@std@@V?$K2StringAllocator@D@@@3@@Z 1712b9a0 f   c_shadercache.obj
 0002:0006da80       ?ActivateNode@CShaderCache@@QAEXABV?$basic_string@DU?$char_traits@D@std@@V?$K2StringAllocator@D@@@std@@@Z 1712ba80 f   c_shadercache.obj
 0002:0006dc10       ?GetDefines@CShaderCacheNode@@QBEABV?$basic_string@DU?$char_traits@D@std@@V?$K2StringAllocator@D@@@std@@XZ 1712bc10 f i c_shadercache.obj
 0002:0006dc30       ?LoadShader@CShaderCache@@QAE_NABV?$basic_string@_WU?$char_traits@_W@std@@V?$K2StringAllocator@_W@@@std@@AAVIBuffer@@AAI@Z 1712bc30 f   c_shadercache.obj
 0002:0006dd60       ?CacheShader@CShaderCache@@QAEXABV?$basic_string@_WU?$char_traits@_W@std@@V?$K2StringAllocator@_W@@@std@@PBEII@Z 1712bd60 f   c_shadercache.obj
 0002:0006e0f0       ?GetDirectory@CShaderCacheNode@@QBEABV?$basic_string@_WU?$char_traits@_W@std@@V?$K2StringAllocator@_W@@@std@@XZ 1712c0f0 f i c_shadercache.obj
 0002:0006e110       ?SetLoaded@CShaderCacheNode@@QAEX_N@Z 1712c110 f i c_shadercache.obj
 0002:0006e160       ?WriteCacheDescriptor@CShaderCache@@AAEXXZ 1712c160 f   c_shadercache.obj
 0002:0006e540       ?AddProperty@CXMLDoc@@QAE_NABV?$basic_string@DU?$char_traits@D@std@@V?$K2StringAllocator@D@@@std@@ABV?$basic_string@_WU?$char_traits@_W@std@@V?$K2StringAllocator@_W@@@3@@Z 1712c540 f i c_shadercache.obj
 0002:0006e5f0       ?Clear@CShaderCache@@QAEXXZ 1712c5f0 f   c_shadercache.obj
 0002:0006e720       ?Reload@CShaderCache@@QAEXXZ 1712c720 f   c_shadercache.obj
 0002:0006e750       ?cmdShaderCacheClearFn@@YA_NPAVCConsoleElement@@ABV?$vector@V?$basic_string@_WU?$char_traits@_W@std@@V?$K2StringAllocator@_W@@@std@@V?$K2VectorAllocator@V?$basic_string@_WU?$char_traits@_W@std@@V?$K2StringAllocator@_W@@@std@@@@@@@Z 1712c750 f   c_shadercache.obj
 0002:0006e780       ?GetProcessor@CXMLProcessor_shadercache@XMLShaderCache@@CAPAVIXMLProcessor@@ABV?$basic_string@_WU?$char_traits@_W@std@@V?$K2StringAllocator@_W@@@std@@@Z 1712c780 f   c_shadercache.obj
 0002:0006e8a0       ??1iterator@?$_Tree@V?$_Tmap_traits@V?$basic_string@_WU?$char_traits@_W@std@@V?$K2StringAllocator@_W@@@std@@PAVIXMLProcessor@@U?$less@V?$basic_string@_WU?$char_traits@_W@std@@V?$K2StringAllocator@_W@@@std@@@2@V?$K2MapAllocator@U?$pair@$$CBV?$basic_string@_WU?$char_traits@_W@std@@V?$K2StringAllocator@_W@@@std@@PAVIXMLProcessor@@@std@@@@$0A@@std@@@std@@QAE@XZ 1712c8a0 f i c_shadercache.obj
 0002:0006e8d0       ??1const_iterator@?$_Tree@V?$_Tmap_traits@V?$basic_string@_WU?$char_traits@_W@std@@V?$K2StringAllocator@_W@@@std@@PAVIXMLProcessor@@U?$less@V?$basic_string@_WU?$char_traits@_W@std@@V?$K2StringAllocator@_W@@@std@@@2@V?$K2MapAllocator@U?$pair@$$CBV?$basic_string@_WU?$char_traits@_W@std@@V?$K2StringAllocator@_W@@@std@@PAVIXMLProcessor@@@std@@@@$0A@@std@@@std@@QAE@XZ 1712c8d0 f i c_shadercache.obj
 0002:0006e900       ??1?$_Bidit@U?$pair@$$CBV?$basic_string@_WU?$char_traits@_W@std@@V?$K2StringAllocator@_W@@@std@@PAVIXMLProcessor@@@std@@HPBU12@ABU12@@std@@QAE@XZ 1712c900 f i c_shadercache.obj
 0002:0006e930       ?RegisterProcessor@CXMLProcessor_shadercache@XMLShaderCache@@SAXPAVIXMLProcessor@@@Z 1712c930 f   c_shadercache.obj
 0002:0006ec10       ??1?$pair@V?$basic_string@_WU?$char_traits@_W@std@@V?$K2StringAllocator@_W@@@std@@PAVIXMLProcessor@@@std@@QAE@XZ 1712cc10 f i c_shadercache.obj
 0002:0006ec40       ??1?$pair@$$CBV?$basic_string@_WU?$char_traits@_W@std@@V?$K2StringAllocator@_W@@@std@@PAVIXMLProcessor@@@std@@QAE@XZ 1712cc40 f i c_shadercache.obj
 0002:0006ec70       ??1?$pair@Viterator@?$_Tree@V?$_Tmap_traits@V?$basic_string@_WU?$char_traits@_W@std@@V?$K2StringAllocator@_W@@@std@@PAVIXMLProcessor@@U?$less@V?$basic_string@_WU?$char_traits@_W@std@@V?$K2StringAllocator@_W@@@std@@@2@V?$K2MapAllocator@U?$pair@$$CBV?$basic_string@_WU?$char_traits@_W@std@@V?$K2StringAllocator@_W@@@std@@PAVIXMLProcessor@@@std@@@@$0A@@std@@@std@@_N@std@@QAE@XZ 1712cc70 f i c_shadercache.obj
 0002:0006eca0       ??0CXMLProcessor_shadercache@XMLShaderCache@@QAE@ABV?$basic_string@_WU?$char_traits@_W@std@@V?$K2StringAllocator@_W@@@std@@@Z 1712cca0 f   c_shadercache.obj
 0002:0006ed30       ?RemoveChild@CXMLProcessor_shadercache@XMLShaderCache@@UAEXABV?$basic_string@_WU?$char_traits@_W@std@@V?$K2StringAllocator@_W@@@std@@@Z 1712cd30 f i c_shadercache.obj
 0002:0006ee60       ??0iterator@?$_Tree@V?$_Tmap_traits@V?$basic_string@_WU?$char_traits@_W@std@@V?$K2StringAllocator@_W@@@std@@PAVIXMLProcessor@@U?$less@V?$basic_string@_WU?$char_traits@_W@std@@V?$K2StringAllocator@_W@@@std@@@2@V?$K2MapAllocator@U?$pair@$$CBV?$basic_string@_WU?$char_traits@_W@std@@V?$K2StringAllocator@_W@@@std@@PAVIXMLProcessor@@@std@@@@$0A@@std@@@std@@QAE@ABV012@@Z 1712ce60 f i c_shadercache.obj
 0002:0006ee90       ??0const_iterator@?$_Tree@V?$_Tmap_traits@V?$basic_string@_WU?$char_traits@_W@std@@V?$K2StringAllocator@_W@@@std@@PAVIXMLProcessor@@U?$less@V?$basic_string@_WU?$char_traits@_W@std@@V?$K2StringAllocator@_W@@@std@@@2@V?$K2MapAllocator@U?$pair@$$CBV?$basic_string@_WU?$char_traits@_W@std@@V?$K2StringAllocator@_W@@@std@@PAVIXMLProcessor@@@std@@@@$0A@@std@@@std@@QAE@ABV012@@Z 1712ce90 f i c_shadercache.obj
 0002:0006eed0       ??0?$_Bidit@U?$pair@$$CBV?$basic_string@_WU?$char_traits@_W@std@@V?$K2StringAllocator@_W@@@std@@PAVIXMLProcessor@@@std@@HPBU12@ABU12@@std@@QAE@ABU01@@Z 1712ced0 f i c_shadercache.obj
 0002:0006ef00       ??_ECXMLProcessor_shadercache@XMLShaderCache@@UAEPAXI@Z 1712cf00 f i c_shadercache.obj
 0002:0006ef00       ??_GCXMLProcessor_shadercache@XMLShaderCache@@UAEPAXI@Z 1712cf00 f i c_shadercache.obj
 0002:0006ef50       ??1CXMLProcessor_shadercache@XMLShaderCache@@UAE@XZ 1712cf50 f i c_shadercache.obj
 0002:0006f080       ?Process@CXMLProcessor_shadercache@XMLShaderCache@@UAE_NABVCXMLNode@@PAXPAVIXMLProcessor@@@Z 1712d080 f   c_shadercache.obj
 0002:0006f210       ?GetVersion@CShaderCache@@QBEABV?$basic_string@_WU?$char_traits@_W@std@@V?$K2StringAllocator@_W@@@std@@XZ 1712d210 f i c_shadercache.obj
 0002:0006f230       ??$IsNull@X@@YA_NPAX@Z     1712d230 f i c_shadercache.obj
 0002:0006f250       ?ProcessChildren@CXMLProcessor_shadercache@XMLShaderCache@@QAEXABVCXMLNode@@PAX@Z 1712d250 f i c_shadercache.obj
 0002:0006f4d0       ?GetName@CXMLNode@@QBEABV?$basic_string@_WU?$char_traits@_W@std@@V?$K2StringAllocator@_W@@@std@@XZ 1712d4d0 f i c_shadercache.obj
