 cgame_debug

 Timestamp is 4dfdac34 (Sun Jun 19 02:58:44 2011)

 Preferred load address is 19000000

 Start         Length     Name                   Class
 0001:00000000 000182d0H .textbss                DATA
 0002:00000000 000279f3H .text                   CODE
 0002:00027a00 00005e20H .text$x                 CODE
 0002:0002d820 00006f98H .text$yc                CODE
 0002:000347c0 000027daH .text$yd                CODE
 0003:00000000 00000104H .CRT$XCA                DATA
 0003:00000104 000003f6H .CRT$XCU                DATA
 0003:000004fc 00000104H .CRT$XCZ                DATA
 0003:00000600 00000104H .CRT$XIA                DATA
 0003:00000704 00000104H .CRT$XIAA               DATA
 0003:00000808 00000104H .CRT$XIZ                DATA
 0003:00000910 00006355H .rdata                  DATA
 0003:00006c68 0000015eH .rdata$debug            DATA
 0003:00006dc8 00000156H .rdata$r                DATA
 0003:00006f20 00000104H .rtc$IAA                DATA
 0003:00007024 00000104H .rtc$IZZ                DATA
 0003:00007128 00000104H .rtc$TAA                DATA
 0003:0000722c 00000104H .rtc$TZZ                DATA
 0003:00007330 00004f48H .xdata$x                DATA
 0003:0000c280 0000015dH .edata                  DATA
 0004:00000000 000001feH .data                   DATA
 0004:00000200 000071dcH .bss                    DATA
 0005:00000000 00000050H .idata$2                DATA
 0005:00000050 00000014H .idata$3                DATA
 0005:00000064 0000065cH .idata$4                DATA
 0005:000006c0 0000065cH .idata$5                DATA
 0005:00000d1c 00004911H .idata$6                DATA
 0006:00000000 00000169H .rsrc$01                DATA
 0006:00000170 00000a99H .rsrc$02                DATA

  Address         Publics by Value              Rva+Base       Lib:Object

 0000:00000000       __except_list              00000000     <absolute>
 0000:00000000       ___safe_se_handler_count   00000000     <absolute>
 0000:00000000       ___safe_se_handler_table   00000000     <absolute>
 0000:00009876       __ldused                   00009876     <absolute>
 0000:00009876       __fltused                  00009876     <absolute>
 0000:00000000       ___ImageBase               19000000     <linker-defined>
 0001:00000000       __enc$textbss$begin        19001000     <linker-defined>
 0001:000182d0       __enc$textbss$end          190192d0     <linker-defined>
 0002:00002ce0       ??_H@YGXPAXIHP6EPAX0@Z@Z   1901cce0 f i mv_common.obj
 0002:00002d20       ??0?$basic_string@_WU?$char_traits@_W@std@@V?$K2StringAllocator@_W@@@std@@QAE@PB_W@Z 1901cd20 f i mv_common.obj
 0002:00002dd0       ??1?$_String_val@_WV?$K2StringAllocator@_W@@@std@@QAE@XZ 1901cdd0 f i mv_common.obj
 0002:00002e50       ?assign@?$basic_string@_WU?$char_traits@_W@std@@V?$K2StringAllocator@_W@@@std@@QAEAAV12@PB_W@Z 1901ce50 f i mv_common.obj
 0002:00002e90       ?_Tidy@?$basic_string@_WU?$char_traits@_W@std@@V?$K2StringAllocator@_W@@@std@@IAEX_NI@Z 1901ce90 f i mv_common.obj
 0002:00002f30       ??0?$_String_val@_WV?$K2StringAllocator@_W@@@std@@IAE@V?$K2StringAllocator@_W@@@Z 1901cf30 f i mv_common.obj
 0002:00002fd0       ??0?$K2StringAllocator@_W@@QAE@XZ 1901cfd0 f i mv_common.obj
 0002:00003000       ?GetInstance@CMemManager@@SAPAV1@XZ 1901d000 f i mv_common.obj
 0002:000030d0       ??1?$K2StringAllocator@_W@@QAE@XZ 1901d0d0 f i mv_common.obj
 0002:000030f0       ?assign@?$basic_string@_WU?$char_traits@_W@std@@V?$K2StringAllocator@_W@@@std@@QAEAAV12@PB_WI@Z 1901d0f0 f i mv_common.obj
 0002:000031b0       ?assign@?$basic_string@_WU?$char_traits@_W@std@@V?$K2StringAllocator@_W@@@std@@QAEAAV12@ABV12@II@Z 1901d1b0 f i mv_common.obj
 0002:000032a0       ?_Myptr@?$basic_string@_WU?$char_traits@_W@std@@V?$K2StringAllocator@_W@@@std@@IAEPA_WXZ 1901d2a0 f i mv_common.obj
 0002:000032e0       ?_Myptr@?$basic_string@_WU?$char_traits@_W@std@@V?$K2StringAllocator@_W@@@std@@IBEPB_WXZ 1901d2e0 f i mv_common.obj
 0002:00003320       ?erase@?$basic_string@_WU?$char_traits@_W@std@@V?$K2StringAllocator@_W@@@std@@QAEAAV12@II@Z 1901d320 f i mv_common.obj
 0002:000033f0       ?size@?$basic_string@_WU?$char_traits@_W@std@@V?$K2StringAllocator@_W@@@std@@QBEIXZ 1901d3f0 f i mv_common.obj
 0002:00003410       ?_Eos@?$basic_string@_WU?$char_traits@_W@std@@V?$K2StringAllocator@_W@@@std@@IAEXI@Z 1901d410 f i mv_common.obj
 0002:00003460       ?_Grow@?$basic_string@_WU?$char_traits@_W@std@@V?$K2StringAllocator@_W@@@std@@IAE_NI_N@Z 1901d460 f i mv_common.obj
 0002:00003530       ??0?$K2StringAllocator@_W@@QAE@ABV0@@Z 1901d530 f i mv_common.obj
 0002:00003560       ?deallocate@?$K2StringAllocator@_W@@QAEXPA_WI@Z 1901d560 f i mv_common.obj
 0002:000035a0       ?max_size@?$basic_string@_WU?$char_traits@_W@std@@V?$K2StringAllocator@_W@@@std@@QBEIXZ 1901d5a0 f i mv_common.obj
 0002:000035f0       ?_Copy@?$basic_string@_WU?$char_traits@_W@std@@V?$K2StringAllocator@_W@@@std@@IAEXII@Z 1901d5f0 f i mv_common.obj
 0002:000037e0       ?_Inside@?$basic_string@_WU?$char_traits@_W@std@@V?$K2StringAllocator@_W@@@std@@IAE_NPB_W@Z 1901d7e0 f i mv_common.obj
 0002:00003850       ?allocate@?$K2StringAllocator@_W@@QAEPA_WI@Z 1901d850 f i mv_common.obj
 0002:000038a0       ?Allocate@CMemManager@@SAPAXIPBDW4MemoryType@@00F@Z 1901d8a0 f i mv_common.obj
 0002:000038e0       ??$copy_s@U?$char_traits@_W@std@@@_Traits_helper@std@@YAPA_WPA_WIPB_WI@Z 1901d8e0 f i mv_common.obj
 0002:00003930       ??$_Char_traits_cat@U?$char_traits@_W@std@@@std@@YA?AU_Secure_char_traits_tag@0@XZ 1901d930 f i mv_common.obj
 0002:00003950       ??$copy_s@U?$char_traits@_W@std@@@_Traits_helper@std@@YAPA_WPA_WIPB_WIU_Secure_char_traits_tag@1@@Z 1901d950 f i mv_common.obj
 0002:00003990       ??$move_s@U?$char_traits@_W@std@@@_Traits_helper@std@@YAPA_WPA_WIPB_WI@Z 1901d990 f i mv_common.obj
 0002:000039e0       ??$move_s@U?$char_traits@_W@std@@@_Traits_helper@std@@YAPA_WPA_WIPB_WIU_Secure_char_traits_tag@1@@Z 1901d9e0 f i mv_common.obj
 0002:00003a20       ??$_Debug_pointer@_W@std@@YAXPB_W0I@Z 1901da20 f i mv_common.obj
 0002:00003a60       ??0?$basic_string@DU?$char_traits@D@std@@V?$K2StringAllocator@D@@@std@@QAE@PBD@Z 1901da60 f i mv_common.obj
 0002:00003b10       ??1?$_String_val@DV?$K2StringAllocator@D@@@std@@QAE@XZ 1901db10 f i mv_common.obj
 0002:00003b90       ?assign@?$basic_string@DU?$char_traits@D@std@@V?$K2StringAllocator@D@@@std@@QAEAAV12@PBD@Z 1901db90 f i mv_common.obj
 0002:00003bd0       ?_Tidy@?$basic_string@DU?$char_traits@D@std@@V?$K2StringAllocator@D@@@std@@IAEX_NI@Z 1901dbd0 f i mv_common.obj
 0002:00003c70       ??0?$_String_val@DV?$K2StringAllocator@D@@@std@@IAE@V?$K2StringAllocator@D@@@Z 1901dc70 f i mv_common.obj
 0002:00003d10       ??0?$K2StringAllocator@D@@QAE@XZ 1901dd10 f i mv_common.obj
 0002:00003d40       ??1?$K2StringAllocator@D@@QAE@XZ 1901dd40 f i mv_common.obj
 0002:00003d60       ?assign@?$basic_string@DU?$char_traits@D@std@@V?$K2StringAllocator@D@@@std@@QAEAAV12@PBDI@Z 1901dd60 f i mv_common.obj
 0002:00003e10       ?assign@?$basic_string@DU?$char_traits@D@std@@V?$K2StringAllocator@D@@@std@@QAEAAV12@ABV12@II@Z 1901de10 f i mv_common.obj
 0002:00003f00       ?_Myptr@?$basic_string@DU?$char_traits@D@std@@V?$K2StringAllocator@D@@@std@@IBEPBDXZ 1901df00 f i mv_common.obj
 0002:00003f40       ?erase@?$basic_string@DU?$char_traits@D@std@@V?$K2StringAllocator@D@@@std@@QAEAAV12@II@Z 1901df40 f i mv_common.obj
 0002:00004010       ?size@?$basic_string@DU?$char_traits@D@std@@V?$K2StringAllocator@D@@@std@@QBEIXZ 1901e010 f i mv_common.obj
 0002:00004030       ?_Eos@?$basic_string@DU?$char_traits@D@std@@V?$K2StringAllocator@D@@@std@@IAEXI@Z 1901e030 f i mv_common.obj
 0002:00004080       ?_Grow@?$basic_string@DU?$char_traits@D@std@@V?$K2StringAllocator@D@@@std@@IAE_NI_N@Z 1901e080 f i mv_common.obj
 0002:00004150       ?_Myptr@?$basic_string@DU?$char_traits@D@std@@V?$K2StringAllocator@D@@@std@@IAEPADXZ 1901e150 f i mv_common.obj
 0002:00004190       ??0?$K2StringAllocator@D@@QAE@ABV0@@Z 1901e190 f i mv_common.obj
 0002:000041c0       ?deallocate@?$K2StringAllocator@D@@QAEXPADI@Z 1901e1c0 f i mv_common.obj
 0002:00004200       ?max_size@?$basic_string@DU?$char_traits@D@std@@V?$K2StringAllocator@D@@@std@@QBEIXZ 1901e200 f i mv_common.obj
 0002:00004250       ?_Copy@?$basic_string@DU?$char_traits@D@std@@V?$K2StringAllocator@D@@@std@@IAEXII@Z 1901e250 f i mv_common.obj
 0002:00004440       ?_Inside@?$basic_string@DU?$char_traits@D@std@@V?$K2StringAllocator@D@@@std@@IAE_NPBD@Z 1901e440 f i mv_common.obj
 0002:000044b0       ?allocate@?$K2StringAllocator@D@@QAEPADI@Z 1901e4b0 f i mv_common.obj
 0002:00004500       ??$_Debug_pointer@D@std@@YAXPBDPB_WI@Z 1901e500 f i mv_common.obj
 0002:00004540       ??$copy_s@U?$char_traits@D@std@@@_Traits_helper@std@@YAPADPADIPBDI@Z 1901e540 f i mv_common.obj
 0002:00004590       ??$_Char_traits_cat@U?$char_traits@D@std@@@std@@YA?AU_Secure_char_traits_tag@0@XZ 1901e590 f i mv_common.obj
 0002:000045b0       ??$copy_s@U?$char_traits@D@std@@@_Traits_helper@std@@YAPADPADIPBDIU_Secure_char_traits_tag@1@@Z 1901e5b0 f i mv_common.obj
 0002:000045f0       ??$move_s@U?$char_traits@D@std@@@_Traits_helper@std@@YAPADPADIPBDI@Z 1901e5f0 f i mv_common.obj
 0002:00004640       ??$move_s@U?$char_traits@D@std@@@_Traits_helper@std@@YAPADPADIPBDIU_Secure_char_traits_tag@1@@Z 1901e640 f i mv_common.obj
 0002:00004680       ??1?$basic_string@DU?$char_traits@D@std@@V?$K2StringAllocator@D@@@std@@QAE@XZ 1901e680 f i mv_common.obj
 0002:00004700       ??1?$basic_string@_WU?$char_traits@_W@std@@V?$K2StringAllocator@_W@@@std@@QAE@XZ 1901e700 f i mv_common.obj
 0002:00004780       ?cmdNoSunFn@@YA_NPAVCConsoleElement@@ABV?$vector@V?$basic_string@_WU?$char_traits@_W@std@@V?$K2StringAllocator@_W@@@std@@V?$K2VectorAllocator@V?$basic_string@_WU?$char_traits@_W@std@@V?$K2StringAllocator@_W@@@std@@@@@@@Z 1901e780 f   mv_main.obj
 0002:00004880       ?MV_CenterCamera@@YAXXZ    1901e880 f   mv_main.obj
 0002:00004c40       ?SetAngles@CCamera@@QAEXMMM@Z 1901ec40 f i mv_main.obj
 0002:00004cb0       ?GetViewAxis@CCamera@@QBEABV?$CVec3@M@@W4EAxisComponent@@@Z 1901ecb0 f i mv_main.obj
 0002:00004ce0       ??ACAxis@@QBEABV?$CVec3@M@@H@Z 1901ece0 f i mv_main.obj
 0002:00004d10       ?Set@CAxis@@QAEXABV?$CVec3@M@@@Z 1901ed10 f i mv_main.obj
 0002:00004d80       ?Set@CAxis@@QAEXMMM@Z      1901ed80 f i mv_main.obj
 0002:00004ff0       ?M_SinCos@@YAXMAAM0@Z      1901eff0 f i mv_main.obj
 0002:00005020       ?cmdCenterFn@@YA_NPAVCConsoleElement@@ABV?$vector@V?$basic_string@_WU?$char_traits@_W@std@@V?$K2StringAllocator@_W@@@std@@V?$K2VectorAllocator@V?$basic_string@_WU?$char_traits@_W@std@@V?$K2StringAllocator@_W@@@std@@@@@@@Z 1901f020 f   mv_main.obj
 0002:00005040       ?uiCenterFn@@YA?AV?$basic_string@_WU?$char_traits@_W@std@@V?$K2StringAllocator@_W@@@std@@PAVIWidget@@ABV?$vector@PAVCUIScriptToken@@V?$K2VectorAllocator@PAVCUIScriptToken@@@@@@@Z 1901f040 f   mv_main.obj
 0002:000050a0       ?uiCenterVoidFn@@YAXPAVIWidget@@ABV?$vector@PAVCUIScriptToken@@V?$K2VectorAllocator@PAVCUIScriptToken@@@@@@@Z 1901f0a0 f   mv_main.obj
 0002:00005120       ?MV_CenterCameraHon@@YAXXZ 1901f120 f   mv_main.obj
 0002:00005420       ?cmdCenterHonFn@@YA_NPAVCConsoleElement@@ABV?$vector@V?$basic_string@_WU?$char_traits@_W@std@@V?$K2StringAllocator@_W@@@std@@V?$K2VectorAllocator@V?$basic_string@_WU?$char_traits@_W@std@@V?$K2StringAllocator@_W@@@std@@@@@@@Z 1901f420 f   mv_main.obj
 0002:00005440       ?uiCenterHonFn@@YA?AV?$basic_string@_WU?$char_traits@_W@std@@V?$K2StringAllocator@_W@@@std@@PAVIWidget@@ABV?$vector@PAVCUIScriptToken@@V?$K2VectorAllocator@PAVCUIScriptToken@@@@@@@Z 1901f440 f   mv_main.obj
 0002:000054a0       ?uiCenterHonVoidFn@@YAXPAVIWidget@@ABV?$vector@PAVCUIScriptToken@@V?$K2VectorAllocator@PAVCUIScriptToken@@@@@@@Z 1901f4a0 f   mv_main.obj
 0002:00005520       ?cmdPlayAnimFn@@YA_NPAVCConsoleElement@@ABV?$vector@V?$basic_string@_WU?$char_traits@_W@std@@V?$K2StringAllocator@_W@@@std@@V?$K2VectorAllocator@V?$basic_string@_WU?$char_traits@_W@std@@V?$K2StringAllocator@_W@@@std@@@@@@@Z 1901f520 f   mv_main.obj
 0002:00005600       ?GetTime@CHostClient@@QBEIXZ 1901f600 f i mv_main.obj
 0002:00005620       ?AtoI@@YAHABV?$basic_string@_WU?$char_traits@_W@std@@V?$K2StringAllocator@_W@@@std@@@Z 1901f620 f i mv_main.obj
 0002:00005650       ?uiPlayAnimFn@@YA?AV?$basic_string@_WU?$char_traits@_W@std@@V?$K2StringAllocator@_W@@@std@@PAVIWidget@@ABV?$vector@PAVCUIScriptToken@@V?$K2VectorAllocator@PAVCUIScriptToken@@@@@@@Z 1901f650 f   mv_main.obj
 0002:000056b0       ?size@?$vector@V?$basic_string@_WU?$char_traits@_W@std@@V?$K2StringAllocator@_W@@@std@@V?$K2VectorAllocator@V?$basic_string@_WU?$char_traits@_W@std@@V?$K2StringAllocator@_W@@@std@@@@@std@@QBEIXZ 1901f6b0 f i mv_main.obj
 0002:00005700       ??A?$vector@V?$basic_string@_WU?$char_traits@_W@std@@V?$K2StringAllocator@_W@@@std@@V?$K2VectorAllocator@V?$basic_string@_WU?$char_traits@_W@std@@V?$K2StringAllocator@_W@@@std@@@@@std@@QBEABV?$basic_string@_WU?$char_traits@_W@std@@V?$K2StringAllocator@_W@@@1@I@Z 1901f700 f i mv_main.obj
 0002:00005820       ?uiPlayAnimVoidFn@@YAXPAVIWidget@@ABV?$vector@PAVCUIScriptToken@@V?$K2VectorAllocator@PAVCUIScriptToken@@@@@@@Z 1901f820 f   mv_main.obj
 0002:00005880       ?cmdSetAnimSpeedFn@@YA_NPAVCConsoleElement@@ABV?$vector@V?$basic_string@_WU?$char_traits@_W@std@@V?$K2StringAllocator@_W@@@std@@V?$K2VectorAllocator@V?$basic_string@_WU?$char_traits@_W@std@@V?$K2StringAllocator@_W@@@std@@@@@@@Z 1901f880 f   mv_main.obj
 0002:00005910       ?AtoF@@YAMABV?$basic_string@_WU?$char_traits@_W@std@@V?$K2StringAllocator@_W@@@std@@@Z 1901f910 f i mv_main.obj
 0002:00005940       ?WTOF@@YANABV?$basic_string@_WU?$char_traits@_W@std@@V?$K2StringAllocator@_W@@@std@@@Z 1901f940 f i mv_main.obj
 0002:00005970       ?uiSetAnimSpeedFn@@YA?AV?$basic_string@_WU?$char_traits@_W@std@@V?$K2StringAllocator@_W@@@std@@PAVIWidget@@ABV?$vector@PAVCUIScriptToken@@V?$K2VectorAllocator@PAVCUIScriptToken@@@@@@@Z 1901f970 f   mv_main.obj
 0002:000059d0       ?uiSetAnimSpeedVoidFn@@YAXPAVIWidget@@ABV?$vector@PAVCUIScriptToken@@V?$K2VectorAllocator@PAVCUIScriptToken@@@@@@@Z 1901f9d0 f   mv_main.obj
 0002:00005a60       ?cmdSetAnimTimeFn@@YA_NPAVCConsoleElement@@ABV?$vector@V?$basic_string@_WU?$char_traits@_W@std@@V?$K2StringAllocator@_W@@@std@@V?$K2VectorAllocator@V?$basic_string@_WU?$char_traits@_W@std@@V?$K2StringAllocator@_W@@@std@@@@@@@Z 1901fa60 f   mv_main.obj
 0002:00005af0       ?uiSetAnimTimeFn@@YA?AV?$basic_string@_WU?$char_traits@_W@std@@V?$K2StringAllocator@_W@@@std@@PAVIWidget@@ABV?$vector@PAVCUIScriptToken@@V?$K2VectorAllocator@PAVCUIScriptToken@@@@@@@Z 1901faf0 f   mv_main.obj
 0002:00005b50       ?uiSetAnimTimeVoidFn@@YAXPAVIWidget@@ABV?$vector@PAVCUIScriptToken@@V?$K2VectorAllocator@PAVCUIScriptToken@@@@@@@Z 1901fb50 f   mv_main.obj
 0002:00005be0       ?cmdStartEffectFn@@YA_NPAVCConsoleElement@@ABV?$vector@V?$basic_string@_WU?$char_traits@_W@std@@V?$K2StringAllocator@_W@@@std@@V?$K2VectorAllocator@V?$basic_string@_WU?$char_traits@_W@std@@V?$K2StringAllocator@_W@@@std@@@@@@@Z 1901fbe0 f   mv_main.obj
 0002:00005e10       ?SetCamera@CEffectThread@@QAEXPAVCCamera@@@Z 1901fe10 f i mv_main.obj
 0002:00005e40       ?SetWorld@CEffectThread@@QAEXPAVCWorld@@@Z 1901fe40 f i mv_main.obj
 0002:00005e70       ?SetSourceSkeleton@CEffectThread@@QAEXPAVCSkeleton@@@Z 1901fe70 f i mv_main.obj
 0002:00005ea0       ?SetSourceModel@CEffectThread@@QAEXPAVCModel@@@Z 1901fea0 f i mv_main.obj
 0002:00005ed0       ?SetTargetSkeleton@CEffectThread@@QAEXPAVCSkeleton@@@Z 1901fed0 f i mv_main.obj
 0002:00005f00       ?SetTargetModel@CEffectThread@@QAEXPAVCModel@@@Z 1901ff00 f i mv_main.obj
 0002:00005f30       ??0?$basic_string@_WU?$char_traits@_W@std@@V?$K2StringAllocator@_W@@@std@@QAE@ABV01@@Z 1901ff30 f i mv_main.obj
 0002:00005fd0       ?cmdStopEffectsFn@@YA_NPAVCConsoleElement@@ABV?$vector@V?$basic_string@_WU?$char_traits@_W@std@@V?$K2StringAllocator@_W@@@std@@V?$K2VectorAllocator@V?$basic_string@_WU?$char_traits@_W@std@@V?$K2StringAllocator@_W@@@std@@@@@@@Z 1901ffd0 f   mv_main.obj
 0002:00006070       ?cmdExpireEffectsFn@@YA_NPAVCConsoleElement@@ABV?$vector@V?$basic_string@_WU?$char_traits@_W@std@@V?$K2StringAllocator@_W@@@std@@V?$K2VectorAllocator@V?$basic_string@_WU?$char_traits@_W@std@@V?$K2StringAllocator@_W@@@std@@@@@@@Z 19020070 f   mv_main.obj
 0002:00006190       ?c_str@?$basic_string@_WU?$char_traits@_W@std@@V?$K2StringAllocator@_W@@@std@@QBEPB_WXZ 19020190 f i mv_main.obj
 0002:000061c0       ?eventStopEffectFn@@YA_NABV?$vector@V?$basic_string@_WU?$char_traits@_W@std@@V?$K2StringAllocator@_W@@@std@@V?$K2VectorAllocator@V?$basic_string@_WU?$char_traits@_W@std@@V?$K2StringAllocator@_W@@@std@@@@@@H@Z 190201c0 f   mv_main.obj
 0002:000062d0       ??6CConsoleStream@@QAEAAV0@ABV?$basic_string@_WU?$char_traits@_W@std@@V?$K2StringAllocator@_W@@@std@@@Z 190202d0 f i mv_main.obj
 0002:00006300       ?AddOutputHistory@CConsoleStream@@AAEXABV?$basic_string@_WU?$char_traits@_W@std@@V?$K2StringAllocator@_W@@@std@@@Z 19020300 f i mv_main.obj
 0002:00006330       ?GetNewl@CConsole@@QBEABV?$basic_string@_WU?$char_traits@_W@std@@V?$K2StringAllocator@_W@@@std@@XZ 19020330 f i mv_main.obj
 0002:00006360       ??6CConsole@@QAEAAVCConsoleStream@@PB_W@Z 19020360 f i mv_main.obj
 0002:00006390       ??6CConsoleStream@@QAEAAV0@PB_W@Z 19020390 f i mv_main.obj
 0002:00006420       ?eventStartEffectFn@@YA_NABV?$vector@V?$basic_string@_WU?$char_traits@_W@std@@V?$K2StringAllocator@_W@@@std@@V?$K2VectorAllocator@V?$basic_string@_WU?$char_traits@_W@std@@V?$K2StringAllocator@_W@@@std@@@@@@H@Z 19020420 f   mv_main.obj
 0002:00006ac0       ?SetActive@CEffectThread@@QAEX_N@Z 19020ac0 f i mv_main.obj
 0002:00006af0       ?SetSourcePos@CEffectThread@@QAEXABV?$CVec3@M@@@Z 19020af0 f i mv_main.obj
 0002:00006b30       ?SetSourceAxis@CEffectThread@@QAEXABVCAxis@@@Z 19020b30 f i mv_main.obj
 0002:00006b70       ?SetSourceScale@CEffectThread@@QAEXM@Z 19020b70 f i mv_main.obj
 0002:00006ba0       ?SetSourceEffectScale@CEffectThread@@QAEXM@Z 19020ba0 f i mv_main.obj
 0002:00006bd0       ?SetTargetPos@CEffectThread@@QAEXABV?$CVec3@M@@@Z 19020bd0 f i mv_main.obj
 0002:00006c10       ?SetTargetAxis@CEffectThread@@QAEXABVCAxis@@@Z 19020c10 f i mv_main.obj
 0002:00006c50       ?SetTargetScale@CEffectThread@@QAEXM@Z 19020c50 f i mv_main.obj
 0002:00006c80       ?SetTargetEffectScale@CEffectThread@@QAEXM@Z 19020c80 f i mv_main.obj
 0002:00006cb0       ?cos@@YAMM@Z               19020cb0 f i mv_main.obj
 0002:00006ce0       _cosf                      19020ce0 f i mv_main.obj
 0002:00006d10       ?sin@@YAMM@Z               19020d10 f i mv_main.obj
 0002:00006d40       _sinf                      19020d40 f i mv_main.obj
 0002:00006d70       ?MsToSec@@YAMI@Z           19020d70 f i mv_main.obj
 0002:00006db0       ??1CAxis@@QAE@XZ           19020db0 f i mv_main.obj
 0002:00006dd0       ??0CAxis@@QAE@MMM@Z        19020dd0 f i mv_main.obj
 0002:00006e30       ?eventPlaySoundFn@@YA_NABV?$vector@V?$basic_string@_WU?$char_traits@_W@std@@V?$K2StringAllocator@_W@@@std@@V?$K2VectorAllocator@V?$basic_string@_WU?$char_traits@_W@std@@V?$K2StringAllocator@_W@@@std@@@@@@H@Z 19020e30 f   mv_main.obj
 0002:00007260       ?eventPlaySoundLoopingFn@@YA_NABV?$vector@V?$basic_string@_WU?$char_traits@_W@std@@V?$K2StringAllocator@_W@@@std@@V?$K2VectorAllocator@V?$basic_string@_WU?$char_traits@_W@std@@V?$K2StringAllocator@_W@@@std@@@@@@H@Z 19021260 f   mv_main.obj
 0002:00007760       ?AtoB@@YA_NABV?$basic_string@_WU?$char_traits@_W@std@@V?$K2StringAllocator@_W@@@std@@@Z 19021760 f i mv_main.obj
 0002:00007840       ?CompareNoCase@@YAHABV?$basic_string@_WU?$char_traits@_W@std@@V?$K2StringAllocator@_W@@@std@@0@Z 19021840 f i mv_main.obj
 0002:00007870       ?eventPlaySoundLinearFn@@YA_NABV?$vector@V?$basic_string@_WU?$char_traits@_W@std@@V?$K2StringAllocator@_W@@@std@@V?$K2VectorAllocator@V?$basic_string@_WU?$char_traits@_W@std@@V?$K2StringAllocator@_W@@@std@@@@@@H@Z 19021870 f   mv_main.obj
 0002:00007ce0       ?eventPlaySoundLoopingLinearFn@@YA_NABV?$vector@V?$basic_string@_WU?$char_traits@_W@std@@V?$K2StringAllocator@_W@@@std@@V?$K2VectorAllocator@V?$basic_string@_WU?$char_traits@_W@std@@V?$K2StringAllocator@_W@@@std@@@@@@H@Z 19021ce0 f   mv_main.obj
 0002:000081e0       ?eventStopSoundFn@@YA_NABV?$vector@V?$basic_string@_WU?$char_traits@_W@std@@V?$K2StringAllocator@_W@@@std@@V?$K2VectorAllocator@V?$basic_string@_WU?$char_traits@_W@std@@V?$K2StringAllocator@_W@@@std@@@@@@H@Z 190221e0 f   mv_main.obj
 0002:00008270       ?actCameraPitchFn@@YAXMMABV?$CVec2@M@@ABV?$basic_string@_WU?$char_traits@_W@std@@V?$K2StringAllocator@_W@@@std@@@Z 19022270 f   mv_main.obj
 0002:00008550       ?actCameraYawFn@@YAXMMABV?$CVec2@M@@ABV?$basic_string@_WU?$char_traits@_W@std@@V?$K2StringAllocator@_W@@@std@@@Z 19022550 f   mv_main.obj
 0002:00008830       ?actZoomInFn@@YAXMMABV?$CVec2@M@@ABV?$basic_string@_WU?$char_traits@_W@std@@V?$K2StringAllocator@_W@@@std@@@Z 19022830 f   mv_main.obj
 0002:00008870       ?actZoomOutFn@@YAXMMABV?$CVec2@M@@ABV?$basic_string@_WU?$char_traits@_W@std@@V?$K2StringAllocator@_W@@@std@@@Z 19022870 f   mv_main.obj
 0002:000088b0       ?actToggleViewerUIFn@@YAXMMABV?$CVec2@M@@ABV?$basic_string@_WU?$char_traits@_W@std@@V?$K2StringAllocator@_W@@@std@@@Z 190228b0 f   mv_main.obj
 0002:00008940       ?MV_StopAllSounds@@YAXXZ   19022940 f   mv_main.obj
 0002:000089c0       ?Reset@?$CCvar@MM@@UAEXXZ  190229c0 f i mv_main.obj
 0002:00008a30       ?MV_UpdateSounds@@YAXABV?$CVec3@M@@0@Z 19022a30 f   mv_main.obj
 0002:00008ac0       ?MV_ParticleTrace@@YA_NABV?$CVec3@M@@0AAV1@1@Z 19022ac0 f   mv_main.obj
 0002:00008c80       ?MV_UpdateAnimListUI@@YAXI@Z 19022c80 f   mv_main.obj
 0002:00008e30       ?empty@?$basic_string@_WU?$char_traits@_W@std@@V?$K2StringAllocator@_W@@@std@@QBE_NXZ 19022e30 f i mv_main.obj
 0002:00008e60       ?CL_Init@@YA_NPAVCHostClient@@@Z 19022e60 f   mv_main.obj
 0002:0000a300       ?Set@CMemManager@@SAPAXPAXEI@Z 19024300 f i mv_main.obj
 0002:0000a330       ?GetWorld@CHostClient@@QBEPAVCWorld@@XZ 19024330 f i mv_main.obj
 0002:0000a360       ?SetHostType@CWorld@@QAEXE@Z 19024360 f i mv_main.obj
 0002:0000a390       ?GetString@?$CCvar@V?$CVec3@M@@M@@UBE?AV?$basic_string@_WU?$char_traits@_W@std@@V?$K2StringAllocator@_W@@@std@@XZ 19024390 f i mv_main.obj
 0002:0000a3f0       ?MV_AddSelectionRingToScene@@YAXXZ 190243f0 f   mv_main.obj
 0002:0000a5d0       ?CL_Frame@@YAXXZ           190245d0 f   mv_main.obj
 0002:0000ce70       ?SetX@CCamera@@QAEXM@Z     19026e70 f i mv_main.obj
 0002:0000cea0       ?SetY@CCamera@@QAEXM@Z     19026ea0 f i mv_main.obj
 0002:0000ced0       ?SetWidth@CCamera@@QAEXM@Z 19026ed0 f i mv_main.obj
 0002:0000cf00       ?SetHeight@CCamera@@QAEXM@Z 19026f00 f i mv_main.obj
 0002:0000cf30       ?SetFovXCalc@CCamera@@QAEXM@Z 19026f30 f i mv_main.obj
 0002:0000cf70       ?SetTime@CCamera@@QAEXM@Z  19026f70 f i mv_main.obj
 0002:0000cfa0       ?SetShadowBias@CCamera@@QAEXM@Z 19026fa0 f i mv_main.obj
 0002:0000cfd0       ?SetShadowMaxFov@CCamera@@QAEXM@Z 19026fd0 f i mv_main.obj
 0002:0000d000       ?SetReflect@CCamera@@QAEXABVCPlane@@@Z 19027000 f i mv_main.obj
 0002:0000d050       ?SetAngles@CCamera@@QAEXABV?$CVec3@M@@@Z 19027050 f i mv_main.obj
 0002:0000d0a0       ?SetOrigin@CCamera@@QAEXABV?$CVec3@M@@@Z 190270a0 f i mv_main.obj
 0002:0000d0e0       ?GetOrigin@CCamera@@QBEABV?$CVec3@M@@XZ 190270e0 f i mv_main.obj
 0002:0000d100       ?AddFlags@CCamera@@QAEXH@Z 19027100 f i mv_main.obj
 0002:0000d130       ?RemoveFlags@CCamera@@QAEXH@Z 19027130 f i mv_main.obj
 0002:0000d160       ?SetCenter@CSoundManager@@QAEXABV?$CVec3@M@@@Z 19027160 f i mv_main.obj
 0002:0000d1a0       ?GetInstances@CEffectThread@@QBEABV?$map@V?$basic_string@_WU?$char_traits@_W@std@@V?$K2StringAllocator@_W@@@std@@PAVIEffectInstance@@U?$less@V?$basic_string@_WU?$char_traits@_W@std@@V?$K2StringAllocator@_W@@@std@@@2@V?$K2MapAllocator@U?$pair@$$CBV?$basic_string@_WU?$char_traits@_W@std@@V?$K2StringAllocator@_W@@@std@@PAVIEffectInstance@@@std@@@@@@XZ 190271a0 f i mv_main.obj
 0002:0000d1c0       ?GetCameraOffset@CEffectThread@@QBEABV?$CVec3@M@@XZ 190271c0 f i mv_main.obj
 0002:0000d1e0       ?GetCameraAngleOffset@CEffectThread@@QBEABV?$CVec3@M@@XZ 190271e0 f i mv_main.obj
 0002:0000d210       ?SetSourceVisibility@CEffectThread@@QAEX_N@Z 19027210 f i mv_main.obj
 0002:0000d240       ?GetTime@CHost@@QAEIXZ     19027240 f i mv_main.obj
 0002:0000d260       ?GetFrameLength@CHost@@QAEIXZ 19027260 f i mv_main.obj
 0002:0000d280       ?INT_FLOOR@@YAHM@Z         19027280 f i mv_main.obj
 0002:0000d2a0       ??0CAxis@@QAE@ABV?$CVec3@M@@@Z 190272a0 f i mv_main.obj
 0002:0000d2f0       ?Up@CAxis@@QAEAAV?$CVec3@M@@XZ 190272f0 f i mv_main.obj
 0002:0000d310       ?IsLoaded@CWorld@@QBE_NXZ  19027310 f i mv_main.obj
 0002:0000d330       ?IsLoading@CWorld@@QBE_NXZ 19027330 f i mv_main.obj
 0002:0000d390       ??0CPlane@@QAE@ABV?$CVec3@M@@0@Z 19027390 f i mv_main.obj
 0002:0000d3f0       ?GetEventCmds@CSkeleton@@QAEABV?$vector@USAnimEventCmd@@V?$K2VectorAllocator@USAnimEventCmd@@@@@@XZ 190273f0 f i mv_main.obj
 0002:0000d420       ?XtoW@@YA?AV?$basic_string@_WU?$char_traits@_W@std@@V?$K2StringAllocator@_W@@@std@@_N0@Z 19027420 f i mv_main.obj
 0002:0000d4c0       ?empty@?$CCvar@V?$basic_string@_WU?$char_traits@_W@std@@V?$K2StringAllocator@_W@@@std@@V12@@@QBE_NXZ 190274c0 f i mv_main.obj
 0002:0000d4f0       ??B?$CCvar@V?$basic_string@_WU?$char_traits@_W@std@@V?$K2StringAllocator@_W@@@std@@V12@@@QBE?AV?$basic_string@_WU?$char_traits@_W@std@@V?$K2StringAllocator@_W@@@std@@XZ 190274f0 f i mv_main.obj
 0002:0000d540       ?GetWorkingDirectory@CFileManager@@QAEABV?$basic_string@_WU?$char_traits@_W@std@@V?$K2StringAllocator@_W@@@std@@XZ 19027540 f i mv_main.obj
 0002:0000d560       ?GetSceneX@CInterface@@QBEMXZ 19027560 f i mv_main.obj
 0002:0000d590       ?GetSceneY@CInterface@@QBEMXZ 19027590 f i mv_main.obj
 0002:0000d5c0       ?GetSceneWidth@CInterface@@QBEMXZ 190275c0 f i mv_main.obj
 0002:0000d5f0       ?GetSceneHeight@CInterface@@QBEMXZ 190275f0 f i mv_main.obj
 0002:0000d620       ??1?$vector@HV?$K2VectorAllocator@H@@@@QAE@XZ 19027620 f i mv_main.obj
 0002:0000d650       ??1?$_Vector_const_iterator@USAnimEventCmd@@V?$K2VectorAllocator@USAnimEventCmd@@@@@std@@QAE@XZ 19027650 f i mv_main.obj
 0002:0000d680       ??1const_iterator@?$_Tree@V?$_Tmap_traits@V?$basic_string@_WU?$char_traits@_W@std@@V?$K2StringAllocator@_W@@@std@@PAVIEffectInstance@@U?$less@V?$basic_string@_WU?$char_traits@_W@std@@V?$K2StringAllocator@_W@@@std@@@2@V?$K2MapAllocator@U?$pair@$$CBV?$basic_string@_WU?$char_traits@_W@std@@V?$K2StringAllocator@_W@@@std@@PAVIEffectInstance@@@std@@@@$0A@@std@@@std@@QAE@XZ 19027680 f i mv_main.obj
 0002:0000d6b0       ??1?$_Ranit@USAnimEventCmd@@HPBU1@ABU1@@std@@QAE@XZ 190276b0 f i mv_main.obj
 0002:0000d6e0       ??1_Iterator_base@std@@QAE@XZ 190276e0 f i mv_main.obj
 0002:0000d760       ?_Orphan_me@_Iterator_base@std@@QAEXXZ 19027760 f i mv_main.obj
 0002:0000d800       ??1?$_Bidit@U?$pair@$$CBV?$basic_string@_WU?$char_traits@_W@std@@V?$K2StringAllocator@_W@@@std@@PAVIEffectInstance@@@std@@HPBU12@ABU12@@std@@QAE@XZ 19027800 f i mv_main.obj
 0002:0000d830       ?CL_RasterCircle@@YAXPAEIHHH@Z 19027830 f   mv_main.obj
 0002:0000da30       ?CL_RasterCircle2@@YAXPAEIHHH@Z 19027a30 f   mv_main.obj
 0002:0000dbf0       ?CL_RasterHLine@@YAXPAEIHHH@Z 19027bf0 f i mv_main.obj
 0002:0000dc40       ?CL_RasterRect@@YAXPAEIHHHH@Z 19027c40 f   mv_main.obj
 0002:0000dca0       ?CL_Shutdown@@YAXXZ        19027ca0 f   mv_main.obj
 0002:0000dd40       ?CL_ProcessSnapshot@@YA_NAAVCSnapshot@@@Z 19027d40 f   mv_main.obj
 0002:0000dd60       ?CL_FileDropNotify@@YAXABV?$vector@V?$basic_string@_WU?$char_traits@_W@std@@V?$K2StringAllocator@_W@@@std@@V?$K2VectorAllocator@V?$basic_string@_WU?$char_traits@_W@std@@V?$K2StringAllocator@_W@@@std@@@@@@@Z 19027d60 f   mv_main.obj
 0002:0000e4d0       ??1?$_Vector_const_iterator@V?$basic_string@_WU?$char_traits@_W@std@@V?$K2StringAllocator@_W@@@std@@V?$K2VectorAllocator@V?$basic_string@_WU?$char_traits@_W@std@@V?$K2StringAllocator@_W@@@std@@@@@std@@QAE@XZ 190284d0 f i mv_main.obj
 0002:0000e500       ??1?$_Ranit@V?$basic_string@_WU?$char_traits@_W@std@@V?$K2StringAllocator@_W@@@std@@HPBV12@ABV12@@std@@QAE@XZ 19028500 f i mv_main.obj
 0002:0000e530       ??4?$CCvar@V?$basic_string@_WU?$char_traits@_W@std@@V?$K2StringAllocator@_W@@@std@@V12@@@QAEABV?$basic_string@_WU?$char_traits@_W@std@@V?$K2StringAllocator@_W@@@std@@ABV12@@Z 19028530 f i mv_main.obj
 0002:0000e570       ?empty@?$vector@V?$basic_string@_WU?$char_traits@_W@std@@V?$K2StringAllocator@_W@@@std@@V?$K2VectorAllocator@V?$basic_string@_WU?$char_traits@_W@std@@V?$K2StringAllocator@_W@@@std@@@@@std@@QBE_NXZ 19028570 f i mv_main.obj
 0002:0000e5a0       ??4?$basic_string@_WU?$char_traits@_W@std@@V?$K2StringAllocator@_W@@@std@@QAEAAV01@ABV01@@Z 190285a0 f i mv_main.obj
 0002:0000e5d0       ?length@?$basic_string@_WU?$char_traits@_W@std@@V?$K2StringAllocator@_W@@@std@@QBEIXZ 190285d0 f i mv_main.obj
 0002:0000e5f0       ?InitLibrary@@YAXAAVCClientGameLib@@@Z 190285f0 f   mv_main.obj
 0002:0000e730       ?SetName@CClientGameLib@@QAEXABV?$basic_string@_WU?$char_traits@_W@std@@V?$K2StringAllocator@_W@@@std@@@Z 19028730 f i mv_main.obj
 0002:0000e760       ?SetTypeName@CClientGameLib@@QAEXABV?$basic_string@_WU?$char_traits@_W@std@@V?$K2StringAllocator@_W@@@std@@@Z 19028760 f i mv_main.obj
 0002:0000e790       ?SetMajorVersion@CClientGameLib@@QAEXH@Z 19028790 f i mv_main.obj
 0002:0000e7c0       ?SetMinorVersion@CClientGameLib@@QAEXH@Z 190287c0 f i mv_main.obj
 0002:0000e7f0       ?AssignInitFn@CClientGameLib@@QAEXP6A_NPAVCHostClient@@@Z@Z 190287f0 f i mv_main.obj
 0002:0000e820       ?AssignFrameFn@CClientGameLib@@QAEXP6AXXZ@Z 19028820 f i mv_main.obj
 0002:0000e850       ?AssignShutdownFn@CClientGameLib@@QAEXP6AXXZ@Z 19028850 f i mv_main.obj
 0002:0000e880       ?AssignSnapshotFn@CClientGameLib@@QAEXP6A_NAAVCSnapshot@@@Z@Z 19028880 f i mv_main.obj
 0002:0000e8b0       ?AssignDropNotifyFn@CClientGameLib@@QAEXP6AXABV?$vector@V?$basic_string@_WU?$char_traits@_W@std@@V?$K2StringAllocator@_W@@@std@@V?$K2VectorAllocator@V?$basic_string@_WU?$char_traits@_W@std@@V?$K2StringAllocator@_W@@@std@@@@@@@Z@Z 190288b0 f i mv_main.obj
 0002:0000e8e0       ?sgenrand@@YAXK@Z          190288e0 f   mv_main.obj
 0002:0000e990       ?genrand@@YAKXZ            19028990 f   mv_main.obj
 0002:0000eba0       ?M_RandomMersenneInt@@YAHHH@Z 19028ba0 f   mv_main.obj
 0002:0000ec00       ?M_RandomMersenneFloat@@YAMMM@Z 19028c00 f   mv_main.obj
 0002:0000ec80       ?M_RandomMersenneFloat@@YAMXZ 19028c80 f   mv_main.obj
 0002:0000ecd0       ?cmdBlueNoiseFn@@YA_NPAVCConsoleElement@@ABV?$vector@V?$basic_string@_WU?$char_traits@_W@std@@V?$K2StringAllocator@_W@@@std@@V?$K2VectorAllocator@V?$basic_string@_WU?$char_traits@_W@std@@V?$K2StringAllocator@_W@@@std@@@@@@@Z 19028cd0 f   mv_main.obj
 0002:0000fc50       ?XtoW@@YA?AV?$basic_string@_WU?$char_traits@_W@std@@V?$K2StringAllocator@_W@@@std@@MHHH@Z 19029c50 f i mv_main.obj
 0002:0000fd30       ??6CConsoleStream@@QAEAAV0@I@Z 19029d30 f i mv_main.obj
 0002:0000fde0       ?XtoW@@YA?AV?$basic_string@_WU?$char_traits@_W@std@@V?$K2StringAllocator@_W@@@std@@IHHH@Z 19029de0 f i mv_main.obj
 0002:0000fe30       ??0?$basic_string@_WU?$char_traits@_W@std@@V?$K2StringAllocator@_W@@@std@@QAE@U_Has_debug_it@01@@Z 19029e30 f i mv_main.obj
 0002:0000fee0       ??0_Has_debug_it@?$basic_string@_WU?$char_traits@_W@std@@V?$K2StringAllocator@_W@@@std@@QAE@_N@Z 19029ee0 f i mv_main.obj
 0002:0000ff10       ?cmdModelMaterialListFn@@YA_NPAVCConsoleElement@@ABV?$vector@V?$basic_string@_WU?$char_traits@_W@std@@V?$K2StringAllocator@_W@@@std@@V?$K2VectorAllocator@V?$basic_string@_WU?$char_traits@_W@std@@V?$K2StringAllocator@_W@@@std@@@@@@@Z 19029f10 f   mv_main.obj
 0002:000100b0       ?GetType@IModel@@QBE?AW4EModelType@@XZ 1902a0b0 f i mv_main.obj
 0002:000100d0       ?GetModelFile@CModel@@QAEPAVIModel@@XZ 1902a0d0 f i mv_main.obj
 0002:00010100       ?fnGetTerrainTypeFn@@YA?AV?$basic_string@_WU?$char_traits@_W@std@@V?$K2StringAllocator@_W@@@std@@ABV?$vector@V?$basic_string@_WU?$char_traits@_W@std@@V?$K2StringAllocator@_W@@@std@@V?$K2VectorAllocator@V?$basic_string@_WU?$char_traits@_W@std@@V?$K2StringAllocator@_W@@@std@@@@@@@Z 1902a100 f   mv_main.obj
 0002:00010140       ?cmdReformatMaterialsFn@@YA_NPAVCConsoleElement@@ABV?$vector@V?$basic_string@_WU?$char_traits@_W@std@@V?$K2StringAllocator@_W@@@std@@V?$K2VectorAllocator@V?$basic_string@_WU?$char_traits@_W@std@@V?$K2StringAllocator@_W@@@std@@@@@@@Z 1902a140 f   mv_main.obj
 0002:00010370       ??1?$vector@V?$basic_string@_WU?$char_traits@_W@std@@V?$K2StringAllocator@_W@@@std@@V?$K2VectorAllocator@V?$basic_string@_WU?$char_traits@_W@std@@V?$K2StringAllocator@_W@@@std@@@@@@QAE@XZ 1902a370 f i mv_main.obj
 0002:000103a0       ??1?$_Vector_iterator@V?$basic_string@_WU?$char_traits@_W@std@@V?$K2StringAllocator@_W@@@std@@V?$K2VectorAllocator@V?$basic_string@_WU?$char_traits@_W@std@@V?$K2StringAllocator@_W@@@std@@@@@std@@QAE@XZ 1902a3a0 f i mv_main.obj
 0002:000103d0       ??0?$vector@V?$basic_string@_WU?$char_traits@_W@std@@V?$K2StringAllocator@_W@@@std@@V?$K2VectorAllocator@V?$basic_string@_WU?$char_traits@_W@std@@V?$K2StringAllocator@_W@@@std@@@@@@QAE@XZ 1902a3d0 f i mv_main.obj
 0002:00010400       ??1?$vector@V?$basic_string@_WU?$char_traits@_W@std@@V?$K2StringAllocator@_W@@@std@@V?$K2VectorAllocator@V?$basic_string@_WU?$char_traits@_W@std@@V?$K2StringAllocator@_W@@@std@@@@@std@@QAE@XZ 1902a400 f i mv_main.obj
 0002:00010480       ?begin@?$vector@V?$basic_string@_WU?$char_traits@_W@std@@V?$K2StringAllocator@_W@@@std@@V?$K2VectorAllocator@V?$basic_string@_WU?$char_traits@_W@std@@V?$K2StringAllocator@_W@@@std@@@@@std@@QAE?AV?$_Vector_iterator@V?$basic_string@_WU?$char_traits@_W@std@@V?$K2StringAllocator@_W@@@std@@V?$K2VectorAllocator@V?$basic_string@_WU?$char_traits@_W@std@@V?$K2StringAllocator@_W@@@std@@@@@2@XZ 1902a480 f i mv_main.obj
 0002:000104d0       ?end@?$vector@V?$basic_string@_WU?$char_traits@_W@std@@V?$K2StringAllocator@_W@@@std@@V?$K2VectorAllocator@V?$basic_string@_WU?$char_traits@_W@std@@V?$K2StringAllocator@_W@@@std@@@@@std@@QAE?AV?$_Vector_iterator@V?$basic_string@_WU?$char_traits@_W@std@@V?$K2StringAllocator@_W@@@std@@V?$K2VectorAllocator@V?$basic_string@_WU?$char_traits@_W@std@@V?$K2StringAllocator@_W@@@std@@@@@2@XZ 1902a4d0 f i mv_main.obj
 0002:00010520       ??1?$_Vector_val@V?$basic_string@_WU?$char_traits@_W@std@@V?$K2StringAllocator@_W@@@std@@V?$K2VectorAllocator@V?$basic_string@_WU?$char_traits@_W@std@@V?$K2StringAllocator@_W@@@std@@@@@std@@QAE@XZ 1902a520 f i mv_main.obj
 0002:000105a0       ?cmdReformatMaterialFn@@YA_NPAVCConsoleElement@@ABV?$vector@V?$basic_string@_WU?$char_traits@_W@std@@V?$K2StringAllocator@_W@@@std@@V?$K2VectorAllocator@V?$basic_string@_WU?$char_traits@_W@std@@V?$K2StringAllocator@_W@@@std@@@@@@@Z 1902a5a0 f   mv_main.obj
 0002:000106d0       ?cmdTestFormatFloatFn@@YA_NPAVCConsoleElement@@ABV?$vector@V?$basic_string@_WU?$char_traits@_W@std@@V?$K2StringAllocator@_W@@@std@@V?$K2VectorAllocator@V?$basic_string@_WU?$char_traits@_W@std@@V?$K2StringAllocator@_W@@@std@@@@@@@Z 1902a6d0 f   mv_main.obj
 0002:000107f0       ?XtoW@@YA?AV?$basic_string@_WU?$char_traits@_W@std@@V?$K2StringAllocator@_W@@@std@@MHHHH@Z 1902a7f0 f i mv_main.obj
 0002:000108e0       ??6CConsole@@QAEAAVCConsoleStream@@ABV?$basic_string@_WU?$char_traits@_W@std@@V?$K2StringAllocator@_W@@@std@@@Z 1902a8e0 f i mv_main.obj
 0002:00010910       ?cmdRenameFilesFn@@YA_NPAVCConsoleElement@@ABV?$vector@V?$basic_string@_WU?$char_traits@_W@std@@V?$K2StringAllocator@_W@@@std@@V?$K2VectorAllocator@V?$basic_string@_WU?$char_traits@_W@std@@V?$K2StringAllocator@_W@@@std@@@@@@@Z 1902a910 f   mv_main.obj
 0002:00010b90       ?cmdWriteBitsFn@@YA_NPAVCConsoleElement@@ABV?$vector@V?$basic_string@_WU?$char_traits@_W@std@@V?$K2StringAllocator@_W@@@std@@V?$K2VectorAllocator@V?$basic_string@_WU?$char_traits@_W@std@@V?$K2StringAllocator@_W@@@std@@@@@@@Z 1902ab90 f   mv_main.obj
 0002:00010c00       ?AtoUI@@YAIABV?$basic_string@_WU?$char_traits@_W@std@@V?$K2StringAllocator@_W@@@std@@@Z 1902ac00 f i mv_main.obj
 0002:00010c30       ?cmdReadBitsFn@@YA_NPAVCConsoleElement@@ABV?$vector@V?$basic_string@_WU?$char_traits@_W@std@@V?$K2StringAllocator@_W@@@std@@V?$K2VectorAllocator@V?$basic_string@_WU?$char_traits@_W@std@@V?$K2StringAllocator@_W@@@std@@@@@@@Z 1902ac30 f   mv_main.obj
 0002:00010d30       ?cmdClearBitsFn@@YA_NPAVCConsoleElement@@ABV?$vector@V?$basic_string@_WU?$char_traits@_W@std@@V?$K2StringAllocator@_W@@@std@@V?$K2VectorAllocator@V?$basic_string@_WU?$char_traits@_W@std@@V?$K2StringAllocator@_W@@@std@@@@@@@Z 1902ad30 f   mv_main.obj
 0002:00010d60       ?Clear@CBufferBit@@UAEXXZ  1902ad60 f i mv_main.obj
 0002:00010db0       ?Clear@IBuffer@@UAEXXZ     1902adb0 f i mv_main.obj
 0002:00010df0       ?ClearFaults@IBuffer@@QAEXXZ 1902adf0 f i mv_main.obj
 0002:00010e20       ?cmdTestBitsFn@@YA_NPAVCConsoleElement@@ABV?$vector@V?$basic_string@_WU?$char_traits@_W@std@@V?$K2StringAllocator@_W@@@std@@V?$K2VectorAllocator@V?$basic_string@_WU?$char_traits@_W@std@@V?$K2StringAllocator@_W@@@std@@@@@@@Z 1902ae20 f   mv_main.obj
 0002:00011000       ??1?$vector@U?$pair@II@std@@V?$K2VectorAllocator@U?$pair@II@std@@@@@@QAE@XZ 1902b000 f i mv_main.obj
 0002:00011030       ?cmdTestDeltaPosFn@@YA_NPAVCConsoleElement@@ABV?$vector@V?$basic_string@_WU?$char_traits@_W@std@@V?$K2StringAllocator@_W@@@std@@V?$K2VectorAllocator@V?$basic_string@_WU?$char_traits@_W@std@@V?$K2StringAllocator@_W@@@std@@@@@@@Z 1902b030 f   mv_main.obj
 0002:00011330       ??1?$vector@FV?$K2VectorAllocator@F@@@@QAE@XZ 1902b330 f i mv_main.obj
 0002:00011360       ?cmdCalcCodesFn@@YA_NPAVCConsoleElement@@ABV?$vector@V?$basic_string@_WU?$char_traits@_W@std@@V?$K2StringAllocator@_W@@@std@@V?$K2VectorAllocator@V?$basic_string@_WU?$char_traits@_W@std@@V?$K2StringAllocator@_W@@@std@@@@@@@Z 1902b360 f   mv_main.obj
 0002:00012080       ??6CConsoleStream@@QAEAAV0@H@Z 1902c080 f i mv_main.obj
 0002:00012130       ?XtoW@@YA?AV?$basic_string@_WU?$char_traits@_W@std@@V?$K2StringAllocator@_W@@@std@@HHHH@Z 1902c130 f i mv_main.obj
 0002:00012180       ??6CConsole@@QAEAAVCConsoleStream@@H@Z 1902c180 f i mv_main.obj
 0002:000121b0       ??A?$vector@V?$basic_string@_WU?$char_traits@_W@std@@V?$K2StringAllocator@_W@@@std@@V?$K2VectorAllocator@V?$basic_string@_WU?$char_traits@_W@std@@V?$K2StringAllocator@_W@@@std@@@@@std@@QAEAAV?$basic_string@_WU?$char_traits@_W@std@@V?$K2StringAllocator@_W@@@1@I@Z 1902c1b0 f i mv_main.obj
 0002:000122d0       ??1?$vector@U?$pair@HH@std@@V?$K2VectorAllocator@U?$pair@HH@std@@@@@@QAE@XZ 1902c2d0 f i mv_main.obj
 0002:00012300       ??1?$_Vector_iterator@U?$pair@HH@std@@V?$K2VectorAllocator@U?$pair@HH@std@@@@@std@@QAE@XZ 1902c300 f i mv_main.obj
 0002:00012330       ??4?$vector@U?$pair@HH@std@@V?$K2VectorAllocator@U?$pair@HH@std@@@@@@QAEAAV0@ABV0@@Z 1902c330 f i mv_main.obj
 0002:00012360       ??1?$_Vector_const_iterator@U?$pair@HH@std@@V?$K2VectorAllocator@U?$pair@HH@std@@@@@std@@QAE@XZ 1902c360 f i mv_main.obj
 0002:00012390       ??1?$_Ranit@U?$pair@HH@std@@HPBU12@ABU12@@std@@QAE@XZ 1902c390 f i mv_main.obj
 0002:000123c0       ?cmdTestTransmitFlagsFn@@YA_NPAVCConsoleElement@@ABV?$vector@V?$basic_string@_WU?$char_traits@_W@std@@V?$K2StringAllocator@_W@@@std@@V?$K2VectorAllocator@V?$basic_string@_WU?$char_traits@_W@std@@V?$K2StringAllocator@_W@@@std@@@@@@@Z 1902c3c0 f   mv_main.obj
 0002:00012640       ?K2_SetVectorBit@@YAXQAEI@Z 1902c640 f i mv_main.obj
 0002:00012690       ?K2_SetTreeBit@@YAXQAEII@Z 1902c690 f i mv_main.obj
 0002:00012700       ?K2_SetTreeBits@@YAXQAEI@Z 1902c700 f i mv_main.obj
 0002:000127c0       ?cmdRegisterCursorFn@@YA_NPAVCConsoleElement@@ABV?$vector@V?$basic_string@_WU?$char_traits@_W@std@@V?$K2StringAllocator@_W@@@std@@V?$K2VectorAllocator@V?$basic_string@_WU?$char_traits@_W@std@@V?$K2StringAllocator@_W@@@std@@@@@@@Z 1902c7c0 f   mv_main.obj
 0002:00012840       ?cmdLoadAllModelsFn@@YA_NPAVCConsoleElement@@ABV?$vector@V?$basic_string@_WU?$char_traits@_W@std@@V?$K2StringAllocator@_W@@@std@@V?$K2VectorAllocator@V?$basic_string@_WU?$char_traits@_W@std@@V?$K2StringAllocator@_W@@@std@@@@@@@Z 1902c840 f   mv_main.obj
 0002:00012a20       ?cmdConvertTexturesTGAFn@@YA_NPAVCConsoleElement@@ABV?$vector@V?$basic_string@_WU?$char_traits@_W@std@@V?$K2StringAllocator@_W@@@std@@V?$K2VectorAllocator@V?$basic_string@_WU?$char_traits@_W@std@@V?$K2StringAllocator@_W@@@std@@@@@@@Z 1902ca20 f   mv_main.obj
 0002:00012ca0       ?cmdFixTexturesFn@@YA_NPAVCConsoleElement@@ABV?$vector@V?$basic_string@_WU?$char_traits@_W@std@@V?$K2StringAllocator@_W@@@std@@V?$K2VectorAllocator@V?$basic_string@_WU?$char_traits@_W@std@@V?$K2StringAllocator@_W@@@std@@@@@@@Z 1902cca0 f   mv_main.obj
 0002:00012f30       ??0?$vector@HV?$K2VectorAllocator@H@@@@QAE@XZ 1902cf30 f i mv_main.obj
 0002:00012f60       ??1?$vector@HV?$K2VectorAllocator@H@@@std@@QAE@XZ 1902cf60 f i mv_main.obj
 0002:00012fe0       ?push_back@?$vector@HV?$K2VectorAllocator@H@@@std@@QAEXABH@Z 1902cfe0 f i mv_main.obj
 0002:00013090       ?begin@?$vector@V?$basic_string@_WU?$char_traits@_W@std@@V?$K2StringAllocator@_W@@@std@@V?$K2VectorAllocator@V?$basic_string@_WU?$char_traits@_W@std@@V?$K2StringAllocator@_W@@@std@@@@@std@@QBE?AV?$_Vector_const_iterator@V?$basic_string@_WU?$char_traits@_W@std@@V?$K2StringAllocator@_W@@@std@@V?$K2VectorAllocator@V?$basic_string@_WU?$char_traits@_W@std@@V?$K2StringAllocator@_W@@@std@@@@@2@XZ 1902d090 f i mv_main.obj
 0002:000130e0       ?find_first_of@?$basic_string@_WU?$char_traits@_W@std@@V?$K2StringAllocator@_W@@@std@@QBEIPB_WI@Z 1902d0e0 f i mv_main.obj
 0002:00013120       ?substr@?$basic_string@_WU?$char_traits@_W@std@@V?$K2StringAllocator@_W@@@std@@QBE?AV12@II@Z 1902d120 f i mv_main.obj
 0002:00013170       ??0?$vector@V?$basic_string@_WU?$char_traits@_W@std@@V?$K2StringAllocator@_W@@@std@@V?$K2VectorAllocator@V?$basic_string@_WU?$char_traits@_W@std@@V?$K2StringAllocator@_W@@@std@@@@@std@@QAE@XZ 1902d170 f i mv_main.obj
 0002:00013200       ?end@?$vector@V?$basic_string@_WU?$char_traits@_W@std@@V?$K2StringAllocator@_W@@@std@@V?$K2VectorAllocator@V?$basic_string@_WU?$char_traits@_W@std@@V?$K2StringAllocator@_W@@@std@@@@@std@@QBE?AV?$_Vector_const_iterator@V?$basic_string@_WU?$char_traits@_W@std@@V?$K2StringAllocator@_W@@@std@@V?$K2VectorAllocator@V?$basic_string@_WU?$char_traits@_W@std@@V?$K2StringAllocator@_W@@@std@@@@@2@XZ 1902d200 f i mv_main.obj
 0002:00013250       ??D?$_Vector_iterator@V?$basic_string@_WU?$char_traits@_W@std@@V?$K2StringAllocator@_W@@@std@@V?$K2VectorAllocator@V?$basic_string@_WU?$char_traits@_W@std@@V?$K2StringAllocator@_W@@@std@@@@@std@@QBEAAV?$basic_string@_WU?$char_traits@_W@std@@V?$K2StringAllocator@_W@@@1@XZ 1902d250 f i mv_main.obj
 0002:00013280       ??E?$_Vector_iterator@V?$basic_string@_WU?$char_traits@_W@std@@V?$K2StringAllocator@_W@@@std@@V?$K2VectorAllocator@V?$basic_string@_WU?$char_traits@_W@std@@V?$K2StringAllocator@_W@@@std@@@@@std@@QAEAAV01@XZ 1902d280 f i mv_main.obj
 0002:000132b0       ??E?$_Vector_const_iterator@V?$basic_string@_WU?$char_traits@_W@std@@V?$K2StringAllocator@_W@@@std@@V?$K2VectorAllocator@V?$basic_string@_WU?$char_traits@_W@std@@V?$K2StringAllocator@_W@@@std@@@@@std@@QAEAAV01@XZ 1902d2b0 f i mv_main.obj
 0002:000133a0       ?_Buy@?$vector@V?$basic_string@_WU?$char_traits@_W@std@@V?$K2StringAllocator@_W@@@std@@V?$K2VectorAllocator@V?$basic_string@_WU?$char_traits@_W@std@@V?$K2StringAllocator@_W@@@std@@@@@std@@IAE_NI@Z 1902d3a0 f i mv_main.obj
 0002:00013450       ?_Tidy@?$vector@V?$basic_string@_WU?$char_traits@_W@std@@V?$K2StringAllocator@_W@@@std@@V?$K2VectorAllocator@V?$basic_string@_WU?$char_traits@_W@std@@V?$K2StringAllocator@_W@@@std@@@@@std@@IAEXXZ 1902d450 f i mv_main.obj
 0002:000134f0       ?_Destroy@?$vector@V?$basic_string@_WU?$char_traits@_W@std@@V?$K2StringAllocator@_W@@@std@@V?$K2VectorAllocator@V?$basic_string@_WU?$char_traits@_W@std@@V?$K2StringAllocator@_W@@@std@@@@@std@@IAEXPAV?$basic_string@_WU?$char_traits@_W@std@@V?$K2StringAllocator@_W@@@2@0@Z 1902d4f0 f i mv_main.obj
 0002:00013530       ??1?$K2VectorAllocator@V?$basic_string@_WU?$char_traits@_W@std@@V?$K2StringAllocator@_W@@@std@@@@QAE@XZ 1902d530 f i mv_main.obj
 0002:00013550       ?deallocate@?$K2VectorAllocator@V?$basic_string@_WU?$char_traits@_W@std@@V?$K2StringAllocator@_W@@@std@@@@QAEXPAV?$basic_string@_WU?$char_traits@_W@std@@V?$K2StringAllocator@_W@@@std@@I@Z 1902d550 f i mv_main.obj
 0002:00013590       ??4?$CCvar@HH@@QAEHABH@Z   1902d590 f i mv_main.obj
 0002:000135e0       ??E?$CCvar@HH@@QAEHXZ      1902d5e0 f i mv_main.obj
 0002:00013630       ??B?$CCvar@HH@@QBEHXZ      1902d630 f i mv_main.obj
 0002:00013660       ??4?$CCvar@MM@@QAEMABM@Z   1902d660 f i mv_main.obj
 0002:000136b0       ??Y?$CCvar@MM@@QAEMABM@Z   1902d6b0 f i mv_main.obj
 0002:00013700       ??Z?$CCvar@MM@@QAEMABM@Z   1902d700 f i mv_main.obj
 0002:00013750       ??B?$CCvar@MM@@QBEMXZ      1902d750 f i mv_main.obj
 0002:00013780       ??B?$CCvar@_N_N@@QBE_NXZ   1902d780 f i mv_main.obj
 0002:000137b0       ??B?$CCvar@V?$CVec3@M@@M@@QBE?AV?$CVec3@M@@XZ 1902d7b0 f i mv_main.obj
 0002:000137f0       ??A?$CCvar@V?$CVec4@M@@M@@QAEAAMH@Z 1902d7f0 f i mv_main.obj
 0002:00013830       ??B?$CCvar@V?$CVec4@M@@M@@QBE?AV?$CVec4@M@@XZ 1902d830 f i mv_main.obj
 0002:00013880       ?assign@?$basic_string@_WU?$char_traits@_W@std@@V?$K2StringAllocator@_W@@@std@@QAEAAV12@ABV12@@Z 1902d880 f i mv_main.obj
 0002:000138c0       ?begin@?$_Tree@V?$_Tmap_traits@V?$basic_string@_WU?$char_traits@_W@std@@V?$K2StringAllocator@_W@@@std@@PAVIEffectInstance@@U?$less@V?$basic_string@_WU?$char_traits@_W@std@@V?$K2StringAllocator@_W@@@std@@@2@V?$K2MapAllocator@U?$pair@$$CBV?$basic_string@_WU?$char_traits@_W@std@@V?$K2StringAllocator@_W@@@std@@PAVIEffectInstance@@@std@@@@$0A@@std@@@std@@QBE?AVconst_iterator@12@XZ 1902d8c0 f i mv_main.obj
 0002:00013910       ?end@?$_Tree@V?$_Tmap_traits@V?$basic_string@_WU?$char_traits@_W@std@@V?$K2StringAllocator@_W@@@std@@PAVIEffectInstance@@U?$less@V?$basic_string@_WU?$char_traits@_W@std@@V?$K2StringAllocator@_W@@@std@@@2@V?$K2MapAllocator@U?$pair@$$CBV?$basic_string@_WU?$char_traits@_W@std@@V?$K2StringAllocator@_W@@@std@@PAVIEffectInstance@@@std@@@@$0A@@std@@@std@@QBE?AVconst_iterator@12@XZ 1902d910 f i mv_main.obj
 0002:00013960       ??0?$_String_val@_WV?$K2StringAllocator@_W@@@std@@QAE@ABV01@@Z 1902d960 f i mv_main.obj
 0002:00013a00       ??0?$_Vector_iterator@V?$basic_string@_WU?$char_traits@_W@std@@V?$K2StringAllocator@_W@@@std@@V?$K2VectorAllocator@V?$basic_string@_WU?$char_traits@_W@std@@V?$K2StringAllocator@_W@@@std@@@@@std@@QAE@PAV?$basic_string@_WU?$char_traits@_W@std@@V?$K2StringAllocator@_W@@@1@PBV_Container_base@1@@Z 1902da00 f i mv_main.obj
 0002:00013a40       ??D?$_Vector_const_iterator@V?$basic_string@_WU?$char_traits@_W@std@@V?$K2StringAllocator@_W@@@std@@V?$K2VectorAllocator@V?$basic_string@_WU?$char_traits@_W@std@@V?$K2StringAllocator@_W@@@std@@@@@std@@QBEABV?$basic_string@_WU?$char_traits@_W@std@@V?$K2StringAllocator@_W@@@1@XZ 1902da40 f i mv_main.obj
 0002:00013b00       ??0?$vector@U?$pair@II@std@@V?$K2VectorAllocator@U?$pair@II@std@@@@@@QAE@I@Z 1902db00 f i mv_main.obj
 0002:00013b30       ??1?$vector@U?$pair@II@std@@V?$K2VectorAllocator@U?$pair@II@std@@@@@std@@QAE@XZ 1902db30 f i mv_main.obj
 0002:00013bb0       ??A?$vector@U?$pair@II@std@@V?$K2VectorAllocator@U?$pair@II@std@@@@@std@@QAEAAU?$pair@II@1@I@Z 1902dbb0 f i mv_main.obj
 0002:00013cd0       ??0?$vector@U?$pair@HH@std@@V?$K2VectorAllocator@U?$pair@HH@std@@@@@@QAE@XZ 1902dcd0 f i mv_main.obj
 0002:00013d00       ??1?$vector@U?$pair@HH@std@@V?$K2VectorAllocator@U?$pair@HH@std@@@@@std@@QAE@XZ 1902dd00 f i mv_main.obj
 0002:00013d80       ??4?$vector@U?$pair@HH@std@@V?$K2VectorAllocator@U?$pair@HH@std@@@@@std@@QAEAAV01@ABV01@@Z 1902dd80 f i mv_main.obj
 0002:00013f70       ?begin@?$vector@U?$pair@HH@std@@V?$K2VectorAllocator@U?$pair@HH@std@@@@@std@@QAE?AV?$_Vector_iterator@U?$pair@HH@std@@V?$K2VectorAllocator@U?$pair@HH@std@@@@@2@XZ 1902df70 f i mv_main.obj
 0002:00013fc0       ?end@?$vector@U?$pair@HH@std@@V?$K2VectorAllocator@U?$pair@HH@std@@@@@std@@QAE?AV?$_Vector_iterator@U?$pair@HH@std@@V?$K2VectorAllocator@U?$pair@HH@std@@@@@2@XZ 1902dfc0 f i mv_main.obj
 0002:00014010       ??A?$vector@U?$pair@HH@std@@V?$K2VectorAllocator@U?$pair@HH@std@@@@@std@@QAEAAU?$pair@HH@1@I@Z 1902e010 f i mv_main.obj
 0002:00014130       ?push_back@?$vector@U?$pair@HH@std@@V?$K2VectorAllocator@U?$pair@HH@std@@@@@std@@QAEXABU?$pair@HH@2@@Z 1902e130 f i mv_main.obj
 0002:000141e0       ?empty@?$deque@PAVIWorldComponent@@V?$K2DequeAllocator@PAVIWorldComponent@@@@@std@@QBE_NXZ 1902e1e0 f i mv_main.obj
 0002:00014210       ?GetWidth@?$CRect@M@@QBEMXZ 1902e210 f i mv_main.obj
 0002:00014240       ?GetHeight@?$CRect@M@@QBEMXZ 1902e240 f i mv_main.obj
 0002:00014270       ??B?$CInputState@_N@@QBE_NXZ 1902e270 f i mv_main.obj
 0002:00014290       ?max_size@?$vector@V?$basic_string@_WU?$char_traits@_W@std@@V?$K2StringAllocator@_W@@@std@@V?$K2VectorAllocator@V?$basic_string@_WU?$char_traits@_W@std@@V?$K2StringAllocator@_W@@@std@@@@@std@@QBEIXZ 1902e290 f i mv_main.obj
 0002:000142c0       ?_Xlen@?$vector@V?$basic_string@_WU?$char_traits@_W@std@@V?$K2StringAllocator@_W@@@std@@V?$K2VectorAllocator@V?$basic_string@_WU?$char_traits@_W@std@@V?$K2StringAllocator@_W@@@std@@@@@std@@KAXXZ 1902e2c0 f i mv_main.obj
 0002:00014370       ??0length_error@std@@QAE@ABV?$basic_string@DU?$char_traits@D@std@@V?$allocator@D@2@@1@@Z 1902e370 f i mv_main.obj
 0002:000143b0       ??0logic_error@std@@QAE@ABV?$basic_string@DU?$char_traits@D@std@@V?$allocator@D@2@@1@@Z 1902e3b0 f i mv_main.obj
 0002:00014440       ?what@logic_error@std@@UBEPBDXZ 1902e440 f i mv_main.obj
 0002:00014470       ??_Glogic_error@std@@UAEPAXI@Z 1902e470 f i mv_main.obj
 0002:00014470       ??_Elogic_error@std@@UAEPAXI@Z 1902e470 f i mv_main.obj
 0002:000144c0       ??1logic_error@std@@UAE@XZ 1902e4c0 f i mv_main.obj
 0002:00014500       ??1length_error@std@@UAE@XZ 1902e500 f i mv_main.obj
 0002:00014530       ??_Elength_error@std@@UAEPAXI@Z 1902e530 f i mv_main.obj
 0002:00014530       ??_Glength_error@std@@UAEPAXI@Z 1902e530 f i mv_main.obj
 0002:00014580       ??0logic_error@std@@QAE@ABV01@@Z 1902e580 f i mv_main.obj
 0002:00014620       ?begin@?$vector@USAnimEventCmd@@V?$K2VectorAllocator@USAnimEventCmd@@@@@std@@QBE?AV?$_Vector_const_iterator@USAnimEventCmd@@V?$K2VectorAllocator@USAnimEventCmd@@@@@2@XZ 1902e620 f i mv_main.obj
 0002:00014670       ??0?$_Vector_val@V?$basic_string@_WU?$char_traits@_W@std@@V?$K2StringAllocator@_W@@@std@@V?$K2VectorAllocator@V?$basic_string@_WU?$char_traits@_W@std@@V?$K2StringAllocator@_W@@@std@@@@@std@@IAE@V?$K2VectorAllocator@V?$basic_string@_WU?$char_traits@_W@std@@V?$K2StringAllocator@_W@@@std@@@@@Z 1902e670 f i mv_main.obj
 0002:00014710       ?end@?$vector@USAnimEventCmd@@V?$K2VectorAllocator@USAnimEventCmd@@@@@std@@QBE?AV?$_Vector_const_iterator@USAnimEventCmd@@V?$K2VectorAllocator@USAnimEventCmd@@@@@2@XZ 1902e710 f i mv_main.obj
 0002:00014760       ??0?$K2VectorAllocator@V?$basic_string@_WU?$char_traits@_W@std@@V?$K2StringAllocator@_W@@@std@@@@QAE@XZ 1902e760 f i mv_main.obj
 0002:00014790       ?allocate@?$K2VectorAllocator@V?$basic_string@_WU?$char_traits@_W@std@@V?$K2StringAllocator@_W@@@std@@@@QAEPAV?$basic_string@_WU?$char_traits@_W@std@@V?$K2StringAllocator@_W@@@std@@I@Z 1902e790 f i mv_main.obj
 0002:000147e0       ??A?$vector@PAVCUIScriptToken@@V?$K2VectorAllocator@PAVCUIScriptToken@@@@@std@@QBEABQAVCUIScriptToken@@I@Z 1902e7e0 f i mv_main.obj
 0002:00014900       ?size@?$vector@PAVCUIScriptToken@@V?$K2VectorAllocator@PAVCUIScriptToken@@@@@std@@QBEIXZ 1902e900 f i mv_main.obj
 0002:00014950       ??0?$_Vector_const_iterator@V?$basic_string@_WU?$char_traits@_W@std@@V?$K2StringAllocator@_W@@@std@@V?$K2VectorAllocator@V?$basic_string@_WU?$char_traits@_W@std@@V?$K2StringAllocator@_W@@@std@@@@@std@@QAE@PAV?$basic_string@_WU?$char_traits@_W@std@@V?$K2StringAllocator@_W@@@1@PBV_Container_base@1@@Z 1902e950 f i mv_main.obj
 0002:00014a50       ?_Adopt@_Iterator_base@std@@QAEXPBV_Container_base@2@@Z 1902ea50 f i mv_main.obj
 0002:00014b20       ??9?$_Vector_const_iterator@V?$basic_string@_WU?$char_traits@_W@std@@V?$K2StringAllocator@_W@@@std@@V?$K2VectorAllocator@V?$basic_string@_WU?$char_traits@_W@std@@V?$K2StringAllocator@_W@@@std@@@@@std@@QBE_NABV01@@Z 1902eb20 f i mv_main.obj
 0002:00014b60       ??C?$_Vector_const_iterator@USAnimEventCmd@@V?$K2VectorAllocator@USAnimEventCmd@@@@@std@@QBEPBUSAnimEventCmd@@XZ 1902eb60 f i mv_main.obj
 0002:00014b90       ??E?$_Vector_const_iterator@USAnimEventCmd@@V?$K2VectorAllocator@USAnimEventCmd@@@@@std@@QAEAAV01@XZ 1902eb90 f i mv_main.obj
 0002:00014c80       ??9?$_Vector_const_iterator@USAnimEventCmd@@V?$K2VectorAllocator@USAnimEventCmd@@@@@std@@QBE_NABV01@@Z 1902ec80 f i mv_main.obj
 0002:00014cc0       ??Cconst_iterator@?$_Tree@V?$_Tmap_traits@V?$basic_string@_WU?$char_traits@_W@std@@V?$K2StringAllocator@_W@@@std@@PAVIEffectInstance@@U?$less@V?$basic_string@_WU?$char_traits@_W@std@@V?$K2StringAllocator@_W@@@std@@@2@V?$K2MapAllocator@U?$pair@$$CBV?$basic_string@_WU?$char_traits@_W@std@@V?$K2StringAllocator@_W@@@std@@PAVIEffectInstance@@@std@@@@$0A@@std@@@std@@QBEPBU?$pair@$$CBV?$basic_string@_WU?$char_traits@_W@std@@V?$K2StringAllocator@_W@@@std@@PAVIEffectInstance@@@2@XZ 1902ecc0 f i mv_main.obj
 0002:00014cf0       ??Econst_iterator@?$_Tree@V?$_Tmap_traits@V?$basic_string@_WU?$char_traits@_W@std@@V?$K2StringAllocator@_W@@@std@@PAVIEffectInstance@@U?$less@V?$basic_string@_WU?$char_traits@_W@std@@V?$K2StringAllocator@_W@@@std@@@2@V?$K2MapAllocator@U?$pair@$$CBV?$basic_string@_WU?$char_traits@_W@std@@V?$K2StringAllocator@_W@@@std@@PAVIEffectInstance@@@std@@@@$0A@@std@@@std@@QAEAAV012@XZ 1902ecf0 f i mv_main.obj
 0002:00014d20       ??9const_iterator@?$_Tree@V?$_Tmap_traits@V?$basic_string@_WU?$char_traits@_W@std@@V?$K2StringAllocator@_W@@@std@@PAVIEffectInstance@@U?$less@V?$basic_string@_WU?$char_traits@_W@std@@V?$K2StringAllocator@_W@@@std@@@2@V?$K2MapAllocator@U?$pair@$$CBV?$basic_string@_WU?$char_traits@_W@std@@V?$K2StringAllocator@_W@@@std@@PAVIEffectInstance@@@std@@@@$0A@@std@@@std@@QBE_NABV012@@Z 1902ed20 f i mv_main.obj
 0002:00014d60       ??0?$pair@II@std@@QAE@ABI0@Z 1902ed60 f i mv_main.obj
 0002:00014da0       ??0?$vector@FV?$K2VectorAllocator@F@@@@QAE@I@Z 1902eda0 f i mv_main.obj
 0002:00014dd0       ??1?$vector@FV?$K2VectorAllocator@F@@@std@@QAE@XZ 1902edd0 f i mv_main.obj
 0002:00014e50       ??A?$vector@FV?$K2VectorAllocator@F@@@std@@QAEAAFI@Z 1902ee50 f i mv_main.obj
 0002:00014f70       ??0?$pair@HH@std@@QAE@XZ   1902ef70 f i mv_main.obj
 0002:00014fb0       ??0?$pair@HH@std@@QAE@ABH0@Z 1902efb0 f i mv_main.obj
 0002:00014ff0       ??C?$_Vector_iterator@U?$pair@HH@std@@V?$K2VectorAllocator@U?$pair@HH@std@@@@@std@@QBEPAU?$pair@HH@1@XZ 1902eff0 f i mv_main.obj
 0002:00015020       ??E?$_Vector_iterator@U?$pair@HH@std@@V?$K2VectorAllocator@U?$pair@HH@std@@@@@std@@QAEAAV01@XZ 1902f020 f i mv_main.obj
 0002:00015050       ??H?$_Vector_iterator@U?$pair@HH@std@@V?$K2VectorAllocator@U?$pair@HH@std@@@@@std@@QBE?AV01@H@Z 1902f050 f i mv_main.obj
 0002:00015100       ??9?$_Vector_const_iterator@U?$pair@HH@std@@V?$K2VectorAllocator@U?$pair@HH@std@@@@@std@@QBE_NABV01@@Z 1902f100 f i mv_main.obj
 0002:00015140       ??1?$_Vector_val@HV?$K2VectorAllocator@H@@@std@@QAE@XZ 1902f140 f i mv_main.obj
 0002:000151c0       ??1?$_Vector_iterator@HV?$K2VectorAllocator@H@@@std@@QAE@XZ 1902f1c0 f i mv_main.obj
 0002:000151f0       ??1?$_Vector_val@U?$pair@II@std@@V?$K2VectorAllocator@U?$pair@II@std@@@@@std@@QAE@XZ 1902f1f0 f i mv_main.obj
 0002:00015270       ??1?$_Vector_val@U?$pair@HH@std@@V?$K2VectorAllocator@U?$pair@HH@std@@@@@std@@QAE@XZ 1902f270 f i mv_main.obj
 0002:000152f0       ??1?$_Vector_val@FV?$K2VectorAllocator@F@@@std@@QAE@XZ 1902f2f0 f i mv_main.obj
 0002:00015370       ??0?$_Vector_iterator@U?$pair@HH@std@@V?$K2VectorAllocator@U?$pair@HH@std@@@@@std@@QAE@ABV01@@Z 1902f370 f i mv_main.obj
 0002:000153a0       ??1?$_Vector_const_iterator@HV?$K2VectorAllocator@H@@@std@@QAE@XZ 1902f3a0 f i mv_main.obj
 0002:000153d0       ??0length_error@std@@QAE@ABV01@@Z 1902f3d0 f i mv_main.obj
 0002:00015410       ??0?$_Ranit@V?$basic_string@_WU?$char_traits@_W@std@@V?$K2StringAllocator@_W@@@std@@HPBV12@ABV12@@std@@QAE@XZ 1902f410 f i mv_main.obj
 0002:00015440       ??0_Iterator_base@std@@QAE@XZ 1902f440 f i mv_main.obj
 0002:00015480       ??0?$_Vector_const_iterator@U?$pair@HH@std@@V?$K2VectorAllocator@U?$pair@HH@std@@@@@std@@QAE@ABV01@@Z 1902f480 f i mv_main.obj
 0002:000154c0       ??1?$_Ranit@HHPBHABH@std@@QAE@XZ 1902f4c0 f i mv_main.obj
 0002:000154f0       ??0?$K2VectorAllocator@V?$basic_string@_WU?$char_traits@_W@std@@V?$K2StringAllocator@_W@@@std@@@@QAE@ABV0@@Z 1902f4f0 f i mv_main.obj
 0002:00015520       ??0?$allocator@V?$basic_string@_WU?$char_traits@_W@std@@V?$K2StringAllocator@_W@@@std@@@std@@QAE@XZ 1902f520 f i mv_main.obj
 0002:00015540       ?max_size@?$allocator@V?$basic_string@_WU?$char_traits@_W@std@@V?$K2StringAllocator@_W@@@std@@@std@@QBEIXZ 1902f540 f i mv_main.obj
 0002:00015580       ??0?$_Ranit@U?$pair@HH@std@@HPBU12@ABU12@@std@@QAE@ABU01@@Z 1902f580 f i mv_main.obj
 0002:000155b0       ??0_Iterator_base@std@@QAE@ABV01@@Z 1902f5b0 f i mv_main.obj
 0002:00015600       ??4_Iterator_base@std@@QAEAAV01@ABV01@@Z 1902f600 f i mv_main.obj
 0002:000156b0       ??0?$vector@HV?$K2VectorAllocator@H@@@std@@QAE@XZ 1902f6b0 f i mv_main.obj
 0002:00015740       ?capacity@?$vector@HV?$K2VectorAllocator@H@@@std@@QBEIXZ 1902f740 f i mv_main.obj
 0002:00015790       ?end@?$vector@HV?$K2VectorAllocator@H@@@std@@QAE?AV?$_Vector_iterator@HV?$K2VectorAllocator@H@@@2@XZ 1902f790 f i mv_main.obj
 0002:000157e0       ?size@?$vector@HV?$K2VectorAllocator@H@@@std@@QBEIXZ 1902f7e0 f i mv_main.obj
 0002:00015830       ?insert@?$vector@HV?$K2VectorAllocator@H@@@std@@QAE?AV?$_Vector_iterator@HV?$K2VectorAllocator@H@@@2@V32@ABH@Z 1902f830 f i mv_main.obj
 0002:000159a0       ?_Tidy@?$vector@HV?$K2VectorAllocator@H@@@std@@IAEXXZ 1902f9a0 f i mv_main.obj
 0002:00015a40       ?_Ufill@?$vector@HV?$K2VectorAllocator@H@@@std@@IAEPAHPAHIABH@Z 1902fa40 f i mv_main.obj
 0002:00015a90       ?_Orphan_range@?$vector@HV?$K2VectorAllocator@H@@@std@@IBEXPAH0@Z 1902fa90 f i mv_main.obj
 0002:00015b30       ??1?$K2VectorAllocator@H@@QAE@XZ 1902fb30 f i mv_main.obj
 0002:00015b50       ??8?$_Vector_const_iterator@V?$basic_string@_WU?$char_traits@_W@std@@V?$K2StringAllocator@_W@@@std@@V?$K2VectorAllocator@V?$basic_string@_WU?$char_traits@_W@std@@V?$K2StringAllocator@_W@@@std@@@@@std@@QBE_NABV01@@Z 1902fb50 f i mv_main.obj
 0002:00015b90       ?_Compat@?$_Vector_const_iterator@V?$basic_string@_WU?$char_traits@_W@std@@V?$K2StringAllocator@_W@@@std@@V?$K2VectorAllocator@V?$basic_string@_WU?$char_traits@_W@std@@V?$K2StringAllocator@_W@@@std@@@@@std@@QBEXABV12@@Z 1902fb90 f i mv_main.obj
 0002:00015c40       ??0?$basic_string@_WU?$char_traits@_W@std@@V?$K2StringAllocator@_W@@@std@@QAE@ABV01@II@Z 1902fc40 f i mv_main.obj
 0002:00015d00       ?find_first_of@?$basic_string@_WU?$char_traits@_W@std@@V?$K2StringAllocator@_W@@@std@@QBEIPB_WII@Z 1902fd00 f i mv_main.obj
 0002:00015dd0       ??0?$allocator@V?$basic_string@_WU?$char_traits@_W@std@@V?$K2StringAllocator@_W@@@std@@@std@@QAE@ABV01@@Z 1902fdd0 f i mv_main.obj
 0002:00015df0       ?_Lmost@?$_Tree@V?$_Tmap_traits@V?$basic_string@_WU?$char_traits@_W@std@@V?$K2StringAllocator@_W@@@std@@PAVIEffectInstance@@U?$less@V?$basic_string@_WU?$char_traits@_W@std@@V?$K2StringAllocator@_W@@@std@@@2@V?$K2MapAllocator@U?$pair@$$CBV?$basic_string@_WU?$char_traits@_W@std@@V?$K2StringAllocator@_W@@@std@@PAVIEffectInstance@@@std@@@@$0A@@std@@@std@@IBEAAPAU_Node@?$_Tree_nod@V?$_Tmap_traits@V?$basic_string@_WU?$char_traits@_W@std@@V?$K2StringAllocator@_W@@@std@@PAVIEffectInstance@@U?$less@V?$basic_string@_WU?$char_traits@_W@std@@V?$K2StringAllocator@_W@@@std@@@2@V?$K2MapAllocator@U?$pair@$$CBV?$basic_string@_WU?$char_traits@_W@std@@V?$K2StringAllocator@_W@@@std@@PAVIEffectInstance@@@std@@@@$0A@@std@@@2@XZ 1902fdf0 f i mv_main.obj
 0002:00015e20       ??0?$vector@U?$pair@II@std@@V?$K2VectorAllocator@U?$pair@II@std@@@@@std@@QAE@I@Z 1902fe20 f i mv_main.obj
 0002:00015ec0       ?size@?$vector@U?$pair@II@std@@V?$K2VectorAllocator@U?$pair@II@std@@@@@std@@QBEIXZ 1902fec0 f i mv_main.obj
 0002:00015f10       ?_Tidy@?$vector@U?$pair@II@std@@V?$K2VectorAllocator@U?$pair@II@std@@@@@std@@IAEXXZ 1902ff10 f i mv_main.obj
 0002:00015fb0       ??1?$K2VectorAllocator@U?$pair@II@std@@@@QAE@XZ 1902ffb0 f i mv_main.obj
 0002:00015fd0       ??$DotProduct@M@@YAMABV?$CVec3@M@@0@Z 1902ffd0 f i mv_main.obj
 0002:00016020       ??$Normalize@M@@YA?AV?$CVec3@M@@ABV0@@Z 19030020 f i mv_main.obj
 0002:00016110       ?sqrt@@YAMM@Z              19030110 f i mv_main.obj
 0002:00016140       _sqrtf                     19030140 f i mv_main.obj
 0002:00016170       ??0?$vector@U?$pair@HH@std@@V?$K2VectorAllocator@U?$pair@HH@std@@@@@std@@QAE@XZ 19030170 f i mv_main.obj
 0002:00016200       ?capacity@?$vector@U?$pair@HH@std@@V?$K2VectorAllocator@U?$pair@HH@std@@@@@std@@QBEIXZ 19030200 f i mv_main.obj
 0002:00016250       ?size@?$vector@U?$pair@HH@std@@V?$K2VectorAllocator@U?$pair@HH@std@@@@@std@@QBEIXZ 19030250 f i mv_main.obj
 0002:000162a0       ?insert@?$vector@U?$pair@HH@std@@V?$K2VectorAllocator@U?$pair@HH@std@@@@@std@@QAE?AV?$_Vector_iterator@U?$pair@HH@std@@V?$K2VectorAllocator@U?$pair@HH@std@@@@@2@V32@ABU?$pair@HH@2@@Z 190302a0 f i mv_main.obj
 0002:00016410       ??$_CompareNoCase@V?$basic_string@_WU?$char_traits@_W@std@@V?$K2StringAllocator@_W@@@std@@@@YAHABV?$basic_string@_WU?$char_traits@_W@std@@V?$K2StringAllocator@_W@@@std@@0@Z 19030410 f i mv_main.obj
 0002:000166d0       ??1?$_String_const_iterator@_WU?$char_traits@_W@std@@V?$K2StringAllocator@_W@@@std@@QAE@XZ 190306d0 f i mv_main.obj
 0002:00016700       ??1?$_Ranit_base@_WHPB_WAB_WV_Iterator_base@std@@@std@@QAE@XZ 19030700 f i mv_main.obj
 0002:00016730       ?begin@?$basic_string@_WU?$char_traits@_W@std@@V?$K2StringAllocator@_W@@@std@@QBE?AV?$_String_const_iterator@_WU?$char_traits@_W@std@@V?$K2StringAllocator@_W@@@2@XZ 19030730 f i mv_main.obj
 0002:00016780       ?end@?$basic_string@_WU?$char_traits@_W@std@@V?$K2StringAllocator@_W@@@std@@QBE?AV?$_String_const_iterator@_WU?$char_traits@_W@std@@V?$K2StringAllocator@_W@@@2@XZ 19030780 f i mv_main.obj
 0002:000167e0       ??D?$_String_const_iterator@_WU?$char_traits@_W@std@@V?$K2StringAllocator@_W@@@std@@QBEAB_WXZ 190307e0 f i mv_main.obj
 0002:000168c0       ??E?$_String_const_iterator@_WU?$char_traits@_W@std@@V?$K2StringAllocator@_W@@@std@@QAEAAV01@XZ 190308c0 f i mv_main.obj
 0002:000169e0       ??8?$_String_const_iterator@_WU?$char_traits@_W@std@@V?$K2StringAllocator@_W@@@std@@QBE_NABV01@@Z 190309e0 f i mv_main.obj
 0002:00016a20       ??9?$_String_const_iterator@_WU?$char_traits@_W@std@@V?$K2StringAllocator@_W@@@std@@QBE_NABV01@@Z 19030a20 f i mv_main.obj
 0002:00016a60       ??0?$_String_const_iterator@_WU?$char_traits@_W@std@@V?$K2StringAllocator@_W@@@std@@QAE@PB_WPBV_Container_base@1@@Z 19030a60 f i mv_main.obj
 0002:00016b80       ??0?$_Ranit_base@_WHPB_WAB_WV_Iterator_base@std@@@std@@QAE@XZ 19030b80 f i mv_main.obj
 0002:00016bb0       ?_Compat@?$_String_const_iterator@_WU?$char_traits@_W@std@@V?$K2StringAllocator@_W@@@std@@QBEXABV12@@Z 19030bb0 f i mv_main.obj
 0002:00016c60       ?clear@?$vector@U?$pair@HH@std@@V?$K2VectorAllocator@U?$pair@HH@std@@@@@std@@QAEXXZ 19030c60 f i mv_main.obj
 0002:00016d20       ?_Buy@?$vector@U?$pair@HH@std@@V?$K2VectorAllocator@U?$pair@HH@std@@@@@std@@IAE_NI@Z 19030d20 f i mv_main.obj
 0002:00016dd0       ??$?H_WU?$char_traits@_W@std@@V?$K2StringAllocator@_W@@@std@@YA?AV?$basic_string@_WU?$char_traits@_W@std@@V?$K2StringAllocator@_W@@@0@PB_WABV10@@Z 19030dd0 f i mv_main.obj
 0002:00016e80       ??Y?$basic_string@_WU?$char_traits@_W@std@@V?$K2StringAllocator@_W@@@std@@QAEAAV01@ABV01@@Z 19030e80 f i mv_main.obj
 0002:00016eb0       ?append@?$basic_string@_WU?$char_traits@_W@std@@V?$K2StringAllocator@_W@@@std@@QAEAAV12@ABV12@@Z 19030eb0 f i mv_main.obj
 0002:00016ef0       ?append@?$basic_string@_WU?$char_traits@_W@std@@V?$K2StringAllocator@_W@@@std@@QAEAAV12@ABV12@II@Z 19030ef0 f i mv_main.obj
 0002:00017010       ??$?H_WU?$char_traits@_W@std@@V?$K2StringAllocator@_W@@@std@@YA?AV?$basic_string@_WU?$char_traits@_W@std@@V?$K2StringAllocator@_W@@@0@ABV10@PB_W@Z 19031010 f i mv_main.obj
 0002:000170c0       ??Y?$basic_string@_WU?$char_traits@_W@std@@V?$K2StringAllocator@_W@@@std@@QAEAAV01@PB_W@Z 190310c0 f i mv_main.obj
 0002:000170f0       ?append@?$basic_string@_WU?$char_traits@_W@std@@V?$K2StringAllocator@_W@@@std@@QAEAAV12@PB_W@Z 190310f0 f i mv_main.obj
 0002:00017130       ?_Destroy@?$vector@U?$pair@HH@std@@V?$K2VectorAllocator@U?$pair@HH@std@@@@@std@@IAEXPAU?$pair@HH@2@0@Z 19031130 f i mv_main.obj
 0002:00017170       ?_Tidy@?$vector@U?$pair@HH@std@@V?$K2VectorAllocator@U?$pair@HH@std@@@@@std@@IAEXXZ 19031170 f i mv_main.obj
 0002:00017210       ?_Ufill@?$vector@U?$pair@HH@std@@V?$K2VectorAllocator@U?$pair@HH@std@@@@@std@@IAEPAU?$pair@HH@2@PAU32@IABU32@@Z 19031210 f i mv_main.obj
 0002:00017260       ?_Orphan_range@?$vector@U?$pair@HH@std@@V?$K2VectorAllocator@U?$pair@HH@std@@@@@std@@IBEXPAU?$pair@HH@2@0@Z 19031260 f i mv_main.obj
 0002:00017300       ??1?$K2VectorAllocator@U?$pair@HH@std@@@@QAE@XZ 19031300 f i mv_main.obj
 0002:00017320       ?deallocate@?$K2VectorAllocator@U?$pair@HH@std@@@@QAEXPAU?$pair@HH@std@@I@Z 19031320 f i mv_main.obj
 0002:00017360       ??$_ItoW@H@@YA?AV?$basic_string@_WU?$char_traits@_W@std@@V?$K2StringAllocator@_W@@@std@@HHHH@Z 19031360 f i mv_main.obj
 0002:00017460       ??$_UItoW@I@@YA?AV?$basic_string@_WU?$char_traits@_W@std@@V?$K2StringAllocator@_W@@@std@@IHHH@Z 19031460 f i mv_main.obj
 0002:00017540       ??$?H_WU?$char_traits@_W@std@@V?$K2StringAllocator@_W@@@std@@YA?AV?$basic_string@_WU?$char_traits@_W@std@@V?$K2StringAllocator@_W@@@0@ABV10@0@Z 19031540 f i mv_main.obj
 0002:000175f0       ??$?9_WU?$char_traits@_W@std@@V?$K2StringAllocator@_W@@@std@@YA_NABV?$basic_string@_WU?$char_traits@_W@std@@V?$K2StringAllocator@_W@@@0@0@Z 190315f0 f i mv_main.obj
 0002:00017630       ??$?8_WU?$char_traits@_W@std@@V?$K2StringAllocator@_W@@@std@@YA_NABV?$basic_string@_WU?$char_traits@_W@std@@V?$K2StringAllocator@_W@@@0@0@Z 19031630 f i mv_main.obj
 0002:00017660       ?compare@?$basic_string@_WU?$char_traits@_W@std@@V?$K2StringAllocator@_W@@@std@@QBEHABV12@@Z 19031660 f i mv_main.obj
 0002:000176b0       ?compare@?$basic_string@_WU?$char_traits@_W@std@@V?$K2StringAllocator@_W@@@std@@QBEHIIPB_WI@Z 190316b0 f i mv_main.obj
 0002:000177b0       ??$_Destroy_range@V?$basic_string@_WU?$char_traits@_W@std@@V?$K2StringAllocator@_W@@@std@@V?$K2VectorAllocator@V?$basic_string@_WU?$char_traits@_W@std@@V?$K2StringAllocator@_W@@@std@@@@@std@@YAXPAV?$basic_string@_WU?$char_traits@_W@std@@V?$K2StringAllocator@_W@@@0@0AAV?$K2VectorAllocator@V?$basic_string@_WU?$char_traits@_W@std@@V?$K2StringAllocator@_W@@@std@@@@@Z 190317b0 f i mv_main.obj
 0002:00017800       ??0?$_Vector_const_iterator@USAnimEventCmd@@V?$K2VectorAllocator@USAnimEventCmd@@@@@std@@QAE@PAUSAnimEventCmd@@PBV_Container_base@1@@Z 19031800 f i mv_main.obj
 0002:00017900       ??D?$_Vector_const_iterator@USAnimEventCmd@@V?$K2VectorAllocator@USAnimEventCmd@@@@@std@@QBEABUSAnimEventCmd@@XZ 19031900 f i mv_main.obj
 0002:000179c0       ??8?$_Vector_const_iterator@USAnimEventCmd@@V?$K2VectorAllocator@USAnimEventCmd@@@@@std@@QBE_NABV01@@Z 190319c0 f i mv_main.obj
 0002:00017a00       ??0const_iterator@?$_Tree@V?$_Tmap_traits@V?$basic_string@_WU?$char_traits@_W@std@@V?$K2StringAllocator@_W@@@std@@PAVIEffectInstance@@U?$less@V?$basic_string@_WU?$char_traits@_W@std@@V?$K2StringAllocator@_W@@@std@@@2@V?$K2MapAllocator@U?$pair@$$CBV?$basic_string@_WU?$char_traits@_W@std@@V?$K2StringAllocator@_W@@@std@@PAVIEffectInstance@@@std@@@@$0A@@std@@@std@@QAE@PAU_Node@?$_Tree_nod@V?$_Tmap_traits@V?$basic_string@_WU?$char_traits@_W@std@@V?$K2StringAllocator@_W@@@std@@PAVIEffectInstance@@U?$less@V?$basic_string@_WU?$char_traits@_W@std@@V?$K2StringAllocator@_W@@@std@@@2@V?$K2MapAllocator@U?$pair@$$CBV?$basic_string@_WU?$char_traits@_W@std@@V?$K2StringAllocator@_W@@@std@@PAVIEffectInstance@@@std@@@@$0A@@std@@@2@PBV12@@Z 19031a00 f i mv_main.obj
 0002:00017a90       ??Dconst_iterator@?$_Tree@V?$_Tmap_traits@V?$basic_string@_WU?$char_traits@_W@std@@V?$K2StringAllocator@_W@@@std@@PAVIEffectInstance@@U?$less@V?$basic_string@_WU?$char_traits@_W@std@@V?$K2StringAllocator@_W@@@std@@@2@V?$K2MapAllocator@U?$pair@$$CBV?$basic_string@_WU?$char_traits@_W@std@@V?$K2StringAllocator@_W@@@std@@PAVIEffectInstance@@@std@@@@$0A@@std@@@std@@QBEABU?$pair@$$CBV?$basic_string@_WU?$char_traits@_W@std@@V?$K2StringAllocator@_W@@@std@@PAVIEffectInstance@@@2@XZ 19031a90 f i mv_main.obj
 0002:00017b50       ??8const_iterator@?$_Tree@V?$_Tmap_traits@V?$basic_string@_WU?$char_traits@_W@std@@V?$K2StringAllocator@_W@@@std@@PAVIEffectInstance@@U?$less@V?$basic_string@_WU?$char_traits@_W@std@@V?$K2StringAllocator@_W@@@std@@@2@V?$K2MapAllocator@U?$pair@$$CBV?$basic_string@_WU?$char_traits@_W@std@@V?$K2StringAllocator@_W@@@std@@PAVIEffectInstance@@@std@@@@$0A@@std@@@std@@QBE_NABV012@@Z 19031b50 f i mv_main.obj
 0002:00017c10       ?_Inc@const_iterator@?$_Tree@V?$_Tmap_traits@V?$basic_string@_WU?$char_traits@_W@std@@V?$K2StringAllocator@_W@@@std@@PAVIEffectInstance@@U?$less@V?$basic_string@_WU?$char_traits@_W@std@@V?$K2StringAllocator@_W@@@std@@@2@V?$K2MapAllocator@U?$pair@$$CBV?$basic_string@_WU?$char_traits@_W@std@@V?$K2StringAllocator@_W@@@std@@PAVIEffectInstance@@@std@@@@$0A@@std@@@std@@QAEXXZ 19031c10 f i mv_main.obj
 0002:00017d80       ??0?$vector@FV?$K2VectorAllocator@F@@@std@@QAE@I@Z 19031d80 f i mv_main.obj
 0002:00017e20       ?size@?$vector@FV?$K2VectorAllocator@F@@@std@@QBEIXZ 19031e20 f i mv_main.obj
 0002:00017e70       ?_Tidy@?$vector@FV?$K2VectorAllocator@F@@@std@@IAEXXZ 19031e70 f i mv_main.obj
 0002:00017f10       ??1?$K2VectorAllocator@F@@QAE@XZ 19031f10 f i mv_main.obj
 0002:00017f30       ??0?$_Vector_iterator@U?$pair@HH@std@@V?$K2VectorAllocator@U?$pair@HH@std@@@@@std@@QAE@PAU?$pair@HH@1@PBV_Container_base@1@@Z 19031f30 f i mv_main.obj
 0002:00017f70       ??D?$_Vector_iterator@U?$pair@HH@std@@V?$K2VectorAllocator@U?$pair@HH@std@@@@@std@@QBEAAU?$pair@HH@1@XZ 19031f70 f i mv_main.obj
 0002:00017fa0       ??Y?$_Vector_iterator@U?$pair@HH@std@@V?$K2VectorAllocator@U?$pair@HH@std@@@@@std@@QAEAAV01@H@Z 19031fa0 f i mv_main.obj
 0002:00017fd0       ??E?$_Vector_const_iterator@U?$pair@HH@std@@V?$K2VectorAllocator@U?$pair@HH@std@@@@@std@@QAEAAV01@XZ 19031fd0 f i mv_main.obj
 0002:000180c0       ??8?$_Vector_const_iterator@U?$pair@HH@std@@V?$K2VectorAllocator@U?$pair@HH@std@@@@@std@@QBE_NABV01@@Z 190320c0 f i mv_main.obj
 0002:00018100       ??0?$_Vector_iterator@HV?$K2VectorAllocator@H@@@std@@QAE@ABV01@@Z 19032100 f i mv_main.obj
 0002:00018130       ??_ECEntitySnapshot@@QAEPAXI@Z 19032130 f i mv_main.obj
 0002:000181d0       ??_ECPath@@QAEPAXI@Z       190321d0 f i mv_main.obj
 0002:00018270       ??0?$_Ranit@USAnimEventCmd@@HPBU1@ABU1@@std@@QAE@XZ 19032270 f i mv_main.obj
 0002:000182a0       ??0?$_Bidit@U?$pair@$$CBV?$basic_string@_WU?$char_traits@_W@std@@V?$K2StringAllocator@_W@@@std@@PAVIEffectInstance@@@std@@HPBU12@ABU12@@std@@QAE@XZ 190322a0 f i mv_main.obj
 0002:000182d0       ??0?$_Vector_const_iterator@HV?$K2VectorAllocator@H@@@std@@QAE@ABV01@@Z 190322d0 f i mv_main.obj
 0002:00018310       ??0?$_Ranit@HHPBHABH@std@@QAE@ABU01@@Z 19032310 f i mv_main.obj
 0002:00018340       ?begin@?$vector@HV?$K2VectorAllocator@H@@@std@@QAE?AV?$_Vector_iterator@HV?$K2VectorAllocator@H@@@2@XZ 19032340 f i mv_main.obj
 0002:00018390       ?_Buy@?$vector@HV?$K2VectorAllocator@H@@@std@@IAE_NI@Z 19032390 f i mv_main.obj
 0002:00018440       ?_Destroy@?$vector@HV?$K2VectorAllocator@H@@@std@@IAEXPAH0@Z 19032440 f i mv_main.obj
 0002:00018480       ?_Insert_n@?$vector@HV?$K2VectorAllocator@H@@@std@@IAEXV?$_Vector_iterator@HV?$K2VectorAllocator@H@@@2@IABH@Z 19032480 f i mv_main.obj
 0002:00018930       ??0?$_Vector_val@HV?$K2VectorAllocator@H@@@std@@IAE@V?$K2VectorAllocator@H@@@Z 19032930 f i mv_main.obj
 0002:000189d0       ??0?$K2VectorAllocator@H@@QAE@XZ 190329d0 f i mv_main.obj
 0002:00018a00       ?deallocate@?$K2VectorAllocator@H@@QAEXPAHI@Z 19032a00 f i mv_main.obj
 0002:00018a40       ?append@?$basic_string@_WU?$char_traits@_W@std@@V?$K2StringAllocator@_W@@@std@@QAEAAV12@PB_WI@Z 19032a40 f i mv_main.obj
 0002:00018b50       ?_Isnil@?$_Tree@V?$_Tmap_traits@V?$basic_string@_WU?$char_traits@_W@std@@V?$K2StringAllocator@_W@@@std@@PAVIEffectInstance@@U?$less@V?$basic_string@_WU?$char_traits@_W@std@@V?$K2StringAllocator@_W@@@std@@@2@V?$K2MapAllocator@U?$pair@$$CBV?$basic_string@_WU?$char_traits@_W@std@@V?$K2StringAllocator@_W@@@std@@PAVIEffectInstance@@@std@@@@$0A@@std@@@std@@KAAADPAU_Node@?$_Tree_nod@V?$_Tmap_traits@V?$basic_string@_WU?$char_traits@_W@std@@V?$K2StringAllocator@_W@@@std@@PAVIEffectInstance@@U?$less@V?$basic_string@_WU?$char_traits@_W@std@@V?$K2StringAllocator@_W@@@std@@@2@V?$K2MapAllocator@U?$pair@$$CBV?$basic_string@_WU?$char_traits@_W@std@@V?$K2StringAllocator@_W@@@std@@PAVIEffectInstance@@@std@@@@$0A@@std@@@2@@Z 19032b50 f i mv_main.obj
 0002:00018b70       ?_Left@?$_Tree@V?$_Tmap_traits@V?$basic_string@_WU?$char_traits@_W@std@@V?$K2StringAllocator@_W@@@std@@PAVIEffectInstance@@U?$less@V?$basic_string@_WU?$char_traits@_W@std@@V?$K2StringAllocator@_W@@@std@@@2@V?$K2MapAllocator@U?$pair@$$CBV?$basic_string@_WU?$char_traits@_W@std@@V?$K2StringAllocator@_W@@@std@@PAVIEffectInstance@@@std@@@@$0A@@std@@@std@@KAAAPAU_Node@?$_Tree_nod@V?$_Tmap_traits@V?$basic_string@_WU?$char_traits@_W@std@@V?$K2StringAllocator@_W@@@std@@PAVIEffectInstance@@U?$less@V?$basic_string@_WU?$char_traits@_W@std@@V?$K2StringAllocator@_W@@@std@@@2@V?$K2MapAllocator@U?$pair@$$CBV?$basic_string@_WU?$char_traits@_W@std@@V?$K2StringAllocator@_W@@@std@@PAVIEffectInstance@@@std@@@@$0A@@std@@@2@PAU342@@Z 19032b70 f i mv_main.obj
 0002:00018b90       ?_Parent@?$_Tree@V?$_Tmap_traits@V?$basic_string@_WU?$char_traits@_W@std@@V?$K2StringAllocator@_W@@@std@@PAVIEffectInstance@@U?$less@V?$basic_string@_WU?$char_traits@_W@std@@V?$K2StringAllocator@_W@@@std@@@2@V?$K2MapAllocator@U?$pair@$$CBV?$basic_string@_WU?$char_traits@_W@std@@V?$K2StringAllocator@_W@@@std@@PAVIEffectInstance@@@std@@@@$0A@@std@@@std@@KAAAPAU_Node@?$_Tree_nod@V?$_Tmap_traits@V?$basic_string@_WU?$char_traits@_W@std@@V?$K2StringAllocator@_W@@@std@@PAVIEffectInstance@@U?$less@V?$basic_string@_WU?$char_traits@_W@std@@V?$K2StringAllocator@_W@@@std@@@2@V?$K2MapAllocator@U?$pair@$$CBV?$basic_string@_WU?$char_traits@_W@std@@V?$K2StringAllocator@_W@@@std@@PAVIEffectInstance@@@std@@@@$0A@@std@@@2@PAU342@@Z 19032b90 f i mv_main.obj
 0002:00018bb0       ?_Right@?$_Tree@V?$_Tmap_traits@V?$basic_string@_WU?$char_traits@_W@std@@V?$K2StringAllocator@_W@@@std@@PAVIEffectInstance@@U?$less@V?$basic_string@_WU?$char_traits@_W@std@@V?$K2StringAllocator@_W@@@std@@@2@V?$K2MapAllocator@U?$pair@$$CBV?$basic_string@_WU?$char_traits@_W@std@@V?$K2StringAllocator@_W@@@std@@PAVIEffectInstance@@@std@@@@$0A@@std@@@std@@KAAAPAU_Node@?$_Tree_nod@V?$_Tmap_traits@V?$basic_string@_WU?$char_traits@_W@std@@V?$K2StringAllocator@_W@@@std@@PAVIEffectInstance@@U?$less@V?$basic_string@_WU?$char_traits@_W@std@@V?$K2StringAllocator@_W@@@std@@@2@V?$K2MapAllocator@U?$pair@$$CBV?$basic_string@_WU?$char_traits@_W@std@@V?$K2StringAllocator@_W@@@std@@PAVIEffectInstance@@@std@@@@$0A@@std@@@2@PAU342@@Z 19032bb0 f i mv_main.obj
 0002:00018bd0       ?_Myval@?$_Tree@V?$_Tmap_traits@V?$basic_string@_WU?$char_traits@_W@std@@V?$K2StringAllocator@_W@@@std@@PAVIEffectInstance@@U?$less@V?$basic_string@_WU?$char_traits@_W@std@@V?$K2StringAllocator@_W@@@std@@@2@V?$K2MapAllocator@U?$pair@$$CBV?$basic_string@_WU?$char_traits@_W@std@@V?$K2StringAllocator@_W@@@std@@PAVIEffectInstance@@@std@@@@$0A@@std@@@std@@KAAAU?$pair@$$CBV?$basic_string@_WU?$char_traits@_W@std@@V?$K2StringAllocator@_W@@@std@@PAVIEffectInstance@@@2@PAU_Node@?$_Tree_nod@V?$_Tmap_traits@V?$basic_string@_WU?$char_traits@_W@std@@V?$K2StringAllocator@_W@@@std@@PAVIEffectInstance@@U?$less@V?$basic_string@_WU?$char_traits@_W@std@@V?$K2StringAllocator@_W@@@std@@@2@V?$K2MapAllocator@U?$pair@$$CBV?$basic_string@_WU?$char_traits@_W@std@@V?$K2StringAllocator@_W@@@std@@PAVIEffectInstance@@@std@@@@$0A@@std@@@2@@Z 19032bd0 f i mv_main.obj
 0002:00018bf0       ?_Min@?$_Tree@V?$_Tmap_traits@V?$basic_string@_WU?$char_traits@_W@std@@V?$K2StringAllocator@_W@@@std@@PAVIEffectInstance@@U?$less@V?$basic_string@_WU?$char_traits@_W@std@@V?$K2StringAllocator@_W@@@std@@@2@V?$K2MapAllocator@U?$pair@$$CBV?$basic_string@_WU?$char_traits@_W@std@@V?$K2StringAllocator@_W@@@std@@PAVIEffectInstance@@@std@@@@$0A@@std@@@std@@KAPAU_Node@?$_Tree_nod@V?$_Tmap_traits@V?$basic_string@_WU?$char_traits@_W@std@@V?$K2StringAllocator@_W@@@std@@PAVIEffectInstance@@U?$less@V?$basic_string@_WU?$char_traits@_W@std@@V?$K2StringAllocator@_W@@@std@@@2@V?$K2MapAllocator@U?$pair@$$CBV?$basic_string@_WU?$char_traits@_W@std@@V?$K2StringAllocator@_W@@@std@@PAVIEffectInstance@@@std@@@@$0A@@std@@@2@PAU342@@Z 19032bf0 f i mv_main.obj
 0002:00018c50       ?_Construct_n@?$vector@U?$pair@II@std@@V?$K2VectorAllocator@U?$pair@II@std@@@@@std@@QAEXIABU?$pair@II@2@@Z 19032c50 f i mv_main.obj
 0002:00018d20       ?_Destroy@?$vector@U?$pair@II@std@@V?$K2VectorAllocator@U?$pair@II@std@@@@@std@@IAEXPAU?$pair@II@2@0@Z 19032d20 f i mv_main.obj
 0002:00018d60       ??0?$_Vector_val@U?$pair@II@std@@V?$K2VectorAllocator@U?$pair@II@std@@@@@std@@IAE@V?$K2VectorAllocator@U?$pair@II@std@@@@@Z 19032d60 f i mv_main.obj
 0002:00018e00       ??0?$K2VectorAllocator@U?$pair@II@std@@@@QAE@XZ 19032e00 f i mv_main.obj
 0002:00018e30       ?deallocate@?$K2VectorAllocator@U?$pair@II@std@@@@QAEXPAU?$pair@II@std@@I@Z 19032e30 f i mv_main.obj
 0002:00018e70       ?max_size@?$vector@U?$pair@HH@std@@V?$K2VectorAllocator@U?$pair@HH@std@@@@@std@@QBEIXZ 19032e70 f i mv_main.obj
 0002:00018ea0       ?erase@?$vector@U?$pair@HH@std@@V?$K2VectorAllocator@U?$pair@HH@std@@@@@std@@QAE?AV?$_Vector_iterator@U?$pair@HH@std@@V?$K2VectorAllocator@U?$pair@HH@std@@@@@2@V32@0@Z 19032ea0 f i mv_main.obj
 0002:00019020       ?_Insert_n@?$vector@U?$pair@HH@std@@V?$K2VectorAllocator@U?$pair@HH@std@@@@@std@@IAEXV?$_Vector_iterator@U?$pair@HH@std@@V?$K2VectorAllocator@U?$pair@HH@std@@@@@2@IABU?$pair@HH@2@@Z 19033020 f i mv_main.obj
 0002:000194e0       ?_Xlen@?$vector@U?$pair@HH@std@@V?$K2VectorAllocator@U?$pair@HH@std@@@@@std@@KAXXZ 190334e0 f i mv_main.obj
 0002:00019590       ??0?$_Vector_val@U?$pair@HH@std@@V?$K2VectorAllocator@U?$pair@HH@std@@@@@std@@IAE@V?$K2VectorAllocator@U?$pair@HH@std@@@@@Z 19033590 f i mv_main.obj
 0002:00019630       ??0?$K2VectorAllocator@U?$pair@HH@std@@@@QAE@XZ 19033630 f i mv_main.obj
 0002:00019660       ?allocate@?$K2VectorAllocator@U?$pair@HH@std@@@@QAEPAU?$pair@HH@std@@I@Z 19033660 f i mv_main.obj
 0002:000196b0       ?_Compat@?$_Vector_const_iterator@USAnimEventCmd@@V?$K2VectorAllocator@USAnimEventCmd@@@@@std@@QBEXABV12@@Z 190336b0 f i mv_main.obj
 0002:00019760       ??0?$pair@II@std@@QAE@XZ   19033760 f i mv_main.obj
 0002:000197a0       ?_Construct_n@?$vector@FV?$K2VectorAllocator@F@@@std@@QAEXIABF@Z 190337a0 f i mv_main.obj
 0002:00019870       ?_Destroy@?$vector@FV?$K2VectorAllocator@F@@@std@@IAEXPAF0@Z 19033870 f i mv_main.obj
 0002:000198b0       ??0?$_Vector_val@FV?$K2VectorAllocator@F@@@std@@IAE@V?$K2VectorAllocator@F@@@Z 190338b0 f i mv_main.obj
 0002:00019950       ??0?$K2VectorAllocator@F@@QAE@XZ 19033950 f i mv_main.obj
 0002:00019980       ?deallocate@?$K2VectorAllocator@F@@QAEXPAFI@Z 19033980 f i mv_main.obj
 0002:000199c0       ??G?$_Vector_iterator@U?$pair@HH@std@@V?$K2VectorAllocator@U?$pair@HH@std@@@@@std@@QBEHABV?$_Vector_const_iterator@U?$pair@HH@std@@V?$K2VectorAllocator@U?$pair@HH@std@@@@@1@@Z 190339c0 f i mv_main.obj
 0002:000199f0       ??0?$_Vector_const_iterator@U?$pair@HH@std@@V?$K2VectorAllocator@U?$pair@HH@std@@@@@std@@QAE@PAU?$pair@HH@1@PBV_Container_base@1@@Z 190339f0 f i mv_main.obj
 0002:00019af0       ??D?$_Vector_const_iterator@U?$pair@HH@std@@V?$K2VectorAllocator@U?$pair@HH@std@@@@@std@@QBEABU?$pair@HH@1@XZ 19033af0 f i mv_main.obj
 0002:00019bb0       ??Y?$_Vector_const_iterator@U?$pair@HH@std@@V?$K2VectorAllocator@U?$pair@HH@std@@@@@std@@QAEAAV01@H@Z 19033bb0 f i mv_main.obj
 0002:00019ce0       ?_Compat@?$_Vector_const_iterator@U?$pair@HH@std@@V?$K2VectorAllocator@U?$pair@HH@std@@@@@std@@QBEXABV12@@Z 19033ce0 f i mv_main.obj
 0002:00019d90       ??0?$_Vector_iterator@HV?$K2VectorAllocator@H@@@std@@QAE@PAHPBV_Container_base@1@@Z 19033d90 f i mv_main.obj
 0002:00019dd0       ??H?$_Vector_iterator@HV?$K2VectorAllocator@H@@@std@@QBE?AV01@H@Z 19033dd0 f i mv_main.obj
 0002:00019e80       ??G?$_Vector_iterator@HV?$K2VectorAllocator@H@@@std@@QBEHABV?$_Vector_const_iterator@HV?$K2VectorAllocator@H@@@1@@Z 19033e80 f i mv_main.obj
 0002:00019eb0       ??0?$_Ranit@U?$pair@HH@std@@HPBU12@ABU12@@std@@QAE@XZ 19033eb0 f i mv_main.obj
 0002:00019ee0       ?max_size@?$vector@HV?$K2VectorAllocator@H@@@std@@QBEIXZ 19033ee0 f i mv_main.obj
 0002:00019f10       ?_Xlen@?$vector@HV?$K2VectorAllocator@H@@@std@@KAXXZ 19033f10 f i mv_main.obj
 0002:00019fc0       ??0?$K2VectorAllocator@H@@QAE@ABV0@@Z 19033fc0 f i mv_main.obj
 0002:00019ff0       ?allocate@?$K2VectorAllocator@H@@QAEPAHI@Z 19033ff0 f i mv_main.obj
 0002:0001a040       ??0?$allocator@H@std@@QAE@XZ 19034040 f i mv_main.obj
 0002:0001a060       ??0?$allocator@F@std@@QAE@XZ 19034060 f i mv_main.obj
 0002:0001a080       ?_Buy@?$vector@U?$pair@II@std@@V?$K2VectorAllocator@U?$pair@II@std@@@@@std@@IAE_NI@Z 19034080 f i mv_main.obj
 0002:0001a130       ?_Ufill@?$vector@U?$pair@II@std@@V?$K2VectorAllocator@U?$pair@II@std@@@@@std@@IAEPAU?$pair@II@2@PAU32@IABU32@@Z 19034130 f i mv_main.obj
 0002:0001a180       ??0?$K2VectorAllocator@U?$pair@II@std@@@@QAE@ABV0@@Z 19034180 f i mv_main.obj
 0002:0001a1b0       ??0?$allocator@U?$pair@II@std@@@std@@QAE@XZ 190341b0 f i mv_main.obj
 0002:0001a1d0       ??0?$K2VectorAllocator@U?$pair@HH@std@@@@QAE@ABV0@@Z 190341d0 f i mv_main.obj
 0002:0001a200       ??0?$allocator@U?$pair@HH@std@@@std@@QAE@XZ 19034200 f i mv_main.obj
 0002:0001a220       ?max_size@?$allocator@U?$pair@HH@std@@@std@@QBEIXZ 19034220 f i mv_main.obj
 0002:0001a260       ?_Buy@?$vector@FV?$K2VectorAllocator@F@@@std@@IAE_NI@Z 19034260 f i mv_main.obj
 0002:0001a310       ?_Ufill@?$vector@FV?$K2VectorAllocator@F@@@std@@IAEPAFPAFIABF@Z 19034310 f i mv_main.obj
 0002:0001a360       ??0?$K2VectorAllocator@F@@QAE@ABV0@@Z 19034360 f i mv_main.obj
 0002:0001a390       ??G?$_Vector_const_iterator@U?$pair@HH@std@@V?$K2VectorAllocator@U?$pair@HH@std@@@@@std@@QBEHABV01@@Z 19034390 f i mv_main.obj
 0002:0001a3d0       ??M?$_Vector_const_iterator@U?$pair@HH@std@@V?$K2VectorAllocator@U?$pair@HH@std@@@@@std@@QBE_NABV01@@Z 190343d0 f i mv_main.obj
 0002:0001a410       ??Y?$_Vector_iterator@HV?$K2VectorAllocator@H@@@std@@QAEAAV01@H@Z 19034410 f i mv_main.obj
 0002:0001a440       ??0?$_Vector_const_iterator@HV?$K2VectorAllocator@H@@@std@@QAE@PAHPBV_Container_base@1@@Z 19034440 f i mv_main.obj
 0002:0001a540       ??G?$_Vector_const_iterator@HV?$K2VectorAllocator@H@@@std@@QBEHABV01@@Z 19034540 f i mv_main.obj
 0002:0001a580       ??0?$_Ranit@HHPBHABH@std@@QAE@XZ 19034580 f i mv_main.obj
 0002:0001a5b0       ??0?$allocator@H@std@@QAE@ABV01@@Z 190345b0 f i mv_main.obj
 0002:0001a5d0       ?max_size@?$allocator@H@std@@QBEIXZ 190345d0 f i mv_main.obj
 0002:0001a610       ??0?$allocator@F@std@@QAE@ABV01@@Z 19034610 f i mv_main.obj
 0002:0001a630       ?max_size@?$vector@U?$pair@II@std@@V?$K2VectorAllocator@U?$pair@II@std@@@@@std@@QBEIXZ 19034630 f i mv_main.obj
 0002:0001a660       ?_Xlen@?$vector@U?$pair@II@std@@V?$K2VectorAllocator@U?$pair@II@std@@@@@std@@KAXXZ 19034660 f i mv_main.obj
 0002:0001a710       ?allocate@?$K2VectorAllocator@U?$pair@II@std@@@@QAEPAU?$pair@II@std@@I@Z 19034710 f i mv_main.obj
 0002:0001a760       ??0?$allocator@U?$pair@II@std@@@std@@QAE@ABV01@@Z 19034760 f i mv_main.obj
 0002:0001a780       ??0?$allocator@U?$pair@HH@std@@@std@@QAE@ABV01@@Z 19034780 f i mv_main.obj
 0002:0001a7a0       ?max_size@?$vector@FV?$K2VectorAllocator@F@@@std@@QBEIXZ 190347a0 f i mv_main.obj
 0002:0001a7d0       ?_Xlen@?$vector@FV?$K2VectorAllocator@F@@@std@@KAXXZ 190347d0 f i mv_main.obj
 0002:0001a880       ?allocate@?$K2VectorAllocator@F@@QAEPAFI@Z 19034880 f i mv_main.obj
 0002:0001a8d0       ??Y?$_Vector_const_iterator@HV?$K2VectorAllocator@H@@@std@@QAEAAV01@H@Z 190348d0 f i mv_main.obj
 0002:0001aa00       ?_Compat@?$_Vector_const_iterator@HV?$K2VectorAllocator@H@@@std@@QBEXABV12@@Z 19034a00 f i mv_main.obj
 0002:0001aab0       ?max_size@?$allocator@F@std@@QBEIXZ 19034ab0 f i mv_main.obj
 0002:0001aaf0       ?max_size@?$allocator@U?$pair@II@std@@@std@@QBEIXZ 19034af0 f i mv_main.obj
 0002:0001ab30       ??$ABS@H@@YAHH@Z           19034b30 f i mv_main.obj
 0002:0001ab70       ??$_Ptr_cat@PAV?$basic_string@_WU?$char_traits@_W@std@@V?$K2StringAllocator@_W@@@std@@PAV12@@std@@YA?AU_Nonscalar_ptr_iterator_tag@0@AAPAV?$basic_string@_WU?$char_traits@_W@std@@V?$K2StringAllocator@_W@@@0@0@Z 19034b70 f i mv_main.obj
 0002:0001ab90       ??$_Destroy_range@V?$basic_string@_WU?$char_traits@_W@std@@V?$K2StringAllocator@_W@@@std@@V?$K2VectorAllocator@V?$basic_string@_WU?$char_traits@_W@std@@V?$K2StringAllocator@_W@@@std@@@@@std@@YAXPAV?$basic_string@_WU?$char_traits@_W@std@@V?$K2StringAllocator@_W@@@0@0AAV?$K2VectorAllocator@V?$basic_string@_WU?$char_traits@_W@std@@V?$K2StringAllocator@_W@@@std@@@@U_Nonscalar_ptr_iterator_tag@0@@Z 19034b90 f i mv_main.obj
 0002:0001abd0       ?destroy@?$allocator@V?$basic_string@_WU?$char_traits@_W@std@@V?$K2StringAllocator@_W@@@std@@@std@@QAEXPAV?$basic_string@_WU?$char_traits@_W@std@@V?$K2StringAllocator@_W@@@2@@Z 19034bd0 f i mv_main.obj
 0002:0001ac00       ??$_Destroy@V?$basic_string@_WU?$char_traits@_W@std@@V?$K2StringAllocator@_W@@@std@@@std@@YAXPAV?$basic_string@_WU?$char_traits@_W@std@@V?$K2StringAllocator@_W@@@0@@Z 19034c00 f i mv_main.obj
 0002:0001ac20       ??_G?$basic_string@_WU?$char_traits@_W@std@@V?$K2StringAllocator@_W@@@std@@QAEPAXI@Z 19034c20 f i mv_main.obj
 0002:0001ac70       ??$CEIL_MULTIPLE@$03@@YAII@Z 19034c70 f i mv_main.obj
 0002:0001ac90       ??$MAX@M@@YAABMABM0@Z      19034c90 f i mv_main.obj
 0002:0001ace0       ??$LERP@V?$CVec3@M@@@@YA?AV?$CVec3@M@@MV0@0@Z 19034ce0 f i mv_main.obj
 0002:0001ad50       ??$Distance@M@@YAMABV?$CVec3@M@@0@Z 19034d50 f i mv_main.obj
 0002:0001add0       ??$MIN@M@@YAABMABM0@Z      19034dd0 f i mv_main.obj
 0002:0001ae20       ??$sort@V?$_Vector_iterator@U?$pair@HH@std@@V?$K2VectorAllocator@U?$pair@HH@std@@@@@std@@VCAbs@@@std@@YAXV?$_Vector_iterator@U?$pair@HH@std@@V?$K2VectorAllocator@U?$pair@HH@std@@@@@0@0VCAbs@@@Z 19034e20 f i mv_main.obj
 0002:0001af80       ??$CEIL_MULTIPLE@$07@@YAII@Z 19034f80 f i mv_main.obj
 0002:0001afa0       ??$unchecked_copy@PAU?$pair@HH@std@@PAU12@@stdext@@YAPAU?$pair@HH@std@@PAU12@00@Z 19034fa0 f i mv_main.obj
 0002:0001b030       ??$_Ucopy@PAU?$pair@HH@std@@@?$vector@U?$pair@HH@std@@V?$K2VectorAllocator@U?$pair@HH@std@@@@@std@@IAEPAU?$pair@HH@1@PAU21@00@Z 19035030 f i mv_main.obj
 0002:0001b070       ??$unchecked_uninitialized_fill_n@PAHIHV?$K2VectorAllocator@H@@@stdext@@YAXPAHIABHAAV?$K2VectorAllocator@H@@@Z 19035070 f i mv_main.obj
 0002:0001b0d0       ??$_Destroy_range@U?$pair@HH@std@@V?$K2VectorAllocator@U?$pair@HH@std@@@@@std@@YAXPAU?$pair@HH@0@0AAV?$K2VectorAllocator@U?$pair@HH@std@@@@@Z 190350d0 f i mv_main.obj
 0002:0001b120       ??$unchecked_uninitialized_fill_n@PAU?$pair@HH@std@@IU12@V?$K2VectorAllocator@U?$pair@HH@std@@@@@stdext@@YAXPAU?$pair@HH@std@@IABU12@AAV?$K2VectorAllocator@U?$pair@HH@std@@@@@Z 19035120 f i mv_main.obj
 0002:0001b180       ??$_Destroy_range@HV?$K2VectorAllocator@H@@@std@@YAXPAH0AAV?$K2VectorAllocator@H@@@Z 19035180 f i mv_main.obj
 0002:0001b1d0       ??$_Umove@PAH@?$vector@HV?$K2VectorAllocator@H@@@std@@IAEPAHPAH00@Z 190351d0 f i mv_main.obj
 0002:0001b210       ??$fill@PAHH@std@@YAXPAH0ABH@Z 19035210 f i mv_main.obj
 0002:0001b260       ??$_Unchecked_move_backward@PAHPAH@stdext@@YAPAHPAH00@Z 19035260 f i mv_main.obj
 0002:0001b2f0       ??$_Destroy_range@U?$pair@II@std@@V?$K2VectorAllocator@U?$pair@II@std@@@@@std@@YAXPAU?$pair@II@0@0AAV?$K2VectorAllocator@U?$pair@II@std@@@@@Z 190352f0 f i mv_main.obj
 0002:0001b340       ??$_Umove@PAU?$pair@HH@std@@@?$vector@U?$pair@HH@std@@V?$K2VectorAllocator@U?$pair@HH@std@@@@@std@@IAEPAU?$pair@HH@1@PAU21@00@Z 19035340 f i mv_main.obj
 0002:0001b380       ??$fill@PAU?$pair@HH@std@@U12@@std@@YAXPAU?$pair@HH@0@0ABU10@@Z 19035380 f i mv_main.obj
 0002:0001b3d0       ??$_Unchecked_move_backward@PAU?$pair@HH@std@@PAU12@@stdext@@YAPAU?$pair@HH@std@@PAU12@00@Z 190353d0 f i mv_main.obj
 0002:0001b460       ??$_Destroy_range@FV?$K2VectorAllocator@F@@@std@@YAXPAF0AAV?$K2VectorAllocator@F@@@Z 19035460 f i mv_main.obj
 0002:0001b4b0       ??$unchecked_uninitialized_fill_n@PAU?$pair@II@std@@IU12@V?$K2VectorAllocator@U?$pair@II@std@@@@@stdext@@YAXPAU?$pair@II@std@@IABU12@AAV?$K2VectorAllocator@U?$pair@II@std@@@@@Z 190354b0 f i mv_main.obj
 0002:0001b510       ??$unchecked_uninitialized_fill_n@PAFIFV?$K2VectorAllocator@F@@@stdext@@YAXPAFIABFAAV?$K2VectorAllocator@F@@@Z 19035510 f i mv_main.obj
 0002:0001b570       ??$_Debug_range@V?$_Vector_iterator@U?$pair@HH@std@@V?$K2VectorAllocator@U?$pair@HH@std@@@@@std@@@std@@YAXV?$_Vector_iterator@U?$pair@HH@std@@V?$K2VectorAllocator@U?$pair@HH@std@@@@@0@0PB_WI@Z 19035570 f i mv_main.obj
 0002:0001b660       ??$_Debug_pointer@VCAbs@@@std@@YAXAAVCAbs@@PB_WI@Z 19035660 f i mv_main.obj
 0002:0001b680       ??$_Checked_base@V?$_Vector_iterator@U?$pair@HH@std@@V?$K2VectorAllocator@U?$pair@HH@std@@@@@std@@@std@@YA?AV?$_Vector_iterator@U?$pair@HH@std@@V?$K2VectorAllocator@U?$pair@HH@std@@@@@0@AAV10@@Z 19035680 f i mv_main.obj
 0002:0001b6d0       ??$_Sort@V?$_Vector_iterator@U?$pair@HH@std@@V?$K2VectorAllocator@U?$pair@HH@std@@@@@std@@HVCAbs@@@std@@YAXV?$_Vector_iterator@U?$pair@HH@std@@V?$K2VectorAllocator@U?$pair@HH@std@@@@@0@0HVCAbs@@@Z 190356d0 f i mv_main.obj
 0002:0001ba80       ??$_Checked_base@PAU?$pair@HH@std@@@std@@YAPAU?$pair@HH@0@AAPAU10@@Z 19035a80 f i mv_main.obj
 0002:0001bab0       ??$_Iter_random@PAU?$pair@HH@std@@PAU12@@std@@YA?AUrandom_access_iterator_tag@0@ABQAU?$pair@HH@0@0@Z 19035ab0 f i mv_main.obj
 0002:0001bad0       ??$_Ptr_cat@PAU?$pair@HH@std@@PAU12@@std@@YA?AU_Nonscalar_ptr_iterator_tag@0@AAPAU?$pair@HH@0@0@Z 19035ad0 f i mv_main.obj
 0002:0001baf0       ??$_Copy_opt@PAU?$pair@HH@std@@PAU12@@std@@YAPAU?$pair@HH@0@PAU10@00Urandom_access_iterator_tag@0@U_Nonscalar_ptr_iterator_tag@0@U_Range_checked_iterator_tag@0@@Z 19035af0 f i mv_main.obj
 0002:0001bb60       ??$unchecked_uninitialized_copy@PAU?$pair@HH@std@@PAU12@V?$K2VectorAllocator@U?$pair@HH@std@@@@@stdext@@YAPAU?$pair@HH@std@@PAU12@00AAV?$K2VectorAllocator@U?$pair@HH@std@@@@@Z 19035b60 f i mv_main.obj
 0002:0001bbd0       ??$_Ptr_cat@PAHPAH@std@@YA?AU_Scalar_ptr_iterator_tag@0@AAPAH0@Z 19035bd0 f i mv_main.obj
 0002:0001bbf0       ??$_Uninit_fill_n@PAHIHV?$K2VectorAllocator@H@@@std@@YAXPAHIABHAAV?$K2VectorAllocator@H@@U_Scalar_ptr_iterator_tag@0@U_Range_checked_iterator_tag@0@@Z 19035bf0 f i mv_main.obj
 0002:0001bc20       ??$_Destroy_range@U?$pair@HH@std@@V?$K2VectorAllocator@U?$pair@HH@std@@@@@std@@YAXPAU?$pair@HH@0@0AAV?$K2VectorAllocator@U?$pair@HH@std@@@@U_Nonscalar_ptr_iterator_tag@0@@Z 19035c20 f i mv_main.obj
 0002:0001bc60       ??$_Uninit_fill_n@PAU?$pair@HH@std@@IU12@V?$K2VectorAllocator@U?$pair@HH@std@@@@@std@@YAXPAU?$pair@HH@0@IABU10@AAV?$K2VectorAllocator@U?$pair@HH@std@@@@U_Nonscalar_ptr_iterator_tag@0@U_Range_checked_iterator_tag@0@@Z 19035c60 f i mv_main.obj
 0002:0001bd50       ??$_Destroy_range@HV?$K2VectorAllocator@H@@@std@@YAXPAH0AAV?$K2VectorAllocator@H@@U_Scalar_ptr_iterator_tag@0@@Z 19035d50 f i mv_main.obj
 0002:0001bd70       ??$_Unchecked_uninitialized_move@PAHPAHV?$K2VectorAllocator@H@@@stdext@@YAPAHPAH00AAV?$K2VectorAllocator@H@@@Z 19035d70 f i mv_main.obj
 0002:0001bde0       ??$_Checked_base@PAH@std@@YAPAHAAPAH@Z 19035de0 f i mv_main.obj
 0002:0001be10       ??$_Fill@PAHH@std@@YAXPAH0ABH@Z 19035e10 f i mv_main.obj
 0002:0001be70       ??$_Iter_random@PAHPAH@std@@YA?AUrandom_access_iterator_tag@0@ABQAH0@Z 19035e70 f i mv_main.obj
 0002:0001be90       ??$_Move_cat@PAH@std@@YA?AU_Undefined_move_tag@0@ABQAH@Z 19035e90 f i mv_main.obj
 0002:0001beb0       ??$_Move_backward_opt@PAHPAHUrandom_access_iterator_tag@std@@U_Undefined_move_tag@2@@std@@YAPAHPAH00Urandom_access_iterator_tag@0@U_Undefined_move_tag@0@U_Range_checked_iterator_tag@0@@Z 19035eb0 f i mv_main.obj
 0002:0001bf10       ??$_Ptr_cat@PAU?$pair@II@std@@PAU12@@std@@YA?AU_Nonscalar_ptr_iterator_tag@0@AAPAU?$pair@II@0@0@Z 19035f10 f i mv_main.obj
 0002:0001bf30       ??$_Destroy_range@U?$pair@II@std@@V?$K2VectorAllocator@U?$pair@II@std@@@@@std@@YAXPAU?$pair@II@0@0AAV?$K2VectorAllocator@U?$pair@II@std@@@@U_Nonscalar_ptr_iterator_tag@0@@Z 19035f30 f i mv_main.obj
 0002:0001bf70       ??$_Unchecked_uninitialized_move@PAU?$pair@HH@std@@PAU12@V?$K2VectorAllocator@U?$pair@HH@std@@@@@stdext@@YAPAU?$pair@HH@std@@PAU12@00AAV?$K2VectorAllocator@U?$pair@HH@std@@@@@Z 19035f70 f i mv_main.obj
 0002:0001bfe0       ??$_Fill@PAU?$pair@HH@std@@U12@@std@@YAXPAU?$pair@HH@0@0ABU10@@Z 19035fe0 f i mv_main.obj
 0002:0001c050       ??$_Move_cat@PAU?$pair@HH@std@@@std@@YA?AU_Undefined_move_tag@0@ABQAU?$pair@HH@0@@Z 19036050 f i mv_main.obj
 0002:0001c070       ??$_Move_backward_opt@PAU?$pair@HH@std@@PAU12@Urandom_access_iterator_tag@2@U_Undefined_move_tag@2@@std@@YAPAU?$pair@HH@0@PAU10@00Urandom_access_iterator_tag@0@U_Undefined_move_tag@0@U_Range_checked_iterator_tag@0@@Z 19036070 f i mv_main.obj
 0002:0001c0d0       ??$_Ptr_cat@PAFPAF@std@@YA?AU_Scalar_ptr_iterator_tag@0@AAPAF0@Z 190360d0 f i mv_main.obj
 0002:0001c0f0       ??$_Destroy_range@FV?$K2VectorAllocator@F@@@std@@YAXPAF0AAV?$K2VectorAllocator@F@@U_Scalar_ptr_iterator_tag@0@@Z 190360f0 f i mv_main.obj
 0002:0001c110       ??$_Uninit_fill_n@PAU?$pair@II@std@@IU12@V?$K2VectorAllocator@U?$pair@II@std@@@@@std@@YAXPAU?$pair@II@0@IABU10@AAV?$K2VectorAllocator@U?$pair@II@std@@@@U_Nonscalar_ptr_iterator_tag@0@U_Range_checked_iterator_tag@0@@Z 19036110 f i mv_main.obj
 0002:0001c200       ??$_Uninit_fill_n@PAFIFV?$K2VectorAllocator@F@@@std@@YAXPAFIABFAAV?$K2VectorAllocator@F@@U_Scalar_ptr_iterator_tag@0@U_Range_checked_iterator_tag@0@@Z 19036200 f i mv_main.obj
 0002:0001c230       ??1?$pair@V?$_Vector_iterator@U?$pair@HH@std@@V?$K2VectorAllocator@U?$pair@HH@std@@@@@std@@V12@@std@@QAE@XZ 19036230 f i mv_main.obj
 0002:0001c2b0       ??4?$_Vector_iterator@U?$pair@HH@std@@V?$K2VectorAllocator@U?$pair@HH@std@@@@@std@@QAEAAV01@ABV01@@Z 190362b0 f i mv_main.obj
 0002:0001c2e0       ??4?$_Vector_const_iterator@U?$pair@HH@std@@V?$K2VectorAllocator@U?$pair@HH@std@@@@@std@@QAEAAV01@ABV01@@Z 190362e0 f i mv_main.obj
 0002:0001c320       ??4?$_Ranit@U?$pair@HH@std@@HPBU12@ABU12@@std@@QAEAAU01@ABU01@@Z 19036320 f i mv_main.obj
 0002:0001c350       ?construct@?$allocator@U?$pair@II@std@@@std@@QAEXPAU?$pair@II@2@ABU32@@Z 19036350 f i mv_main.obj
 0002:0001c380       ?destroy@?$allocator@U?$pair@II@std@@@std@@QAEXPAU?$pair@II@2@@Z 19036380 f i mv_main.obj
 0002:0001c3b0       ?construct@?$allocator@U?$pair@HH@std@@@std@@QAEXPAU?$pair@HH@2@ABU32@@Z 190363b0 f i mv_main.obj
 0002:0001c3e0       ?destroy@?$allocator@U?$pair@HH@std@@@std@@QAEXPAU?$pair@HH@2@@Z 190363e0 f i mv_main.obj
 0002:0001c410       ??$_Iter_cat@V?$_Vector_iterator@U?$pair@HH@std@@V?$K2VectorAllocator@U?$pair@HH@std@@@@@std@@@std@@YA?AUrandom_access_iterator_tag@0@ABV?$_Vector_iterator@U?$pair@HH@std@@V?$K2VectorAllocator@U?$pair@HH@std@@@@@0@@Z 19036410 f i mv_main.obj
 0002:0001c430       ??$_Debug_range2@V?$_Vector_iterator@U?$pair@HH@std@@V?$K2VectorAllocator@U?$pair@HH@std@@@@@std@@@std@@YAXV?$_Vector_iterator@U?$pair@HH@std@@V?$K2VectorAllocator@U?$pair@HH@std@@@@@0@0PB_WIUrandom_access_iterator_tag@0@@Z 19036430 f i mv_main.obj
 0002:0001c520       ??$_Checked_base@V?$_Vector_iterator@U?$pair@HH@std@@V?$K2VectorAllocator@U?$pair@HH@std@@@@@std@@@std@@YA?AV?$_Vector_iterator@U?$pair@HH@std@@V?$K2VectorAllocator@U?$pair@HH@std@@@@@0@AAV10@U_Unchanged_checked_iterator_base_type_tag@0@@Z 19036520 f i mv_main.obj
 0002:0001c560       ??$_Unguarded_partition@V?$_Vector_iterator@U?$pair@HH@std@@V?$K2VectorAllocator@U?$pair@HH@std@@@@@std@@VCAbs@@@std@@YA?AU?$pair@V?$_Vector_iterator@U?$pair@HH@std@@V?$K2VectorAllocator@U?$pair@HH@std@@@@@std@@V12@@0@V?$_Vector_iterator@U?$pair@HH@std@@V?$K2VectorAllocator@U?$pair@HH@std@@@@@0@0VCAbs@@@Z 19036560 f i mv_main.obj
 0002:0001cfb0       ??RCAbs@@QAE_NABU?$pair@HH@std@@0@Z 19036fb0 f i mv_main.obj
 0002:0001d000       ??$make_heap@V?$_Vector_iterator@U?$pair@HH@std@@V?$K2VectorAllocator@U?$pair@HH@std@@@@@std@@VCAbs@@@std@@YAXV?$_Vector_iterator@U?$pair@HH@std@@V?$K2VectorAllocator@U?$pair@HH@std@@@@@0@0VCAbs@@@Z 19037000 f i mv_main.obj
 0002:0001d150       ??$sort_heap@V?$_Vector_iterator@U?$pair@HH@std@@V?$K2VectorAllocator@U?$pair@HH@std@@@@@std@@VCAbs@@@std@@YAXV?$_Vector_iterator@U?$pair@HH@std@@V?$K2VectorAllocator@U?$pair@HH@std@@@@@0@0VCAbs@@@Z 19037150 f i mv_main.obj
 0002:0001d280       ??$_Insertion_sort@V?$_Vector_iterator@U?$pair@HH@std@@V?$K2VectorAllocator@U?$pair@HH@std@@@@@std@@VCAbs@@@std@@YAXV?$_Vector_iterator@U?$pair@HH@std@@V?$K2VectorAllocator@U?$pair@HH@std@@@@@0@0VCAbs@@@Z 19037280 f i mv_main.obj
 0002:0001d5f0       ??$_Checked_base@PAU?$pair@HH@std@@@std@@YAPAU?$pair@HH@0@AAPAU10@U_Unchanged_checked_iterator_base_type_tag@0@@Z 190375f0 f i mv_main.obj
 0002:0001d610       ??$_Copy_opt@PAU?$pair@HH@std@@PAU12@Uforward_iterator_tag@2@@std@@YAPAU?$pair@HH@0@PAU10@00Uforward_iterator_tag@0@U_Nonscalar_ptr_iterator_tag@0@U_Range_checked_iterator_tag@0@@Z 19037610 f i mv_main.obj
 0002:0001d690       ??$_Uninit_copy@PAU?$pair@HH@std@@PAU12@V?$K2VectorAllocator@U?$pair@HH@std@@@@@std@@YAPAU?$pair@HH@0@PAU10@00AAV?$K2VectorAllocator@U?$pair@HH@std@@@@U_Nonscalar_ptr_iterator_tag@0@U_Range_checked_iterator_tag@0@@Z 19037690 f i mv_main.obj
 0002:0001d7b0       ??$unchecked_fill_n@PAHIH@stdext@@YAXPAHIABH@Z 190377b0 f i mv_main.obj
 0002:0001d800       ??$_Uninit_move@PAHPAHV?$K2VectorAllocator@H@@U_Undefined_move_tag@std@@@std@@YAPAHPAH00AAV?$K2VectorAllocator@H@@U_Undefined_move_tag@0@U_Range_checked_iterator_tag@0@@Z 19037800 f i mv_main.obj
 0002:0001d840       ??$_Checked_base@PAH@std@@YAPAHAAPAHU_Unchanged_checked_iterator_base_type_tag@0@@Z 19037840 f i mv_main.obj
 0002:0001d860       ??$_Debug_range@PAH@std@@YAXPAH0PB_WI@Z 19037860 f i mv_main.obj
 0002:0001d8b0       ??$_Copy_backward_opt@PAHPAHUrandom_access_iterator_tag@std@@@std@@YAPAHPAH00Urandom_access_iterator_tag@0@U_Scalar_ptr_iterator_tag@0@U_Range_checked_iterator_tag@0@@Z 190378b0 f i mv_main.obj
 0002:0001d960       ??$_Uninit_move@PAU?$pair@HH@std@@PAU12@V?$K2VectorAllocator@U?$pair@HH@std@@@@U_Undefined_move_tag@2@@std@@YAPAU?$pair@HH@0@PAU10@00AAV?$K2VectorAllocator@U?$pair@HH@std@@@@U_Undefined_move_tag@0@U_Range_checked_iterator_tag@0@@Z 19037960 f i mv_main.obj
 0002:0001d9a0       ??$_Debug_range@PAU?$pair@HH@std@@@std@@YAXPAU?$pair@HH@0@0PB_WI@Z 190379a0 f i mv_main.obj
 0002:0001d9f0       ??$_Copy_backward_opt@PAU?$pair@HH@std@@PAU12@@std@@YAPAU?$pair@HH@0@PAU10@00Urandom_access_iterator_tag@0@U_Nonscalar_ptr_iterator_tag@0@U_Range_checked_iterator_tag@0@@Z 190379f0 f i mv_main.obj
 0002:0001da60       ??$unchecked_fill_n@PAFIF@stdext@@YAXPAFIABF@Z 19037a60 f i mv_main.obj
 0002:0001dab0       ??$_Construct@U?$pair@II@std@@U12@@std@@YAXPAU?$pair@II@0@ABU10@@Z 19037ab0 f i mv_main.obj
 0002:0001db10       ??2@YAPAXIPAX@Z            19037b10 f i mv_main.obj
 0002:0001db30       ??$_Destroy@U?$pair@II@std@@@std@@YAXPAU?$pair@II@0@@Z 19037b30 f i mv_main.obj
 0002:0001db50       ??$_Construct@U?$pair@HH@std@@U12@@std@@YAXPAU?$pair@HH@0@ABU10@@Z 19037b50 f i mv_main.obj
 0002:0001dbb0       ??$_Destroy@U?$pair@HH@std@@@std@@YAXPAU?$pair@HH@0@@Z 19037bb0 f i mv_main.obj
 0002:0001dbd0       ??E?$_Vector_iterator@U?$pair@HH@std@@V?$K2VectorAllocator@U?$pair@HH@std@@@@@std@@QAE?AV01@H@Z 19037bd0 f i mv_main.obj
 0002:0001dc80       ??F?$_Vector_iterator@U?$pair@HH@std@@V?$K2VectorAllocator@U?$pair@HH@std@@@@@std@@QAEAAV01@XZ 19037c80 f i mv_main.obj
 0002:0001dcb0       ??G?$_Vector_iterator@U?$pair@HH@std@@V?$K2VectorAllocator@U?$pair@HH@std@@@@@std@@QBE?AV01@H@Z 19037cb0 f i mv_main.obj
 0002:0001dd60       ??0?$pair@V?$_Vector_iterator@U?$pair@HH@std@@V?$K2VectorAllocator@U?$pair@HH@std@@@@@std@@V12@@std@@QAE@ABV?$_Vector_iterator@U?$pair@HH@std@@V?$K2VectorAllocator@U?$pair@HH@std@@@@@1@0@Z 19037d60 f i mv_main.obj
 0002:0001ddf0       ??Z?$_Vector_iterator@U?$pair@HH@std@@V?$K2VectorAllocator@U?$pair@HH@std@@@@@std@@QAEAAV01@H@Z 19037df0 f i mv_main.obj
 0002:0001de20       ??F?$_Vector_const_iterator@U?$pair@HH@std@@V?$K2VectorAllocator@U?$pair@HH@std@@@@@std@@QAEAAV01@XZ 19037e20 f i mv_main.obj
 0002:0001df20       ??$_Debug_pointer@V?$_Vector_iterator@U?$pair@HH@std@@V?$K2VectorAllocator@U?$pair@HH@std@@@@@std@@@std@@YAXAAV?$_Vector_iterator@U?$pair@HH@std@@V?$K2VectorAllocator@U?$pair@HH@std@@@@@0@PB_WI@Z 19037f20 f i mv_main.obj
 0002:0001df40       ??$_Median@V?$_Vector_iterator@U?$pair@HH@std@@V?$K2VectorAllocator@U?$pair@HH@std@@@@@std@@VCAbs@@@std@@YAXV?$_Vector_iterator@U?$pair@HH@std@@V?$K2VectorAllocator@U?$pair@HH@std@@@@@0@00VCAbs@@@Z 19037f40 f i mv_main.obj
 0002:0001e320       ??$_Debug_lt_pred@VCAbs@@U?$pair@HH@std@@U23@@std@@YA_NVCAbs@@AAU?$pair@HH@0@1PB_WI@Z 19038320 f i mv_main.obj
 0002:0001e3a0       ??$iter_swap@V?$_Vector_iterator@U?$pair@HH@std@@V?$K2VectorAllocator@U?$pair@HH@std@@@@@std@@V12@@std@@YAXV?$_Vector_iterator@U?$pair@HH@std@@V?$K2VectorAllocator@U?$pair@HH@std@@@@@0@0@Z 190383a0 f i mv_main.obj
 0002:0001e440       ??$_Dist_type@V?$_Vector_iterator@U?$pair@HH@std@@V?$K2VectorAllocator@U?$pair@HH@std@@@@@std@@@std@@YAPAHV?$_Vector_iterator@U?$pair@HH@std@@V?$K2VectorAllocator@U?$pair@HH@std@@@@@0@@Z 19038440 f i mv_main.obj
 0002:0001e470       ??$_Val_type@V?$_Vector_iterator@U?$pair@HH@std@@V?$K2VectorAllocator@U?$pair@HH@std@@@@@std@@@std@@YAPAU?$pair@HH@0@V?$_Vector_iterator@U?$pair@HH@std@@V?$K2VectorAllocator@U?$pair@HH@std@@@@@0@@Z 19038470 f i mv_main.obj
 0002:0001e4a0       ??$_Make_heap@V?$_Vector_iterator@U?$pair@HH@std@@V?$K2VectorAllocator@U?$pair@HH@std@@@@@std@@HU?$pair@HH@2@VCAbs@@@std@@YAXV?$_Vector_iterator@U?$pair@HH@std@@V?$K2VectorAllocator@U?$pair@HH@std@@@@@0@0VCAbs@@PAHPAU?$pair@HH@0@@Z 190384a0 f i mv_main.obj
 0002:0001e5d0       ??$_Debug_heap@V?$_Vector_iterator@U?$pair@HH@std@@V?$K2VectorAllocator@U?$pair@HH@std@@@@@std@@VCAbs@@@std@@YAXV?$_Vector_iterator@U?$pair@HH@std@@V?$K2VectorAllocator@U?$pair@HH@std@@@@@0@0VCAbs@@@Z 190385d0 f i mv_main.obj
 0002:0001e810       ??$_Sort_heap@V?$_Vector_iterator@U?$pair@HH@std@@V?$K2VectorAllocator@U?$pair@HH@std@@@@@std@@VCAbs@@@std@@YAXV?$_Vector_iterator@U?$pair@HH@std@@V?$K2VectorAllocator@U?$pair@HH@std@@@@@0@0VCAbs@@@Z 19038810 f i mv_main.obj
 0002:0001e900       ??$rotate@V?$_Vector_iterator@U?$pair@HH@std@@V?$K2VectorAllocator@U?$pair@HH@std@@@@@std@@@std@@YAXV?$_Vector_iterator@U?$pair@HH@std@@V?$K2VectorAllocator@U?$pair@HH@std@@@@@0@00@Z 19038900 f i mv_main.obj
 0002:0001ea50       ??$_Debug_pointer@U?$pair@HH@std@@@std@@YAXPAU?$pair@HH@0@PB_WI@Z 19038a50 f i mv_main.obj
 0002:0001ea90       ??$_Iter_cat@PAH@std@@YA?AUrandom_access_iterator_tag@0@ABQAH@Z 19038a90 f i mv_main.obj
 0002:0001eab0       ??$_Fill_n@PAHIH@std@@YAXPAHIABHUrandom_access_iterator_tag@0@U_Range_checked_iterator_tag@0@@Z 19038ab0 f i mv_main.obj
 0002:0001eb10       ??$unchecked_uninitialized_copy@PAHPAHV?$K2VectorAllocator@H@@@stdext@@YAPAHPAH00AAV?$K2VectorAllocator@H@@@Z 19038b10 f i mv_main.obj
 0002:0001eb80       ??$_Debug_range2@PAH@std@@YAXPAH0PB_WIUrandom_access_iterator_tag@0@@Z 19038b80 f i mv_main.obj
 0002:0001ec00       ??$_Debug_pointer@H@std@@YAXPAHPB_WI@Z 19038c00 f i mv_main.obj
 0002:0001ec40       ??$_Iter_cat@PAU?$pair@HH@std@@@std@@YA?AUrandom_access_iterator_tag@0@ABQAU?$pair@HH@0@@Z 19038c40 f i mv_main.obj
 0002:0001ec60       ??$_Debug_range2@PAU?$pair@HH@std@@@std@@YAXPAU?$pair@HH@0@0PB_WIUrandom_access_iterator_tag@0@@Z 19038c60 f i mv_main.obj
 0002:0001ece0       ??$_Copy_backward_opt@PAU?$pair@HH@std@@PAU12@Uforward_iterator_tag@2@@std@@YAPAU?$pair@HH@0@PAU10@00Uforward_iterator_tag@0@U_Nonscalar_ptr_iterator_tag@0@U_Range_checked_iterator_tag@0@@Z 19038ce0 f i mv_main.obj
 0002:0001ed50       ??$_Iter_cat@PAF@std@@YA?AUrandom_access_iterator_tag@0@ABQAF@Z 19038d50 f i mv_main.obj
 0002:0001ed70       ??$_Fill_n@PAFIF@std@@YAXPAFIABFUrandom_access_iterator_tag@0@U_Range_checked_iterator_tag@0@@Z 19038d70 f i mv_main.obj
 0002:0001edd0       ??$_Med3@V?$_Vector_iterator@U?$pair@HH@std@@V?$K2VectorAllocator@U?$pair@HH@std@@@@@std@@VCAbs@@@std@@YAXV?$_Vector_iterator@U?$pair@HH@std@@V?$K2VectorAllocator@U?$pair@HH@std@@@@@0@00VCAbs@@@Z 19038dd0 f i mv_main.obj
 0002:0001eff0       ??$swap@HH@std@@YAXAAU?$pair@HH@0@0@Z 19038ff0 f i mv_main.obj
 0002:0001f020       ??$_Adjust_heap@V?$_Vector_iterator@U?$pair@HH@std@@V?$K2VectorAllocator@U?$pair@HH@std@@@@@std@@HU?$pair@HH@2@VCAbs@@@std@@YAXV?$_Vector_iterator@U?$pair@HH@std@@V?$K2VectorAllocator@U?$pair@HH@std@@@@@0@HHU?$pair@HH@0@VCAbs@@@Z 19039020 f i mv_main.obj
 0002:0001f360       ??$pop_heap@V?$_Vector_iterator@U?$pair@HH@std@@V?$K2VectorAllocator@U?$pair@HH@std@@@@@std@@VCAbs@@@std@@YAXV?$_Vector_iterator@U?$pair@HH@std@@V?$K2VectorAllocator@U?$pair@HH@std@@@@@0@0VCAbs@@@Z 19039360 f i mv_main.obj
 0002:0001f4d0       ??$_Rotate@V?$_Vector_iterator@U?$pair@HH@std@@V?$K2VectorAllocator@U?$pair@HH@std@@@@@std@@@std@@YAXV?$_Vector_iterator@U?$pair@HH@std@@V?$K2VectorAllocator@U?$pair@HH@std@@@@@0@00Urandom_access_iterator_tag@0@@Z 190394d0 f i mv_main.obj
 0002:0001f620       ??$_Fill_n@PAHIH@std@@YAXPAHIABHU_Range_checked_iterator_tag@0@@Z 19039620 f i mv_main.obj
 0002:0001f670       ??$_Uninit_copy@PAHPAHV?$K2VectorAllocator@H@@@std@@YAPAHPAH00AAV?$K2VectorAllocator@H@@U_Scalar_ptr_iterator_tag@0@U_Range_checked_iterator_tag@0@@Z 19039670 f i mv_main.obj
 0002:0001f710       ??$_Checked_base@PAF@std@@YAPAFAAPAF@Z 19039710 f i mv_main.obj
 0002:0001f740       ??$_Fill_n@PAFIF@std@@YAXPAFIABFU_Range_checked_iterator_tag@0@@Z 19039740 f i mv_main.obj
 0002:0001f790       ?swap@?$pair@HH@std@@QAEXAAU12@@Z 19039790 f i mv_main.obj
 0002:0001f7e0       ??$_Push_heap@V?$_Vector_iterator@U?$pair@HH@std@@V?$K2VectorAllocator@U?$pair@HH@std@@@@@std@@HU?$pair@HH@2@VCAbs@@@std@@YAXV?$_Vector_iterator@U?$pair@HH@std@@V?$K2VectorAllocator@U?$pair@HH@std@@@@@0@HHU?$pair@HH@0@VCAbs@@@Z 190397e0 f i mv_main.obj
 0002:0001fa70       ??$_Pop_heap_0@V?$_Vector_iterator@U?$pair@HH@std@@V?$K2VectorAllocator@U?$pair@HH@std@@@@@std@@U?$pair@HH@2@VCAbs@@@std@@YAXV?$_Vector_iterator@U?$pair@HH@std@@V?$K2VectorAllocator@U?$pair@HH@std@@@@@0@0VCAbs@@PAU?$pair@HH@0@@Z 19039a70 f i mv_main.obj
 0002:0001fc00       ??$_Rotate@V?$_Vector_iterator@U?$pair@HH@std@@V?$K2VectorAllocator@U?$pair@HH@std@@@@@std@@HU?$pair@HH@2@@std@@YAXV?$_Vector_iterator@U?$pair@HH@std@@V?$K2VectorAllocator@U?$pair@HH@std@@@@@0@00PAHPAU?$pair@HH@0@@Z 19039c00 f i mv_main.obj
 0002:00020150       ??$_Checked_base@PAF@std@@YAPAFAAPAFU_Unchanged_checked_iterator_base_type_tag@0@@Z 1903a150 f i mv_main.obj
 0002:00020170       ??$swap@H@std@@YAXAAH0@Z   1903a170 f i mv_main.obj
 0002:000201b0       ??$_Pop_heap@V?$_Vector_iterator@U?$pair@HH@std@@V?$K2VectorAllocator@U?$pair@HH@std@@@@@std@@HU?$pair@HH@2@VCAbs@@@std@@YAXV?$_Vector_iterator@U?$pair@HH@std@@V?$K2VectorAllocator@U?$pair@HH@std@@@@@0@00U?$pair@HH@0@VCAbs@@PAH@Z 1903a1b0 f i mv_main.obj
 0002:000202a0       ??0?$CCvar@MM@@QAE@ABV?$basic_string@_WU?$char_traits@_W@std@@V?$K2StringAllocator@_W@@@std@@MHP6A_NPAVCConsoleElement@@ABV?$vector@V?$basic_string@_WU?$char_traits@_W@std@@V?$K2StringAllocator@_W@@@std@@V?$K2VectorAllocator@V?$basic_string@_WU?$char_traits@_W@std@@V?$K2StringAllocator@_W@@@std@@@@@@@Z@Z 1903a2a0 f i mv_main.obj
 0002:000203c0       ??_G?$CCvar@MM@@UAEPAXI@Z  1903a3c0 f i mv_main.obj
 0002:000203c0       ??_E?$CCvar@MM@@UAEPAXI@Z  1903a3c0 f i mv_main.obj
 0002:00020410       ?Set@?$CCvar@MM@@UAEXABV?$basic_string@_WU?$char_traits@_W@std@@V?$K2StringAllocator@_W@@@std@@@Z 1903a410 f i mv_main.obj
 0002:00020610       ??6CConsoleStream@@QAEAAV0@M@Z 1903a610 f i mv_main.obj
 0002:000206c0       ?Inc@?$CCvar@MM@@UAEXABV?$basic_string@_WU?$char_traits@_W@std@@V?$K2StringAllocator@_W@@@std@@@Z 1903a6c0 f i mv_main.obj
 0002:00020730       ?Toggle@?$CCvar@MM@@UAEXXZ 1903a730 f i mv_main.obj
 0002:000207b0       ?push_back@?$vector@V?$basic_string@_WU?$char_traits@_W@std@@V?$K2StringAllocator@_W@@@std@@V?$K2VectorAllocator@V?$basic_string@_WU?$char_traits@_W@std@@V?$K2StringAllocator@_W@@@std@@@@@std@@QAEXABV?$basic_string@_WU?$char_traits@_W@std@@V?$K2StringAllocator@_W@@@2@@Z 1903a7b0 f i mv_main.obj
 0002:00020860       ??1?$CCvar@MM@@UAE@XZ      1903a860 f i mv_main.obj
 0002:00020890       ?IsDefault@?$CCvar@MM@@UBE_NXZ 1903a890 f i mv_main.obj
 0002:000208f0       ?StoreValue@?$CCvar@MM@@UAEXXZ 1903a8f0 f i mv_main.obj
 0002:00020920       ?RestoreStored@?$CCvar@MM@@UAEXXZ 1903a920 f i mv_main.obj
 0002:00020950       ?GetString@?$CCvar@MM@@UBE?AV?$basic_string@_WU?$char_traits@_W@std@@V?$K2StringAllocator@_W@@@std@@XZ 1903a950 f i mv_main.obj
 0002:000209b0       ?SetIndex@?$CCvar@MM@@UAEXIABV?$basic_string@_WU?$char_traits@_W@std@@V?$K2StringAllocator@_W@@@std@@@Z 1903a9b0 f i mv_main.obj
 0002:000209d0       ?SetValueIndex@?$CCvar@V?$CVec3@M@@M@@QAEXIM@Z 1903a9d0 f i mv_main.obj
 0002:00020a20       ?SetValueIndex@?$CCvar@V?$CVec4@M@@M@@QAEXIM@Z 1903aa20 f i mv_main.obj
 0002:00020a70       ?capacity@?$vector@V?$basic_string@_WU?$char_traits@_W@std@@V?$K2StringAllocator@_W@@@std@@V?$K2VectorAllocator@V?$basic_string@_WU?$char_traits@_W@std@@V?$K2StringAllocator@_W@@@std@@@@@std@@QBEIXZ 1903aa70 f i mv_main.obj
 0002:00020ac0       ?insert@?$vector@V?$basic_string@_WU?$char_traits@_W@std@@V?$K2StringAllocator@_W@@@std@@V?$K2VectorAllocator@V?$basic_string@_WU?$char_traits@_W@std@@V?$K2StringAllocator@_W@@@std@@@@@std@@QAE?AV?$_Vector_iterator@V?$basic_string@_WU?$char_traits@_W@std@@V?$K2StringAllocator@_W@@@std@@V?$K2VectorAllocator@V?$basic_string@_WU?$char_traits@_W@std@@V?$K2StringAllocator@_W@@@std@@@@@2@V32@ABV?$basic_string@_WU?$char_traits@_W@std@@V?$K2StringAllocator@_W@@@2@@Z 1903aac0 f i mv_main.obj
 0002:00020c30       ??H?$_Vector_iterator@V?$basic_string@_WU?$char_traits@_W@std@@V?$K2StringAllocator@_W@@@std@@V?$K2VectorAllocator@V?$basic_string@_WU?$char_traits@_W@std@@V?$K2StringAllocator@_W@@@std@@@@@std@@QBE?AV01@H@Z 1903ac30 f i mv_main.obj
 0002:00020ce0       ??0?$_Vector_iterator@V?$basic_string@_WU?$char_traits@_W@std@@V?$K2StringAllocator@_W@@@std@@V?$K2VectorAllocator@V?$basic_string@_WU?$char_traits@_W@std@@V?$K2StringAllocator@_W@@@std@@@@@std@@QAE@ABV01@@Z 1903ace0 f i mv_main.obj
 0002:00020d10       ??0?$_Vector_const_iterator@V?$basic_string@_WU?$char_traits@_W@std@@V?$K2StringAllocator@_W@@@std@@V?$K2VectorAllocator@V?$basic_string@_WU?$char_traits@_W@std@@V?$K2StringAllocator@_W@@@std@@@@@std@@QAE@ABV01@@Z 1903ad10 f i mv_main.obj
 0002:00020d50       ??0?$_Ranit@V?$basic_string@_WU?$char_traits@_W@std@@V?$K2StringAllocator@_W@@@std@@HPBV12@ABV12@@std@@QAE@ABU01@@Z 1903ad50 f i mv_main.obj
 0002:00020d80       ?_Ufill@?$vector@V?$basic_string@_WU?$char_traits@_W@std@@V?$K2StringAllocator@_W@@@std@@V?$K2VectorAllocator@V?$basic_string@_WU?$char_traits@_W@std@@V?$K2StringAllocator@_W@@@std@@@@@std@@IAEPAV?$basic_string@_WU?$char_traits@_W@std@@V?$K2StringAllocator@_W@@@2@PAV32@IABV32@@Z 1903ad80 f i mv_main.obj
 0002:00020dd0       ?_Orphan_range@?$vector@V?$basic_string@_WU?$char_traits@_W@std@@V?$K2StringAllocator@_W@@@std@@V?$K2VectorAllocator@V?$basic_string@_WU?$char_traits@_W@std@@V?$K2StringAllocator@_W@@@std@@@@@std@@IBEXPAV?$basic_string@_WU?$char_traits@_W@std@@V?$K2StringAllocator@_W@@@2@0@Z 1903add0 f i mv_main.obj
 0002:00020e70       ??Y?$_Vector_iterator@V?$basic_string@_WU?$char_traits@_W@std@@V?$K2StringAllocator@_W@@@std@@V?$K2VectorAllocator@V?$basic_string@_WU?$char_traits@_W@std@@V?$K2StringAllocator@_W@@@std@@@@@std@@QAEAAV01@H@Z 1903ae70 f i mv_main.obj
 0002:00020ea0       ?_Insert_n@?$vector@V?$basic_string@_WU?$char_traits@_W@std@@V?$K2StringAllocator@_W@@@std@@V?$K2VectorAllocator@V?$basic_string@_WU?$char_traits@_W@std@@V?$K2StringAllocator@_W@@@std@@@@@std@@IAEXV?$_Vector_iterator@V?$basic_string@_WU?$char_traits@_W@std@@V?$K2StringAllocator@_W@@@std@@V?$K2VectorAllocator@V?$basic_string@_WU?$char_traits@_W@std@@V?$K2StringAllocator@_W@@@std@@@@@2@IABV?$basic_string@_WU?$char_traits@_W@std@@V?$K2StringAllocator@_W@@@2@@Z 1903aea0 f i mv_main.obj
 0002:00021390       ??G?$_Vector_iterator@V?$basic_string@_WU?$char_traits@_W@std@@V?$K2StringAllocator@_W@@@std@@V?$K2VectorAllocator@V?$basic_string@_WU?$char_traits@_W@std@@V?$K2StringAllocator@_W@@@std@@@@@std@@QBEHABV?$_Vector_const_iterator@V?$basic_string@_WU?$char_traits@_W@std@@V?$K2StringAllocator@_W@@@std@@V?$K2VectorAllocator@V?$basic_string@_WU?$char_traits@_W@std@@V?$K2StringAllocator@_W@@@std@@@@@1@@Z 1903b390 f i mv_main.obj
 0002:000213c0       ??Y?$_Vector_const_iterator@V?$basic_string@_WU?$char_traits@_W@std@@V?$K2StringAllocator@_W@@@std@@V?$K2VectorAllocator@V?$basic_string@_WU?$char_traits@_W@std@@V?$K2StringAllocator@_W@@@std@@@@@std@@QAEAAV01@H@Z 1903b3c0 f i mv_main.obj
 0002:000214f0       ??G?$_Vector_const_iterator@V?$basic_string@_WU?$char_traits@_W@std@@V?$K2StringAllocator@_W@@@std@@V?$K2VectorAllocator@V?$basic_string@_WU?$char_traits@_W@std@@V?$K2StringAllocator@_W@@@std@@@@@std@@QBEHABV01@@Z 1903b4f0 f i mv_main.obj
 0002:00021530       ?GetRangeString@?$CCvar@MM@@UBE?AV?$basic_string@_WU?$char_traits@_W@std@@V?$K2StringAllocator@_W@@@std@@XZ 1903b530 f i mv_main.obj
 0002:000217a0       ??$unchecked_uninitialized_fill_n@PAV?$basic_string@_WU?$char_traits@_W@std@@V?$K2StringAllocator@_W@@@std@@IV12@V?$K2VectorAllocator@V?$basic_string@_WU?$char_traits@_W@std@@V?$K2StringAllocator@_W@@@std@@@@@stdext@@YAXPAV?$basic_string@_WU?$char_traits@_W@std@@V?$K2StringAllocator@_W@@@std@@IABV12@AAV?$K2VectorAllocator@V?$basic_string@_WU?$char_traits@_W@std@@V?$K2StringAllocator@_W@@@std@@@@@Z 1903b7a0 f i mv_main.obj
 0002:00021800       ??$_Umove@PAV?$basic_string@_WU?$char_traits@_W@std@@V?$K2StringAllocator@_W@@@std@@@?$vector@V?$basic_string@_WU?$char_traits@_W@std@@V?$K2StringAllocator@_W@@@std@@V?$K2VectorAllocator@V?$basic_string@_WU?$char_traits@_W@std@@V?$K2StringAllocator@_W@@@std@@@@@std@@IAEPAV?$basic_string@_WU?$char_traits@_W@std@@V?$K2StringAllocator@_W@@@1@PAV21@00@Z 1903b800 f i mv_main.obj
 0002:00021840       ??$fill@PAV?$basic_string@_WU?$char_traits@_W@std@@V?$K2StringAllocator@_W@@@std@@V12@@std@@YAXPAV?$basic_string@_WU?$char_traits@_W@std@@V?$K2StringAllocator@_W@@@0@0ABV10@@Z 1903b840 f i mv_main.obj
 0002:00021890       ??$_Unchecked_move_backward@PAV?$basic_string@_WU?$char_traits@_W@std@@V?$K2StringAllocator@_W@@@std@@PAV12@@stdext@@YAPAV?$basic_string@_WU?$char_traits@_W@std@@V?$K2StringAllocator@_W@@@std@@PAV12@00@Z 1903b890 f i mv_main.obj
 0002:00021920       ??$_Checked_base@PAV?$basic_string@_WU?$char_traits@_W@std@@V?$K2StringAllocator@_W@@@std@@@std@@YAPAV?$basic_string@_WU?$char_traits@_W@std@@V?$K2StringAllocator@_W@@@0@AAPAV10@@Z 1903b920 f i mv_main.obj
 0002:00021950       ??$_Iter_random@PAV?$basic_string@_WU?$char_traits@_W@std@@V?$K2StringAllocator@_W@@@std@@PAV12@@std@@YA?AUrandom_access_iterator_tag@0@ABQAV?$basic_string@_WU?$char_traits@_W@std@@V?$K2StringAllocator@_W@@@0@0@Z 1903b950 f i mv_main.obj
 0002:00021970       ??$_Uninit_fill_n@PAV?$basic_string@_WU?$char_traits@_W@std@@V?$K2StringAllocator@_W@@@std@@IV12@V?$K2VectorAllocator@V?$basic_string@_WU?$char_traits@_W@std@@V?$K2StringAllocator@_W@@@std@@@@@std@@YAXPAV?$basic_string@_WU?$char_traits@_W@std@@V?$K2StringAllocator@_W@@@0@IABV10@AAV?$K2VectorAllocator@V?$basic_string@_WU?$char_traits@_W@std@@V?$K2StringAllocator@_W@@@std@@@@U_Nonscalar_ptr_iterator_tag@0@U_Range_checked_iterator_tag@0@@Z 1903b970 f i mv_main.obj
 0002:00021a60       ??$_Unchecked_uninitialized_move@PAV?$basic_string@_WU?$char_traits@_W@std@@V?$K2StringAllocator@_W@@@std@@PAV12@V?$K2VectorAllocator@V?$basic_string@_WU?$char_traits@_W@std@@V?$K2StringAllocator@_W@@@std@@@@@stdext@@YAPAV?$basic_string@_WU?$char_traits@_W@std@@V?$K2StringAllocator@_W@@@std@@PAV12@00AAV?$K2VectorAllocator@V?$basic_string@_WU?$char_traits@_W@std@@V?$K2StringAllocator@_W@@@std@@@@@Z 1903ba60 f i mv_main.obj
 0002:00021ad0       ??$_Fill@PAV?$basic_string@_WU?$char_traits@_W@std@@V?$K2StringAllocator@_W@@@std@@V12@@std@@YAXPAV?$basic_string@_WU?$char_traits@_W@std@@V?$K2StringAllocator@_W@@@0@0ABV10@@Z 1903bad0 f i mv_main.obj
 0002:00021b30       ??$_Move_cat@PAV?$basic_string@_WU?$char_traits@_W@std@@V?$K2StringAllocator@_W@@@std@@@std@@YA?AU_Swap_move_tag@0@ABQAV?$basic_string@_WU?$char_traits@_W@std@@V?$K2StringAllocator@_W@@@0@@Z 1903bb30 f i mv_main.obj
 0002:00021b50       ??$_Move_backward_opt@PAV?$basic_string@_WU?$char_traits@_W@std@@V?$K2StringAllocator@_W@@@std@@PAV12@@std@@YAPAV?$basic_string@_WU?$char_traits@_W@std@@V?$K2StringAllocator@_W@@@0@PAV10@00Urandom_access_iterator_tag@0@U_Swap_move_tag@0@U_Range_checked_iterator_tag@0@@Z 1903bb50 f i mv_main.obj
 0002:00021bc0       ?construct@?$allocator@V?$basic_string@_WU?$char_traits@_W@std@@V?$K2StringAllocator@_W@@@std@@@std@@QAEXPAV?$basic_string@_WU?$char_traits@_W@std@@V?$K2StringAllocator@_W@@@2@ABV32@@Z 1903bbc0 f i mv_main.obj
 0002:00021bf0       ??$_Checked_base@PAV?$basic_string@_WU?$char_traits@_W@std@@V?$K2StringAllocator@_W@@@std@@@std@@YAPAV?$basic_string@_WU?$char_traits@_W@std@@V?$K2StringAllocator@_W@@@0@AAPAV10@U_Unchanged_checked_iterator_base_type_tag@0@@Z 1903bbf0 f i mv_main.obj
 0002:00021c10       ??$_Uninit_move@PAV?$basic_string@_WU?$char_traits@_W@std@@V?$K2StringAllocator@_W@@@std@@PAV12@V?$K2VectorAllocator@V?$basic_string@_WU?$char_traits@_W@std@@V?$K2StringAllocator@_W@@@std@@@@@std@@YAPAV?$basic_string@_WU?$char_traits@_W@std@@V?$K2StringAllocator@_W@@@0@PAV10@00AAV?$K2VectorAllocator@V?$basic_string@_WU?$char_traits@_W@std@@V?$K2StringAllocator@_W@@@std@@@@U_Swap_move_tag@0@U_Range_checked_iterator_tag@0@@Z 1903bc10 f i mv_main.obj
 0002:00021da0       ??$_Debug_range@PAV?$basic_string@_WU?$char_traits@_W@std@@V?$K2StringAllocator@_W@@@std@@@std@@YAXPAV?$basic_string@_WU?$char_traits@_W@std@@V?$K2StringAllocator@_W@@@0@0PB_WI@Z 1903bda0 f i mv_main.obj
 0002:00021df0       ??$_Move_backward_opt@PAV?$basic_string@_WU?$char_traits@_W@std@@V?$K2StringAllocator@_W@@@std@@PAV12@Uforward_iterator_tag@2@@std@@YAPAV?$basic_string@_WU?$char_traits@_W@std@@V?$K2StringAllocator@_W@@@0@PAV10@00Uforward_iterator_tag@0@U_Swap_move_tag@0@U_Range_checked_iterator_tag@0@@Z 1903bdf0 f i mv_main.obj
 0002:00021e60       ??$_Construct@V?$basic_string@_WU?$char_traits@_W@std@@V?$K2StringAllocator@_W@@@std@@V12@@std@@YAXPAV?$basic_string@_WU?$char_traits@_W@std@@V?$K2StringAllocator@_W@@@0@ABV10@@Z 1903be60 f i mv_main.obj
 0002:00021f10       ??3@YAXPAX0@Z              1903bf10 f i mv_main.obj
 0002:00021f30       ??$_Debug_pointer@V?$basic_string@_WU?$char_traits@_W@std@@V?$K2StringAllocator@_W@@@std@@@std@@YAXPAV?$basic_string@_WU?$char_traits@_W@std@@V?$K2StringAllocator@_W@@@0@PB_WI@Z 1903bf30 f i mv_main.obj
 0002:00021f70       ??$swap@_WU?$char_traits@_W@std@@V?$K2StringAllocator@_W@@@std@@YAXAAV?$basic_string@_WU?$char_traits@_W@std@@V?$K2StringAllocator@_W@@@0@0@Z 1903bf70 f i mv_main.obj
 0002:00021fa0       ??$_Iter_cat@PAV?$basic_string@_WU?$char_traits@_W@std@@V?$K2StringAllocator@_W@@@std@@@std@@YA?AUrandom_access_iterator_tag@0@ABQAV?$basic_string@_WU?$char_traits@_W@std@@V?$K2StringAllocator@_W@@@0@@Z 1903bfa0 f i mv_main.obj
 0002:00021fc0       ??$_Debug_range2@PAV?$basic_string@_WU?$char_traits@_W@std@@V?$K2StringAllocator@_W@@@std@@@std@@YAXPAV?$basic_string@_WU?$char_traits@_W@std@@V?$K2StringAllocator@_W@@@0@0PB_WIUrandom_access_iterator_tag@0@@Z 1903bfc0 f i mv_main.obj
 0002:00022040       ?swap@?$basic_string@_WU?$char_traits@_W@std@@V?$K2StringAllocator@_W@@@std@@QAEXAAV12@@Z 1903c040 f i mv_main.obj
 0002:000221f0       ??$?8_W_W@std@@YA_NABV?$allocator@_W@0@0@Z 1903c1f0 f i mv_main.obj
 0002:00022210       ??0?$CCvar@_N_N@@QAE@ABV?$basic_string@_WU?$char_traits@_W@std@@V?$K2StringAllocator@_W@@@std@@_NHP6A_NPAVCConsoleElement@@ABV?$vector@V?$basic_string@_WU?$char_traits@_W@std@@V?$K2StringAllocator@_W@@@std@@V?$K2VectorAllocator@V?$basic_string@_WU?$char_traits@_W@std@@V?$K2StringAllocator@_W@@@std@@@@@@@Z@Z 1903c210 f i mv_main.obj
 0002:00022320       ??_G?$CCvar@_N_N@@UAEPAXI@Z 1903c320 f i mv_main.obj
 0002:00022320       ??_E?$CCvar@_N_N@@UAEPAXI@Z 1903c320 f i mv_main.obj
 0002:00022370       ?Toggle@?$CCvar@_N_N@@UAEXXZ 1903c370 f i mv_main.obj
 0002:000223c0       ??1?$CCvar@_N_N@@UAE@XZ    1903c3c0 f i mv_main.obj
 0002:000223f0       ?Reset@?$CCvar@_N_N@@UAEXXZ 1903c3f0 f i mv_main.obj
 0002:00022450       ?IsDefault@?$CCvar@_N_N@@UBE_NXZ 1903c450 f i mv_main.obj
 0002:00022490       ?StoreValue@?$CCvar@_N_N@@UAEXXZ 1903c490 f i mv_main.obj
 0002:000224c0       ?RestoreStored@?$CCvar@_N_N@@UAEXXZ 1903c4c0 f i mv_main.obj
 0002:000224f0       ?GetString@?$CCvar@_N_N@@UBE?AV?$basic_string@_WU?$char_traits@_W@std@@V?$K2StringAllocator@_W@@@std@@XZ 1903c4f0 f i mv_main.obj
 0002:00022540       ?SetIndex@?$CCvar@_N_N@@UAEXIABV?$basic_string@_WU?$char_traits@_W@std@@V?$K2StringAllocator@_W@@@std@@@Z 1903c540 f i mv_main.obj
 0002:00022560       ?Inc@?$CCvar@_N_N@@UAEXABV?$basic_string@_WU?$char_traits@_W@std@@V?$K2StringAllocator@_W@@@std@@@Z 1903c560 f i mv_main.obj
 0002:00022580       ?Set@?$CCvar@_N_N@@UAEXABV?$basic_string@_WU?$char_traits@_W@std@@V?$K2StringAllocator@_W@@@std@@@Z 1903c580 f i mv_main.obj
 0002:000225e0       ?AtoX@@YAAA_NABV?$basic_string@_WU?$char_traits@_W@std@@V?$K2StringAllocator@_W@@@std@@AA_N@Z 1903c5e0 f i mv_main.obj
 0002:000226d0       ?GetRangeString@?$CCvar@_N_N@@UBE?AV?$basic_string@_WU?$char_traits@_W@std@@V?$K2StringAllocator@_W@@@std@@XZ 1903c6d0 f i mv_main.obj
 0002:00022930       ??0?$CCvar@V?$basic_string@_WU?$char_traits@_W@std@@V?$K2StringAllocator@_W@@@std@@V12@@@QAE@ABV?$basic_string@_WU?$char_traits@_W@std@@V?$K2StringAllocator@_W@@@std@@0HP6A_NPAVCConsoleElement@@ABV?$vector@V?$basic_string@_WU?$char_traits@_W@std@@V?$K2StringAllocator@_W@@@std@@V?$K2VectorAllocator@V?$basic_string@_WU?$char_traits@_W@std@@V?$K2StringAllocator@_W@@@std@@@@@@@Z@Z 1903c930 f i mv_main.obj
 0002:00022a70       ?Reset@?$CCvar@V?$basic_string@_WU?$char_traits@_W@std@@V?$K2StringAllocator@_W@@@std@@V12@@@UAEXXZ 1903ca70 f i mv_main.obj
 0002:00022ae0       ?IsDefault@?$CCvar@V?$basic_string@_WU?$char_traits@_W@std@@V?$K2StringAllocator@_W@@@std@@V12@@@UBE_NXZ 1903cae0 f i mv_main.obj
 0002:00022b20       ?StoreValue@?$CCvar@V?$basic_string@_WU?$char_traits@_W@std@@V?$K2StringAllocator@_W@@@std@@V12@@@UAEXXZ 1903cb20 f i mv_main.obj
 0002:00022b60       ?RestoreStored@?$CCvar@V?$basic_string@_WU?$char_traits@_W@std@@V?$K2StringAllocator@_W@@@std@@V12@@@UAEXXZ 1903cb60 f i mv_main.obj
 0002:00022ba0       ?GetString@?$CCvar@V?$basic_string@_WU?$char_traits@_W@std@@V?$K2StringAllocator@_W@@@std@@V12@@@UBE?AV?$basic_string@_WU?$char_traits@_W@std@@V?$K2StringAllocator@_W@@@std@@XZ 1903cba0 f i mv_main.obj
 0002:00022bf0       ?SetIndex@?$CCvar@V?$basic_string@_WU?$char_traits@_W@std@@V?$K2StringAllocator@_W@@@std@@V12@@@UAEXIABV?$basic_string@_WU?$char_traits@_W@std@@V?$K2StringAllocator@_W@@@std@@@Z 1903cbf0 f i mv_main.obj
 0002:00022c10       ?GetRangeString@?$CCvar@V?$basic_string@_WU?$char_traits@_W@std@@V?$K2StringAllocator@_W@@@std@@V12@@@UBE?AV?$basic_string@_WU?$char_traits@_W@std@@V?$K2StringAllocator@_W@@@std@@XZ 1903cc10 f i mv_main.obj
 0002:00022c60       ??_G?$CCvar@V?$basic_string@_WU?$char_traits@_W@std@@V?$K2StringAllocator@_W@@@std@@V12@@@UAEPAXI@Z 1903cc60 f i mv_main.obj
 0002:00022c60       ??_E?$CCvar@V?$basic_string@_WU?$char_traits@_W@std@@V?$K2StringAllocator@_W@@@std@@V12@@@UAEPAXI@Z 1903cc60 f i mv_main.obj
 0002:00022cb0       ??1?$CCvar@V?$basic_string@_WU?$char_traits@_W@std@@V?$K2StringAllocator@_W@@@std@@V12@@@UAE@XZ 1903ccb0 f i mv_main.obj
 0002:00022d70       ?Set@?$CCvar@V?$basic_string@_WU?$char_traits@_W@std@@V?$K2StringAllocator@_W@@@std@@V12@@@UAEXABV?$basic_string@_WU?$char_traits@_W@std@@V?$K2StringAllocator@_W@@@std@@@Z 1903cd70 f i mv_main.obj
 0002:00022e60       ?Inc@?$CCvar@V?$basic_string@_WU?$char_traits@_W@std@@V?$K2StringAllocator@_W@@@std@@V12@@@UAEXABV?$basic_string@_WU?$char_traits@_W@std@@V?$K2StringAllocator@_W@@@std@@@Z 1903ce60 f i mv_main.obj
 0002:00023020       ??6CConsoleStream@@QAEAAV0@PBD@Z 1903d020 f i mv_main.obj
 0002:000230b0       ?AddOutputHistory@CConsoleStream@@AAEXABV?$basic_string@DU?$char_traits@D@std@@V?$K2StringAllocator@D@@@std@@@Z 1903d0b0 f i mv_main.obj
 0002:00023150       ?Toggle@?$CCvar@V?$basic_string@_WU?$char_traits@_W@std@@V?$K2StringAllocator@_W@@@std@@V12@@@UAEXXZ 1903d150 f i mv_main.obj
 0002:000231a0       ??0?$CCvar@V?$CVec4@M@@M@@QAE@ABV?$basic_string@_WU?$char_traits@_W@std@@V?$K2StringAllocator@_W@@@std@@V?$CVec4@M@@HP6A_NPAVCConsoleElement@@ABV?$vector@V?$basic_string@_WU?$char_traits@_W@std@@V?$K2StringAllocator@_W@@@std@@V?$K2VectorAllocator@V?$basic_string@_WU?$char_traits@_W@std@@V?$K2StringAllocator@_W@@@std@@@@@@@Z@Z 1903d1a0 f i mv_main.obj
 0002:00023330       ?UpdateChildren@?$CCvar@V?$CVec4@M@@M@@QAEXXZ 1903d330 f i mv_main.obj
 0002:000234e0       ?Set@?$CCvar@V?$CVec4@M@@M@@UAEXABV?$basic_string@_WU?$char_traits@_W@std@@V?$K2StringAllocator@_W@@@std@@@Z 1903d4e0 f i mv_main.obj
 0002:00023580       ??_G?$CCvar@V?$CVec4@M@@M@@UAEPAXI@Z 1903d580 f i mv_main.obj
 0002:00023580       ??_E?$CCvar@V?$CVec4@M@@M@@UAEPAXI@Z 1903d580 f i mv_main.obj
 0002:000235d0       ?SetIndex@?$CCvar@V?$CVec4@M@@M@@UAEXIABV?$basic_string@_WU?$char_traits@_W@std@@V?$K2StringAllocator@_W@@@std@@@Z 1903d5d0 f i mv_main.obj
 0002:00023770       ??1?$CCvar@V?$CVec4@M@@M@@UAE@XZ 1903d770 f i mv_main.obj
 0002:000237a0       ?Reset@?$CCvar@V?$CVec4@M@@M@@UAEXXZ 1903d7a0 f i mv_main.obj
 0002:00023820       ?IsDefault@?$CCvar@V?$CVec4@M@@M@@UBE_NXZ 1903d820 f i mv_main.obj
 0002:00023860       ?StoreValue@?$CCvar@V?$CVec4@M@@M@@UAEXXZ 1903d860 f i mv_main.obj
 0002:000238b0       ?RestoreStored@?$CCvar@V?$CVec4@M@@M@@UAEXXZ 1903d8b0 f i mv_main.obj
 0002:00023900       ?GetString@?$CCvar@V?$CVec4@M@@M@@UBE?AV?$basic_string@_WU?$char_traits@_W@std@@V?$K2StringAllocator@_W@@@std@@XZ 1903d900 f i mv_main.obj
 0002:00023960       ?Inc@?$CCvar@V?$CVec4@M@@M@@UAEXABV?$basic_string@_WU?$char_traits@_W@std@@V?$K2StringAllocator@_W@@@std@@@Z 1903d960 f i mv_main.obj
 0002:00023980       ?Toggle@?$CCvar@V?$CVec4@M@@M@@UAEXXZ 1903d980 f i mv_main.obj
 0002:000239a0       ??$QuoteStr@V?$basic_string@_WU?$char_traits@_W@std@@V?$K2StringAllocator@_W@@@std@@@@YA?AV?$basic_string@_WU?$char_traits@_W@std@@V?$K2StringAllocator@_W@@@std@@V01@@Z 1903d9a0 f i mv_main.obj
 0002:00023a80       ?XtoW@@YAABV?$basic_string@_WU?$char_traits@_W@std@@V?$K2StringAllocator@_W@@@std@@ABV12@@Z 1903da80 f i mv_main.obj
 0002:00023aa0       ?GetRangeString@?$CCvar@V?$CVec4@M@@M@@UBE?AV?$basic_string@_WU?$char_traits@_W@std@@V?$K2StringAllocator@_W@@@std@@XZ 1903daa0 f i mv_main.obj
 0002:00023d00       ??0?$CCvar@V?$CVec3@M@@M@@QAE@ABV?$basic_string@_WU?$char_traits@_W@std@@V?$K2StringAllocator@_W@@@std@@V?$CVec3@M@@HP6A_NPAVCConsoleElement@@ABV?$vector@V?$basic_string@_WU?$char_traits@_W@std@@V?$K2StringAllocator@_W@@@std@@V?$K2VectorAllocator@V?$basic_string@_WU?$char_traits@_W@std@@V?$K2StringAllocator@_W@@@std@@@@@@@Z@Z 1903dd00 f i mv_main.obj
 0002:00023e70       ?UpdateChildren@?$CCvar@V?$CVec3@M@@M@@QAEXXZ 1903de70 f i mv_main.obj
 0002:00024020       ?Set@?$CCvar@V?$CVec3@M@@M@@UAEXABV?$basic_string@_WU?$char_traits@_W@std@@V?$K2StringAllocator@_W@@@std@@@Z 1903e020 f i mv_main.obj
 0002:000240b0       ??_G?$CCvar@V?$CVec3@M@@M@@UAEPAXI@Z 1903e0b0 f i mv_main.obj
 0002:000240b0       ??_E?$CCvar@V?$CVec3@M@@M@@UAEPAXI@Z 1903e0b0 f i mv_main.obj
 0002:00024100       ?SetIndex@?$CCvar@V?$CVec3@M@@M@@UAEXIABV?$basic_string@_WU?$char_traits@_W@std@@V?$K2StringAllocator@_W@@@std@@@Z 1903e100 f i mv_main.obj
 0002:00024250       ??1?$CCvar@V?$CVec3@M@@M@@UAE@XZ 1903e250 f i mv_main.obj
 0002:00024280       ?Reset@?$CCvar@V?$CVec3@M@@M@@UAEXXZ 1903e280 f i mv_main.obj
 0002:00024300       ?IsDefault@?$CCvar@V?$CVec3@M@@M@@UBE_NXZ 1903e300 f i mv_main.obj
 0002:00024340       ?StoreValue@?$CCvar@V?$CVec3@M@@M@@UAEXXZ 1903e340 f i mv_main.obj
 0002:00024390       ?RestoreStored@?$CCvar@V?$CVec3@M@@M@@UAEXXZ 1903e390 f i mv_main.obj
 0002:000243e0       ?Inc@?$CCvar@V?$CVec3@M@@M@@UAEXABV?$basic_string@_WU?$char_traits@_W@std@@V?$K2StringAllocator@_W@@@std@@@Z 1903e3e0 f i mv_main.obj
 0002:00024400       ?Toggle@?$CCvar@V?$CVec3@M@@M@@UAEXXZ 1903e400 f i mv_main.obj
 0002:00024420       ?GetRangeString@?$CCvar@V?$CVec3@M@@M@@UBE?AV?$basic_string@_WU?$char_traits@_W@std@@V?$K2StringAllocator@_W@@@std@@XZ 1903e420 f i mv_main.obj
 0002:00024680       ??0?$CCvar@HH@@QAE@ABV?$basic_string@_WU?$char_traits@_W@std@@V?$K2StringAllocator@_W@@@std@@HHP6A_NPAVCConsoleElement@@ABV?$vector@V?$basic_string@_WU?$char_traits@_W@std@@V?$K2StringAllocator@_W@@@std@@V?$K2VectorAllocator@V?$basic_string@_WU?$char_traits@_W@std@@V?$K2StringAllocator@_W@@@std@@@@@@@Z@Z 1903e680 f i mv_main.obj
 0002:00024790       ??_E?$CCvar@HH@@UAEPAXI@Z  1903e790 f i mv_main.obj
 0002:00024790       ??_G?$CCvar@HH@@UAEPAXI@Z  1903e790 f i mv_main.obj
 0002:000247e0       ?Set@?$CCvar@HH@@UAEXABV?$basic_string@_WU?$char_traits@_W@std@@V?$K2StringAllocator@_W@@@std@@@Z 1903e7e0 f i mv_main.obj
 0002:00024930       ?AtoX@@YAAAHABV?$basic_string@_WU?$char_traits@_W@std@@V?$K2StringAllocator@_W@@@std@@AAH@Z 1903e930 f i mv_main.obj
 0002:00024970       ?Inc@?$CCvar@HH@@UAEXABV?$basic_string@_WU?$char_traits@_W@std@@V?$K2StringAllocator@_W@@@std@@@Z 1903e970 f i mv_main.obj
 0002:000249e0       ?Toggle@?$CCvar@HH@@UAEXXZ 1903e9e0 f i mv_main.obj
 0002:00024a30       ??1?$CCvar@HH@@UAE@XZ      1903ea30 f i mv_main.obj
 0002:00024a60       ?Reset@?$CCvar@HH@@UAEXXZ  1903ea60 f i mv_main.obj
 0002:00024ac0       ?IsDefault@?$CCvar@HH@@UBE_NXZ 1903eac0 f i mv_main.obj
 0002:00024b00       ?StoreValue@?$CCvar@HH@@UAEXXZ 1903eb00 f i mv_main.obj
 0002:00024b30       ?RestoreStored@?$CCvar@HH@@UAEXXZ 1903eb30 f i mv_main.obj
 0002:00024b60       ?GetString@?$CCvar@HH@@UBE?AV?$basic_string@_WU?$char_traits@_W@std@@V?$K2StringAllocator@_W@@@std@@XZ 1903eb60 f i mv_main.obj
 0002:00024bc0       ?SetIndex@?$CCvar@HH@@UAEXIABV?$basic_string@_WU?$char_traits@_W@std@@V?$K2StringAllocator@_W@@@std@@@Z 1903ebc0 f i mv_main.obj
 0002:00024be0       ?GetRangeString@?$CCvar@HH@@UBE?AV?$basic_string@_WU?$char_traits@_W@std@@V?$K2StringAllocator@_W@@@std@@XZ 1903ebe0 f i mv_main.obj
 0002:00024e40       ??0SMv@@QAE@XZ             1903ee40 f i mv_main.obj
 0002:00024e70       ??0CCamera@@QAE@XZ         1903ee70 f i mv_main.obj
 0002:00025060       ??0CPlane@@QAE@MMMM@Z      1903f060 f i mv_main.obj
 0002:000250c0       ??0?$CInputState@_N@@QAE@ABV?$basic_string@_WU?$char_traits@_W@std@@V?$K2StringAllocator@_W@@@std@@H@Z 1903f0c0 f i mv_main.obj
 0002:00025110       ?Do@?$CInputState@_N@@UAEXMMABV?$CVec2@M@@ABV?$basic_string@_WU?$char_traits@_W@std@@V?$K2StringAllocator@_W@@@std@@@Z 1903f110 f i mv_main.obj
 0002:00025160       ??_E?$CInputState@_N@@UAEPAXI@Z 1903f160 f i mv_main.obj
 0002:00025160       ??_G?$CInputState@_N@@UAEPAXI@Z 1903f160 f i mv_main.obj
 0002:000251b0       ??1?$CInputState@_N@@UAE@XZ 1903f1b0 f i mv_main.obj
 0002:000251e0       ??R?$CInputState@_N@@UAEXMMABV?$CVec2@M@@ABV?$basic_string@_WU?$char_traits@_W@std@@V?$K2StringAllocator@_W@@@std@@@Z 1903f1e0 f i mv_main.obj
 0002:00025230       ??0CBufferBit@@QAE@XZ      1903f230 f i mv_main.obj
 0002:00025290       ?GetLength@IBuffer@@UBEIXZ 1903f290 f i mv_main.obj
 0002:000252b0       ?GetReadPos@IBuffer@@UBEIXZ 1903f2b0 f i mv_main.obj
 0002:000252d0       ?Duplicate@IBuffer@@UAEPADI@Z 1903f2d0 f i mv_main.obj
 0002:00025310       ?Duplicate@IBuffer@@UAEPADXZ 1903f310 f i mv_main.obj
 0002:00025350       ?Get@IBuffer@@UBEPBDXZ     1903f350 f i mv_main.obj
 0002:00025380       ?Clear@IBuffer@@UAEXD@Z    1903f380 f i mv_main.obj
 0002:000253e0       ??4IBuffer@@UAEAAV0@PB_W@Z 1903f3e0 f i mv_main.obj
 0002:00025430       ??4IBuffer@@UAEAAV0@ABV0@@Z 1903f430 f i mv_main.obj
 0002:00025490       ??AIBuffer@@UAEAADI@Z      1903f490 f i mv_main.obj
 0002:00025560       ??AIBuffer@@UBEDI@Z        1903f560 f i mv_main.obj
 0002:00025630       ?Duplicate@IBuffer@@UAEPADII@Z 1903f630 f i mv_main.obj
 0002:000256c0       ?Get@IBuffer@@UBEPBDI@Z    1903f6c0 f i mv_main.obj
 0002:00025700       ??0CBufferDynamic@@QAE@I@Z 1903f700 f i mv_main.obj
 0002:00025790       ?Rewind@IBuffer@@UBEXXZ    1903f790 f i mv_main.obj
 0002:000257c0       ??_ECBufferDynamic@@UAEPAXI@Z 1903f7c0 f i mv_main.obj
 0002:000257c0       ??_GCBufferDynamic@@UAEPAXI@Z 1903f7c0 f i mv_main.obj
 0002:00025810       ??1CBufferDynamic@@UAE@XZ  1903f810 f i mv_main.obj
 0002:00025840       ?Append@CBufferDynamic@@UAE_NPBXI@Z 1903f840 f i mv_main.obj
 0002:00025950       ?Rewind@CBufferBit@@UBEXXZ 1903f950 f i mv_main.obj
 0002:00025980       ??_ECBufferBit@@UAEPAXI@Z  1903f980 f i mv_main.obj
 0002:00025980       ??_GCBufferBit@@UAEPAXI@Z  1903f980 f i mv_main.obj
 0002:000259d0       ??1CBufferBit@@UAE@XZ      1903f9d0 f i mv_main.obj
 0002:00025a00       ?Copy@CMemManager@@SAPAXPAXPBXI@Z 1903fa00 f i mv_main.obj
 0002:00025a30       ??$MAX@I@@YAABIABI0@Z      1903fa30 f i mv_main.obj
 0002:00025a70       ??1SMv@@QAE@XZ             1903fa70 f i mv_main.obj
 0002:00025aa0       ??1CCamera@@QAE@XZ         1903faa0 f i mv_main.obj
 0002:00025ac2       ?Init@CMemManager@@AAEXXZ  1903fac2 f   k2_debug:k2_debug.dll
 0002:00025ac8       ?Deallocate@CMemManager@@SAXPAXPBDW4MemoryType@@1F@Z 1903fac8 f   k2_debug:k2_debug.dll
 0002:00025ace       ?heap_malloc@MICRO_ALLOCATOR@@YAPAXPAVHeapManager@1@I@Z 1903face f   k2_debug:k2_debug.dll
 0002:00025ad4       ??0?$CVec4@M@@QAE@MMMM@Z   1903fad4 f   k2_debug:k2_debug.dll
 0002:00025ada       ?SetVec3@ICvar@@SAXABV?$basic_string@_WU?$char_traits@_W@std@@V?$K2StringAllocator@_W@@@std@@MMM@Z 1903fada f   k2_debug:k2_debug.dll
 0002:00025ae0       ??1?$CBoundingBox@M@@QAE@XZ 1903fae0 f   k2_debug:k2_debug.dll
 0002:00025ae6       ?GetDim@?$CBoundingBox@M@@QBEMW4EVectorComponent@@@Z 1903fae6 f   k2_debug:k2_debug.dll
 0002:00025aec       ??D?$CVec3@M@@QBE?AV0@M@Z  1903faec f   k2_debug:k2_debug.dll
 0002:00025af2       ??H?$CVec3@M@@QBE?AV0@ABV0@@Z 1903faf2 f   k2_debug:k2_debug.dll
 0002:00025af8       ?GetMin@?$CBoundingBox@M@@QBEABV?$CVec3@M@@XZ 1903faf8 f   k2_debug:k2_debug.dll
 0002:00025afe       ?GetMax@?$CBoundingBox@M@@QBEABV?$CVec3@M@@XZ 1903fafe f   k2_debug:k2_debug.dll
 0002:00025b04       ??0?$CVec3@M@@QAE@MMM@Z    1903fb04 f   k2_debug:k2_debug.dll
 0002:00025b0a       ?GetModelBounds@CResourceManager@@QAEABV?$CBoundingBox@M@@I@Z 1903fb0a f   k2_debug:k2_debug.dll
 0002:00025b10       ?Clear@?$CVec3@M@@QAEAAV1@XZ 1903fb10 f   k2_debug:k2_debug.dll
 0002:00025b16       ??A?$CVec3@M@@QBEABMH@Z    1903fb16 f   k2_debug:k2_debug.dll
 0002:00025b1c       ??RCCmd@@QAE_NABV?$basic_string@_WU?$char_traits@_W@std@@V?$K2StringAllocator@_W@@@std@@000000000@Z 1903fb1c f   k2_debug:k2_debug.dll
 0002:00025b22       ?SetFloat@ICvar@@SAXABV?$basic_string@_WU?$char_traits@_W@std@@V?$K2StringAllocator@_W@@@std@@M@Z 1903fb22 f   k2_debug:k2_debug.dll
 0002:00025b28       ?StartAnim@CSkeleton@@QAEHABV?$basic_string@_WU?$char_traits@_W@std@@V?$K2StringAllocator@_W@@@std@@IHHMI@Z 1903fb28 f   k2_debug:k2_debug.dll
 0002:00025b2e       ?Evaluate@CUIScriptToken@@QAEABV?$basic_string@_WU?$char_traits@_W@std@@V?$K2StringAllocator@_W@@@std@@XZ 1903fb2e f   k2_debug:k2_debug.dll
 0002:00025b34       ?SetAnimSpeed@CSkeleton@@QAEXMH@Z 1903fb34 f   k2_debug:k2_debug.dll
 0002:00025b3a       ?SetAnimTime@CSkeleton@@QAEXMH@Z 1903fb3a f   k2_debug:k2_debug.dll
 0002:00025b40       ?GetModel@CResourceManager@@QAEPAVCModel@@I@Z 1903fb40 f   k2_debug:k2_debug.dll
 0002:00025b46       ?SpawnThread@CEffect@@QAEPAVCEffectThread@@I@Z 1903fb46 f   k2_debug:k2_debug.dll
 0002:00025b4c       ?GetEffect@CResourceManager@@QAEPAVCEffect@@I@Z 1903fb4c f   k2_debug:k2_debug.dll
 0002:00025b52       ?Register@CResourceManager@@QAEIABV?$basic_string@_WU?$char_traits@_W@std@@V?$K2StringAllocator@_W@@@std@@II@Z 1903fb52 f   k2_debug:k2_debug.dll
 0002:00025b58       ?IsPersistent@CEffectThread@@QAE_NXZ 1903fb58 f   k2_debug:k2_debug.dll
 0002:00025b5e       ?Expire@CEffectThread@@QAEXI@Z 1903fb5e f   k2_debug:k2_debug.dll
 0002:00025b64       ?IsDeferred@CEffectThread@@QAE_NXZ 1903fb64 f   k2_debug:k2_debug.dll
 0002:00025b6a       ?AddOutputHistoryT@CConsoleStream@@AAEXABV?$basic_string@_WU?$char_traits@_W@std@@V?$K2StringAllocator@_W@@@std@@@Z 1903fb6a f   k2_debug:k2_debug.dll
 0002:00025b70       ?Execute@CEffectThread@@QAE_NI@Z 1903fb70 f   k2_debug:k2_debug.dll
 0002:00025b76       ?GetUseEntityEffectScale@CEffectThread@@QAE_NXZ 1903fb76 f   k2_debug:k2_debug.dll
 0002:00025b7c       ??0?$CVec3@M@@QAE@XZ       1903fb7c f   k2_debug:k2_debug.dll
 0002:00025b82       ?PlaySFXSound@CSoundManager@@QAEIIPBV?$CVec3@M@@0MMHHHHHHHMMHM@Z 1903fb82 f   k2_debug:k2_debug.dll
 0002:00025b88       ?StopHandle@CSoundManager@@QAEXI@Z 1903fb88 f   k2_debug:k2_debug.dll
 0002:00025b8e       ?Register@CResourceManager@@QAEIPAVIResource@@II@Z 1903fb8e f   k2_debug:k2_debug.dll
 0002:00025b94       ??0CSample@@QAE@ABV?$basic_string@_WU?$char_traits@_W@std@@V?$K2StringAllocator@_W@@@std@@H@Z 1903fb94 f   k2_debug:k2_debug.dll
 0002:00025b9a       ?M_Randnum@@YAHHH@Z        1903fb9a f   k2_debug:k2_debug.dll
 0002:00025ba0       ??Y?$CVec3@M@@QAEAAV0@ABV0@@Z 1903fba0 f   k2_debug:k2_debug.dll
 0002:00025ba6       ??Z?$CVec3@M@@QAEAAV0@ABV0@@Z 1903fba6 f   k2_debug:k2_debug.dll
 0002:00025bac       ?GetActiveInterface@CUIManager@@QBEPAVCInterface@@XZ 1903fbac f   k2_debug:k2_debug.dll
 0002:00025bb2       ?Modified@ICvar@@QAEXXZ    1903fbb2 f   k2_debug:k2_debug.dll
 0002:00025bb8       ?UpdateHandle@CSoundManager@@QAE_NIABV?$CVec3@M@@0_N@Z 1903fbb8 f   k2_debug:k2_debug.dll
 0002:00025bbe       ??G?$CVec3@M@@QBE?AV0@ABV0@@Z 1903fbbe f   k2_debug:k2_debug.dll
 0002:00025bc4       ?GetAnimName@CResourceManager@@QAEABV?$basic_string@_WU?$char_traits@_W@std@@V?$K2StringAllocator@_W@@@std@@II@Z 1903fbc4 f   k2_debug:k2_debug.dll
 0002:00025bca       ?Trigger@CUITrigger@@QAEXABV?$basic_string@_WU?$char_traits@_W@std@@V?$K2StringAllocator@_W@@@std@@_N@Z 1903fbca f   k2_debug:k2_debug.dll
 0002:00025bd0       ?GetInterface@CUIManager@@QBEPAVCInterface@@ABV?$basic_string@_WU?$char_traits@_W@std@@V?$K2StringAllocator@_W@@@std@@@Z 1903fbd0 f   k2_debug:k2_debug.dll
 0002:00025bd6       ?SetModified@ICvar@@QAEX_N@Z 1903fbd6 f   k2_debug:k2_debug.dll
 0002:00025bdc       ?ExecuteScript@CConsole@@QAE_NABV?$basic_string@_WU?$char_traits@_W@std@@V?$K2StringAllocator@_W@@@std@@_NPAV?$map@V?$basic_string@_WU?$char_traits@_W@std@@V?$K2StringAllocator@_W@@@std@@V12@U?$less@V?$basic_string@_WU?$char_traits@_W@std@@V?$K2StringAllocator@_W@@@std@@@2@V?$K2MapAllocator@U?$pair@$$CBV?$basic_string@_WU?$char_traits@_W@std@@V?$K2StringAllocator@_W@@@std@@V12@@std@@@@@@@Z 1903fbdc f   k2_debug:k2_debug.dll
 0002:00025be2       ?LoadInterface@CUIManager@@QAEIABV?$basic_string@_WU?$char_traits@_W@std@@V?$K2StringAllocator@_W@@@std@@@Z 1903fbe2 f   k2_debug:k2_debug.dll
 0002:00025be8       ?SetString@ICvar@@SAXABV?$basic_string@_WU?$char_traits@_W@std@@V?$K2StringAllocator@_W@@@std@@0@Z 1903fbe8 f   k2_debug:k2_debug.dll
 0002:00025bee       ?BindImpulse@CActionRegistry@@QAEXW4EBindTable@@W4EButton@@HABV?$basic_string@_WU?$char_traits@_W@std@@V?$K2StringAllocator@_W@@@std@@2H@Z 1903fbee f   k2_debug:k2_debug.dll
 0002:00025bf4       ?BindButton@CActionRegistry@@QAEXW4EBindTable@@W4EButton@@HABV?$basic_string@_WU?$char_traits@_W@std@@V?$K2StringAllocator@_W@@@std@@2H@Z 1903fbf4 f   k2_debug:k2_debug.dll
 0002:00025bfa       ?BindAxis@CActionRegistry@@QAEXW4EBindTable@@W4EAxis@@HABV?$basic_string@_WU?$char_traits@_W@std@@V?$K2StringAllocator@_W@@@std@@2H@Z 1903fbfa f   k2_debug:k2_debug.dll
 0002:00025c00       ??0CException@@QAE@ABV?$basic_string@_WU?$char_traits@_W@std@@V?$K2StringAllocator@_W@@@std@@W4EExceptionType@@@Z 1903fc00 f   k2_debug:k2_debug.dll
 0002:00025c06       ??1CException@@QAE@XZ      1903fc06 f   k2_debug:k2_debug.dll
 0002:00025c0c       ??0CException@@QAE@ABV0@@Z 1903fc0c f   k2_debug:k2_debug.dll
 0002:00025c12       ?XtoW@@YA?AV?$basic_string@_WU?$char_traits@_W@std@@V?$K2StringAllocator@_W@@@std@@ABV?$CVec3@M@@HHH@Z 1903fc12 f   k2_debug:k2_debug.dll
 0002:00025c18       ??1CSceneEntity@@QAE@XZ    1903fc18 f   k2_debug:k2_debug.dll
 0002:00025c1e       ?AddEntity@CSceneManager@@QAEAAUSSceneEntityEntry@@ABVCSceneEntity@@_N@Z 1903fc1e f   k2_debug:k2_debug.dll
 0002:00025c24       ?SetPosition@CSceneEntity@@QAEXABV?$CVec3@M@@@Z 1903fc24 f   k2_debug:k2_debug.dll
 0002:00025c2a       ?Clear@CSceneEntity@@QAEXXZ 1903fc2a f   k2_debug:k2_debug.dll
 0002:00025c30       ??0CSceneEntity@@QAE@XZ    1903fc30 f   k2_debug:k2_debug.dll
 0002:00025c36       ?Rect@CDraw2D@@QAEXMMMMH@Z 1903fc36 f   k2_debug:k2_debug.dll
 0002:00025c3c       ?GetScreenH@CDraw2D@@QAEMXZ 1903fc3c f   k2_debug:k2_debug.dll
 0002:00025c42       ?Render@CSceneManager@@QAEXXZ 1903fc42 f   k2_debug:k2_debug.dll
 0002:00025c48       ??1CBitmap@@QAE@XZ         1903fc48 f   k2_debug:k2_debug.dll
 0002:00025c4e       ?RenderFogofWar@CVid@@QAEXM_NM@Z 1903fc4e f   k2_debug:k2_debug.dll
 0002:00025c54       ?UpdateFogofWar@CVid@@QAEXABVCBitmap@@@Z 1903fc54 f   k2_debug:k2_debug.dll
 0002:00025c5a       ?GetSize@CBitmap@@QBEHXZ   1903fc5a f   k2_debug:k2_debug.dll
 0002:00025c60       ?GetBuffer@CBitmap@@QAEPAEXZ 1903fc60 f   k2_debug:k2_debug.dll
 0002:00025c66       ??0CBitmap@@QAE@HHH@Z      1903fc66 f   k2_debug:k2_debug.dll
 0002:00025c6c       ?GetInteger@ICvar@@SAHABV?$basic_string@_WU?$char_traits@_W@std@@V?$K2StringAllocator@_W@@@std@@@Z 1903fc6c f   k2_debug:k2_debug.dll
 0002:00025c72       ?AddOffset@CCamera@@QAEXABV?$CVec3@M@@@Z 1903fc72 f   k2_debug:k2_debug.dll
 0002:00025c78       ?Transform@?$CBoundingBox@M@@QAEXABV?$CVec3@M@@ABVCAxis@@M@Z 1903fc78 f   k2_debug:k2_debug.dll
 0002:00025c7e       ?GetBounds@CModel@@QBEABV?$CBoundingBox@M@@XZ 1903fc7e f   k2_debug:k2_debug.dll
 0002:00025c84       ?PrepCamera@CSceneManager@@QAEXABVCCamera@@@Z 1903fc84 f   k2_debug:k2_debug.dll
 0002:00025c8a       ?Cleanup@CEffectThread@@QAEXXZ 1903fc8a f   k2_debug:k2_debug.dll
 0002:00025c90       ?Modify@CSceneEntityModifier@@QBEXAAVCSceneEntity@@@Z 1903fc90 f   k2_debug:k2_debug.dll
 0002:00025c96       ?AddParticleSystem@CSceneManager@@QAEXPBVCParticleSystem@@_N@Z 1903fc96 f   k2_debug:k2_debug.dll
 0002:00025c9c       ?ClearEvents@CSkeleton@@QAEXXZ 1903fc9c f   k2_debug:k2_debug.dll
 0002:00025ca2       ?Execute@CEventScript@@QAE_NABV?$basic_string@_WU?$char_traits@_W@std@@V?$K2StringAllocator@_W@@@std@@H@Z 1903fca2 f   k2_debug:k2_debug.dll
 0002:00025ca8       ?SetWorkingDirectory@CFileManager@@QAEXABV?$basic_string@_WU?$char_traits@_W@std@@V?$K2StringAllocator@_W@@@std@@@Z 1903fca8 f   k2_debug:k2_debug.dll
 0002:00025cae       ?Filename_GetPath@@YA?AV?$basic_string@_WU?$char_traits@_W@std@@V?$K2StringAllocator@_W@@@std@@ABV12@@Z 1903fcae f   k2_debug:k2_debug.dll
 0002:00025cb4       ?GetPath@CResourceManager@@QAEABV?$basic_string@_WU?$char_traits@_W@std@@V?$K2StringAllocator@_W@@@std@@I@Z 1903fcb4 f   k2_debug:k2_debug.dll
 0002:00025cba       ?CheckEvents@CSkeleton@@QAE_NXZ 1903fcba f   k2_debug:k2_debug.dll
 0002:00025cc0       ?ComputeAnimFrame@CSkeleton@@QAEXIHAAHAAM1@Z 1903fcc0 f   k2_debug:k2_debug.dll
 0002:00025cc6       ?Pose@CSkeleton@@QAEXIMM@Z 1903fcc6 f   k2_debug:k2_debug.dll
 0002:00025ccc       ?GetPosition@CSceneEntity@@QBEABV?$CVec3@M@@XZ 1903fccc f   k2_debug:k2_debug.dll
 0002:00025cd2       ??A?$CVec3@M@@QAEAAMH@Z    1903fcd2 f   k2_debug:k2_debug.dll
 0002:00025cd8       ??0?$CVec4@M@@QAE@ABV?$CVec3@M@@M@Z 1903fcd8 f   k2_debug:k2_debug.dll
 0002:00025cde       ?GetSkin@CResourceManager@@QAEIIABV?$basic_string@_WU?$char_traits@_W@std@@V?$K2StringAllocator@_W@@@std@@@Z 1903fcde f   k2_debug:k2_debug.dll
 0002:00025ce4       ?SetListenerPosition@CSoundManager@@QAEXABV?$CVec3@M@@000_N@Z 1903fce4 f   k2_debug:k2_debug.dll
 0002:00025cea       ?DefaultCamera@CCamera@@QAEXMM@Z 1903fcea f   k2_debug:k2_debug.dll
 0002:00025cf0       ?GetScreenW@CVid@@QAEHXZ   1903fcf0 f   k2_debug:k2_debug.dll
 0002:00025cf6       ?GetScreenH@CVid@@QAEHXZ   1903fcf6 f   k2_debug:k2_debug.dll
 0002:00025cfc       ?Clear@CSceneManager@@QAEXXZ 1903fcfc f   k2_debug:k2_debug.dll
 0002:00025d02       ?ClearBackground@CSceneManager@@QAEXXZ 1903fd02 f   k2_debug:k2_debug.dll
 0002:00025d08       ?SetCursorHidden@CInput@@QAEXW4ECursor@@W4ECursorBool@@@Z 1903fd08 f   k2_debug:k2_debug.dll
 0002:00025d0e       ?SetCursorFrozen@CInput@@QAEXW4ECursor@@W4ECursorBool@@@Z 1903fd0e f   k2_debug:k2_debug.dll
 0002:00025d14       ?ExecuteBinds@CInput@@QAEXW4EBindTable@@H@Z 1903fd14 f   k2_debug:k2_debug.dll
 0002:00025d1a       ?LoadNextComponent@CWorld@@QAE_NXZ 1903fd1a f   k2_debug:k2_debug.dll
 0002:00025d20       ?StartLoad@CWorld@@QAE_NABV?$basic_string@_WU?$char_traits@_W@std@@V?$K2StringAllocator@_W@@@std@@_N@Z 1903fd20 f   k2_debug:k2_debug.dll
 0002:00025d26       ?Free@CWorld@@QAEXXZ       1903fd26 f   k2_debug:k2_debug.dll
 0002:00025d2c       ?SetModel@CSkeleton@@QAEXI@Z 1903fd2c f   k2_debug:k2_debug.dll
 0002:00025d32       ?IsModified@ICvar@@QAE_NXZ 1903fd32 f   k2_debug:k2_debug.dll
 0002:00025d38       ?SetActiveInterface@CUIManager@@QAEXABV?$basic_string@_WU?$char_traits@_W@std@@V?$K2StringAllocator@_W@@@std@@@Z 1903fd38 f   k2_debug:k2_debug.dll
 0002:00025d3e       ?IsActive@IModalDialog@@SA_NXZ 1903fd3e f   k2_debug:k2_debug.dll
 0002:00025d44       ?CalcFovY@CCamera@@QAEXXZ  1903fd44 f   k2_debug:k2_debug.dll
 0002:00025d4a       ?AddInputHistory@CConsole@@QAEXABV?$basic_string@_WU?$char_traits@_W@std@@V?$K2StringAllocator@_W@@@std@@@Z 1903fd4a f   k2_debug:k2_debug.dll
 0002:00025d50       ?Filename_GetExtension@@YA?AV?$basic_string@_WU?$char_traits@_W@std@@V?$K2StringAllocator@_W@@@std@@ABV12@@Z 1903fd50 f   k2_debug:k2_debug.dll
 0002:00025d56       ?SanitizePath@CFileManager@@QAE?AV?$basic_string@_WU?$char_traits@_W@std@@V?$K2StringAllocator@_W@@@std@@ABV23@_N@Z 1903fd56 f   k2_debug:k2_debug.dll
 0002:00025d5c       ?GetRootDir@CSystem@@QAEABV?$basic_string@_WU?$char_traits@_W@std@@V?$K2StringAllocator@_W@@@std@@XZ 1903fd5c f   k2_debug:k2_debug.dll
 0002:00025d62       ??1CFileHandle@@QAE@XZ     1903fd62 f   k2_debug:k2_debug.dll
 0002:00025d68       ??6CFileHandle@@QAEAAV0@ABV?$basic_string@_WU?$char_traits@_W@std@@V?$K2StringAllocator@_W@@@std@@@Z 1903fd68 f   k2_debug:k2_debug.dll
 0002:00025d6e       ??6CFileHandle@@QAEAAV0@PB_W@Z 1903fd6e f   k2_debug:k2_debug.dll
 0002:00025d74       ??0CFileHandle@@QAE@ABV?$basic_string@_WU?$char_traits@_W@std@@V?$K2StringAllocator@_W@@@std@@H0@Z 1903fd74 f   k2_debug:k2_debug.dll
 0002:00025d7a       ??H?$CVec2@M@@QBE?AV0@ABV0@@Z 1903fd7a f   k2_debug:k2_debug.dll
 0002:00025d80       ??0?$CVec2@M@@QAE@MM@Z     1903fd80 f   k2_debug:k2_debug.dll
 0002:00025d86       ??0?$CVec2@M@@QAE@XZ       1903fd86 f   k2_debug:k2_debug.dll
 0002:00025d8c       ?Milliseconds@CSystem@@QAEIXZ 1903fd8c f   k2_debug:k2_debug.dll
 0002:00025d92       ?GetRandomSeed32@CSystem@@QAEIXZ 1903fd92 f   k2_debug:k2_debug.dll
 0002:00025d98       ?FormatFloat@@YAXNHIHAAV?$basic_string@_WU?$char_traits@_W@std@@V?$K2StringAllocator@_W@@@std@@@Z 1903fd98 f   k2_debug:k2_debug.dll
 0002:00025d9e       ?GetName@CMesh@@QBEABV?$basic_string@_WU?$char_traits@_W@std@@V?$K2StringAllocator@_W@@@std@@XZ 1903fd9e f   k2_debug:k2_debug.dll
 0002:00025da4       ?GetDefaultShaderName@CMesh@@QBEABV?$basic_string@_WU?$char_traits@_W@std@@V?$K2StringAllocator@_W@@@std@@XZ 1903fda4 f   k2_debug:k2_debug.dll
 0002:00025daa       ?GetMesh@CK2Model@@QAEPAVCMesh@@I@Z 1903fdaa f   k2_debug:k2_debug.dll
 0002:00025db0       ?GetNumMeshes@CK2Model@@QBEIXZ 1903fdb0 f   k2_debug:k2_debug.dll
 0002:00025db6       ??1CXMLDoc@@QAE@XZ         1903fdb6 f   k2_debug:k2_debug.dll
 0002:00025dbc       ?WriteFile@CXMLDoc@@QAEXABV?$basic_string@_WU?$char_traits@_W@std@@V?$K2StringAllocator@_W@@@std@@_N@Z 1903fdbc f   k2_debug:k2_debug.dll
 0002:00025dc2       ?ReadBuffer@CXMLDoc@@QAE_NPBDH@Z 1903fdc2 f   k2_debug:k2_debug.dll
 0002:00025dc8       ?GetBuffer@CFileHandle@@QAEPBDAAI@Z 1903fdc8 f   k2_debug:k2_debug.dll
 0002:00025dce       ??0CXMLDoc@@QAE@W4EXMLEncoding@@@Z 1903fdce f   k2_debug:k2_debug.dll
 0002:00025dd4       ?GetFileList@CFileManager@@QAE_NABV?$basic_string@_WU?$char_traits@_W@std@@V?$K2StringAllocator@_W@@@std@@0_NAAV?$vector@V?$basic_string@_WU?$char_traits@_W@std@@V?$K2StringAllocator@_W@@@std@@V?$K2VectorAllocator@V?$basic_string@_WU?$char_traits@_W@std@@V?$K2StringAllocator@_W@@@std@@@@@@1@Z 1903fdd4 f   k2_debug:k2_debug.dll
 0002:00025dda       ?FormatFloat@@YAXNHIHHAAV?$basic_string@_WU?$char_traits@_W@std@@V?$K2StringAllocator@_W@@@std@@@Z 1903fdda f   k2_debug:k2_debug.dll
 0002:00025de0       ?Write@CFileHandle@@QAEIPBXI@Z 1903fde0 f   k2_debug:k2_debug.dll
 0002:00025de6       ?WriteBits@CBufferBit@@QAEXII@Z 1903fde6 f   k2_debug:k2_debug.dll
 0002:00025dec       ?ReadBits@CBufferBit@@QBEII@Z 1903fdec f   k2_debug:k2_debug.dll
 0002:00025df2       ?ReadBit@CBufferBit@@QBEIXZ 1903fdf2 f   k2_debug:k2_debug.dll
 0002:00025df8       ?WriteBit@CBufferBit@@QAEXI@Z 1903fdf8 f   k2_debug:k2_debug.dll
 0002:00025dfe       ?TokenizeString@@YA?AV?$vector@V?$basic_string@_WU?$char_traits@_W@std@@V?$K2StringAllocator@_W@@@std@@V?$K2VectorAllocator@V?$basic_string@_WU?$char_traits@_W@std@@V?$K2StringAllocator@_W@@@std@@@@@@ABV?$basic_string@_WU?$char_traits@_W@std@@V?$K2StringAllocator@_W@@@std@@_W@Z 1903fdfe f   k2_debug:k2_debug.dll
 0002:00025e04       ?ReadLine@CFileHandle@@QAE?AV?$basic_string@_WU?$char_traits@_W@std@@V?$K2StringAllocator@_W@@@std@@XZ 1903fe04 f   k2_debug:k2_debug.dll
 0002:00025e0a       ?IsEOF@CFileHandle@@QBE_NXZ 1903fe0a f   k2_debug:k2_debug.dll
 0002:00025e10       ?GetCursor@CResourceManager@@QAEPAVCCursor@@I@Z 1903fe10 f   k2_debug:k2_debug.dll
 0002:00025e16       ?PrecacheSkin@CResourceManager@@QAEXII@Z 1903fe16 f   k2_debug:k2_debug.dll
 0002:00025e1c       ?WriteTGA@CBitmap@@QAE_NABV?$basic_string@_WU?$char_traits@_W@std@@V?$K2StringAllocator@_W@@@std@@@Z 1903fe1c f   k2_debug:k2_debug.dll
 0002:00025e22       ?Filename_StripExtension@@YA?AV?$basic_string@_WU?$char_traits@_W@std@@V?$K2StringAllocator@_W@@@std@@ABV12@@Z 1903fe22 f   k2_debug:k2_debug.dll
 0002:00025e28       ??0CBitmap@@QAE@ABV?$basic_string@_WU?$char_traits@_W@std@@V?$K2StringAllocator@_W@@@std@@_N@Z 1903fe28 f   k2_debug:k2_debug.dll
 0002:00025e2e       ?Flip@CBitmap@@QAEXXZ      1903fe2e f   k2_debug:k2_debug.dll
 0002:00025e34       ??A?$CVec4@M@@QAEAAMH@Z    1903fe34 f   k2_debug:k2_debug.dll
 0002:00025e3a       ?FormatInt@@YAX_KHIH_WAAV?$basic_string@_WU?$char_traits@_W@std@@V?$K2StringAllocator@_W@@@std@@@Z 1903fe3a f   k2_debug:k2_debug.dll
 0002:00025e40       ??1CEntitySnapshot@@QAE@XZ 1903fe40 f   k2_debug:k2_debug.dll
 0002:00025e46       ??1CPath@@QAE@XZ           1903fe46 f   k2_debug:k2_debug.dll
 0002:00025e4c       ??1ICvar@@UAE@XZ           1903fe4c f   k2_debug:k2_debug.dll
 0002:00025e52       ?DefaultCvar_Cmd@@YA_NPAVCConsoleElement@@ABV?$vector@V?$basic_string@_WU?$char_traits@_W@std@@V?$K2StringAllocator@_W@@@std@@V?$K2VectorAllocator@V?$basic_string@_WU?$char_traits@_W@std@@V?$K2StringAllocator@_W@@@std@@@@@@@Z 1903fe52 f   k2_debug:k2_debug.dll
 0002:00025e58       ??0ICvar@@QAE@ABV?$basic_string@_WU?$char_traits@_W@std@@V?$K2StringAllocator@_W@@@std@@HW4ECvarType@@P6A_NPAVCConsoleElement@@ABV?$vector@V?$basic_string@_WU?$char_traits@_W@std@@V?$K2StringAllocator@_W@@@std@@V?$K2VectorAllocator@V?$basic_string@_WU?$char_traits@_W@std@@V?$K2StringAllocator@_W@@@std@@@@@@@Z@Z 1903fe58 f   k2_debug:k2_debug.dll
 0002:00025e5e       ?Execute@CConsoleElement@@UAEXABV?$vector@V?$basic_string@_WU?$char_traits@_W@std@@V?$K2StringAllocator@_W@@@std@@V?$K2VectorAllocator@V?$basic_string@_WU?$char_traits@_W@std@@V?$K2StringAllocator@_W@@@std@@@@@@@Z 1903fe5e f   k2_debug:k2_debug.dll
 0002:00025e64       ?Evaluate@CConsoleElement@@UAE?AV?$basic_string@_WU?$char_traits@_W@std@@V?$K2StringAllocator@_W@@@std@@ABV?$vector@V?$basic_string@_WU?$char_traits@_W@std@@V?$K2StringAllocator@_W@@@std@@V?$K2VectorAllocator@V?$basic_string@_WU?$char_traits@_W@std@@V?$K2StringAllocator@_W@@@std@@@@@@@Z 1903fe64 f   k2_debug:k2_debug.dll
 0002:00025e6a       ?Precache@CConsoleElement@@UAE_NABV?$vector@V?$basic_string@_WU?$char_traits@_W@std@@V?$K2StringAllocator@_W@@@std@@V?$K2VectorAllocator@V?$basic_string@_WU?$char_traits@_W@std@@V?$K2StringAllocator@_W@@@std@@@@@@@Z 1903fe6a f   k2_debug:k2_debug.dll
 0002:00025e70       ?GetType@ICvar@@QBE?AW4ECvarType@@XZ 1903fe70 f   k2_debug:k2_debug.dll
 0002:00025e76       ??A?$CVec3@M@@QAEAAMI@Z    1903fe76 f   k2_debug:k2_debug.dll
 0002:00025e7c       ?SingleToWide@@YA?AV?$basic_string@_WU?$char_traits@_W@std@@V?$K2StringAllocator@_W@@@std@@ABV?$basic_string@DU?$char_traits@D@std@@V?$K2StringAllocator@D@@@2@@Z 1903fe7c f   k2_debug:k2_debug.dll
 0002:00025e82       ??0?$CVec4@M@@QAE@XZ       1903fe82 f   k2_debug:k2_debug.dll
 0002:00025e88       ?SetFloat@ICvar@@QAEXM@Z   1903fe88 f   k2_debug:k2_debug.dll
 0002:00025e8e       ??9?$CVec4@M@@QBE_NABV0@@Z 1903fe8e f   k2_debug:k2_debug.dll
 0002:00025e94       ?AtoX@@YAAAV?$CVec4@M@@ABV?$basic_string@_WU?$char_traits@_W@std@@V?$K2StringAllocator@_W@@@std@@AAV1@@Z 1903fe94 f   k2_debug:k2_debug.dll
 0002:00025e9a       ??8?$CVec4@M@@QBE_NABV0@@Z 1903fe9a f   k2_debug:k2_debug.dll
 0002:00025ea0       ?XtoW@@YA?AV?$basic_string@_WU?$char_traits@_W@std@@V?$K2StringAllocator@_W@@@std@@ABV?$CVec4@M@@HHH@Z 1903fea0 f   k2_debug:k2_debug.dll
 0002:00025ea6       ??9?$CVec3@M@@QBE_NABV0@@Z 1903fea6 f   k2_debug:k2_debug.dll
 0002:00025eac       ?AtoX@@YAAAV?$CVec3@M@@ABV?$basic_string@_WU?$char_traits@_W@std@@V?$K2StringAllocator@_W@@@std@@AAV1@@Z 1903feac f   k2_debug:k2_debug.dll
 0002:00025eb2       ??8?$CVec3@M@@QBE_NABV0@@Z 1903feb2 f   k2_debug:k2_debug.dll
 0002:00025eb8       ??0CSkeleton@@QAE@XZ       1903feb8 f   k2_debug:k2_debug.dll
 0002:00025ebe       ??0?$CBoundingBox@M@@QAE@XZ 1903febe f   k2_debug:k2_debug.dll
 0002:00025ec4       ??0IBaseInput@@QAE@ABV?$basic_string@_WU?$char_traits@_W@std@@V?$K2StringAllocator@_W@@@std@@W4EActionType@@H@Z 1903fec4 f   k2_debug:k2_debug.dll
 0002:00025eca       ??1IBaseInput@@UAE@XZ      1903feca f   k2_debug:k2_debug.dll
 0002:00025ed0       ??0CUITrigger@@QAE@ABV?$basic_string@_WU?$char_traits@_W@std@@V?$K2StringAllocator@_W@@@std@@@Z 1903fed0 f   k2_debug:k2_debug.dll
 0002:00025ed6       ??0CCmd@@QAE@ABV?$basic_string@_WU?$char_traits@_W@std@@V?$K2StringAllocator@_W@@@std@@P6A_NPAVCConsoleElement@@ABV?$vector@V?$basic_string@_WU?$char_traits@_W@std@@V?$K2StringAllocator@_W@@@std@@V?$K2VectorAllocator@V?$basic_string@_WU?$char_traits@_W@std@@V?$K2StringAllocator@_W@@@std@@@@@@@ZH@Z 1903fed6 f   k2_debug:k2_debug.dll
 0002:00025edc       ??0CUICmd@@QAE@ABV?$basic_string@_WU?$char_traits@_W@std@@V?$K2StringAllocator@_W@@@std@@P6A?AV12@PAVIWidget@@ABV?$vector@PAVCUIScriptToken@@V?$K2VectorAllocator@PAVCUIScriptToken@@@@@@@ZHH@Z 1903fedc f   k2_debug:k2_debug.dll
 0002:00025ee2       ??0CEventCmd@@QAE@ABV?$basic_string@_WU?$char_traits@_W@std@@V?$K2StringAllocator@_W@@@std@@P6A_NABV?$vector@V?$basic_string@_WU?$char_traits@_W@std@@V?$K2StringAllocator@_W@@@std@@V?$K2VectorAllocator@V?$basic_string@_WU?$char_traits@_W@std@@V?$K2StringAllocator@_W@@@std@@@@@@H@ZH@Z 1903fee2 f   k2_debug:k2_debug.dll
 0002:00025ee8       ??0CAction@@QAE@ABV?$basic_string@_WU?$char_traits@_W@std@@V?$K2StringAllocator@_W@@@std@@W4EActionType@@P6AXMMABV?$CVec2@M@@0@ZH@Z 1903fee8 f   k2_debug:k2_debug.dll
 0002:00025eee       ??0CFunction@@QAE@ABV?$basic_string@_WU?$char_traits@_W@std@@V?$K2StringAllocator@_W@@@std@@P6A?AV12@ABV?$vector@V?$basic_string@_WU?$char_traits@_W@std@@V?$K2StringAllocator@_W@@@std@@V?$K2VectorAllocator@V?$basic_string@_WU?$char_traits@_W@std@@V?$K2StringAllocator@_W@@@std@@@@@@@Z@Z 1903feee f   k2_debug:k2_debug.dll
 0002:00025ef4       ?Seek@CBufferDynamic@@UAE_NI@Z 1903fef4 f   k2_debug:k2_debug.dll
 0002:00025efa       ?FindNext@IBuffer@@UBEI_W@Z 1903fefa f   k2_debug:k2_debug.dll
 0002:00025f00       ?FindNext@IBuffer@@UBEID@Z 1903ff00 f   k2_debug:k2_debug.dll
 0002:00025f06       ?Write@CBufferDynamic@@UAE_NPBXI@Z 1903ff06 f   k2_debug:k2_debug.dll
 0002:00025f0c       ?Read@CBufferDynamic@@UBE_NPAXI@Z 1903ff0c f   k2_debug:k2_debug.dll
 0002:00025f12       ?Lock@CBufferDynamic@@UAEPADI@Z 1903ff12 f   k2_debug:k2_debug.dll
 0002:00025f18       ?WriteBytes@CBufferDynamic@@UAE_NEI@Z 1903ff18 f   k2_debug:k2_debug.dll
 0002:00025f1e       ??1IBuffer@@UAE@XZ         1903ff1e f   k2_debug:k2_debug.dll
 0002:00025f24       ?Init@IBuffer@@IAEXI@Z     1903ff24 f   k2_debug:k2_debug.dll
 0002:00025f2a       ??0IBuffer@@QAE@XZ         1903ff2a f   k2_debug:k2_debug.dll
 0002:00025f30       ?Resize@IBuffer@@QAE_NI@Z  1903ff30 f   k2_debug:k2_debug.dll
 0002:00025f36       ??1CSkeleton@@UAE@XZ       1903ff36 f   k2_debug:k2_debug.dll
 0002:00025f3c       ??1CUITrigger@@QAE@XZ      1903ff3c f   k2_debug:k2_debug.dll
 0002:00025f42       ??1CCmd@@UAE@XZ            1903ff42 f   k2_debug:k2_debug.dll
 0002:00025f48       ??1CUICmd@@QAE@XZ          1903ff48 f   k2_debug:k2_debug.dll
 0002:00025f4e       ??1CEventCmd@@QAE@XZ       1903ff4e f   k2_debug:k2_debug.dll
 0002:00025f54       ??1CAction@@UAE@XZ         1903ff54 f   k2_debug:k2_debug.dll
 0002:00025f5a       ??1CFunction@@UAE@XZ       1903ff5a f   k2_debug:k2_debug.dll
 0002:00025f60       ??1_String_base@std@@QAE@XZ 1903ff60 f   msvcprtd:MSVCP80D.dll
 0002:00025f66       ?length@?$char_traits@_W@std@@SAIPB_W@Z 1903ff66 f   msvcprtd:MSVCP80D.dll
 0002:00025f6c       ??0_String_base@std@@QAE@XZ 1903ff6c f   msvcprtd:MSVCP80D.dll
 0002:00025f72       ??0?$allocator@_W@std@@QAE@XZ 1903ff72 f   msvcprtd:MSVCP80D.dll
 0002:00025f78       ?_Xran@_String_base@std@@SAXXZ 1903ff78 f   msvcprtd:MSVCP80D.dll
 0002:00025f7e       ?assign@?$char_traits@_W@std@@SAXAA_WAB_W@Z 1903ff7e f   msvcprtd:MSVCP80D.dll
 0002:00025f84       ?_Xlen@_String_base@std@@SAXXZ 1903ff84 f   msvcprtd:MSVCP80D.dll
 0002:00025f8a       ??0?$allocator@_W@std@@QAE@ABV01@@Z 1903ff8a f   msvcprtd:MSVCP80D.dll
 0002:00025f90       ?max_size@?$allocator@_W@std@@QBEIXZ 1903ff90 f   msvcprtd:MSVCP80D.dll
 0002:00025f96       ?_Copy_s@?$char_traits@_W@std@@SAPA_WPA_WIPB_WI@Z 1903ff96 f   msvcprtd:MSVCP80D.dll
 0002:00025f9c       ?_Move_s@?$char_traits@_W@std@@SAPA_WPA_WIPB_WI@Z 1903ff9c f   msvcprtd:MSVCP80D.dll
 0002:00025fa2       ?_Debug_message@std@@YAXPB_W0I@Z 1903ffa2 f   msvcprtd:MSVCP80D.dll
 0002:00025fa8       ?length@?$char_traits@D@std@@SAIPBD@Z 1903ffa8 f   msvcprtd:MSVCP80D.dll
 0002:00025fae       ??0?$allocator@D@std@@QAE@XZ 1903ffae f   msvcprtd:MSVCP80D.dll
 0002:00025fb4       ?assign@?$char_traits@D@std@@SAXAADABD@Z 1903ffb4 f   msvcprtd:MSVCP80D.dll
 0002:00025fba       ??0?$allocator@D@std@@QAE@ABV01@@Z 1903ffba f   msvcprtd:MSVCP80D.dll
 0002:00025fc0       ?max_size@?$allocator@D@std@@QBEIXZ 1903ffc0 f   msvcprtd:MSVCP80D.dll
 0002:00025fc6       ?_Copy_s@?$char_traits@D@std@@SAPADPADIPBDI@Z 1903ffc6 f   msvcprtd:MSVCP80D.dll
 0002:00025fcc       ?_Move_s@?$char_traits@D@std@@SAPADPADIPBDI@Z 1903ffcc f   msvcprtd:MSVCP80D.dll
 0002:00025fd2       ??1_Lockit@std@@QAE@XZ     1903ffd2 f   msvcprtd:MSVCP80D.dll
 0002:00025fd8       ??0_Lockit@std@@QAE@H@Z    1903ffd8 f   msvcprtd:MSVCP80D.dll
 0002:00025fe0       ??_U@YAPAXI@Z              1903ffe0 f   msvcprtd:newaop_s.obj
 0002:00025ff6       ??1_Container_base@std@@QAE@XZ 1903fff6 f   msvcprtd:MSVCP80D.dll
 0002:00025ffc       ?_Orphan_all@_Container_base@std@@QBEXXZ 1903fffc f   msvcprtd:MSVCP80D.dll
 0002:00026002       ??1?$basic_string@DU?$char_traits@D@std@@V?$allocator@D@2@@std@@QAE@XZ 19040002 f   msvcprtd:MSVCP80D.dll
 0002:00026008       ??0?$basic_string@DU?$char_traits@D@std@@V?$allocator@D@2@@std@@QAE@PBD@Z 19040008 f   msvcprtd:MSVCP80D.dll
 0002:0002600e       ??0?$basic_string@DU?$char_traits@D@std@@V?$allocator@D@2@@std@@QAE@ABV01@@Z 1904000e f   msvcprtd:MSVCP80D.dll
 0002:00026014       ?c_str@?$basic_string@DU?$char_traits@D@std@@V?$allocator@D@2@@std@@QBEPBDXZ 19040014 f   msvcprtd:MSVCP80D.dll
 0002:0002601a       ??0_Container_base@std@@QAE@XZ 1904001a f   msvcprtd:MSVCP80D.dll
 0002:00026020       ?find@?$char_traits@_W@std@@SAPB_WPB_WIAB_W@Z 19040020 f   msvcprtd:MSVCP80D.dll
 0002:00026026       ?compare@?$char_traits@_W@std@@SAHPB_W0I@Z 19040026 f   msvcprtd:MSVCP80D.dll
 0002:0002602c       ?_Swap_all@_Container_base@std@@QBEXAAV12@@Z 1904002c f   msvcprtd:MSVCP80D.dll
 0002:00026040       __onexit                   19040040 f   MSVCRTD:atonexit.obj
 0002:00026190       _atexit                    19040190 f   MSVCRTD:atonexit.obj
 0002:000261b0       ___CxxFrameHandler3        190401b0 f   MSVCRTD:MSVCR80D.dll
 0002:000261c0       @__security_check_cookie@4 190401c0 f   MSVCRTD:secchk.obj
 0002:000261d2       _malloc                    190401d2 f   MSVCRTD:MSVCR80D.dll
 0002:000261d8       __wassert                  190401d8 f   MSVCRTD:MSVCR80D.dll
 0002:000261de       __CxxThrowException@8      190401de f   MSVCRTD:MSVCR80D.dll
 0002:000261f0       ??_M@YGXPAXIHP6EX0@Z@Z     190401f0 f   MSVCRTD:ehvecdtr.obj
 0002:000262d0       ?__ArrayUnwind@@YGXPAXIHP6EX0@Z@Z 190402d0 f   MSVCRTD:ehvecdtr.obj
 0002:000263b8       __wtoi                     190403b8 f   MSVCRTD:MSVCR80D.dll
 0002:000263be       __invalid_parameter        190403be f   MSVCRTD:MSVCR80D.dll
 0002:000263c4       __CrtDbgReportW            190403c4 f   MSVCRTD:MSVCR80D.dll
 0002:000263ca       __wtof                     190403ca f   MSVCRTD:MSVCR80D.dll
 0002:000263d0       _cos                       190403d0 f   MSVCRTD:MSVCR80D.dll
 0002:000263d6       _sin                       190403d6 f   MSVCRTD:MSVCR80D.dll
 0002:000263dc       ??3@YAXPAX@Z               190403dc f   MSVCRTD:MSVCR80D.dll
 0002:000263e2       ??2@YAPAXI@Z               190403e2 f   MSVCRTD:MSVCR80D.dll
 0002:000263f0       ??0type_info@@AAE@ABV0@@Z  190403f0 f   MSVCRTD:ti_inst.obj
 0002:00026410       ??_Etype_info@@UAEPAXI@Z   19040410 f i MSVCRTD:ti_inst.obj
 0002:000264a0       ??4type_info@@AAEAAV0@ABV0@@Z 190404a0 f   MSVCRTD:ti_inst.obj
 0002:000264b4       _memset                    190404b4 f   MSVCRTD:MSVCR80D.dll
 0002:000264ba       ??_V@YAXPAX@Z              190404ba f   MSVCRTD:MSVCR80D.dll
 0002:000264c0       _wcstoul                   190404c0 f   MSVCRTD:MSVCR80D.dll
 0002:000264c6       _memcmp                    190404c6 f   MSVCRTD:MSVCR80D.dll
 0002:000264cc       ??0exception@std@@QAE@ABV01@@Z 190404cc f   MSVCRTD:MSVCR80D.dll
 0002:000264d2       ??1exception@std@@UAE@XZ   190404d2 f   MSVCRTD:MSVCR80D.dll
 0002:000264d8       ??0exception@std@@QAE@XZ   190404d8 f   MSVCRTD:MSVCR80D.dll
 0002:000264de       _sqrt                      190404de f   MSVCRTD:MSVCR80D.dll
 0002:000264e4       _tolower                   190404e4 f   MSVCRTD:MSVCR80D.dll
 0002:000264ea       _memmove_s                 190404ea f   MSVCRTD:MSVCR80D.dll
 0002:000264f0       _wcslen                    190404f0 f   MSVCRTD:MSVCR80D.dll
 0002:000264f6       _memcpy                    190404f6 f   MSVCRTD:MSVCR80D.dll
 0002:000265a0       __CRT_INIT@12              190405a0 f   MSVCRTD:crtdll.obj
 0002:00026870       _NtCurrentTeb              19040870 f i MSVCRTD:crtdll.obj
 0002:00026880       __DllMainCRTStartup@12     19040880 f   MSVCRTD:crtdll.obj
 0002:00026ae0       __unlock                   19040ae0 f   MSVCRTD:MSVCR80D.dll
 0002:00026ae6       ___dllonexit               19040ae6 f   MSVCRTD:MSVCR80D.dll
 0002:00026aec       __encode_pointer           19040aec f   MSVCRTD:MSVCR80D.dll
 0002:00026af2       __lock                     19040af2 f   MSVCRTD:MSVCR80D.dll
 0002:00026af8       __decode_pointer           19040af8 f   MSVCRTD:MSVCR80D.dll
 0002:00026b00       __except_handler4          19040b00 f   MSVCRTD:chandler4gs.obj
 0002:00026b30       ___report_gsfailure        19040b30 f   MSVCRTD:gs_report.obj
 0002:00026c80       ?terminate@@YAXXZ          19040c80 f   MSVCRTD:MSVCR80D.dll
 0002:00026c90       ___clean_type_info_names   19040c90 f   MSVCRTD:tncleanup.obj
 0002:00026cb0       __RTC_Initialize           19040cb0 f   MSVCRTD:initsect.obj
 0002:00026ce0       __RTC_Terminate            19040ce0 f   MSVCRTD:initsect.obj
 0002:00026d0e       __malloc_dbg               19040d0e f   MSVCRTD:MSVCR80D.dll
 0002:00026d14       __free_dbg                 19040d14 f   MSVCRTD:MSVCR80D.dll
 0002:00026d1a       __encoded_null             19040d1a f   MSVCRTD:MSVCR80D.dll
 0002:00026d20       __CrtSetCheckCount         19040d20 f   MSVCRTD:MSVCR80D.dll
 0002:00026d30       __ValidateImageBase        19040d30 f   MSVCRTD:pesect.obj
 0002:00026db0       __FindPESection            19040db0 f   MSVCRTD:pesect.obj
 0002:00026e40       __IsNonwritableInCurrentImage 19040e40 f   MSVCRTD:pesect.obj
 0002:00026f94       __initterm                 19040f94 f   MSVCRTD:MSVCR80D.dll
 0002:00026f9a       __initterm_e               19040f9a f   MSVCRTD:MSVCR80D.dll
 0002:00026fa0       __amsg_exit                19040fa0 f   MSVCRTD:MSVCR80D.dll
 0002:00026fb0       ___security_init_cookie    19040fb0 f   MSVCRTD:gs_support.obj
 0002:000270c0       ___CppXcptFilter           190410c0 f   MSVCRTD:MSVCR80D.dll
 0002:000270d0       _DllMain@12                190410d0 f   MSVCRTD:dllmain.obj
 0002:000270fe       __except_handler4_common   190410fe f   MSVCRTD:MSVCR80D.dll
 0002:00027104       __crt_debugger_hook        19041104 f   MSVCRTD:MSVCR80D.dll
 0002:0002710a       ?_type_info_dtor_internal_method@type_info@@QAEXXZ 1904110a f   MSVCRTD:MSVCR80D.dll
 0002:0002710a       ??1type_info@@UAE@XZ       1904110a f   MSVCRTD:MSVCR80D.dll
 0002:00027110       ___clean_type_info_names_internal 19041110 f   MSVCRTD:MSVCR80D.dll
 0002:00027116       _InterlockedExchange@8     19041116 f   kernel32:KERNEL32.dll
 0002:0002711c       _Sleep@4                   1904111c f   kernel32:KERNEL32.dll
 0002:00027122       _InterlockedCompareExchange@12 19041122 f   kernel32:KERNEL32.dll
 0002:00027128       _TerminateProcess@8        19041128 f   kernel32:KERNEL32.dll
 0002:0002712e       _GetCurrentProcess@0       1904112e f   kernel32:KERNEL32.dll
 0002:00027134       _UnhandledExceptionFilter@4 19041134 f   kernel32:KERNEL32.dll
 0002:0002713a       _SetUnhandledExceptionFilter@4 1904113a f   kernel32:KERNEL32.dll
 0002:00027140       _IsDebuggerPresent@0       19041140 f   kernel32:KERNEL32.dll
 0002:00027146       _QueryPerformanceCounter@4 19041146 f   kernel32:KERNEL32.dll
 0002:0002714c       _GetTickCount@0            1904114c f   kernel32:KERNEL32.dll
 0002:00027152       _GetCurrentThreadId@0      19041152 f   kernel32:KERNEL32.dll
 0002:00027158       _GetCurrentProcessId@0     19041158 f   kernel32:KERNEL32.dll
 0002:0002715e       _GetSystemTimeAsFileTime@4 1904115e f   kernel32:KERNEL32.dll
 0002:00027164       _DisableThreadLibraryCalls@4 19041164 f   kernel32:KERNEL32.dll
 0003:00000000       ___xc_a                    19051000     MSVCRTD:cinitexe.obj
 0003:000004fc       ___xc_z                    190514fc     MSVCRTD:cinitexe.obj
 0003:00000600       ___xi_a                    19051600     MSVCRTD:cinitexe.obj
 0003:00000808       ___xi_z                    19051808     MSVCRTD:cinitexe.obj
 0003:0000092c       ??_C@_0P@GHFPNOJB@bad?5allocation?$AA@ 1905192c     mv_common.obj
 0003:00000940       ?collate@?$_Locbase@H@std@@2HB 19051940     mv_common.obj
 0003:00000944       ?ctype@?$_Locbase@H@std@@2HB 19051944     mv_common.obj
 0003:00000948       ?monetary@?$_Locbase@H@std@@2HB 19051948     mv_common.obj
 0003:0000094c       ?numeric@?$_Locbase@H@std@@2HB 1905194c     mv_common.obj
 0003:00000950       ?time@?$_Locbase@H@std@@2HB 19051950     mv_common.obj
 0003:00000954       ?messages@?$_Locbase@H@std@@2HB 19051954     mv_common.obj
 0003:00000958       ?all@?$_Locbase@H@std@@2HB 19051958     mv_common.obj
 0003:0000095c       ?none@?$_Locbase@H@std@@2HB 1905195c     mv_common.obj
 0003:00000960       ?skipws@?$_Iosb@H@std@@2W4_Fmtflags@12@B 19051960     mv_common.obj
 0003:00000964       ?unitbuf@?$_Iosb@H@std@@2W4_Fmtflags@12@B 19051964     mv_common.obj
 0003:00000968       ?uppercase@?$_Iosb@H@std@@2W4_Fmtflags@12@B 19051968     mv_common.obj
 0003:0000096c       ?showbase@?$_Iosb@H@std@@2W4_Fmtflags@12@B 1905196c     mv_common.obj
 0003:00000970       ?showpoint@?$_Iosb@H@std@@2W4_Fmtflags@12@B 19051970     mv_common.obj
 0003:00000974       ?showpos@?$_Iosb@H@std@@2W4_Fmtflags@12@B 19051974     mv_common.obj
 0003:00000978       ?left@?$_Iosb@H@std@@2W4_Fmtflags@12@B 19051978     mv_common.obj
 0003:0000097c       ?right@?$_Iosb@H@std@@2W4_Fmtflags@12@B 1905197c     mv_common.obj
 0003:00000980       ?internal@?$_Iosb@H@std@@2W4_Fmtflags@12@B 19051980     mv_common.obj
 0003:00000984       ?dec@?$_Iosb@H@std@@2W4_Fmtflags@12@B 19051984     mv_common.obj
 0003:00000988       ?oct@?$_Iosb@H@std@@2W4_Fmtflags@12@B 19051988     mv_common.obj
 0003:0000098c       ?hex@?$_Iosb@H@std@@2W4_Fmtflags@12@B 1905198c     mv_common.obj
 0003:00000990       ?scientific@?$_Iosb@H@std@@2W4_Fmtflags@12@B 19051990     mv_common.obj
 0003:00000994       ?fixed@?$_Iosb@H@std@@2W4_Fmtflags@12@B 19051994     mv_common.obj
 0003:00000998       ?boolalpha@?$_Iosb@H@std@@2W4_Fmtflags@12@B 19051998     mv_common.obj
 0003:0000099c       ?_Stdio@?$_Iosb@H@std@@2W4_Fmtflags@12@B 1905199c     mv_common.obj
 0003:000009a0       ?adjustfield@?$_Iosb@H@std@@2W4_Fmtflags@12@B 190519a0     mv_common.obj
 0003:000009a4       ?basefield@?$_Iosb@H@std@@2W4_Fmtflags@12@B 190519a4     mv_common.obj
 0003:000009a8       ?floatfield@?$_Iosb@H@std@@2W4_Fmtflags@12@B 190519a8     mv_common.obj
 0003:000009ac       ?goodbit@?$_Iosb@H@std@@2W4_Iostate@12@B 190519ac     mv_common.obj
 0003:000009b0       ?eofbit@?$_Iosb@H@std@@2W4_Iostate@12@B 190519b0     mv_common.obj
 0003:000009b4       ?failbit@?$_Iosb@H@std@@2W4_Iostate@12@B 190519b4     mv_common.obj
 0003:000009b8       ?badbit@?$_Iosb@H@std@@2W4_Iostate@12@B 190519b8     mv_common.obj
 0003:000009bc       ?_Hardfail@?$_Iosb@H@std@@2W4_Iostate@12@B 190519bc     mv_common.obj
 0003:000009c0       ?in@?$_Iosb@H@std@@2W4_Openmode@12@B 190519c0     mv_common.obj
 0003:000009c4       ?out@?$_Iosb@H@std@@2W4_Openmode@12@B 190519c4     mv_common.obj
 0003:000009c8       ?ate@?$_Iosb@H@std@@2W4_Openmode@12@B 190519c8     mv_common.obj
 0003:000009cc       ?app@?$_Iosb@H@std@@2W4_Openmode@12@B 190519cc     mv_common.obj
 0003:000009d0       ?trunc@?$_Iosb@H@std@@2W4_Openmode@12@B 190519d0     mv_common.obj
 0003:000009d4       ?_Nocreate@?$_Iosb@H@std@@2W4_Openmode@12@B 190519d4     mv_common.obj
 0003:000009d8       ?_Noreplace@?$_Iosb@H@std@@2W4_Openmode@12@B 190519d8     mv_common.obj
 0003:000009dc       ?binary@?$_Iosb@H@std@@2W4_Openmode@12@B 190519dc     mv_common.obj
 0003:000009e0       ?beg@?$_Iosb@H@std@@2W4_Seekdir@12@B 190519e0     mv_common.obj
 0003:000009e4       ?cur@?$_Iosb@H@std@@2W4_Seekdir@12@B 190519e4     mv_common.obj
 0003:000009e8       ?end@?$_Iosb@H@std@@2W4_Seekdir@12@B 190519e8     mv_common.obj
 0003:000009ec       ?_EEM_DS@?$deque@HV?$K2DequeAllocator@H@@@std@@2HB 190519ec     mv_common.obj
 0003:000009f0       ?_EEM_DS@?$deque@IV?$K2DequeAllocator@I@@@std@@2HB 190519f0     mv_common.obj
 0003:000009f4       ?_EEM_DS@?$deque@MV?$K2DequeAllocator@M@@@std@@2HB 190519f4     mv_common.obj
 0003:000009f8       ?_EEM_DS@?$deque@V?$basic_string@_WU?$char_traits@_W@std@@V?$K2StringAllocator@_W@@@std@@V?$K2DequeAllocator@V?$basic_string@_WU?$char_traits@_W@std@@V?$K2StringAllocator@_W@@@std@@@@@std@@2HB 190519f8     mv_common.obj
 0003:00000a38       ?_EEM_DS@?$deque@USOutputLine@@V?$K2DequeAllocator@USOutputLine@@@@@std@@2HB 19051a38     mv_common.obj
 0003:00000a3c       ?_EEM_DS@?$deque@USNotifyLine@@V?$K2DequeAllocator@USNotifyLine@@@@@std@@2HB 19051a3c     mv_common.obj
 0003:00000a40       ??_C@_15OJJGAIFD@?$AA?$FO?$AAb?$AA?$AA@ 19051a40     mv_common.obj
 0003:00000a48       ??_C@_1BM@OHEHCOIA@?$AA?$CB?$AAs?$AA_?$AAb?$AAR?$AAe?$AAq?$AAu?$AAe?$AAs?$AAt?$AAe?$AAd?$AA?$AA@ 19051a48     mv_common.obj
 0003:00000a6c       ??_C@_1BK@KJPBGHJA@?$AA?$CB?$AAs?$AA_?$AAb?$AAR?$AAe?$AAl?$AAe?$AAa?$AAs?$AAe?$AAd?$AA?$AA@ 19051a6c     mv_common.obj
 0003:00000a90       ??_C@_1EE@LOIDLIIL@?$AAc?$AA?3?$AA?2?$AAc?$AAo?$AAd?$AAe?$AA?2?$AAh?$AAo?$AAn?$AA?2?$AAs?$AAr?$AAc?$AA?2?$AAk?$AA2?$AA?2?$AAc?$AA_?$AAm?$AAe?$AAm?$AAm?$AAa?$AAn?$AAa?$AAg?$AAe?$AAr?$AA?4@ 19051a90     mv_common.obj
 0003:00000ae4       ?npos@?$basic_string@_WU?$char_traits@_W@std@@V?$K2StringAllocator@_W@@@std@@2IB 19051ae4     mv_common.obj
 0003:00000ae8       ??_C@_0P@CDENJMCL@ctx_STL_string?$AA@ 19051ae8     mv_common.obj
 0003:00000afc       ??_C@_0CC@PDHCCDLE@c?3?2code?2hon?2src?2k2?2c_memmanager?4@ 19051afc     mv_common.obj
 0003:00000b28       ??_C@_1HM@LNGKEPMM@?$AAc?$AA?3?$AA?2?$AAp?$AAr?$AAo?$AAg?$AAr?$AAa?$AAm?$AA?5?$AAf?$AAi?$AAl?$AAe?$AAs?$AA?2?$AAm?$AAi?$AAc?$AAr?$AAo?$AAs?$AAo?$AAf?$AAt?$AA?5?$AAv?$AAi?$AAs?$AAu?$AAa@ 19051b28     mv_common.obj
 0003:00000bbc       ??_C@_04CGFJFPFD@none?$AA@ 19051bbc     mv_common.obj
 0003:00000bc4       ??_C@_1CK@EOPGIILJ@?$AAi?$AAn?$AAv?$AAa?$AAl?$AAi?$AAd?$AA?5?$AAn?$AAu?$AAl?$AAl?$AA?5?$AAp?$AAo?$AAi?$AAn?$AAt?$AAe?$AAr?$AA?$AA@ 19051bc4     mv_common.obj
 0003:00000bf8       ??_C@_15FBCKGPDG@?$AA?$FO?$AAc?$AA?$AA@ 19051bf8     mv_common.obj
 0003:00000c00       ??_C@_15BDIGJHEH@?$AA?$FO?$AAp?$AA?$AA@ 19051c00     mv_common.obj
 0003:00000c08       ??_C@_15BLPMNAIO@?$AA?$FO?$AAo?$AA?$AA@ 19051c08     mv_common.obj
 0003:00000c10       ??_C@_15DGONMIJL@?$AA?$FO?$AAv?$AA?$AA@ 19051c10     mv_common.obj
 0003:00000c18       ??_C@_15JMOEAABA@?$AA?$FO?$AAt?$AA?$AA@ 19051c18     mv_common.obj
 0003:00000c20       ??_C@_15NOEIPIGB@?$AA?$FO?$AAg?$AA?$AA@ 19051c20     mv_common.obj
 0003:00000c28       ??_C@_15LBPFBIAF@?$AA?$FO?$AAm?$AA?$AA@ 19051c28     mv_common.obj
 0003:00000c30       ??_C@_15KDEALHOL@?$AA?$FO?$AAn?$AA?$AA@ 19051c30     mv_common.obj
 0003:00000c38       ??_C@_15GOIONIMN@?$AA?$FO?$AAy?$AA?$AA@ 19051c38     mv_common.obj
 0003:00000c40       ??_C@_15LJIPFPMM@?$AA?$FO?$AAr?$AA?$AA@ 19051c40     mv_common.obj
 0003:00000c48       ??_C@_15IOFBKPPO@?$AA?$FO?$AAw?$AA?$AA@ 19051c48     mv_common.obj
 0003:00000c50       ??_C@_15JEJOEHNJ@?$AA?$FO?$AAk?$AA?$AA@ 19051c50     mv_common.obj
 0003:00000c58       ??_C@_15LHDGHIIB@?$AA?$FO?$AA?$CK?$AA?$AA@ 19051c58     mv_common.obj
 0003:00000c60       ??_C@_17IHKOCIHJ@?$AA?$FO?$AA?$CB?$AAb?$AA?$AA@ 19051c60     mv_common.obj
 0003:00000c6c       ??_C@_17PCNMCADK@?$AA?$FO?$AA?$CB?$AAt?$AA?$AA@ 19051c6c     mv_common.obj
 0003:00000c78       ??_C@_17HNLOLHGN@?$AA?$FO?$AA?$CB?$AAp?$AA?$AA@ 19051c78     mv_common.obj
 0003:00000c84       ??_C@_17LGPIOH@?$AA?$FO?$AA?$CB?$AAy?$AA?$AA@ 19051c84     mv_common.obj
 0003:00000c90       ??_C@_17HFMEPAKE@?$AA?$FO?$AA?$CB?$AAo?$AA?$AA@ 19051c90     mv_common.obj
 0003:00000c9c       ??_C@_17FAKPKPHI@?$AA?$FO?$AA?$CB?$AAi?$AA?$AA@ 19051c9c     mv_common.obj
 0003:00000ca8       ??_C@_17FINFOILB@?$AA?$FO?$AA?$CB?$AAv?$AA?$AA@ 19051ca8     mv_common.obj
 0003:00000cb4       ??_C@_17GHHBFPEK@?$AA?$FO?$AA?$CB?$AAl?$AA?$AA@ 19051cb4     mv_common.obj
 0003:00000cc0       ??_C@_17LAHANIEL@?$AA?$FO?$AA?$CB?$AAg?$AA?$AA@ 19051cc0     mv_common.obj
 0003:00000ccc       ??_C@_17MNHIJHMB@?$AA?$FO?$AA?$CB?$AAn?$AA?$AA@ 19051ccc     mv_common.obj
 0003:00000cd8       __real@3e9eb852            19051cd8     mv_common.obj
 0003:00000cdc       __real@3e2e147b            19051cdc     mv_common.obj
 0003:00000ce0       __real@3ca3d70a            19051ce0     mv_common.obj
 0003:00000ce4       __real@3ec28f5c            19051ce4     mv_common.obj
 0003:00000ce8       __real@3e8f5c29            19051ce8     mv_common.obj
 0003:00000cec       __real@3efae148            19051cec     mv_common.obj
 0003:00000cf0       __real@3f733333            19051cf0     mv_common.obj
 0003:00000cf4       __real@3f147ae1            19051cf4     mv_common.obj
 0003:00000cf8       __real@3f170a3d            19051cf8     mv_common.obj
 0003:00000cfc       __real@3eb851ec            19051cfc     mv_common.obj
 0003:00000d00       __real@3f30a3d7            19051d00     mv_common.obj
 0003:00000d04       __real@3f0a3d71            19051d04     mv_common.obj
 0003:00000d08       __real@3d75c28f            19051d08     mv_common.obj
 0003:00000d0c       __real@3f7d70a4            19051d0c     mv_common.obj
 0003:00000d10       __real@3ea8f5c3            19051d10     mv_common.obj
 0003:00000d14       __real@3f028f5c            19051d14     mv_common.obj
 0003:00000d18       __real@3de147ae            19051d18     mv_common.obj
 0003:00000d1c       __real@3f666666            19051d1c     mv_common.obj
 0003:00000d20       __real@3f3ae148            19051d20     mv_common.obj
 0003:00000d24       __real@3e851eb8            19051d24     mv_common.obj
 0003:00000d28       __real@3f400000            19051d28     mv_common.obj
 0003:00000d2c       __real@3f266666            19051d2c     mv_common.obj
 0003:00000d30       __real@3f000000            19051d30     mv_common.obj
 0003:00000d34       __real@3e99999a            19051d34     mv_common.obj
 0003:00000d38       __real@3e23d70a            19051d38     mv_common.obj
 0003:00000d3c       __real@3c23d70a            19051d3c     mv_common.obj
 0003:00000d40       __real@00000000            19051d40     mv_common.obj
 0003:00000d44       __real@3f800000            19051d44     mv_common.obj
 0003:00000d48       ??_C@_02PCIJFNDE@?$AN?6?$AA@ 19051d48     mv_common.obj
 0003:00000d4c       ?npos@?$basic_string@DU?$char_traits@D@std@@V?$K2StringAllocator@D@@@std@@2IB 19051d4c     mv_common.obj
 0003:00000d50       ??_C@_15JNBOKNOG@?$AA?$AN?$AA?6?$AA?$AA@ 19051d50     mv_common.obj
 0003:00000d58       ??_C@_1O@JKADOALA@?$AA?5?$AA?$AM?$AA?6?$AA?$AN?$AA?7?$AA?$AL?$AA?$AA@ 19051d58     mv_common.obj
 0003:00000d68       ??_C@_15BEJIIJPE@?$AA?2?$AA?$HM?$AA?$AA@ 19051d68     mv_common.obj
 0003:00000d70       ??_C@_15GHCJOBDD@?$AA?2?$AA?9?$AA?$AA@ 19051d70     mv_common.obj
 0003:00000d78       ??_C@_1BE@POBIFFMI@?$AA?2?$AA?$CB?$AA?$CK?$AA?$EA?$AA?$CG?$AA?$CD?$AA?$FO?$AA$?$AA?$CF?$AA?$AA@ 19051d78     mv_common.obj
 0003:00000d90       ??_C@_1BE@NKMIHEOD@?$AA?2?$AA?$CF?$AA$?$AA?$FO?$AA?$CD?$AA?$CG?$AA?$EA?$AA?$CK?$AA?$CB?$AA?$AA@ 19051d90     mv_common.obj
 0003:00000da8       ??_C@_02NKOEGBLD@d?5?$AA@  19051da8     mv_common.obj
 0003:00000dac       ??_C@_02NDPOJINH@h?5?$AA@  19051dac     mv_common.obj
 0003:00000db0       ??_C@_02NFDFFKDM@m?5?$AA@  19051db0     mv_common.obj
 0003:00000db4       ??_C@_02MDINNEEG@s?5?$AA@  19051db4     mv_common.obj
 0003:00000db8       ??_C@_01JLIPDDHJ@?3?$AA@   19051db8     mv_common.obj
 0003:00000dbc       ??_C@_15HNGKLMCO@?$AAd?$AA?5?$AA?$AA@ 19051dbc     mv_common.obj
 0003:00000dc4       ??_C@_15KKIHMFF@?$AAh?$AA?5?$AA?$AA@ 19051dc4     mv_common.obj
 0003:00000dcc       ??_C@_15FKGFONOG@?$AAm?$AA?5?$AA?$AA@ 19051dcc     mv_common.obj
 0003:00000dd4       ??_C@_15GDLJIOAN@?$AAs?$AA?5?$AA?$AA@ 19051dd4     mv_common.obj
 0003:00000ddc       ??_C@_13EBCNDICG@?$AA?3?$AA?$AA@ 19051ddc     mv_common.obj
 0003:00000de0       ?_EEM_DS@?$deque@USServerInfoRequest@CServerList@@V?$K2DequeAllocator@USServerInfoRequest@CServerList@@@@@std@@2HB 19051de0     mv_main.obj
 0003:00000de4       ?_EEM_DS@?$deque@USNetworkResourceRecord@@V?$K2DequeAllocator@USNetworkResourceRecord@@@@@std@@2HB 19051de4     mv_main.obj
 0003:00000de8       ?_EEM_DS@?$deque@PAVIWorldComponent@@V?$K2DequeAllocator@PAVIWorldComponent@@@@@std@@2HB 19051de8     mv_main.obj
 0003:00000dec       ?_EEM_DS@?$deque@USIEvent@@V?$K2DequeAllocator@USIEvent@@@@@std@@2HB 19051dec     mv_main.obj
 0003:00000df0       ?_EEM_DS@?$deque@PAXV?$K2DequeAllocator@PAX@@@std@@2HB 19051df0     mv_main.obj
 0003:00000e04       ??_C@_1CM@MOGMOKC@?$AAs?$AAc?$AAe?$AAn?$AAe?$AA_?$AAt?$AAe?$AAr?$AAr?$AAa?$AAi?$AAn?$AAS?$AAu?$AAn?$AAC?$AAo?$AAl?$AAo?$AAr?$AA?$AA@ 19051e04     mv_main.obj
 0003:00000e38       ??_C@_1CK@NCPMAAOD@?$AAs?$AAc?$AAe?$AAn?$AAe?$AA_?$AAe?$AAn?$AAt?$AAi?$AAt?$AAy?$AAS?$AAu?$AAn?$AAC?$AAo?$AAl?$AAo?$AAr?$AA?$AA@ 19051e38     mv_main.obj
 0003:00000e70       __real@3ff553f7c0000000    19051e70     mv_main.obj
 0003:00000e80       __real@3f91df46a0000000    19051e80     mv_main.obj
 0003:00000e90       __real@0000000000000000    19051e90     mv_main.obj
 0003:00000e9c       __real@4201d604            19051e9c     mv_main.obj
 0003:00000ea0       ??_C@_1CC@JNACBHEO@?$AAs?$AAc?$AAe?$AAn?$AAe?$AA_?$AAs?$AAu?$AAn?$AAA?$AAz?$AAi?$AAm?$AAu?$AAt?$AAh?$AA?$AA@ 19051ea0     mv_main.obj
 0003:00000ec8       __real@424b9b3d            19051ec8     mv_main.obj
 0003:00000ecc       ??_C@_1CE@NCIDPGJG@?$AAs?$AAc?$AAe?$AAn?$AAe?$AA_?$AAs?$AAu?$AAn?$AAA?$AAl?$AAt?$AAi?$AAt?$AAu?$AAd?$AAe?$AA?$AA@ 19051ecc     mv_main.obj
 0003:00000ef8       __real@44ce4000            19051ef8     mv_main.obj
 0003:00000efc       __real@c2600000            19051efc     mv_main.obj
 0003:00000f00       __real@42560000            19051f00     mv_main.obj
 0003:00000f04       ??_C@_1CK@POGJDOKA@?$AA?$CI?$AA?$CC?$AA_?$AAP?$AAo?$AAs?$AA?5?$AA?$DM?$AA?5?$AAs?$AAi?$AAz?$AAe?$AA?$CI?$AA?$CJ?$AA?$CC?$AA?0?$AA?5?$AA0?$AA?$CJ?$AA?$AA@ 19051f04     mv_main.obj
 0003:00000f38       ??_C@_1BO@MEPPHOO@?$AA?$CC?$AAo?$AAu?$AAt?$AA?5?$AAo?$AAf?$AA?5?$AAr?$AAa?$AAn?$AAg?$AAe?$AA?$CC?$AA?$AA@ 19051f38     mv_main.obj
 0003:00000f60       ??_C@_1BPK@NJIFPGEO@?$AAs?$AAt?$AAd?$AA?3?$AA?3?$AAv?$AAe?$AAc?$AAt?$AAo?$AAr?$AA?$DM?$AAc?$AAl?$AAa?$AAs?$AAs?$AA?5?$AAs?$AAt?$AAd?$AA?3?$AA?3?$AAb?$AAa?$AAs?$AAi?$AAc?$AA_?$AAs?$AAt?$AAr@ 19051f60     mv_main.obj
 0003:000011c0       ??_C@_1FG@CMLDHNON@?$AA?$CI?$AA?$CC?$AAS?$AAt?$AAa?$AAn?$AAd?$AAa?$AAr?$AAd?$AA?5?$AAC?$AA?$CL?$AA?$CL?$AA?5?$AAL?$AAi?$AAb?$AAr?$AAa?$AAr?$AAi?$AAe?$AAs?$AA?5?$AAO?$AAu?$AAt?$AA?5?$AAo?$AAf?$AA?5@ 190521c0     mv_main.obj
 0003:00001228       ??_C@_1DM@LHGCHCBA@?$AAv?$AAe?$AAc?$AAt?$AAo?$AAr?$AA?5?$AAs?$AAu?$AAb?$AAs?$AAc?$AAr?$AAi?$AAp?$AAt?$AA?5?$AAo?$AAu?$AAt?$AA?5?$AAo?$AAf?$AA?5?$AAr?$AAa?$AAn?$AAg?$AAe?$AA?$AA@ 19052228     mv_main.obj
 0003:00001270       ??_C@_1HK@HNILGGDB@?$AAc?$AA?3?$AA?2?$AAp?$AAr?$AAo?$AAg?$AAr?$AAa?$AAm?$AA?5?$AAf?$AAi?$AAl?$AAe?$AAs?$AA?2?$AAm?$AAi?$AAc?$AAr?$AAo?$AAs?$AAo?$AAf?$AAt?$AA?5?$AAv?$AAi?$AAs?$AAu?$AAa@ 19052270     mv_main.obj
 0003:00001304       ??_C@_1BI@MOJPMLFA@?$AAS?$AAt?$AAo?$AAp?$AAE?$AAf?$AAf?$AAe?$AAc?$AAt?$AA?5?$AA?$AA@ 19052304     mv_main.obj
 0003:00001320       __real@40a0000000000000    19052320     mv_main.obj
 0003:00001330       __real@4049000000000000    19052330     mv_main.obj
 0003:0000133c       ??_C@_1BK@COOCGAOD@?$AAS?$AAt?$AAa?$AAr?$AAt?$AAE?$AAf?$AAf?$AAe?$AAc?$AAt?$AA?5?$AA?$AA@ 1905233c     mv_main.obj
 0003:0000135c       ??_C@_13HOIJIPNN@?$AA?5?$AA?$AA@ 1905235c     mv_main.obj
 0003:00001360       __real@3ff0000000000000    19052360     mv_main.obj
 0003:0000136c       __real@bf800000            1905236c     mv_main.obj
 0003:00001370       __real@408f400000000000    19052370     mv_main.obj
 0003:0000137c       ??_C@_19FKLFLPMF@?$AAt?$AAr?$AAu?$AAe?$AA?$AA@ 1905237c     mv_main.obj
 0003:00001388       __real@3fe0000000000000    19052388     mv_main.obj
 0003:00001398       __real@3fc99999a0000000    19052398     mv_main.obj
 0003:000013a4       ??_C@_1O@DPJFGEEK@?$AA?$CK?$AAc?$AAl?$AAe?$AAa?$AAr?$AA?$AA@ 190523a4     mv_main.obj
 0003:000013b4       ??_C@_1BA@LDFHLHLN@?$AAm?$AAv?$AA_?$AAm?$AAa?$AAi?$AAn?$AA?$AA@ 190523b4     mv_main.obj
 0003:000013c8       ??_C@_1BA@NGNMEEN@?$AA?1?$AAm?$AAv?$AA?4?$AAc?$AAf?$AAg?$AA?$AA@ 190523c8     mv_main.obj
 0003:000013dc       ??_C@_1CM@NGKCOKLI@?$AA?1?$AAu?$AAi?$AA?1?$AAm?$AAv?$AA_?$AAm?$AAa?$AAi?$AAn?$AA?4?$AAi?$AAn?$AAt?$AAe?$AAr?$AAf?$AAa?$AAc?$AAe?$AA?$AA@ 190523dc     mv_main.obj
 0003:00001410       ??_C@_1BO@GKPJAKAD@?$AAs?$AAc?$AAe?$AAn?$AAe?$AA_?$AAn?$AAe?$AAa?$AAr?$AAc?$AAl?$AAi?$AAp?$AA?$AA@ 19052410     mv_main.obj
 0003:00001434       ??_C@_17BODHOPJC@?$AA1?$AA?4?$AA0?$AA?$AA@ 19052434     mv_main.obj
 0003:00001440       ??_C@_1BI@FNCNBEDL@?$AAg?$AAf?$AAx?$AA_?$AAf?$AAo?$AAg?$AAT?$AAy?$AAp?$AAe?$AA?$AA@ 19052440     mv_main.obj
 0003:0000145c       ??_C@_1BM@NEDDMNNG@?$AAs?$AAc?$AAe?$AAn?$AAe?$AA_?$AAb?$AAg?$AAC?$AAo?$AAl?$AAo?$AAr?$AA?$AA@ 1905245c     mv_main.obj
 0003:00001480       ??_C@_15JNGDPAJI@?$AA9?$AA0?$AA?$AA@ 19052480     mv_main.obj
 0003:00001488       ??_C@_15DMPINDPO@?$AA3?$AA0?$AA?$AA@ 19052488     mv_main.obj
 0003:00001490       ??_C@_1BM@LFLNPGIO@?$AAs?$AAc?$AAe?$AAn?$AAe?$AA_?$AAd?$AAr?$AAa?$AAw?$AAS?$AAk?$AAy?$AA?$AA@ 19052490     mv_main.obj
 0003:000014b4       ??_C@_13COJANIEC@?$AA0?$AA?$AA@ 190524b4     mv_main.obj
 0003:000014b8       ??_C@_1BO@KIHAIOMB@?$AAT?$AAo?$AAg?$AAg?$AAl?$AAe?$AAV?$AAi?$AAe?$AAw?$AAe?$AAr?$AAU?$AAI?$AA?$AA@ 190524b8     mv_main.obj
 0003:000014dc       ??_C@_1BM@DGMAMHHM@?$AAD?$AAi?$AAs?$AAa?$AAb?$AAl?$AAe?$AAE?$AAf?$AAf?$AAe?$AAc?$AAt?$AA?$AA@ 190524dc     mv_main.obj
 0003:00001500       ??_C@_1CG@GPPFAIOM@?$AAs?$AAe?$AAt?$AA?5?$AAg?$AAf?$AAx?$AA_?$AAt?$AAe?$AAx?$AAt?$AAu?$AAr?$AAe?$AAs?$AA?5?$AA3?$AA?$AA@ 19052500     mv_main.obj
 0003:00001530       ??_C@_1CG@NHEJGPIJ@?$AAs?$AAe?$AAt?$AA?5?$AAg?$AAf?$AAx?$AA_?$AAt?$AAe?$AAx?$AAt?$AAu?$AAr?$AAe?$AAs?$AA?5?$AA2?$AA?$AA@ 19052530     mv_main.obj
 0003:00001560       ??_C@_1CG@MFPMMAGH@?$AAs?$AAe?$AAt?$AA?5?$AAg?$AAf?$AAx?$AA_?$AAt?$AAe?$AAx?$AAt?$AAu?$AAr?$AAe?$AAs?$AA?5?$AA1?$AA?$AA@ 19052560     mv_main.obj
 0003:00001590       ??_C@_1CG@HNEAKHAC@?$AAs?$AAe?$AAt?$AA?5?$AAg?$AAf?$AAx?$AA_?$AAt?$AAe?$AAx?$AAt?$AAu?$AAr?$AAe?$AAs?$AA?5?$AA0?$AA?$AA@ 19052590     mv_main.obj
 0003:000015c0       ??_C@_1BE@BJCEMNDB@?$AAC?$AAe?$AAn?$AAt?$AAe?$AAr?$AAH?$AAo?$AAn?$AA?$AA@ 190525c0     mv_main.obj
 0003:000015d8       ??_C@_1O@NNFGBCFN@?$AAC?$AAe?$AAn?$AAt?$AAe?$AAr?$AA?$AA@ 190525d8     mv_main.obj
 0003:000015e8       ??_C@_1BA@MEDHPKHM@?$AAZ?$AAo?$AAo?$AAm?$AAO?$AAu?$AAt?$AA?$AA@ 190525e8     mv_main.obj
 0003:000015fc       ??_C@_1O@BJBCFFEE@?$AAZ?$AAo?$AAo?$AAm?$AAI?$AAn?$AA?$AA@ 190525fc     mv_main.obj
 0003:0000160c       ??_C@_1BO@PPMCCOEE@?$AAM?$AAo?$AAd?$AAi?$AAf?$AAi?$AAe?$AAr?$AAB?$AAu?$AAt?$AAt?$AAo?$AAn?$AA?$AA@ 1905260c     mv_main.obj
 0003:00001630       ??_C@_1BI@NEOMIKDP@?$AAM?$AAo?$AAd?$AAi?$AAf?$AAi?$AAe?$AAr?$AAA?$AAl?$AAt?$AA?$AA@ 19052630     mv_main.obj
 0003:0000164c       ??_C@_1BK@FJLBMFOL@?$AAM?$AAo?$AAd?$AAi?$AAf?$AAi?$AAe?$AAr?$AAC?$AAt?$AAr?$AAl?$AA?$AA@ 1905264c     mv_main.obj
 0003:0000166c       ??_C@_1BM@DBJPAOD@?$AAM?$AAo?$AAd?$AAi?$AAf?$AAi?$AAe?$AAr?$AAS?$AAh?$AAi?$AAf?$AAt?$AA?$AA@ 1905266c     mv_main.obj
 0003:00001690       ??_C@_1CA@CFICHHPH@?$AAS?$AAe?$AAc?$AAo?$AAn?$AAd?$AAa?$AAr?$AAy?$AAB?$AAu?$AAt?$AAt?$AAo?$AAn?$AA?$AA@ 19052690     mv_main.obj
 0003:000016b8       ??_C@_1BM@KLJOCPEJ@?$AAP?$AAr?$AAi?$AAm?$AAa?$AAr?$AAy?$AAB?$AAu?$AAt?$AAt?$AAo?$AAn?$AA?$AA@ 190526b8     mv_main.obj
 0003:000016dc       ??_C@_1O@BBGHFCGD@?$AAR?$AAe?$AAp?$AAe?$AAa?$AAt?$AA?$AA@ 190526dc     mv_main.obj
 0003:000016ec       ??_C@_17DNOBJJEI@?$AAC?$AAm?$AAd?$AA?$AA@ 190526ec     mv_main.obj
 0003:000016f8       ??_C@_1BM@ILMEGFAO@?$AAE?$AAx?$AAp?$AAi?$AAr?$AAe?$AAE?$AAf?$AAf?$AAe?$AAc?$AAt?$AAs?$AA?$AA@ 190526f8     mv_main.obj
 0003:0000171c       ??_C@_1BE@HOINMFBD@?$AAT?$AAu?$AAr?$AAn?$AAR?$AAi?$AAg?$AAh?$AAt?$AA?$AA@ 1905271c     mv_main.obj
 0003:00001734       ??_C@_1BC@EOECPPEA@?$AAT?$AAu?$AAr?$AAn?$AAL?$AAe?$AAf?$AAt?$AA?$AA@ 19052734     mv_main.obj
 0003:0000174c       ??_C@_1BC@JHHBCOOL@?$AAM?$AAo?$AAv?$AAe?$AAD?$AAo?$AAw?$AAn?$AA?$AA@ 1905274c     mv_main.obj
 0003:00001764       ??_C@_1O@NGOBJADD@?$AAM?$AAo?$AAv?$AAe?$AAU?$AAp?$AA?$AA@ 19052764     mv_main.obj
 0003:00001774       ??_C@_1BE@MBNIGNDP@?$AAM?$AAo?$AAv?$AAe?$AAR?$AAi?$AAg?$AAh?$AAt?$AA?$AA@ 19052774     mv_main.obj
 0003:0000178c       ??_C@_1BC@OCEIBEBC@?$AAM?$AAo?$AAv?$AAe?$AAL?$AAe?$AAf?$AAt?$AA?$AA@ 1905278c     mv_main.obj
 0003:000017a4       ??_C@_1BK@NBFJCCIB@?$AAM?$AAo?$AAv?$AAe?$AAB?$AAa?$AAc?$AAk?$AAw?$AAa?$AAr?$AAd?$AA?$AA@ 190527a4     mv_main.obj
 0003:000017c4       ??_C@_1BI@DPKIHEC@?$AAM?$AAo?$AAv?$AAe?$AAF?$AAo?$AAr?$AAw?$AAa?$AAr?$AAd?$AA?$AA@ 190527c4     mv_main.obj
 0003:000017e0       ??_C@_1BI@ONBEFMGA@?$AAC?$AAa?$AAm?$AAe?$AAr?$AAa?$AAP?$AAi?$AAt?$AAc?$AAh?$AA?$AA@ 190527e0     mv_main.obj
 0003:000017fc       ??_C@_1BE@NDOKAFJH@?$AAC?$AAa?$AAm?$AAe?$AAr?$AAa?$AAY?$AAa?$AAw?$AA?$AA@ 190527fc     mv_main.obj
 0003:00001814       ??_C@_11LOCGONAA@?$AA?$AA@ 19052814     mv_main.obj
 0003:00001818       ??_C@_1DC@FFOBFIFJ@?$AAI?$AAn?$AAv?$AAa?$AAl?$AAi?$AAd?$AA?5?$AAC?$AAW?$AAo?$AAr?$AAl?$AAd?$AA?5?$AAf?$AAr?$AAo?$AAm?$AA?5?$AAh?$AAo?$AAs?$AAt?$AA?$AA@ 19052818     mv_main.obj
 0003:00001858       ??_C@_1FO@FABKHDFN@?$AA?1?$AAs?$AAh?$AAa?$AAr?$AAe?$AAd?$AA?1?$AAm?$AAa?$AAt?$AAe?$AAr?$AAi?$AAa?$AAl?$AAs?$AA?1?$AAs?$AAe?$AAl?$AAe?$AAc?$AAt?$AAi?$AAo?$AAn?$AA_?$AAi?$AAn?$AAd?$AAi@ 19052858     mv_main.obj
 0003:000018c8       ??_C@_1CI@MFJECMIL@?$AAv?$AAi?$AAd?$AA_?$AAf?$AAo?$AAg?$AAo?$AAf?$AAw?$AAa?$AAr?$AAm?$AAa?$AAp?$AAS?$AAi?$AAz?$AAe?$AA?$AA@ 190528c8     mv_main.obj
 0003:000018f8       ??_C@_1DG@JELGMOCL@?$AAv?$AAi?$AAd?$AA_?$AAf?$AAo?$AAg?$AAo?$AAf?$AAw?$AAa?$AAr?$AAm?$AAa?$AAp?$AAM?$AAu?$AAl?$AAt?$AAi?$AAs?$AAa?$AAm?$AAp?$AAl?$AAe?$AA?$AA@ 190528f8     mv_main.obj
 0003:00001938       __real@4070000000000000    19052938     mv_main.obj
 0003:00001948       __real@4076800000000000    19052948     mv_main.obj
 0003:00001958       __real@407f400000000000    19052958     mv_main.obj
 0003:00001968       __real@4008000000000000    19052968     mv_main.obj
 0003:00001974       __real@42dc0000            19052974     mv_main.obj
 0003:00001978       ??_C@_1M@HLGKFCJM@?$AAf?$AAa?$AAl?$AAs?$AAe?$AA?$AA@ 19052978     mv_main.obj
 0003:00001988       ??_C@_13JGCMLPCH@?$AA1?$AA?$AA@ 19052988     mv_main.obj
 0003:0000198c       ??_C@_1DC@POOIKBAO@?$AAI?$AAT?$AAE?$AAR?$AAA?$AAT?$AAO?$AAR?$AA?5?$AAL?$AAI?$AAS?$AAT?$AA?5?$AAC?$AAO?$AAR?$AAR?$AAU?$AAP?$AAT?$AAE?$AAD?$AA?$CB?$AA?$AA@ 1905298c     mv_main.obj
 0003:000019c8       ??_C@_1HO@NAKOAEEB@?$AAc?$AA?3?$AA?2?$AAp?$AAr?$AAo?$AAg?$AAr?$AAa?$AAm?$AA?5?$AAf?$AAi?$AAl?$AAe?$AAs?$AA?2?$AAm?$AAi?$AAc?$AAr?$AAo?$AAs?$AAo?$AAf?$AAt?$AA?5?$AAv?$AAi?$AAs?$AAu?$AAa@ 190529c8     mv_main.obj
 0003:00001a60       ??_C@_1BM@DCNKIICA@?$AAS?$AAt?$AAa?$AAr?$AAt?$AAE?$AAf?$AAf?$AAe?$AAc?$AAt?$AA?5?$AA?$CC?$AA?$AA@ 19052a60     mv_main.obj
 0003:00001a84       ??_C@_1O@MPJKDOED@?$AAe?$AAf?$AAf?$AAe?$AAc?$AAt?$AA?$AA@ 19052a84     mv_main.obj
 0003:00001a94       ??_C@_1BI@PEKNOMNP@?$AAS?$AAe?$AAt?$AA?5?$AAm?$AAo?$AAd?$AAe?$AAl?$AA?5?$AA?$CC?$AA?$AA@ 19052a94     mv_main.obj
 0003:00001ab0       ??_C@_13NEIAEHFG@?$AA?$CC?$AA?$AA@ 19052ab0     mv_main.obj
 0003:00001ab4       ??_C@_17FMBLHAGP@?$AAm?$AAd?$AAf?$AA?$AA@ 19052ab4     mv_main.obj
 0003:00001ac0       ??_C@_13CGOKJPIL@?$AA?1?$AA?$AA@ 19052ac0     mv_main.obj
 0003:00001ac4       ??_C@_1BI@HDOILMAH@?$AAm?$AAo?$AAd?$AAe?$AAl?$AAv?$AAi?$AAe?$AAw?$AAe?$AAr?$AA?$AA@ 19052ac4     mv_main.obj
 0003:00001ae0       ??_C@_1CA@JFCBMGKL@?$AAK?$AA2?$AA?5?$AAM?$AAo?$AAd?$AAe?$AAl?$AA?5?$AAV?$AAi?$AAe?$AAw?$AAe?$AAr?$AA?$AA@ 19052ae0     mv_main.obj
 0003:00001b08       __real@3df0000000000000    19052b08     mv_main.obj
 0003:00001b14       ??_C@_1CA@DGCFJNFO@?$AAB?$AAl?$AAu?$AAe?$AAN?$AAo?$AAi?$AAs?$AAe?$AA?5?$AAt?$AAo?$AAo?$AAk?$AA?5?$AA?$AA@ 19052b14     mv_main.obj
 0003:00001b3c       ??_C@_15IDNNENKK@?$AAm?$AAs?$AA?$AA@ 19052b3c     mv_main.obj
 0003:00001b44       ??_C@_1CI@LCKPPMPF@?$AAB?$AAl?$AAu?$AAe?$AAN?$AAo?$AAi?$AAs?$AAe?$AA?5?$AAs?$AAa?$AAv?$AAe?$AAd?$AA?5?$AAt?$AAo?$AA?5?$AA?$AA@ 19052b44     mv_main.obj
 0003:00001b74       ??_C@_1BK@JLBHOCAN@?$AAb?$AAl?$AAu?$AAe?$AA_?$AAn?$AAo?$AAi?$AAs?$AAe?$AA?4?$AAh?$AA?$AA@ 19052b74     mv_main.obj
 0003:00001b94       ??_C@_13GCIFAHHO@?$AA?$HL?$AA?$AA@ 19052b94     mv_main.obj
 0003:00001b98       ??_C@_17FMAFODNJ@?$AAf?$AA?0?$AA?5?$AA?$AA@ 19052b98     mv_main.obj
 0003:00001ba4       ??_C@_17NBABIHDD@?$AAf?$AA?$HN?$AA?0?$AA?$AA@ 19052ba4     mv_main.obj
 0003:00001bb0       ??_C@_1BO@DDCHDMOP@?$AA?$HO?$AA?1?$AAb?$AAl?$AAu?$AAe?$AA_?$AAn?$AAo?$AAi?$AAs?$AAe?$AA?4?$AAh?$AA?$AA@ 19052bb0     mv_main.obj
 0003:00001bd4       ??_C@_1BA@EJPDBIAE@?$AA?$DM?$AA?1?$AAs?$AAk?$AAi?$AAn?$AA?$DO?$AA?$AA@ 19052bd4     mv_main.obj
 0003:00001be8       ??_C@_1CE@IJPEDCKD@?$AA?$DM?$AAr?$AAe?$AAf?$AAe?$AAr?$AAe?$AAn?$AAc?$AAe?$AA?5?$AAm?$AAe?$AAs?$AAh?$AA?$DN?$AA?$CC?$AA?$AA@ 19052be8     mv_main.obj
 0003:00001c14       ??_C@_1BK@PKLOHECE@?$AA?$CC?$AA?5?$AAm?$AAa?$AAt?$AAe?$AAr?$AAi?$AAa?$AAl?$AA?$DN?$AA?$CC?$AA?$AA@ 19052c14     mv_main.obj
 0003:00001c34       ??_C@_1BM@DIHGJEFG@?$AA?4?$AAm?$AAa?$AAt?$AAe?$AAr?$AAi?$AAa?$AAl?$AA?$CC?$AA?5?$AA?1?$AA?$DO?$AA?$AA@ 19052c34     mv_main.obj
 0003:00001c58       ??_C@_1CM@INEANDKA@?$AA?$DM?$AAs?$AAk?$AAi?$AAn?$AA?5?$AAn?$AAa?$AAm?$AAe?$AA?$DN?$AA?$CC?$AAd?$AAe?$AAf?$AAa?$AAu?$AAl?$AAt?$AA?$CC?$AA?$DO?$AA?$AA@ 19052c58     mv_main.obj
 0003:00001c8c       ??_C@_1M@MCCBDJIK@?$AAg?$AAr?$AAa?$AAs?$AAs?$AA?$AA@ 19052c8c     mv_main.obj
 0003:00001c9c       ??_C@_1BG@EGFGOKK@?$AA?$CK?$AA?4?$AAm?$AAa?$AAt?$AAe?$AAr?$AAi?$AAa?$AAl?$AA?$AA@ 19052c9c     mv_main.obj
 0003:00001cb8       ??_C@_1M@HOLDINHC@?$AAF?$AAR?$AAA?$AAK?$AA?$CB?$AA?$AA@ 19052cb8     mv_main.obj
 0003:00001cc8       ??_C@_1O@CELMKMNE@?$AA?5?$AAb?$AAy?$AAt?$AAe?$AAs?$AA?$AA@ 19052cc8     mv_main.obj
 0003:00001cd8       ??_C@_13DEFPDAGF@?$AA?0?$AA?$AA@ 19052cd8     mv_main.obj
 0003:00001cdc       ??_C@_1BM@KLOACODH@?$AAF?$AAa?$AAi?$AAl?$AAe?$AAd?$AA?5?$AAt?$AAe?$AAs?$AAt?$AA?5?$AA?$CD?$AA?$AA@ 19052cdc     mv_main.obj
 0003:00001d00       ??_C@_1M@OBHOGJJD@?$AA?$CK?$AA?4?$AAm?$AAd?$AAf?$AA?$AA@ 19052d00     mv_main.obj
 0003:00001d10       ??_C@_1BI@NBDHNHBK@?$AA?$HO?$AA?1?$AAc?$AAo?$AAn?$AAv?$AAe?$AAr?$AAt?$AAe?$AAd?$AA?$AA@ 19052d10     mv_main.obj
 0003:00001d2c       ??_C@_19PDJAJEAE@?$AA?4?$AAt?$AAg?$AAa?$AA?$AA@ 19052d2c     mv_main.obj
 0003:00001d38       ??_C@_1BA@OAFKPPM@?$AA?$HO?$AA?1?$AAf?$AAi?$AAx?$AAe?$AAd?$AA?$AA@ 19052d38     mv_main.obj
 0003:00001d50       ??_C@_1GK@EDIDANOD@?$AA?$CI?$AA?$CC?$AA_?$AAM?$AAy?$AAp?$AAt?$AAr?$AA?5?$AA?$DM?$AA?5?$AA?$CI?$AA?$CI?$AA_?$AAM?$AAy?$AAv?$AAe?$AAc?$AA?5?$AA?$CK?$AA?$CJ?$AA?$CI?$AAt?$AAh?$AAi?$AAs?$AA?9?$AA?$DO?$AA_?$AAM?$AAy@ 19052d50     mv_main.obj
 0003:00001dd0       ??_C@_1CG@JNLFBNGN@?$AA?$CC?$AAi?$AAn?$AAv?$AAa?$AAl?$AAi?$AAd?$AA?5?$AAa?$AAr?$AAg?$AAu?$AAm?$AAe?$AAn?$AAt?$AA?$CC?$AA?$AA@ 19052dd0     mv_main.obj
 0003:00001e00       ??_C@_1CBK@PKJPBGFO@?$AAs?$AAt?$AAd?$AA?3?$AA?3?$AA_?$AAV?$AAe?$AAc?$AAt?$AAo?$AAr?$AA_?$AAc?$AAo?$AAn?$AAs?$AAt?$AA_?$AAi?$AAt?$AAe?$AAr?$AAa?$AAt?$AAo?$AAr?$AA?$DM?$AAc?$AAl?$AAa?$AAs@ 19052e00     mv_main.obj
 0003:00002088       ??_C@_1DK@LIMPPGHH@?$AA?$CI?$AA?$CC?$AAt?$AAh?$AAi?$AAs?$AA?9?$AA?$DO?$AA_?$AAM?$AAy?$AAc?$AAo?$AAn?$AAt?$AA?5?$AA?$CB?$AA?$DN?$AA?5?$AAN?$AAU?$AAL?$AAL?$AA?$CC?$AA?0?$AA?5?$AA0?$AA?$CJ?$AA?$AA@ 19053088     mv_main.obj
 0003:000020d0       ??_C@_0P@HAHLNPOB@ctx_STL_vector?$AA@ 190530d0     mv_main.obj
 0003:000020e8       ??_C@_1CBI@FKOMBFAD@?$AAs?$AAt?$AAd?$AA?3?$AA?3?$AA_?$AAV?$AAe?$AAc?$AAt?$AAo?$AAr?$AA_?$AAc?$AAo?$AAn?$AAs?$AAt?$AA_?$AAi?$AAt?$AAe?$AAr?$AAa?$AAt?$AAo?$AAr?$AA?$DM?$AAc?$AAl?$AAa?$AAs@ 190530e8     mv_main.obj
 0003:00002370       ??_C@_1EG@FOHJJHAC@?$AAv?$AAe?$AAc?$AAt?$AAo?$AAr?$AA?5?$AAi?$AAt?$AAe?$AAr?$AAa?$AAt?$AAo?$AAr?$AA?5?$AAn?$AAo?$AAt?$AA?5?$AAd?$AAe?$AAr?$AAe?$AAf?$AAe?$AAr?$AAe?$AAn?$AAc?$AAa?$AAb@ 19053370     mv_main.obj
 0003:000023c8       ??_C@_1BBK@OCDIABBH@?$AAs?$AAt?$AAd?$AA?3?$AA?3?$AAv?$AAe?$AAc?$AAt?$AAo?$AAr?$AA?$DM?$AAs?$AAt?$AAr?$AAu?$AAc?$AAt?$AA?5?$AAs?$AAt?$AAd?$AA?3?$AA?3?$AAp?$AAa?$AAi?$AAr?$AA?$DM?$AAu?$AAn?$AAs@ 190533c8     mv_main.obj
 0003:00002520       ??_C@_1NC@JGHDFNDO@?$AAs?$AAt?$AAd?$AA?3?$AA?3?$AAv?$AAe?$AAc?$AAt?$AAo?$AAr?$AA?$DM?$AAs?$AAt?$AAr?$AAu?$AAc?$AAt?$AA?5?$AAs?$AAt?$AAd?$AA?3?$AA?3?$AAp?$AAa?$AAi?$AAr?$AA?$DM?$AAi?$AAn?$AAt@ 19053520     mv_main.obj
 0003:0000261c       ??_C@_0BD@OLBABOEK@vector?$DMT?$DO?5too?5long?$AA@ 1905361c     mv_main.obj
 0003:00002634       ??_7length_error@std@@6B@  19053634     mv_main.obj
 0003:00002640       ??_7logic_error@std@@6B@   19053640     mv_main.obj
 0003:00002650       ??_C@_1ME@CIEFEONO@?$AAs?$AAt?$AAd?$AA?3?$AA?3?$AAv?$AAe?$AAc?$AAt?$AAo?$AAr?$AA?$DM?$AAc?$AAl?$AAa?$AAs?$AAs?$AA?5?$AAC?$AAU?$AAI?$AAS?$AAc?$AAr?$AAi?$AAp?$AAt?$AAT?$AAo?$AAk?$AAe?$AAn@ 19053650     mv_main.obj
 0003:00002740       ??_C@_1CDA@HBPOCOLJ@?$AAs?$AAt?$AAd?$AA?3?$AA?3?$AA_?$AAV?$AAe?$AAc?$AAt?$AAo?$AAr?$AA_?$AAc?$AAo?$AAn?$AAs?$AAt?$AA_?$AAi?$AAt?$AAe?$AAr?$AAa?$AAt?$AAo?$AAr?$AA?$DM?$AAc?$AAl?$AAa?$AAs@ 19053740     mv_main.obj
 0003:000029e0       ??_C@_1NK@JLHOCNGO@?$AA?$CI?$AA?$CC?$AA_?$AAP?$AAv?$AAe?$AAc?$AAt?$AAo?$AAr?$AA?5?$AA?$DN?$AA?$DN?$AA?5?$AAN?$AAU?$AAL?$AAL?$AA?5?$AA?$HM?$AA?$HM?$AA?5?$AA?$CI?$AA?$CI?$AA?$CI?$AA_?$AAM?$AAy?$AAv?$AAe?$AAc?$AA?5@ 190539e0     mv_main.obj
 0003:00002ae8       ??_C@_1NM@NIPDHFOK@?$AAs?$AAt?$AAd?$AA?3?$AA?3?$AA_?$AAV?$AAe?$AAc?$AAt?$AAo?$AAr?$AA_?$AAc?$AAo?$AAn?$AAs?$AAt?$AA_?$AAi?$AAt?$AAe?$AAr?$AAa?$AAt?$AAo?$AAr?$AA?$DM?$AAs?$AAt?$AAr?$AAu@ 19053ae8     mv_main.obj
 0003:00002bf0       ??_C@_1IA@FGCJJOHN@?$AAs?$AAt?$AAd?$AA?3?$AA?3?$AAv?$AAe?$AAc?$AAt?$AAo?$AAr?$AA?$DM?$AAs?$AAh?$AAo?$AAr?$AAt?$AA?0?$AAc?$AAl?$AAa?$AAs?$AAs?$AA?5?$AAK?$AA2?$AAV?$AAe?$AAc?$AAt?$AAo?$AAr@ 19053bf0     mv_main.obj
 0003:00002c90       ??_C@_1CBC@PGCBIKOD@?$AAs?$AAt?$AAd?$AA?3?$AA?3?$AA_?$AAV?$AAe?$AAc?$AAt?$AAo?$AAr?$AA_?$AAc?$AAo?$AAn?$AAs?$AAt?$AA_?$AAi?$AAt?$AAe?$AAr?$AAa?$AAt?$AAo?$AAr?$AA?$DM?$AAc?$AAl?$AAa?$AAs@ 19053c90     mv_main.obj
 0003:00002f10       ??_C@_1FO@OCPOOAIA@?$AA?$CI?$AA?$CC?$AAS?$AAt?$AAa?$AAn?$AAd?$AAa?$AAr?$AAd?$AA?5?$AAC?$AA?$CL?$AA?$CL?$AA?5?$AAL?$AAi?$AAb?$AAr?$AAa?$AAr?$AAi?$AAe?$AAs?$AA?5?$AAI?$AAn?$AAv?$AAa?$AAl?$AAi?$AAd@ 19053f10     mv_main.obj
 0003:00002f80       ??_C@_1DM@HINDPMBP@?$AAv?$AAe?$AAc?$AAt?$AAo?$AAr?$AA?5?$AAi?$AAt?$AAe?$AAr?$AAa?$AAt?$AAo?$AAr?$AAs?$AA?5?$AAi?$AAn?$AAc?$AAo?$AAm?$AAp?$AAa?$AAt?$AAi?$AAb?$AAl?$AAe?$AA?$AA@ 19053f80     mv_main.obj
 0003:00002fc8       ??_C@_1OI@JGDCIMPP@?$AAs?$AAt?$AAd?$AA?3?$AA?3?$AA_?$AAS?$AAt?$AAr?$AAi?$AAn?$AAg?$AA_?$AAc?$AAo?$AAn?$AAs?$AAt?$AA_?$AAi?$AAt?$AAe?$AAr?$AAa?$AAt?$AAo?$AAr?$AA?$DM?$AAw?$AAc?$AAh?$AAa@ 19053fc8     mv_main.obj
 0003:000030e0       ??_C@_1EG@CNCHLAOB@?$AAs?$AAt?$AAr?$AAi?$AAn?$AAg?$AA?5?$AAi?$AAt?$AAe?$AAr?$AAa?$AAt?$AAo?$AAr?$AA?5?$AAn?$AAo?$AAt?$AA?5?$AAd?$AAe?$AAr?$AAe?$AAf?$AAe?$AAr?$AAe?$AAn?$AAc?$AAa?$AAb@ 190540e0     mv_main.obj
 0003:00003138       ??_C@_1MC@OAAJIFPD@?$AA?$CI?$AA?$CC?$AA_?$AAM?$AAy?$AAp?$AAt?$AAr?$AA?5?$AA?$DM?$AA?5?$AA?$CI?$AA?$CI?$AA?$CI?$AA_?$AAM?$AAy?$AAs?$AAt?$AAr?$AAi?$AAn?$AAg?$AA?5?$AA?$CK?$AA?$CJ?$AAt?$AAh?$AAi?$AAs?$AA?9?$AA?$DO@ 19054138     mv_main.obj
 0003:00003220       ??_C@_1OK@MLEFFPNB@?$AAs?$AAt?$AAd?$AA?3?$AA?3?$AA_?$AAS?$AAt?$AAr?$AAi?$AAn?$AAg?$AA_?$AAc?$AAo?$AAn?$AAs?$AAt?$AA_?$AAi?$AAt?$AAe?$AAr?$AAa?$AAt?$AAo?$AAr?$AA?$DM?$AAw?$AAc?$AAh?$AAa@ 19054220     mv_main.obj
 0003:00003338       ??_C@_1BAA@BODMOCBB@?$AAs?$AAt?$AAd?$AA?3?$AA?3?$AA_?$AAS?$AAt?$AAr?$AAi?$AAn?$AAg?$AA_?$AAc?$AAo?$AAn?$AAs?$AAt?$AA_?$AAi?$AAt?$AAe?$AAr?$AAa?$AAt?$AAo?$AAr?$AA?$DM?$AAw?$AAc?$AAh?$AAa@ 19054338     mv_main.obj
 0003:00003470       ??_C@_1BEO@GFHFALBP@?$AA?$CI?$AA?$CC?$AA_?$AAP?$AAs?$AAt?$AAr?$AAi?$AAn?$AAg?$AA?5?$AA?$DN?$AA?$DN?$AA?5?$AAN?$AAU?$AAL?$AAL?$AA?5?$AA?$HM?$AA?$HM?$AA?5?$AA_?$AAP?$AAt?$AAr?$AA?5?$AA?$CB?$AA?$DN?$AA?5?$AAN?$AAU@ 19054470     mv_main.obj
 0003:00003600       ??_C@_1OC@KHIIKOEO@?$AAs?$AAt?$AAd?$AA?3?$AA?3?$AA_?$AAS?$AAt?$AAr?$AAi?$AAn?$AAg?$AA_?$AAc?$AAo?$AAn?$AAs?$AAt?$AA_?$AAi?$AAt?$AAe?$AAr?$AAa?$AAt?$AAo?$AAr?$AA?$DM?$AAw?$AAc?$AAh?$AAa@ 19054600     mv_main.obj
 0003:00003710       ??_C@_1DM@KDEKGMPF@?$AAs?$AAt?$AAr?$AAi?$AAn?$AAg?$AA?5?$AAi?$AAt?$AAe?$AAr?$AAa?$AAt?$AAo?$AAr?$AAs?$AA?5?$AAi?$AAn?$AAc?$AAo?$AAm?$AAp?$AAa?$AAt?$AAi?$AAb?$AAl?$AAe?$AA?$AA@ 19054710     mv_main.obj
 0003:00003758       ??_C@_1PC@PFOPHDCN@?$AAs?$AAt?$AAd?$AA?3?$AA?3?$AA_?$AAV?$AAe?$AAc?$AAt?$AAo?$AAr?$AA_?$AAc?$AAo?$AAn?$AAs?$AAt?$AA_?$AAi?$AAt?$AAe?$AAr?$AAa?$AAt?$AAo?$AAr?$AA?$DM?$AAs?$AAt?$AAr?$AAu@ 19054758     mv_main.obj
 0003:00003880       ??_C@_1NK@EEOHEEJE@?$AAs?$AAt?$AAd?$AA?3?$AA?3?$AA_?$AAV?$AAe?$AAc?$AAt?$AAo?$AAr?$AA_?$AAc?$AAo?$AAn?$AAs?$AAt?$AA_?$AAi?$AAt?$AAe?$AAr?$AAa?$AAt?$AAo?$AAr?$AA?$DM?$AAs?$AAt?$AAr?$AAu@ 19054880     mv_main.obj
 0003:00003988       ??_C@_1DMG@EKIDPGOH@?$AAs?$AAt?$AAd?$AA?3?$AA?3?$AA_?$AAT?$AAr?$AAe?$AAe?$AA?$DM?$AAc?$AAl?$AAa?$AAs?$AAs?$AA?5?$AAs?$AAt?$AAd?$AA?3?$AA?3?$AA_?$AAT?$AAm?$AAa?$AAp?$AA_?$AAt?$AAr?$AAa?$AAi@ 19054988     mv_main.obj
 0003:00003e10       ??_C@_1EI@FHEHNNNM@?$AAm?$AAa?$AAp?$AA?1?$AAs?$AAe?$AAt?$AA?5?$AAi?$AAt?$AAe?$AAr?$AAa?$AAt?$AAo?$AAr?$AA?5?$AAn?$AAo?$AAt?$AA?5?$AAd?$AAe?$AAr?$AAe?$AAf?$AAe?$AAr?$AAe?$AAn?$AAc?$AAa@ 19054e10     mv_main.obj
 0003:00003e68       ??_C@_1HI@IOFOAN@?$AAc?$AA?3?$AA?2?$AAp?$AAr?$AAo?$AAg?$AAr?$AAa?$AAm?$AA?5?$AAf?$AAi?$AAl?$AAe?$AAs?$AA?2?$AAm?$AAi?$AAc?$AAr?$AAo?$AAs?$AAo?$AAf?$AAt?$AA?5?$AAv?$AAi?$AAs?$AAu?$AAa@ 19054e68     mv_main.obj
 0003:00003ef8       ??_C@_1DMI@FJHDGKNO@?$AAs?$AAt?$AAd?$AA?3?$AA?3?$AA_?$AAT?$AAr?$AAe?$AAe?$AA?$DM?$AAc?$AAl?$AAa?$AAs?$AAs?$AA?5?$AAs?$AAt?$AAd?$AA?3?$AA?3?$AA_?$AAT?$AAm?$AAa?$AAp?$AA_?$AAt?$AAr?$AAa?$AAi@ 19054ef8     mv_main.obj
 0003:00004384       ??_C@_1DO@CFEEPGGJ@?$AAm?$AAa?$AAp?$AA?1?$AAs?$AAe?$AAt?$AA?5?$AAi?$AAt?$AAe?$AAr?$AAa?$AAt?$AAo?$AAr?$AAs?$AA?5?$AAi?$AAn?$AAc?$AAo?$AAm?$AAp?$AAa?$AAt?$AAi?$AAb?$AAl?$AAe?$AA?$AA@ 19055384     mv_main.obj
 0003:000043d0       ??_C@_1DLK@PMNHKNCE@?$AAs?$AAt?$AAd?$AA?3?$AA?3?$AA_?$AAT?$AAr?$AAe?$AAe?$AA?$DM?$AAc?$AAl?$AAa?$AAs?$AAs?$AA?5?$AAs?$AAt?$AAd?$AA?3?$AA?3?$AA_?$AAT?$AAm?$AAa?$AAp?$AA_?$AAt?$AAr?$AAa?$AAi@ 190553d0     mv_main.obj
 0003:00004848       ??_C@_1EG@EHJFMBHJ@?$AAm?$AAa?$AAp?$AA?1?$AAs?$AAe?$AAt?$AA?5?$AAi?$AAt?$AAe?$AAr?$AAa?$AAt?$AAo?$AAr?$AA?5?$AAn?$AAo?$AAt?$AA?5?$AAi?$AAn?$AAc?$AAr?$AAe?$AAm?$AAe?$AAn?$AAt?$AAa?$AAb@ 19055848     mv_main.obj
 0003:000048a0       ??_C@_1PC@HLECEGCN@?$AAs?$AAt?$AAd?$AA?3?$AA?3?$AA_?$AAV?$AAe?$AAc?$AAt?$AAo?$AAr?$AA_?$AAc?$AAo?$AAn?$AAs?$AAt?$AA_?$AAi?$AAt?$AAe?$AAr?$AAa?$AAt?$AAo?$AAr?$AA?$DM?$AAs?$AAt?$AAr?$AAu@ 190558a0     mv_main.obj
 0003:000049c8       ??_C@_1EK@EEHFMKDC@?$AAv?$AAe?$AAc?$AAt?$AAo?$AAr?$AA?5?$AAi?$AAn?$AAs?$AAe?$AAr?$AAt?$AA?5?$AAi?$AAt?$AAe?$AAr?$AAa?$AAt?$AAo?$AAr?$AA?5?$AAo?$AAu?$AAt?$AAs?$AAi?$AAd?$AAe?$AA?5?$AAr@ 190559c8     mv_main.obj
 0003:00004a20       ??_C@_1EI@HGIDLLCM@?$AAv?$AAe?$AAc?$AAt?$AAo?$AAr?$AA?5?$AAe?$AAr?$AAa?$AAs?$AAe?$AA?5?$AAi?$AAt?$AAe?$AAr?$AAa?$AAt?$AAo?$AAr?$AA?5?$AAo?$AAu?$AAt?$AAs?$AAi?$AAd?$AAe?$AA?5?$AAr?$AAa@ 19055a20     mv_main.obj
 0003:00004a78       ??_C@_1NE@NPMDEPPP@?$AAs?$AAt?$AAd?$AA?3?$AA?3?$AA_?$AAV?$AAe?$AAc?$AAt?$AAo?$AAr?$AA_?$AAc?$AAo?$AAn?$AAs?$AAt?$AA_?$AAi?$AAt?$AAe?$AAr?$AAa?$AAt?$AAo?$AAr?$AA?$DM?$AAs?$AAt?$AAr?$AAu@ 19055a78     mv_main.obj
 0003:00004b78       ??_C@_1BAI@FJMIDCBL@?$AAs?$AAt?$AAd?$AA?3?$AA?3?$AA_?$AAV?$AAe?$AAc?$AAt?$AAo?$AAr?$AA_?$AAc?$AAo?$AAn?$AAs?$AAt?$AA_?$AAi?$AAt?$AAe?$AAr?$AAa?$AAt?$AAo?$AAr?$AA?$DM?$AAs?$AAt?$AAr?$AAu@ 19055b78     mv_main.obj
 0003:00004cb8       ??_C@_1PA@BKDOBIBO@?$AAs?$AAt?$AAd?$AA?3?$AA?3?$AA_?$AAV?$AAe?$AAc?$AAt?$AAo?$AAr?$AA_?$AAc?$AAo?$AAn?$AAs?$AAt?$AA_?$AAi?$AAt?$AAe?$AAr?$AAa?$AAt?$AAo?$AAr?$AA?$DM?$AAs?$AAt?$AAr?$AAu@ 19055cb8     mv_main.obj
 0003:00004dd8       ??_C@_1OO@PBNBABMO@?$AA?$CI?$AA?$CC?$AA_?$AAM?$AAy?$AAp?$AAt?$AAr?$AA?5?$AA?$CL?$AA?5?$AA_?$AAO?$AAf?$AAf?$AA?5?$AA?$DM?$AA?$DN?$AA?5?$AA?$CI?$AA?$CI?$AA_?$AAM?$AAy?$AAv?$AAe?$AAc?$AA?5?$AA?$CK?$AA?$CJ?$AA?$CI?$AAt@ 19055dd8     mv_main.obj
 0003:00004ef8       ??_C@_1PC@ODAEOGO@?$AAs?$AAt?$AAd?$AA?3?$AA?3?$AA_?$AAV?$AAe?$AAc?$AAt?$AAo?$AAr?$AA_?$AAc?$AAo?$AAn?$AAs?$AAt?$AA_?$AAi?$AAt?$AAe?$AAr?$AAa?$AAt?$AAo?$AAr?$AA?$DM?$AAs?$AAt?$AAr?$AAu@ 19055ef8     mv_main.obj
 0003:00005020       ??_C@_1OK@MKGCILDC@?$AAs?$AAt?$AAd?$AA?3?$AA?3?$AA_?$AAV?$AAe?$AAc?$AAt?$AAo?$AAr?$AA_?$AAc?$AAo?$AAn?$AAs?$AAt?$AA_?$AAi?$AAt?$AAe?$AAr?$AAa?$AAt?$AAo?$AAr?$AA?$DM?$AAs?$AAt?$AAr?$AAu@ 19056020     mv_main.obj
 0003:00005138       ??_C@_1KO@PIPHHAPP@?$AAs?$AAt?$AAd?$AA?3?$AA?3?$AA_?$AAV?$AAe?$AAc?$AAt?$AAo?$AAr?$AA_?$AAc?$AAo?$AAn?$AAs?$AAt?$AA_?$AAi?$AAt?$AAe?$AAr?$AAa?$AAt?$AAo?$AAr?$AA?$DM?$AAi?$AAn?$AAt?$AA?0@ 19056138     mv_main.obj
 0003:00005208       ??_C@_1JI@DKPHCJM@?$AAs?$AAt?$AAd?$AA?3?$AA?3?$AA_?$AAV?$AAe?$AAc?$AAt?$AAo?$AAr?$AA_?$AAc?$AAo?$AAn?$AAs?$AAt?$AA_?$AAi?$AAt?$AAe?$AAr?$AAa?$AAt?$AAo?$AAr?$AA?$DM?$AAi?$AAn?$AAt?$AA?0@ 19056208     mv_main.obj
 0003:000052c0       ??_C@_1JA@GJINGLG@?$AAs?$AAt?$AAd?$AA?3?$AA?3?$AA_?$AAV?$AAe?$AAc?$AAt?$AAo?$AAr?$AA_?$AAc?$AAo?$AAn?$AAs?$AAt?$AA_?$AAi?$AAt?$AAe?$AAr?$AAa?$AAt?$AAo?$AAr?$AA?$DM?$AAi?$AAn?$AAt?$AA?0@ 190562c0     mv_main.obj
 0003:00005370       ??_C@_1IA@PDBHGJAP@?$AAc?$AA?3?$AA?2?$AAp?$AAr?$AAo?$AAg?$AAr?$AAa?$AAm?$AA?5?$AAf?$AAi?$AAl?$AAe?$AAs?$AA?2?$AAm?$AAi?$AAc?$AAr?$AAo?$AAs?$AAo?$AAf?$AAt?$AA?5?$AAv?$AAi?$AAs?$AAu?$AAa@ 19056370     mv_main.obj
 0003:0000540c       ??_C@_1CO@DGLIKNHI@?$AAi?$AAn?$AAv?$AAa?$AAl?$AAi?$AAd?$AA?5?$AAi?$AAt?$AAe?$AAr?$AAa?$AAt?$AAo?$AAr?$AA?5?$AAr?$AAa?$AAn?$AAg?$AAe?$AA?$AA@ 1905640c     mv_main.obj
 0003:00005448       ??_C@_1HK@DFAOKDK@?$AAc?$AA?3?$AA?2?$AAp?$AAr?$AAo?$AAg?$AAr?$AAa?$AAm?$AA?5?$AAf?$AAi?$AAl?$AAe?$AAs?$AA?2?$AAm?$AAi?$AAc?$AAr?$AAo?$AAs?$AAo?$AAf?$AAt?$AA?5?$AAv?$AAi?$AAs?$AAu?$AAa@ 19056448     mv_main.obj
 0003:000054e0       ??_C@_1GM@KHGCLBHP@?$AA?$CI?$AA?$CC?$AA_?$AAM?$AAy?$AAp?$AAt?$AAr?$AA?5?$AA?$DO?$AA?5?$AA?$CI?$AA?$CI?$AA_?$AAM?$AAy?$AAv?$AAe?$AAc?$AA?5?$AA?$CK?$AA?$CJ?$AA?$CI?$AAt?$AAh?$AAi?$AAs?$AA?9?$AA?$DO?$AA_?$AAM?$AAy@ 190564e0     mv_main.obj
 0003:00005568       ??_C@_1PC@IIHAPKOM@?$AAs?$AAt?$AAd?$AA?3?$AA?3?$AA_?$AAV?$AAe?$AAc?$AAt?$AAo?$AAr?$AA_?$AAc?$AAo?$AAn?$AAs?$AAt?$AA_?$AAi?$AAt?$AAe?$AAr?$AAa?$AAt?$AAo?$AAr?$AA?$DM?$AAs?$AAt?$AAr?$AAu@ 19056568     mv_main.obj
 0003:0000568c       ??_C@_1CE@IGJMOCCK@?$AAi?$AAn?$AAv?$AAa?$AAl?$AAi?$AAd?$AA?5?$AAo?$AAp?$AAe?$AAr?$AAa?$AAt?$AAo?$AAr?$AA?$DM?$AA?$AA@ 1905668c     mv_main.obj
 0003:000056b8       ??_C@_1BK@KAECGCDK@?$AAi?$AAn?$AAv?$AAa?$AAl?$AAi?$AAd?$AA?5?$AAh?$AAe?$AAa?$AAp?$AA?$AA@ 190566b8     mv_main.obj
 0003:000056d8       ??_C@_1CM@PBBBGKCI@?$AAc?$AAh?$AAa?$AAt?$AA_?$AAc?$AAl?$AAa?$AAn?$AA_?$AAr?$AAa?$AAn?$AAk?$AA_?$AAl?$AAe?$AAa?$AAd?$AAe?$AAr?$AA?$AA@ 190566d8     mv_main.obj
 0003:0000570c       ??_C@_1CO@DNHPHHFI@?$AAc?$AAh?$AAa?$AAt?$AA_?$AAc?$AAl?$AAa?$AAn?$AA_?$AAr?$AAa?$AAn?$AAk?$AA_?$AAo?$AAf?$AAf?$AAi?$AAc?$AAe?$AAr?$AA?$AA@ 1905670c     mv_main.obj
 0003:00005744       ??_C@_1CM@LAENGCFH@?$AAc?$AAh?$AAa?$AAt?$AA_?$AAc?$AAl?$AAa?$AAn?$AA_?$AAr?$AAa?$AAn?$AAk?$AA_?$AAm?$AAe?$AAm?$AAb?$AAe?$AAr?$AA?$AA@ 19056744     mv_main.obj
 0003:00005778       ??_C@_1CI@BECFEKEM@?$AAc?$AAh?$AAa?$AAt?$AA_?$AAc?$AAl?$AAa?$AAn?$AA_?$AAr?$AAa?$AAn?$AAk?$AA_?$AAn?$AAo?$AAn?$AAe?$AA?$AA@ 19056778     mv_main.obj
 0003:000057a8       ??_C@_1BI@OEOMJICL@?$AAc?$AAg?$AAa?$AAm?$AAe?$AA_?$AAd?$AAe?$AAb?$AAu?$AAg?$AA?$AA@ 190567a8     mv_main.obj
 0003:000057c4       ??_C@_1O@OENLBJCJ@?$AA?1?$AAm?$AAa?$AAp?$AAs?$AA?1?$AA?$AA@ 190567c4     mv_main.obj
 0003:000057d4       ??_C@_1CA@PHJAHMPL@?$AAA?$AAn?$AAi?$AAs?$AAo?$AAt?$AAr?$AAo?$AAp?$AAi?$AAc?$AA?5?$AA3?$AA2?$AAx?$AA?$AA@ 190567d4     mv_main.obj
 0003:000057fc       ??_C@_1CA@COCEDJJA@?$AAA?$AAn?$AAi?$AAs?$AAo?$AAt?$AAr?$AAo?$AAp?$AAi?$AAc?$AA?5?$AA1?$AA6?$AAx?$AA?$AA@ 190567fc     mv_main.obj
 0003:00005824       ??_C@_1CA@LFLFHLIG@?$AAA?$AAn?$AAi?$AAs?$AAo?$AAt?$AAr?$AAo?$AAp?$AAi?$AAc?$AA?5?$AA1?$AA2?$AAx?$AA?$AA@ 19056824     mv_main.obj
 0003:0000584c       ??_C@_1BO@DACOGBDH@?$AAA?$AAn?$AAi?$AAs?$AAo?$AAt?$AAr?$AAo?$AAp?$AAi?$AAc?$AA?5?$AA8?$AAx?$AA?$AA@ 1905684c     mv_main.obj
 0003:00005870       ??_C@_1BO@KCEAAEH@?$AAA?$AAn?$AAi?$AAs?$AAo?$AAt?$AAr?$AAo?$AAp?$AAi?$AAc?$AA?5?$AA6?$AAx?$AA?$AA@ 19056870     mv_main.obj
 0003:00005894       ??_C@_1BO@EHOMKBEM@?$AAA?$AAn?$AAi?$AAs?$AAo?$AAt?$AAr?$AAo?$AAp?$AAi?$AAc?$AA?5?$AA4?$AAx?$AA?$AA@ 19056894     mv_main.obj
 0003:000058b8       ??_C@_1BO@JBLFECFB@?$AAA?$AAn?$AAi?$AAs?$AAo?$AAt?$AAr?$AAo?$AAp?$AAi?$AAc?$AA?5?$AA2?$AAx?$AA?$AA@ 190568b8     mv_main.obj
 0003:000058dc       ??_C@_1BE@FBHJOOD@?$AAT?$AAr?$AAi?$AAl?$AAi?$AAn?$AAe?$AAa?$AAr?$AA?$AA@ 190568dc     mv_main.obj
 0003:000058f4       ??_C@_1BC@IFOPMOGB@?$AAB?$AAi?$AAl?$AAi?$AAn?$AAe?$AAa?$AAr?$AA?$AA@ 190568f4     mv_main.obj
 0003:0000590c       ??_C@_19KLMLHLJG@?$AAN?$AAo?$AAn?$AAe?$AA?$AA@ 1905690c     mv_main.obj
 0003:00005918       ??_C@_1BC@LGPIFEA@?$AAd?$AAi?$AAs?$AAa?$AAb?$AAl?$AAe?$AAd?$AA?$AA@ 19056918     mv_main.obj
 0003:00005930       ??_C@_19MPKJKGJN@?$AAo?$AAv?$AAe?$AAr?$AA?$AA@ 19056930     mv_main.obj
 0003:0000593c       ??_C@_19GMDMNN@?$AAd?$AAo?$AAw?$AAn?$AA?$AA@ 1905693c     mv_main.obj
 0003:00005948       ??_C@_15HOONGCLC@?$AAu?$AAp?$AA?$AA@ 19056948     mv_main.obj
 0003:00005950       __real@43340000            19056950     mv_main.obj
 0003:00005954       ??_C@_1BE@PAKDLMDD@?$AAm?$AAv?$AA_?$AAc?$AAa?$AAm?$AAY?$AAa?$AAw?$AA?$AA@ 19056954     mv_main.obj
 0003:0000596c       ??_7?$CCvar@MM@@6B@        1905696c     mv_main.obj
 0003:000059b0       ??_C@_15ELOONFKJ@?$AA?3?$AA?5?$AA?$AA@ 190569b0     mv_main.obj
 0003:000059b8       ??_C@_1EA@JIGDADHL@?$AA?5?$AAi?$AAs?$AAn?$AA?8?$AAt?$AA?5?$AAw?$AAi?$AAt?$AAh?$AAi?$AAn?$AA?5?$AAt?$AAh?$AAe?$AA?5?$AAv?$AAa?$AAl?$AAi?$AAd?$AA?5?$AAr?$AAa?$AAn?$AAg?$AAe?$AA?5?$AA?$FL?$AA?$AA@ 190569b8     mv_main.obj
 0003:00005a04       ??_C@_15JOGBDECP@?$AA?0?$AA?5?$AA?$AA@ 19056a04     mv_main.obj
 0003:00005a0c       ??_C@_13OHNMPHJM@?$AA?$FN?$AA?$AA@ 19056a0c     mv_main.obj
 0003:00005a10       ??_C@_1CBK@IPONBOBN@?$AAs?$AAt?$AAd?$AA?3?$AA?3?$AA_?$AAV?$AAe?$AAc?$AAt?$AAo?$AAr?$AA_?$AAc?$AAo?$AAn?$AAs?$AAt?$AA_?$AAi?$AAt?$AAe?$AAr?$AAa?$AAt?$AAo?$AAr?$AA?$DM?$AAc?$AAl?$AAa?$AAs@ 19056a10     mv_main.obj
 0003:00005c98       ??_C@_15FFJNNDMJ@?$AA?5?$AA?$FL?$AA?$AA@ 19056c98     mv_main.obj
 0003:00005ca0       ??_C@_15FOBPOKEL@?$AA?$FN?$AA?5?$AA?$AA@ 19056ca0     mv_main.obj
 0003:00005ca8       ??_C@_1BI@GGEOJCJD@?$AAm?$AAv?$AA_?$AAc?$AAa?$AAm?$AAP?$AAi?$AAt?$AAc?$AAh?$AA?$AA@ 19056ca8     mv_main.obj
 0003:00005cc4       ??_C@_1BG@MDDHDJBC@?$AAm?$AAv?$AA_?$AAc?$AAa?$AAm?$AAR?$AAo?$AAl?$AAl?$AA?$AA@ 19056cc4     mv_main.obj
 0003:00005ce0       __real@42b40000            19056ce0     mv_main.obj
 0003:00005ce4       ??_C@_1BE@NHIOJJKB@?$AAm?$AAv?$AA_?$AAc?$AAa?$AAm?$AAF?$AAo?$AAv?$AA?$AA@ 19056ce4     mv_main.obj
 0003:00005cfc       __real@42c80000            19056cfc     mv_main.obj
 0003:00005d00       ??_C@_1BO@IEAPEOCK@?$AAm?$AAv?$AA_?$AAc?$AAa?$AAm?$AAD?$AAi?$AAs?$AAt?$AAa?$AAn?$AAc?$AAe?$AA?$AA@ 19056d00     mv_main.obj
 0003:00005d24       ??_C@_1BK@DIOIIBNO@?$AAc?$AAa?$AAm?$AA_?$AAf?$AAr?$AAe?$AAe?$AAL?$AAo?$AAo?$AAk?$AA?$AA@ 19056d24     mv_main.obj
 0003:00005d44       ??_7?$CCvar@_N_N@@6B@      19056d44     mv_main.obj
 0003:00005d88       __real@453b8000            19056d88     mv_main.obj
 0003:00005d8c       ??_C@_1BI@OGPFIHFB@?$AAm?$AAv?$AA_?$AAc?$AAa?$AAm?$AAS?$AAp?$AAe?$AAe?$AAd?$AA?$AA@ 19056d8c     mv_main.obj
 0003:00005da8       ??_C@_1CC@CBMDLOII@?$AAm?$AAv?$AA_?$AAs?$AAe?$AAl?$AAe?$AAc?$AAt?$AAi?$AAo?$AAn?$AAR?$AAi?$AAn?$AAg?$AA?$AA@ 19056da8     mv_main.obj
 0003:00005dd0       __real@42400000            19056dd0     mv_main.obj
 0003:00005dd4       ??_C@_1CK@KAIPGPHB@?$AAm?$AAv?$AA_?$AAs?$AAe?$AAl?$AAe?$AAc?$AAt?$AAi?$AAo?$AAn?$AAR?$AAi?$AAn?$AAg?$AAS?$AAi?$AAz?$AAe?$AA?$AA@ 19056dd4     mv_main.obj
 0003:00005e08       ??_C@_1M@GPFDHDJI@?$AAm?$AAo?$AAd?$AAe?$AAl?$AA?$AA@ 19056e08     mv_main.obj
 0003:00005e18       ??_7?$CCvar@V?$basic_string@_WU?$char_traits@_W@std@@V?$K2StringAllocator@_W@@@std@@V12@@@6B@ 19056e18     mv_main.obj
 0003:00005e5c       ??_C@_0BM@JCOAHNPG@Inc?5called?5on?5a?5string?5cvar?$AA@ 19056e5c     mv_main.obj
 0003:00005e80       ??_C@_0BP@FLHAAMFJ@Toggle?5called?5on?5a?5string?5cvar?$AA@ 19056e80     mv_main.obj
 0003:00005ea8       __real@45000000            19056ea8     mv_main.obj
 0003:00005eac       ??_C@_1BA@DBILFPEN@?$AAm?$AAo?$AAd?$AAe?$AAl?$AA_?$AAx?$AA?$AA@ 19056eac     mv_main.obj
 0003:00005ec0       ??_C@_1BA@IJDHDICI@?$AAm?$AAo?$AAd?$AAe?$AAl?$AA_?$AAy?$AA?$AA@ 19056ec0     mv_main.obj
 0003:00005ed4       ??_C@_1BA@JLICJHMG@?$AAm?$AAo?$AAd?$AAe?$AAl?$AA_?$AAz?$AA?$AA@ 19056ed4     mv_main.obj
 0003:00005ee8       ??_C@_1BE@HONNOMJD@?$AAm?$AAo?$AAd?$AAe?$AAl?$AA_?$AAy?$AAa?$AAw?$AA?$AA@ 19056ee8     mv_main.obj
 0003:00005f00       ??_C@_1BO@BOALNEKI@?$AAm?$AAo?$AAd?$AAe?$AAl?$AA_?$AAy?$AAa?$AAw?$AAS?$AAp?$AAe?$AAe?$AAd?$AA?$AA@ 19056f00     mv_main.obj
 0003:00005f24       ??_C@_1BI@PMCFFPHJ@?$AAm?$AAo?$AAd?$AAe?$AAl?$AA_?$AAp?$AAi?$AAt?$AAc?$AAh?$AA?$AA@ 19056f24     mv_main.obj
 0003:00005f40       ??_C@_1BG@GFLFKHB@?$AAm?$AAo?$AAd?$AAe?$AAl?$AA_?$AAr?$AAo?$AAl?$AAl?$AA?$AA@ 19056f40     mv_main.obj
 0003:00005f5c       ??_C@_1BI@KLPOEIAH@?$AAm?$AAo?$AAd?$AAe?$AAl?$AA_?$AAs?$AAc?$AAa?$AAl?$AAe?$AA?$AA@ 19056f5c     mv_main.obj
 0003:00005f78       ??_C@_1CE@FDBHNPON@?$AAm?$AAo?$AAd?$AAe?$AAl?$AA_?$AAe?$AAf?$AAf?$AAe?$AAc?$AAt?$AAS?$AAc?$AAa?$AAl?$AAe?$AA?$AA@ 19056f78     mv_main.obj
 0003:00005fa4       ??_C@_1BI@GNIFENCM@?$AAm?$AAo?$AAd?$AAe?$AAl?$AA_?$AAc?$AAo?$AAl?$AAo?$AAr?$AA?$AA@ 19056fa4     mv_main.obj
 0003:00005fc0       ??_7?$CCvar@V?$CVec4@M@@M@@6B@ 19056fc0     mv_main.obj
 0003:00006008       ??_C@_1FC@GGCDJPNC@?$AAF?$AAa?$AAi?$AAl?$AAe?$AAd?$AA?5?$AAt?$AAo?$AA?5?$AAa?$AAl?$AAl?$AAo?$AAc?$AAa?$AAt?$AAe?$AA?5?$AAa?$AA?5?$AAs?$AAu?$AAb?$AAs?$AAc?$AAr?$AAi?$AAp?$AAt?$AA?5?$AAc@ 19057008     mv_main.obj
 0003:0000606c       ??_C@_1O@HIMBLNI@?$AAI?$AAn?$AAd?$AAe?$AAx?$AA?5?$AA?$AA@ 1905706c     mv_main.obj
 0003:0000607c       ??_C@_1DG@GNGKGAMA@?$AA?5?$AAi?$AAs?$AA?5?$AAo?$AAu?$AAt?$AA?5?$AAo?$AAf?$AA?5?$AAr?$AAa?$AAn?$AAg?$AAe?$AA?5?$AAf?$AAo?$AAr?$AA?5?$AAc?$AAv?$AAa?$AAr?$AA?5?$AA?$AA@ 1905707c     mv_main.obj
 0003:000060bc       ??_C@_1CA@EPEJFOAA@?$AAm?$AAo?$AAd?$AAe?$AAl?$AA_?$AAt?$AAe?$AAa?$AAm?$AAC?$AAo?$AAl?$AAo?$AAr?$AA?$AA@ 190570bc     mv_main.obj
 0003:000060e4       ??_7?$CCvar@V?$CVec3@M@@M@@6B@ 190570e4     mv_main.obj
 0003:00006128       ??_C@_1BI@FDILEHDD@?$AAm?$AAo?$AAd?$AAe?$AAl?$AA_?$AAp?$AAa?$AAr?$AAa?$AAm?$AA?$AA@ 19057128     mv_main.obj
 0003:00006144       ??_C@_1CE@DNNANBJI@?$AAm?$AAo?$AAd?$AAe?$AAl?$AA_?$AAc?$AAi?$AAr?$AAc?$AAl?$AAe?$AAS?$AAp?$AAe?$AAe?$AAd?$AA?$AA@ 19057144     mv_main.obj
 0003:00006170       ??_C@_1BG@GCKHKKKH@?$AAm?$AAo?$AAd?$AAe?$AAl?$AA_?$AAn?$AAu?$AAm?$AAX?$AA?$AA@ 19057170     mv_main.obj
 0003:0000618c       ??_7?$CCvar@HH@@6B@        1905718c     mv_main.obj
 0003:000061d0       ??_C@_1BG@NKBLMNMC@?$AAm?$AAo?$AAd?$AAe?$AAl?$AA_?$AAn?$AAu?$AAm?$AAY?$AA?$AA@ 190571d0     mv_main.obj
 0003:000061ec       ??_C@_1BG@MIKOGCCM@?$AAm?$AAo?$AAd?$AAe?$AAl?$AA_?$AAn?$AAu?$AAm?$AAZ?$AA?$AA@ 190571ec     mv_main.obj
 0003:00006208       ??_C@_19BIGDLAC@?$AAa?$AAn?$AAi?$AAm?$AA?$AA@ 19057208     mv_main.obj
 0003:00006214       __real@3e4ccccd            19057214     mv_main.obj
 0003:00006218       ??_C@_1BC@FKANEKHJ@?$AAt?$AAe?$AAs?$AAt?$AA_?$AAd?$AAi?$AAr?$AA?$AA@ 19057218     mv_main.obj
 0003:00006230       __real@41200000            19057230     mv_main.obj
 0003:00006234       ??_C@_1BG@KAFIPDPP@?$AAt?$AAe?$AAs?$AAt?$AA_?$AAp?$AAo?$AAi?$AAn?$AAt?$AA?$AA@ 19057234     mv_main.obj
 0003:00006250       ??_C@_1BC@NHNPHGCI@?$AAm?$AAa?$AAt?$AAe?$AAr?$AAi?$AAa?$AAl?$AA?$AA@ 19057250     mv_main.obj
 0003:00006268       ??_C@_19HIIIMLFN@?$AAs?$AAk?$AAi?$AAn?$AA?$AA@ 19057268     mv_main.obj
 0003:00006274       ??_C@_1BA@HANLFFFG@?$AAd?$AAe?$AAf?$AAa?$AAu?$AAl?$AAt?$AA?$AA@ 19057274     mv_main.obj
 0003:00006288       ??_C@_1CC@GKOGAIAK@?$AAm?$AAv?$AA_?$AAp?$AAo?$AAs?$AAe?$AAC?$AAh?$AAa?$AAr?$AAa?$AAc?$AAt?$AAe?$AAr?$AA?$AA@ 19057288     mv_main.obj
 0003:000062b0       ??_C@_1BM@HFFPPBGG@?$AAm?$AAv?$AA_?$AAp?$AAo?$AAs?$AAe?$AAO?$AAb?$AAj?$AAe?$AAc?$AAt?$AA?$AA@ 190572b0     mv_main.obj
 0003:000062d4       ??_C@_1CA@BEPKLBJJ@?$AAm?$AAv?$AA_?$AAa?$AAn?$AAi?$AAm?$AAa?$AAt?$AAe?$AAS?$AAp?$AAe?$AAe?$AAd?$AA?$AA@ 190572d4     mv_main.obj
 0003:000062fc       ??_C@_1BI@OCCCFOPJ@?$AAm?$AAv?$AA_?$AAf?$AAo?$AAg?$AAo?$AAf?$AAW?$AAa?$AAr?$AA?$AA@ 190572fc     mv_main.obj
 0003:00006318       ??_C@_1BG@EBENLHLK@?$AAm?$AAv?$AA_?$AAb?$AAg?$AAC?$AAo?$AAl?$AAo?$AAr?$AA?$AA@ 19057318     mv_main.obj
 0003:00006334       ??_C@_1BE@ILFPOBKE@?$AAm?$AAv?$AA_?$AAg?$AAr?$AAo?$AAu?$AAn?$AAd?$AA?$AA@ 19057334     mv_main.obj
 0003:0000634c       ??_C@_1BK@PDDIPNFN@?$AAm?$AAv?$AA_?$AAg?$AAr?$AAo?$AAu?$AAn?$AAd?$AAM?$AAa?$AAp?$AA?$AA@ 1905734c     mv_main.obj
 0003:0000636c       ??_C@_1O@ENMDHCMN@?$AAg?$AAr?$AAo?$AAu?$AAn?$AAd?$AA?$AA@ 1905736c     mv_main.obj
 0003:0000637c       ??_C@_1BK@MJGKECEC@?$AAm?$AAv?$AA_?$AAa?$AAn?$AAi?$AAm?$AAF?$AAr?$AAa?$AAm?$AAe?$AA?$AA@ 1905737c     mv_main.obj
 0003:0000639c       ??_C@_1BI@MMIJLCAE@?$AAm?$AAv?$AA_?$AAa?$AAn?$AAi?$AAm?$AAT?$AAi?$AAm?$AAe?$AA?$AA@ 1905739c     mv_main.obj
 0003:000063b8       ??_C@_1CA@GGOEKFAB@?$AAm?$AAv?$AA_?$AAa?$AAn?$AAi?$AAm?$AAF?$AAr?$AAa?$AAc?$AAt?$AAi?$AAo?$AAn?$AA?$AA@ 190573b8     mv_main.obj
 0003:000063e0       ??_C@_1CC@DKIOGKCE@?$AAm?$AAv?$AA_?$AAa?$AAc?$AAt?$AAi?$AAv?$AAe?$AAE?$AAf?$AAf?$AAe?$AAc?$AAt?$AAs?$AA?$AA@ 190573e0     mv_main.obj
 0003:00006408       ??_C@_1BK@ILOFLLJI@?$AAm?$AAv?$AA_?$AAi?$AAn?$AAt?$AAe?$AAr?$AAf?$AAa?$AAc?$AAe?$AA?$AA@ 19057408     mv_main.obj
 0003:00006428       ??_7?$CInputState@_N@@6B@  19057428     mv_main.obj
 0003:00006438       ??_C@_1BG@HAKCNJFF@?$AAH?$AAi?$AAd?$AAe?$AAE?$AAf?$AAf?$AAe?$AAc?$AAt?$AA?$AA@ 19057438     mv_main.obj
 0003:00006454       ??_C@_1BG@HMFEMGIO@?$AAA?$AAd?$AAd?$AAB?$AAl?$AAo?$AAc?$AAk?$AAe?$AAr?$AA?$AA@ 19057454     mv_main.obj
 0003:00006470       ??_C@_1BK@PBHGNEOI@?$AAC?$AAl?$AAe?$AAa?$AAr?$AAB?$AAl?$AAo?$AAc?$AAk?$AAe?$AAr?$AA?$AA@ 19057470     mv_main.obj
 0003:00006490       ??_C@_1BC@GCEHIEIK@?$AAA?$AAn?$AAi?$AAm?$AAL?$AAi?$AAs?$AAt?$AA?$AA@ 19057490     mv_main.obj
 0003:000064a8       ??_C@_19HGPIFADB@?$AAC?$AAt?$AAr?$AAl?$AA?$AA@ 190574a8     mv_main.obj
 0003:000064b4       ??_C@_1M@PIKLJFPE@?$AAS?$AAh?$AAi?$AAf?$AAt?$AA?$AA@ 190574b4     mv_main.obj
 0003:000064c4       ??_C@_17OEIBBKAP@?$AAA?$AAl?$AAt?$AA?$AA@ 190574c4     mv_main.obj
 0003:000064d0       ??_C@_1M@CGCLOKOE@?$AAN?$AAo?$AAS?$AAu?$AAn?$AA?$AA@ 190574d0     mv_main.obj
 0003:000064e0       ??_C@_1BC@GIDGDIOE@?$AAP?$AAl?$AAa?$AAy?$AAA?$AAn?$AAi?$AAm?$AA?$AA@ 190574e0     mv_main.obj
 0003:000064f8       ??_C@_1BK@PDNMGHDI@?$AAS?$AAe?$AAt?$AAA?$AAn?$AAi?$AAm?$AAS?$AAp?$AAe?$AAe?$AAd?$AA?$AA@ 190574f8     mv_main.obj
 0003:00006518       ??_C@_1BI@MKEDMJOP@?$AAS?$AAe?$AAt?$AAA?$AAn?$AAi?$AAm?$AAT?$AAi?$AAm?$AAe?$AA?$AA@ 19057518     mv_main.obj
 0003:00006534       ??_C@_1BI@ELCCHKJH@?$AAS?$AAt?$AAa?$AAr?$AAt?$AAE?$AAf?$AAf?$AAe?$AAc?$AAt?$AA?$AA@ 19057534     mv_main.obj
 0003:00006550       ??_C@_1BI@BHCHGLBM@?$AAS?$AAt?$AAo?$AAp?$AAE?$AAf?$AAf?$AAe?$AAc?$AAt?$AAs?$AA?$AA@ 19057550     mv_main.obj
 0003:0000656c       ??_C@_1BG@GOFACFDK@?$AAS?$AAt?$AAo?$AAp?$AAE?$AAf?$AAf?$AAe?$AAc?$AAt?$AA?$AA@ 1905756c     mv_main.obj
 0003:00006588       ??_C@_1BE@EDFMIID@?$AAP?$AAl?$AAa?$AAy?$AAS?$AAo?$AAu?$AAn?$AAd?$AA?$AA@ 19057588     mv_main.obj
 0003:000065a0       ??_C@_1CC@CAJEONHC@?$AAP?$AAl?$AAa?$AAy?$AAS?$AAo?$AAu?$AAn?$AAd?$AAL?$AAo?$AAo?$AAp?$AAi?$AAn?$AAg?$AA?$AA@ 190575a0     mv_main.obj
 0003:000065c8       ??_C@_1CA@FEAJHGOE@?$AAP?$AAl?$AAa?$AAy?$AAS?$AAo?$AAu?$AAn?$AAd?$AAL?$AAi?$AAn?$AAe?$AAa?$AAr?$AA?$AA@ 190575c8     mv_main.obj
 0003:000065f0       ??_C@_1CO@OFGNEFEK@?$AAP?$AAl?$AAa?$AAy?$AAS?$AAo?$AAu?$AAn?$AAd?$AAL?$AAo?$AAo?$AAp?$AAi?$AAn?$AAg?$AAL?$AAi?$AAn?$AAe?$AAa?$AAr?$AA?$AA@ 190575f0     mv_main.obj
 0003:00006628       ??_C@_1BE@BMLKHOLG@?$AAS?$AAt?$AAo?$AAp?$AAS?$AAo?$AAu?$AAn?$AAd?$AA?$AA@ 19057628     mv_main.obj
 0003:00006640       ??_C@_1BE@OODLHECE@?$AAB?$AAl?$AAu?$AAe?$AAN?$AAo?$AAi?$AAs?$AAe?$AA?$AA@ 19057640     mv_main.obj
 0003:00006658       ??_C@_1CE@HMPAIJCP@?$AAM?$AAo?$AAd?$AAe?$AAl?$AAM?$AAa?$AAt?$AAe?$AAr?$AAi?$AAa?$AAl?$AAL?$AAi?$AAs?$AAt?$AA?$AA@ 19057658     mv_main.obj
 0003:00006684       ??_C@_1BO@EFNBJDPK@?$AAG?$AAe?$AAt?$AAT?$AAe?$AAr?$AAr?$AAa?$AAi?$AAn?$AAT?$AAy?$AAp?$AAe?$AA?$AA@ 19057684     mv_main.obj
 0003:000066a8       ??_C@_1CE@KGABJHEB@?$AAR?$AAe?$AAf?$AAo?$AAr?$AAm?$AAa?$AAt?$AAM?$AAa?$AAt?$AAe?$AAr?$AAi?$AAa?$AAl?$AAs?$AA?$AA@ 190576a8     mv_main.obj
 0003:000066d4       ??_C@_1CC@HJMGJDMF@?$AAR?$AAe?$AAf?$AAo?$AAr?$AAm?$AAa?$AAt?$AAM?$AAa?$AAt?$AAe?$AAr?$AAi?$AAa?$AAl?$AA?$AA@ 190576d4     mv_main.obj
 0003:000066fc       ??_C@_1CA@FKGAIFI@?$AAT?$AAe?$AAs?$AAt?$AAF?$AAo?$AAr?$AAm?$AAa?$AAt?$AAF?$AAl?$AAo?$AAa?$AAt?$AA?$AA@ 190576fc     mv_main.obj
 0003:00006724       ??_C@_1BI@IHKBMIAI@?$AAR?$AAe?$AAn?$AAa?$AAm?$AAe?$AAF?$AAi?$AAl?$AAe?$AAs?$AA?$AA@ 19057724     mv_main.obj
 0003:00006740       ??_7CBufferBit@@6B@        19057740     mv_main.obj
 0003:000067b0       ??_C@_1EI@GHECHHJE@?$AAI?$AAB?$AAu?$AAf?$AAf?$AAe?$AAr?$AA?3?$AA?3?$AAo?$AAp?$AAe?$AAr?$AAa?$AAt?$AAo?$AAr?$AA?$FL?$AA?$FN?$AA?5?$AA?9?$AA?5?$AAi?$AAn?$AAv?$AAa?$AAl?$AAi?$AAd?$AA?5?$AAi?$AAn@ 190577b0     mv_main.obj
 0003:00006808       ??_7CBufferDynamic@@6B@    19057808     mv_main.obj
 0003:00006878       ??_C@_1BE@BDDGLOKO@?$AAW?$AAr?$AAi?$AAt?$AAe?$AAB?$AAi?$AAt?$AAs?$AA?$AA@ 19057878     mv_main.obj
 0003:00006890       ??_C@_1BC@MMFCDCFI@?$AAR?$AAe?$AAa?$AAd?$AAB?$AAi?$AAt?$AAs?$AA?$AA@ 19057890     mv_main.obj
 0003:000068a8       ??_C@_1BE@LHCADFPJ@?$AAC?$AAl?$AAe?$AAa?$AAr?$AAB?$AAi?$AAt?$AAs?$AA?$AA@ 190578a8     mv_main.obj
 0003:000068c0       ??_C@_1BC@EJOKJLOA@?$AAT?$AAe?$AAs?$AAt?$AAB?$AAi?$AAt?$AAs?$AA?$AA@ 190578c0     mv_main.obj
 0003:000068d8       ??_C@_1BK@OPCFIPJG@?$AAT?$AAe?$AAs?$AAt?$AAD?$AAe?$AAl?$AAt?$AAa?$AAP?$AAo?$AAs?$AA?$AA@ 190578d8     mv_main.obj
 0003:000068f8       ??_C@_1BE@BODOAGIF@?$AAC?$AAa?$AAl?$AAc?$AAC?$AAo?$AAd?$AAe?$AAs?$AA?$AA@ 190578f8     mv_main.obj
 0003:00006910       ??_C@_1CE@KEIGENGA@?$AAT?$AAe?$AAs?$AAt?$AAT?$AAr?$AAa?$AAn?$AAs?$AAm?$AAi?$AAt?$AAF?$AAl?$AAa?$AAg?$AAs?$AA?$AA@ 19057910     mv_main.obj
 0003:0000693c       ??_C@_1BO@MKBLDKFD@?$AAR?$AAe?$AAg?$AAi?$AAs?$AAt?$AAe?$AAr?$AAC?$AAu?$AAr?$AAs?$AAo?$AAr?$AA?$AA@ 1905793c     mv_main.obj
 0003:00006960       ??_C@_1BM@EHMCNLDO@?$AAL?$AAo?$AAa?$AAd?$AAA?$AAl?$AAl?$AAM?$AAo?$AAd?$AAe?$AAl?$AAs?$AA?$AA@ 19057960     mv_main.obj
 0003:00006984       ??_C@_1CG@IDHGDGGH@?$AAC?$AAo?$AAn?$AAv?$AAe?$AAr?$AAt?$AAT?$AAe?$AAx?$AAt?$AAu?$AAr?$AAe?$AAs?$AAT?$AAG?$AAA?$AA?$AA@ 19057984     mv_main.obj
 0003:000069b4       ??_C@_1BI@IJDOBGMJ@?$AAF?$AAi?$AAx?$AAT?$AAe?$AAx?$AAt?$AAu?$AAr?$AAe?$AAs?$AA?$AA@ 190579b4     mv_main.obj
 0003:000069d4       ??_7type_info@@6B@         190579d4     MSVCRTD:ti_inst.obj
 0003:000069dc       __pRawDllMain              190579dc     MSVCRTD:crtdll.obj
 0003:000069dc       __pDefaultRawDllMain       190579dc     MSVCRTD:crtdll.obj
 0003:000069e0       ??_C@_08EIBOPINA@crtdll?4c?$AA@ 190579e0     MSVCRTD:crtdll.obj
 0003:000069f8       ?ProcessDetach@NativeDll@<CrtImplementationDetails>@@0IB 190579f8     MSVCRTD:tncleanup.obj
 0003:000069fc       ?ProcessAttach@NativeDll@<CrtImplementationDetails>@@0IB 190579fc     MSVCRTD:tncleanup.obj
 0003:00006a00       ?ThreadAttach@NativeDll@<CrtImplementationDetails>@@0IB 19057a00     MSVCRTD:tncleanup.obj
 0003:00006a04       ?ThreadDetach@NativeDll@<CrtImplementationDetails>@@0IB 19057a04     MSVCRTD:tncleanup.obj
 0003:00006a08       ?ProcessVerifier@NativeDll@<CrtImplementationDetails>@@0IB 19057a08     MSVCRTD:tncleanup.obj
 0003:00006dc8       ??_R4type_info@@6B@        19057dc8     MSVCRTD:ti_inst.obj
 0003:00006de0       ??_R3type_info@@8          19057de0     MSVCRTD:ti_inst.obj
 0003:00006df4       ??_R2type_info@@8          19057df4     MSVCRTD:ti_inst.obj
 0003:00006dfc       ??_R1A@?0A@EA@type_info@@8 19057dfc     MSVCRTD:ti_inst.obj
 0003:00006f20       ___rtc_iaa                 19057f20     MSVCRTD:initsect.obj
 0003:00007024       ___rtc_izz                 19058024     MSVCRTD:initsect.obj
 0003:00007128       ___rtc_taa                 19058128     MSVCRTD:initsect.obj
 0003:0000722c       ___rtc_tzz                 1905822c     MSVCRTD:initsect.obj
 0003:00007910       __TI1?AVCException@@       19058910     mv_main.obj
 0003:00007bbc       __CTA1?AVCException@@      19058bbc     mv_main.obj
 0003:00007bc4       __CT??_R0?AVCException@@@8??0CException@@QAE@ABV0@@Z36 19058bc4     mv_main.obj
 0003:000085b8       __TI3?AVlength_error@std@@ 190595b8     mv_main.obj
 0003:000085fc       __CTA3?AVlength_error@std@@ 190595fc     mv_main.obj
 0003:00008610       __CT??_R0?AVlength_error@std@@@8??0length_error@std@@QAE@ABV01@@Z44 19059610     mv_main.obj
 0003:00008630       __CT??_R0?AVlogic_error@std@@@8??0logic_error@std@@QAE@ABV01@@Z44 19059630     mv_main.obj
 0003:00008650       __CT??_R0?AVexception@std@@@8??0exception@std@@QAE@ABV01@@Z12 19059650     mv_main.obj
 0004:00000010       ?__LINE__Var@?1??GetInstance@CMemManager@@SAPAV2@XZ@4JA@5d2aab20 1905e010     mv_common.obj
 0004:00000014       ?g_hEffect@@3IA            1905e014     mv_main.obj
 0004:00000018       ?g_bShowInterface@@3_NA    1905e018     mv_main.obj
 0004:0000002c       ??_R0?AVCException@@@8     1905e02c     mv_main.obj
 0004:0000004c       ??_R0?AVlength_error@std@@@8 1905e04c     mv_main.obj
 0004:00000074       ??_R0?AVlogic_error@std@@@8 1905e074     mv_main.obj
 0004:00000098       ??_R0?AVexception@std@@@8  1905e098     mv_main.obj
 0004:000000c0       ___security_cookie         1905e0c0     MSVCRTD:gs_cookie.obj
 0004:000000c4       ___security_cookie_complement 1905e0c4     MSVCRTD:gs_cookie.obj
 0004:000000d0       ??_R0?AVtype_info@@@8      1905e0d0     MSVCRTD:ti_inst.obj
 0004:000000ec       ___native_dllmain_reason   1905e0ec     MSVCRTD:natstart.obj
 0004:000000f0       ___native_vcclrit_reason   1905e0f0     MSVCRTD:natstart.obj
 0004:00001428       ?g_av2Point@@3PAV?$CVec2@M@@A 1905f428     mv_main.obj
 0004:0000142c       ?g_iNumPoints@@3HA         1905f42c     mv_main.obj
 0004:00001430       ?res@@3Umvres_s@@A         1905f430     mv_main.obj
 0004:00001434       ?g_pHostClient@@3PAVCHostClient@@A 1905f434     mv_main.obj
 0004:00001438       ?g_pWorld@@3PAVCWorld@@A   1905f438     mv_main.obj
 0004:0000149c       ?g_vCamOrigin@@3V?$CVec3@M@@A 1905f49c     mv_main.obj
 0004:00001728       ?mv_camYaw@@3V?$CCvar@MM@@A 1905f728     mv_main.obj
 0004:00001848       ?mv_camPitch@@3V?$CCvar@MM@@A 1905f848     mv_main.obj
 0004:00001968       ?mv_camRoll@@3V?$CCvar@MM@@A 1905f968     mv_main.obj
 0004:00001a88       ?mv_camFov@@3V?$CCvar@MM@@A 1905fa88     mv_main.obj
 0004:00001ba8       ?mv_camDistance@@3V?$CCvar@MM@@A 1905fba8     mv_main.obj
 0004:00001cc8       ?cam_freeLook@@3V?$CCvar@_N_N@@A 1905fcc8     mv_main.obj
 0004:00001ddc       ?g_vCamLookAt@@3V?$CVec3@M@@A 1905fddc     mv_main.obj
 0004:00001de8       ?mv_camSpeed@@3V?$CCvar@MM@@A 1905fde8     mv_main.obj
 0004:00001f08       ?mv_selectionRing@@3V?$CCvar@_N_N@@A 1905ff08     mv_main.obj
 0004:0000201c       ?cmdNoSun@@3VCCmd@@A       1906001c     mv_main.obj
 0004:00002050       ?mv_selectionRingSize@@3V?$CCvar@MM@@A 19060050     mv_main.obj
 0004:00002170       ?model@@3V?$CCvar@V?$basic_string@_WU?$char_traits@_W@std@@V?$K2StringAllocator@_W@@@std@@V12@@@A 19060170     mv_main.obj
 0004:000022dc       ?cmdCenter@@3VCCmd@@A      190602dc     mv_main.obj
 0004:00002310       ?model_x@@3V?$CCvar@MM@@A  19060310     mv_main.obj
 0004:00002430       ?model_y@@3V?$CCvar@MM@@A  19060430     mv_main.obj
 0004:00002550       ?model_z@@3V?$CCvar@MM@@A  19060550     mv_main.obj
 0004:00002670       ?model_yaw@@3V?$CCvar@MM@@A 19060670     mv_main.obj
 0004:00002790       ?model_yawSpeed@@3V?$CCvar@MM@@A 19060790     mv_main.obj
 0004:000028b0       ?model_pitch@@3V?$CCvar@MM@@A 190608b0     mv_main.obj
 0004:000029d0       ?model_roll@@3V?$CCvar@MM@@A 190609d0     mv_main.obj
 0004:00002af0       ?model_scale@@3V?$CCvar@MM@@A 19060af0     mv_main.obj
 0004:00002c10       ?model_effectScale@@3V?$CCvar@MM@@A 19060c10     mv_main.obj
 0004:00002d30       ?model_color@@3V?$CCvar@V?$CVec4@M@@M@@A 19060d30     mv_main.obj
 0004:00002e8c       ?uiCenter@@3VCUICmd@@A     19060e8c     mv_main.obj
 0004:00002eb8       ?model_teamColor@@3V?$CCvar@V?$CVec3@M@@M@@A 19060eb8     mv_main.obj
 0004:00003000       ?model_param@@3V?$CCvar@V?$CVec4@M@@M@@A 19061000     mv_main.obj
 0004:0000315c       ?cmdCenterHon@@3VCCmd@@A   1906115c     mv_main.obj
 0004:00003190       ?model_circleSpeed@@3V?$CCvar@MM@@A 19061190     mv_main.obj
 0004:000032b0       ?model_numX@@3V?$CCvar@HH@@A 190612b0     mv_main.obj
 0004:000033d0       ?model_numY@@3V?$CCvar@HH@@A 190613d0     mv_main.obj
 0004:000034f0       ?model_numZ@@3V?$CCvar@HH@@A 190614f0     mv_main.obj
 0004:00003610       ?anim@@3V?$CCvar@V?$basic_string@_WU?$char_traits@_W@std@@V?$K2StringAllocator@_W@@@std@@V12@@@A 19061610     mv_main.obj
 0004:0000377c       ?uiCenterHon@@3VCUICmd@@A  1906177c     mv_main.obj
 0004:000037a8       ?test_dir@@3V?$CCvar@V?$CVec3@M@@M@@A 190617a8     mv_main.obj
 0004:000038f0       ?test_point@@3V?$CCvar@V?$CVec3@M@@M@@A 190618f0     mv_main.obj
 0004:00003a38       ?material@@3V?$CCvar@V?$basic_string@_WU?$char_traits@_W@std@@V?$K2StringAllocator@_W@@@std@@V12@@@A 19061a38     mv_main.obj
 0004:00003ba4       ?cmdPlayAnim@@3VCCmd@@A    19061ba4     mv_main.obj
 0004:00003bd8       ?skin@@3V?$CCvar@V?$basic_string@_WU?$char_traits@_W@std@@V?$K2StringAllocator@_W@@@std@@V12@@@A 19061bd8     mv_main.obj
 0004:00003d44       ?uiPlayAnim@@3VCUICmd@@A   19061d44     mv_main.obj
 0004:00003d70       ?mv_poseCharacter@@3V?$CCvar@_N_N@@A 19061d70     mv_main.obj
 0004:00003e84       ?cmdSetAnimSpeed@@3VCCmd@@A 19061e84     mv_main.obj
 0004:00003eb8       ?mv_poseObject@@3V?$CCvar@_N_N@@A 19061eb8     mv_main.obj
 0004:00003fcc       ?uiSetAnimSpeed@@3VCUICmd@@A 19061fcc     mv_main.obj
 0004:00003ff8       ?mv_animateSpeed@@3V?$CCvar@MM@@A 19061ff8     mv_main.obj
 0004:00004118       ?mv_fogofWar@@3V?$CCvar@_N_N@@A 19062118     mv_main.obj
 0004:0000422c       ?cmdSetAnimTime@@3VCCmd@@A 1906222c     mv_main.obj
 0004:00004260       ?mv_bgColor@@3V?$CCvar@V?$CVec3@M@@M@@A 19062260     mv_main.obj
 0004:000043a8       ?mv_ground@@3V?$CCvar@_N_N@@A 190623a8     mv_main.obj
 0004:000044bc       ?uiSetAnimTime@@3VCUICmd@@A 190624bc     mv_main.obj
 0004:000044e8       ?mv_groundMap@@3V?$CCvar@V?$basic_string@_WU?$char_traits@_W@std@@V?$K2StringAllocator@_W@@@std@@V12@@@A 190624e8     mv_main.obj
 0004:00004654       ?cmdStartEffect@@3VCCmd@@A 19062654     mv_main.obj
 0004:00004688       ?mv_animFrame@@3V?$CCvar@HH@@A 19062688     mv_main.obj
 0004:000047a8       ?mv_animTime@@3V?$CCvar@HH@@A 190627a8     mv_main.obj
 0004:000048c8       ?mv_animFraction@@3V?$CCvar@MM@@A 190628c8     mv_main.obj
 0004:000049e8       ?mv_activeEffects@@3V?$CCvar@HH@@A 190629e8     mv_main.obj
 0004:00004b08       ?mv_interface@@3V?$CCvar@V?$basic_string@_WU?$char_traits@_W@std@@V?$K2StringAllocator@_W@@@std@@V12@@@A 19062b08     mv_main.obj
 0004:00004c74       ?cmdStopEffects@@3VCCmd@@A 19062c74     mv_main.obj
 0004:00004ca8       ?mv@@3USMv@@A              19062ca8     mv_main.obj
 0004:00005260       ?g_Skeleton@@3VCSkeleton@@A 19063260     mv_main.obj
 0004:000053a8       ?g_bbModelBounds@@3V?$CBoundingBox@M@@A 190633a8     mv_main.obj
 0004:000053c0       ?MoveForward@@3V?$CInputState@_N@@A 190633c0     mv_main.obj
 0004:000053f0       ?MoveBackward@@3V?$CInputState@_N@@A 190633f0     mv_main.obj
 0004:00005420       ?MoveLeft@@3V?$CInputState@_N@@A 19063420     mv_main.obj
 0004:00005450       ?MoveRight@@3V?$CInputState@_N@@A 19063450     mv_main.obj
 0004:00005480       ?MoveUp@@3V?$CInputState@_N@@A 19063480     mv_main.obj
 0004:000054b0       ?MoveDown@@3V?$CInputState@_N@@A 190634b0     mv_main.obj
 0004:000054e0       ?TurnLeft@@3V?$CInputState@_N@@A 190634e0     mv_main.obj
 0004:00005510       ?TurnRight@@3V?$CInputState@_N@@A 19063510     mv_main.obj
 0004:00005540       ?PrimaryButton@@3V?$CInputState@_N@@A 19063540     mv_main.obj
 0004:00005570       ?SecondaryButton@@3V?$CInputState@_N@@A 19063570     mv_main.obj
 0004:000055a0       ?ModifierButton@@3V?$CInputState@_N@@A 190635a0     mv_main.obj
 0004:000055d0       ?ModifierShift@@3V?$CInputState@_N@@A 190635d0     mv_main.obj
 0004:00005600       ?ModifierCtrl@@3V?$CInputState@_N@@A 19063600     mv_main.obj
 0004:00005630       ?ModifierAlt@@3V?$CInputState@_N@@A 19063630     mv_main.obj
 0004:00005660       ?DisableEffect@@3V?$CInputState@_N@@A 19063660     mv_main.obj
 0004:00005690       ?HideEffect@@3V?$CInputState@_N@@A 19063690     mv_main.obj
 0004:000056c0       ?AddBlocker@@3V?$CInputState@_N@@A 190636c0     mv_main.obj
 0004:000056f0       ?ClearBlocker@@3V?$CInputState@_N@@A 190636f0     mv_main.obj
 0004:00005720       ?AnimList@@3VCUITrigger@@A 19063720     mv_main.obj
 0004:0000578c       ?cmdExpireEffects@@3VCCmd@@A 1906378c     mv_main.obj
 0004:000057c0       ?Ctrl@@3VCUITrigger@@A     190637c0     mv_main.obj
 0004:0000582c       ?cmdBlueNoise@@3VCCmd@@A   1906382c     mv_main.obj
 0004:00005860       ?Shift@@3VCUITrigger@@A    19063860     mv_main.obj
 0004:000058cc       ?cmdModelMaterialList@@3VCCmd@@A 190638cc     mv_main.obj
 0004:00005900       ?Alt@@3VCUITrigger@@A      19063900     mv_main.obj
 0004:0000596c       ?eventStopEffect@@3VCEventCmd@@A 1906396c     mv_main.obj
 0004:00005994       ?eventStartEffect@@3VCEventCmd@@A 19063994     mv_main.obj
 0004:000059bc       ?eventPlaySound@@3VCEventCmd@@A 190639bc     mv_main.obj
 0004:000059e4       ?eventPlaySoundLooping@@3VCEventCmd@@A 190639e4     mv_main.obj
 0004:00005a0c       ?eventPlaySoundLinear@@3VCEventCmd@@A 19063a0c     mv_main.obj
 0004:00005a34       ?eventPlaySoundLoopingLinear@@3VCEventCmd@@A 19063a34     mv_main.obj
 0004:00005a5c       ?eventStopSound@@3VCEventCmd@@A 19063a5c     mv_main.obj
 0004:00005a84       ?actCameraPitch@@3VCAction@@A 19063a84     mv_main.obj
 0004:00005ab4       ?actCameraYaw@@3VCAction@@A 19063ab4     mv_main.obj
 0004:00005ae4       ?actZoomIn@@3VCAction@@A   19063ae4     mv_main.obj
 0004:00005b14       ?actZoomOut@@3VCAction@@A  19063b14     mv_main.obj
 0004:00005b44       ?actToggleViewerUI@@3VCAction@@A 19063b44     mv_main.obj
 0004:00005b74       ?fnGetTerrainType@@3VCFunction@@A 19063b74     mv_main.obj
 0004:00005bac       ?cmdReformatMaterials@@3VCCmd@@A 19063bac     mv_main.obj
 0004:00005be0       ?cmdReformatMaterial@@3VCCmd@@A 19063be0     mv_main.obj
 0004:00005c14       ?cmdTestFormatFloat@@3VCCmd@@A 19063c14     mv_main.obj
 0004:00005c48       ?cmdRenameFiles@@3VCCmd@@A 19063c48     mv_main.obj
 0004:00005c7c       ?g_cBitTest@@3VCBufferBit@@A 19063c7c     mv_main.obj
 0004:00005ca0       ?cmdWriteBits@@3VCCmd@@A   19063ca0     mv_main.obj
 0004:00005cd4       ?cmdReadBits@@3VCCmd@@A    19063cd4     mv_main.obj
 0004:00005d08       ?cmdClearBits@@3VCCmd@@A   19063d08     mv_main.obj
 0004:00005d3c       ?cmdTestBits@@3VCCmd@@A    19063d3c     mv_main.obj
 0004:00005d70       ?cmdTestDeltaPos@@3VCCmd@@A 19063d70     mv_main.obj
 0004:00005da4       ?cmdCalcCodes@@3VCCmd@@A   19063da4     mv_main.obj
 0004:00005dd8       ?cmdTestTransmitFlags@@3VCCmd@@A 19063dd8     mv_main.obj
 0004:00005e0c       ?cmdRegisterCursor@@3VCCmd@@A 19063e0c     mv_main.obj
 0004:00005e40       ?cmdLoadAllModels@@3VCCmd@@A 19063e40     mv_main.obj
 0004:00005e74       ?cmdConvertTexturesTGA@@3VCCmd@@A 19063e74     mv_main.obj
 0004:00005ea8       ?cmdFixTextures@@3VCCmd@@A 19063ea8     mv_main.obj
 0004:0000738c       __forceCRTManifest         1906538c     MSVCRTD:crtmanifest.obj
 0004:00007390       ?__type_info_root_node@@3U__type_info_node@@A 19065390     MSVCRTD:tncleanup.obj
 0004:0000739c       __adjust_fdiv              1906539c     <common>
 0004:000073a8       ___native_startup_state    190653a8     <common>
 0004:000073b8       ___native_startup_lock     190653b8     <common>
 0004:000073bc       ___dyn_tls_init_callback   190653bc     <common>
 0004:000073c8       ___onexitend               190653c8     <common>
 0004:000073d8       ___onexitbegin             190653d8     <common>
 0005:00000000       __IMPORT_DESCRIPTOR_k2_debug 19066000     k2_debug:k2_debug.dll
 0005:00000014       __IMPORT_DESCRIPTOR_MSVCP80D 19066014     msvcprtd:MSVCP80D.dll
 0005:00000028       __IMPORT_DESCRIPTOR_MSVCR80D 19066028     MSVCRTD:MSVCR80D.dll
 0005:0000003c       __IMPORT_DESCRIPTOR_KERNEL32 1906603c     kernel32:KERNEL32.dll
 0005:00000050       __NULL_IMPORT_DESCRIPTOR   19066050     k2_debug:k2_debug.dll
 0005:000006c0       __imp__GetSystemTimeAsFileTime@4 190666c0     kernel32:KERNEL32.dll
 0005:000006c4       __imp__GetCurrentProcessId@0 190666c4     kernel32:KERNEL32.dll
 0005:000006c8       __imp__GetCurrentThreadId@0 190666c8     kernel32:KERNEL32.dll
 0005:000006cc       __imp__GetTickCount@0      190666cc     kernel32:KERNEL32.dll
 0005:000006d0       __imp__QueryPerformanceCounter@4 190666d0     kernel32:KERNEL32.dll
 0005:000006d4       __imp__IsDebuggerPresent@0 190666d4     kernel32:KERNEL32.dll
 0005:000006d8       __imp__SetUnhandledExceptionFilter@4 190666d8     kernel32:KERNEL32.dll
 0005:000006dc       __imp__UnhandledExceptionFilter@4 190666dc     kernel32:KERNEL32.dll
 0005:000006e0       __imp__GetCurrentProcess@0 190666e0     kernel32:KERNEL32.dll
 0005:000006e4       __imp__TerminateProcess@8  190666e4     kernel32:KERNEL32.dll
 0005:000006e8       __imp__InterlockedCompareExchange@12 190666e8     kernel32:KERNEL32.dll
 0005:000006ec       __imp__Sleep@4             190666ec     kernel32:KERNEL32.dll
 0005:000006f0       __imp__InterlockedExchange@8 190666f0     kernel32:KERNEL32.dll
 0005:000006f4       __imp__DisableThreadLibraryCalls@4 190666f4     kernel32:KERNEL32.dll
 0005:000006f8       \177KERNEL32_NULL_THUNK_DATA 190666f8     kernel32:KERNEL32.dll
 0005:0000072c       __imp_??1_String_base@std@@QAE@XZ 1906672c     msvcprtd:MSVCP80D.dll
 0005:00000730       __imp_??0_String_base@std@@QAE@XZ 19066730     msvcprtd:MSVCP80D.dll
 0005:00000734       __imp_??0?$allocator@_W@std@@QAE@XZ 19066734     msvcprtd:MSVCP80D.dll
 0005:00000738       __imp_?_Xran@_String_base@std@@SAXXZ 19066738     msvcprtd:MSVCP80D.dll
 0005:0000073c       __imp_?assign@?$char_traits@_W@std@@SAXAA_WAB_W@Z 1906673c     msvcprtd:MSVCP80D.dll
 0005:00000740       __imp_?_Xlen@_String_base@std@@SAXXZ 19066740     msvcprtd:MSVCP80D.dll
 0005:00000744       __imp_??0?$allocator@_W@std@@QAE@ABV01@@Z 19066744     msvcprtd:MSVCP80D.dll
 0005:00000748       __imp_?max_size@?$allocator@_W@std@@QBEIXZ 19066748     msvcprtd:MSVCP80D.dll
 0005:0000074c       __imp_?_Copy_s@?$char_traits@_W@std@@SAPA_WPA_WIPB_WI@Z 1906674c     msvcprtd:MSVCP80D.dll
 0005:00000750       __imp_?_Move_s@?$char_traits@_W@std@@SAPA_WPA_WIPB_WI@Z 19066750     msvcprtd:MSVCP80D.dll
 0005:00000754       __imp_?_Debug_message@std@@YAXPB_W0I@Z 19066754     msvcprtd:MSVCP80D.dll
 0005:00000758       __imp_?length@?$char_traits@D@std@@SAIPBD@Z 19066758     msvcprtd:MSVCP80D.dll
 0005:0000075c       __imp_??0?$allocator@D@std@@QAE@XZ 1906675c     msvcprtd:MSVCP80D.dll
 0005:00000760       __imp_?assign@?$char_traits@D@std@@SAXAADABD@Z 19066760     msvcprtd:MSVCP80D.dll
 0005:00000764       __imp_??0?$allocator@D@std@@QAE@ABV01@@Z 19066764     msvcprtd:MSVCP80D.dll
 0005:00000768       __imp_?max_size@?$allocator@D@std@@QBEIXZ 19066768     msvcprtd:MSVCP80D.dll
 0005:0000076c       __imp_?_Copy_s@?$char_traits@D@std@@SAPADPADIPBDI@Z 1906676c     msvcprtd:MSVCP80D.dll
 0005:00000770       __imp_?_Move_s@?$char_traits@D@std@@SAPADPADIPBDI@Z 19066770     msvcprtd:MSVCP80D.dll
 0005:00000774       __imp_??1_Lockit@std@@QAE@XZ 19066774     msvcprtd:MSVCP80D.dll
 0005:00000778       __imp_??0_Lockit@std@@QAE@H@Z 19066778     msvcprtd:MSVCP80D.dll
 0005:0000077c       __imp_??1_Container_base@std@@QAE@XZ 1906677c     msvcprtd:MSVCP80D.dll
 0005:00000780       __imp_?_Orphan_all@_Container_base@std@@QBEXXZ 19066780     msvcprtd:MSVCP80D.dll
 0005:00000784       __imp_??1?$basic_string@DU?$char_traits@D@std@@V?$allocator@D@2@@std@@QAE@XZ 19066784     msvcprtd:MSVCP80D.dll
 0005:00000788       __imp_??0?$basic_string@DU?$char_traits@D@std@@V?$allocator@D@2@@std@@QAE@PBD@Z 19066788     msvcprtd:MSVCP80D.dll
 0005:0000078c       __imp_??0?$basic_string@DU?$char_traits@D@std@@V?$allocator@D@2@@std@@QAE@ABV01@@Z 1906678c     msvcprtd:MSVCP80D.dll
 0005:00000790       __imp_?c_str@?$basic_string@DU?$char_traits@D@std@@V?$allocator@D@2@@std@@QBEPBDXZ 19066790     msvcprtd:MSVCP80D.dll
 0005:00000794       __imp_??0_Container_base@std@@QAE@XZ 19066794     msvcprtd:MSVCP80D.dll
 0005:00000798       __imp_?find@?$char_traits@_W@std@@SAPB_WPB_WIAB_W@Z 19066798     msvcprtd:MSVCP80D.dll
 0005:0000079c       __imp_?compare@?$char_traits@_W@std@@SAHPB_W0I@Z 1906679c     msvcprtd:MSVCP80D.dll
 0005:000007a0       __imp_?_Swap_all@_Container_base@std@@QBEXAAV12@@Z 190667a0     msvcprtd:MSVCP80D.dll
 0005:000007a4       __imp_?length@?$char_traits@_W@std@@SAIPB_W@Z 190667a4     msvcprtd:MSVCP80D.dll
 0005:000007a8       \177MSVCP80D_NULL_THUNK_DATA 190667a8     msvcprtd:MSVCP80D.dll
 0005:000007ec       __imp_??2@YAPAXI@Z         190667ec     MSVCRTD:MSVCR80D.dll
 0005:000007f0       __imp_??3@YAXPAX@Z         190667f0     MSVCRTD:MSVCR80D.dll
 0005:000007f4       __imp__sin                 190667f4     MSVCRTD:MSVCR80D.dll
 0005:000007f8       __imp__cos                 190667f8     MSVCRTD:MSVCR80D.dll
 0005:000007fc       __imp___wtof               190667fc     MSVCRTD:MSVCR80D.dll
 0005:00000800       __imp__memset              19066800     MSVCRTD:MSVCR80D.dll
 0005:00000804       __imp___invalid_parameter  19066804     MSVCRTD:MSVCR80D.dll
 0005:00000808       __imp___wtoi               19066808     MSVCRTD:MSVCR80D.dll
 0005:0000080c       __imp___CxxThrowException@8 1906680c     MSVCRTD:MSVCR80D.dll
 0005:00000810       __imp___wassert            19066810     MSVCRTD:MSVCR80D.dll
 0005:00000814       __imp__malloc              19066814     MSVCRTD:MSVCR80D.dll
 0005:00000818       __imp____CxxFrameHandler3  19066818     MSVCRTD:MSVCR80D.dll
 0005:0000081c       __imp_??_V@YAXPAX@Z        1906681c     MSVCRTD:MSVCR80D.dll
 0005:00000820       __imp__wcstoul             19066820     MSVCRTD:MSVCR80D.dll
 0005:00000824       __imp__memcmp              19066824     MSVCRTD:MSVCR80D.dll
 0005:00000828       __imp_??0exception@std@@QAE@ABV01@@Z 19066828     MSVCRTD:MSVCR80D.dll
 0005:0000082c       __imp_??1exception@std@@UAE@XZ 1906682c     MSVCRTD:MSVCR80D.dll
 0005:00000830       __imp_??0exception@std@@QAE@XZ 19066830     MSVCRTD:MSVCR80D.dll
 0005:00000834       __imp__sqrt                19066834     MSVCRTD:MSVCR80D.dll
 0005:00000838       __imp__tolower             19066838     MSVCRTD:MSVCR80D.dll
 0005:0000083c       __imp__memmove_s           1906683c     MSVCRTD:MSVCR80D.dll
 0005:00000840       __imp__wcslen              19066840     MSVCRTD:MSVCR80D.dll
 0005:00000844       __imp__memcpy              19066844     MSVCRTD:MSVCR80D.dll
 0005:00000848       __imp___unlock             19066848     MSVCRTD:MSVCR80D.dll
 0005:0000084c       __imp____dllonexit         1906684c     MSVCRTD:MSVCR80D.dll
 0005:00000850       __imp___encode_pointer     19066850     MSVCRTD:MSVCR80D.dll
 0005:00000854       __imp___lock               19066854     MSVCRTD:MSVCR80D.dll
 0005:00000858       __imp___onexit             19066858     MSVCRTD:MSVCR80D.dll
 0005:0000085c       __imp___decode_pointer     1906685c     MSVCRTD:MSVCR80D.dll
 0005:00000860       __imp_?terminate@@YAXXZ    19066860     MSVCRTD:MSVCR80D.dll
 0005:00000864       __imp___malloc_dbg         19066864     MSVCRTD:MSVCR80D.dll
 0005:00000868       __imp___free_dbg           19066868     MSVCRTD:MSVCR80D.dll
 0005:0000086c       __imp___encoded_null       1906686c     MSVCRTD:MSVCR80D.dll
 0005:00000870       __imp___CrtSetCheckCount   19066870     MSVCRTD:MSVCR80D.dll
 0005:00000874       __imp___initterm           19066874     MSVCRTD:MSVCR80D.dll
 0005:00000878       __imp___initterm_e         19066878     MSVCRTD:MSVCR80D.dll
 0005:0000087c       __imp___amsg_exit          1906687c     MSVCRTD:MSVCR80D.dll
 0005:00000880       __imp___adjust_fdiv        19066880     MSVCRTD:MSVCR80D.dll
 0005:00000884       __imp____CppXcptFilter     19066884     MSVCRTD:MSVCR80D.dll
 0005:00000888       __imp___except_handler4_common 19066888     MSVCRTD:MSVCR80D.dll
 0005:0000088c       __imp___crt_debugger_hook  1906688c     MSVCRTD:MSVCR80D.dll
 0005:00000890       __imp___CrtDbgReportW      19066890     MSVCRTD:MSVCR80D.dll
 0005:00000894       __imp____clean_type_info_names_internal 19066894     MSVCRTD:MSVCR80D.dll
 0005:00000898       __imp_?_type_info_dtor_internal_method@type_info@@QAEXXZ 19066898     MSVCRTD:MSVCR80D.dll
 0005:0000089c       \177MSVCR80D_NULL_THUNK_DATA 1906689c     MSVCRTD:MSVCR80D.dll
 0005:000008e8       __imp_?Execute@CEventScript@@QAE_NABV?$basic_string@_WU?$char_traits@_W@std@@V?$K2StringAllocator@_W@@@std@@H@Z 190668e8     k2_debug:k2_debug.dll
 0005:000008ec       __imp_?pEventScript@@3PAVCEventScript@@A 190668ec     k2_debug:k2_debug.dll
 0005:000008f0       __imp_?SetWorkingDirectory@CFileManager@@QAEXABV?$basic_string@_WU?$char_traits@_W@std@@V?$K2StringAllocator@_W@@@std@@@Z 190668f0     k2_debug:k2_debug.dll
 0005:000008f4       __imp_?Filename_GetPath@@YA?AV?$basic_string@_WU?$char_traits@_W@std@@V?$K2StringAllocator@_W@@@std@@ABV12@@Z 190668f4     k2_debug:k2_debug.dll
 0005:000008f8       __imp_?GetPath@CResourceManager@@QAEABV?$basic_string@_WU?$char_traits@_W@std@@V?$K2StringAllocator@_W@@@std@@I@Z 190668f8     k2_debug:k2_debug.dll
 0005:000008fc       __imp_?pFileManager@@3PAVCFileManager@@A 190668fc     k2_debug:k2_debug.dll
 0005:00000900       __imp_?CheckEvents@CSkeleton@@QAE_NXZ 19066900     k2_debug:k2_debug.dll
 0005:00000904       __imp_?ComputeAnimFrame@CSkeleton@@QAEXIHAAHAAM1@Z 19066904     k2_debug:k2_debug.dll
 0005:00000908       __imp_?Pose@CSkeleton@@QAEXIMM@Z 19066908     k2_debug:k2_debug.dll
 0005:0000090c       __imp_?GetPosition@CSceneEntity@@QBEABV?$CVec3@M@@XZ 1906690c     k2_debug:k2_debug.dll
 0005:00000910       __imp_??A?$CVec3@M@@QAEAAMH@Z 19066910     k2_debug:k2_debug.dll
 0005:00000914       __imp_??0?$CVec4@M@@QAE@ABV?$CVec3@M@@M@Z 19066914     k2_debug:k2_debug.dll
 0005:00000918       __imp_?GetSkin@CResourceManager@@QAEIIABV?$basic_string@_WU?$char_traits@_W@std@@V?$K2StringAllocator@_W@@@std@@@Z 19066918     k2_debug:k2_debug.dll
 0005:0000091c       __imp_?SetListenerPosition@CSoundManager@@QAEXABV?$CVec3@M@@000_N@Z 1906691c     k2_debug:k2_debug.dll
 0005:00000920       __imp_?DefaultCamera@CCamera@@QAEXMM@Z 19066920     k2_debug:k2_debug.dll
 0005:00000924       __imp_?GetScreenW@CVid@@QAEHXZ 19066924     k2_debug:k2_debug.dll
 0005:00000928       __imp_?GetScreenH@CVid@@QAEHXZ 19066928     k2_debug:k2_debug.dll
 0005:0000092c       __imp_?pVid@@3PAVCVid@@A   1906692c     k2_debug:k2_debug.dll
 0005:00000930       __imp_?Clear@CSceneManager@@QAEXXZ 19066930     k2_debug:k2_debug.dll
 0005:00000934       __imp_?ClearBackground@CSceneManager@@QAEXXZ 19066934     k2_debug:k2_debug.dll
 0005:00000938       __imp_?SetCursorHidden@CInput@@QAEXW4ECursor@@W4ECursorBool@@@Z 19066938     k2_debug:k2_debug.dll
 0005:0000093c       __imp_?SetCursorFrozen@CInput@@QAEXW4ECursor@@W4ECursorBool@@@Z 1906693c     k2_debug:k2_debug.dll
 0005:00000940       __imp_?ExecuteBinds@CInput@@QAEXW4EBindTable@@H@Z 19066940     k2_debug:k2_debug.dll
 0005:00000944       __imp_?g_pInput@@3PAVCInput@@A 19066944     k2_debug:k2_debug.dll
 0005:00000948       __imp_?g_pHost@@3PAVCHost@@A 19066948     k2_debug:k2_debug.dll
 0005:0000094c       __imp_?LoadNextComponent@CWorld@@QAE_NXZ 1906694c     k2_debug:k2_debug.dll
 0005:00000950       __imp_?StartLoad@CWorld@@QAE_NABV?$basic_string@_WU?$char_traits@_W@std@@V?$K2StringAllocator@_W@@@std@@_N@Z 19066950     k2_debug:k2_debug.dll
 0005:00000954       __imp_?Free@CWorld@@QAEXXZ 19066954     k2_debug:k2_debug.dll
 0005:00000958       __imp_?SetModel@CSkeleton@@QAEXI@Z 19066958     k2_debug:k2_debug.dll
 0005:0000095c       __imp_?IsModified@ICvar@@QAE_NXZ 1906695c     k2_debug:k2_debug.dll
 0005:00000960       __imp_?SetActiveInterface@CUIManager@@QAEXABV?$basic_string@_WU?$char_traits@_W@std@@V?$K2StringAllocator@_W@@@std@@@Z 19066960     k2_debug:k2_debug.dll
 0005:00000964       __imp_?IsActive@IModalDialog@@SA_NXZ 19066964     k2_debug:k2_debug.dll
 0005:00000968       __imp_?CalcFovY@CCamera@@QAEXXZ 19066968     k2_debug:k2_debug.dll
 0005:0000096c       __imp_?AddInputHistory@CConsole@@QAEXABV?$basic_string@_WU?$char_traits@_W@std@@V?$K2StringAllocator@_W@@@std@@@Z 1906696c     k2_debug:k2_debug.dll
 0005:00000970       __imp_?Filename_GetExtension@@YA?AV?$basic_string@_WU?$char_traits@_W@std@@V?$K2StringAllocator@_W@@@std@@ABV12@@Z 19066970     k2_debug:k2_debug.dll
 0005:00000974       __imp_?SanitizePath@CFileManager@@QAE?AV?$basic_string@_WU?$char_traits@_W@std@@V?$K2StringAllocator@_W@@@std@@ABV23@_N@Z 19066974     k2_debug:k2_debug.dll
 0005:00000978       __imp_?GetRootDir@CSystem@@QAEABV?$basic_string@_WU?$char_traits@_W@std@@V?$K2StringAllocator@_W@@@std@@XZ 19066978     k2_debug:k2_debug.dll
 0005:0000097c       __imp_?K2System@@3AAVCSystem@@A 1906697c     k2_debug:k2_debug.dll
 0005:00000980       __imp_??1CFileHandle@@QAE@XZ 19066980     k2_debug:k2_debug.dll
 0005:00000984       __imp_??6CFileHandle@@QAEAAV0@ABV?$basic_string@_WU?$char_traits@_W@std@@V?$K2StringAllocator@_W@@@std@@@Z 19066984     k2_debug:k2_debug.dll
 0005:00000988       __imp_??6CFileHandle@@QAEAAV0@PB_W@Z 19066988     k2_debug:k2_debug.dll
 0005:0000098c       __imp_??0CFileHandle@@QAE@ABV?$basic_string@_WU?$char_traits@_W@std@@V?$K2StringAllocator@_W@@@std@@H0@Z 1906698c     k2_debug:k2_debug.dll
 0005:00000990       __imp_??H?$CVec2@M@@QBE?AV0@ABV0@@Z 19066990     k2_debug:k2_debug.dll
 0005:00000994       __imp_??0?$CVec2@M@@QAE@MM@Z 19066994     k2_debug:k2_debug.dll
 0005:00000998       __imp_??0?$CVec2@M@@QAE@XZ 19066998     k2_debug:k2_debug.dll
 0005:0000099c       __imp_?Milliseconds@CSystem@@QAEIXZ 1906699c     k2_debug:k2_debug.dll
 0005:000009a0       __imp_?GetRandomSeed32@CSystem@@QAEIXZ 190669a0     k2_debug:k2_debug.dll
 0005:000009a4       __imp_?FormatFloat@@YAXNHIHAAV?$basic_string@_WU?$char_traits@_W@std@@V?$K2StringAllocator@_W@@@std@@@Z 190669a4     k2_debug:k2_debug.dll
 0005:000009a8       __imp_?GetName@CMesh@@QBEABV?$basic_string@_WU?$char_traits@_W@std@@V?$K2StringAllocator@_W@@@std@@XZ 190669a8     k2_debug:k2_debug.dll
 0005:000009ac       __imp_?GetDefaultShaderName@CMesh@@QBEABV?$basic_string@_WU?$char_traits@_W@std@@V?$K2StringAllocator@_W@@@std@@XZ 190669ac     k2_debug:k2_debug.dll
 0005:000009b0       __imp_?GetMesh@CK2Model@@QAEPAVCMesh@@I@Z 190669b0     k2_debug:k2_debug.dll
 0005:000009b4       __imp_?GetNumMeshes@CK2Model@@QBEIXZ 190669b4     k2_debug:k2_debug.dll
 0005:000009b8       __imp_??1CXMLDoc@@QAE@XZ   190669b8     k2_debug:k2_debug.dll
 0005:000009bc       __imp_?WriteFile@CXMLDoc@@QAEXABV?$basic_string@_WU?$char_traits@_W@std@@V?$K2StringAllocator@_W@@@std@@_N@Z 190669bc     k2_debug:k2_debug.dll
 0005:000009c0       __imp_?ReadBuffer@CXMLDoc@@QAE_NPBDH@Z 190669c0     k2_debug:k2_debug.dll
 0005:000009c4       __imp_?GetBuffer@CFileHandle@@QAEPBDAAI@Z 190669c4     k2_debug:k2_debug.dll
 0005:000009c8       __imp_??0CXMLDoc@@QAE@W4EXMLEncoding@@@Z 190669c8     k2_debug:k2_debug.dll
 0005:000009cc       __imp_?GetFileList@CFileManager@@QAE_NABV?$basic_string@_WU?$char_traits@_W@std@@V?$K2StringAllocator@_W@@@std@@0_NAAV?$vector@V?$basic_string@_WU?$char_traits@_W@std@@V?$K2StringAllocator@_W@@@std@@V?$K2VectorAllocator@V?$basic_string@_WU?$char_traits@_W@std@@V?$K2StringAllocator@_W@@@std@@@@@@1@Z 190669cc     k2_debug:k2_debug.dll
 0005:000009d0       __imp_?FormatFloat@@YAXNHIHHAAV?$basic_string@_WU?$char_traits@_W@std@@V?$K2StringAllocator@_W@@@std@@@Z 190669d0     k2_debug:k2_debug.dll
 0005:000009d4       __imp_?Write@CFileHandle@@QAEIPBXI@Z 190669d4     k2_debug:k2_debug.dll
 0005:000009d8       __imp_?WriteBits@CBufferBit@@QAEXII@Z 190669d8     k2_debug:k2_debug.dll
 0005:000009dc       __imp_?ClearEvents@CSkeleton@@QAEXXZ 190669dc     k2_debug:k2_debug.dll
 0005:000009e0       __imp_?ReadBit@CBufferBit@@QBEIXZ 190669e0     k2_debug:k2_debug.dll
 0005:000009e4       __imp_?WriteBit@CBufferBit@@QAEXI@Z 190669e4     k2_debug:k2_debug.dll
 0005:000009e8       __imp_?TokenizeString@@YA?AV?$vector@V?$basic_string@_WU?$char_traits@_W@std@@V?$K2StringAllocator@_W@@@std@@V?$K2VectorAllocator@V?$basic_string@_WU?$char_traits@_W@std@@V?$K2StringAllocator@_W@@@std@@@@@@ABV?$basic_string@_WU?$char_traits@_W@std@@V?$K2StringAllocator@_W@@@std@@_W@Z 190669e8     k2_debug:k2_debug.dll
 0005:000009ec       __imp_?ReadLine@CFileHandle@@QAE?AV?$basic_string@_WU?$char_traits@_W@std@@V?$K2StringAllocator@_W@@@std@@XZ 190669ec     k2_debug:k2_debug.dll
 0005:000009f0       __imp_?IsEOF@CFileHandle@@QBE_NXZ 190669f0     k2_debug:k2_debug.dll
 0005:000009f4       __imp_?GetCursor@CResourceManager@@QAEPAVCCursor@@I@Z 190669f4     k2_debug:k2_debug.dll
 0005:000009f8       __imp_?PrecacheSkin@CResourceManager@@QAEXII@Z 190669f8     k2_debug:k2_debug.dll
 0005:000009fc       __imp_?WriteTGA@CBitmap@@QAE_NABV?$basic_string@_WU?$char_traits@_W@std@@V?$K2StringAllocator@_W@@@std@@@Z 190669fc     k2_debug:k2_debug.dll
 0005:00000a00       __imp_?Filename_StripExtension@@YA?AV?$basic_string@_WU?$char_traits@_W@std@@V?$K2StringAllocator@_W@@@std@@ABV12@@Z 19066a00     k2_debug:k2_debug.dll
 0005:00000a04       __imp_??0CBitmap@@QAE@ABV?$basic_string@_WU?$char_traits@_W@std@@V?$K2StringAllocator@_W@@@std@@_N@Z 19066a04     k2_debug:k2_debug.dll
 0005:00000a08       __imp_?Flip@CBitmap@@QAEXXZ 19066a08     k2_debug:k2_debug.dll
 0005:00000a0c       __imp_??A?$CVec4@M@@QAEAAMH@Z 19066a0c     k2_debug:k2_debug.dll
 0005:00000a10       __imp_?FormatInt@@YAX_KHIH_WAAV?$basic_string@_WU?$char_traits@_W@std@@V?$K2StringAllocator@_W@@@std@@@Z 19066a10     k2_debug:k2_debug.dll
 0005:00000a14       __imp_??1CEntitySnapshot@@QAE@XZ 19066a14     k2_debug:k2_debug.dll
 0005:00000a18       __imp_??1CPath@@QAE@XZ     19066a18     k2_debug:k2_debug.dll
 0005:00000a1c       __imp_??1ICvar@@UAE@XZ     19066a1c     k2_debug:k2_debug.dll
 0005:00000a20       __imp_?DefaultCvar_Cmd@@YA_NPAVCConsoleElement@@ABV?$vector@V?$basic_string@_WU?$char_traits@_W@std@@V?$K2StringAllocator@_W@@@std@@V?$K2VectorAllocator@V?$basic_string@_WU?$char_traits@_W@std@@V?$K2StringAllocator@_W@@@std@@@@@@@Z 19066a20     k2_debug:k2_debug.dll
 0005:00000a24       __imp_??0ICvar@@QAE@ABV?$basic_string@_WU?$char_traits@_W@std@@V?$K2StringAllocator@_W@@@std@@HW4ECvarType@@P6A_NPAVCConsoleElement@@ABV?$vector@V?$basic_string@_WU?$char_traits@_W@std@@V?$K2StringAllocator@_W@@@std@@V?$K2VectorAllocator@V?$basic_string@_WU?$char_traits@_W@std@@V?$K2StringAllocator@_W@@@std@@@@@@@Z@Z 19066a24     k2_debug:k2_debug.dll
 0005:00000a28       __imp_?Execute@CConsoleElement@@UAEXABV?$vector@V?$basic_string@_WU?$char_traits@_W@std@@V?$K2StringAllocator@_W@@@std@@V?$K2VectorAllocator@V?$basic_string@_WU?$char_traits@_W@std@@V?$K2StringAllocator@_W@@@std@@@@@@@Z 19066a28     k2_debug:k2_debug.dll
 0005:00000a2c       __imp_?Evaluate@CConsoleElement@@UAE?AV?$basic_string@_WU?$char_traits@_W@std@@V?$K2StringAllocator@_W@@@std@@ABV?$vector@V?$basic_string@_WU?$char_traits@_W@std@@V?$K2StringAllocator@_W@@@std@@V?$K2VectorAllocator@V?$basic_string@_WU?$char_traits@_W@std@@V?$K2StringAllocator@_W@@@std@@@@@@@Z 19066a2c     k2_debug:k2_debug.dll
 0005:00000a30       __imp_?Precache@CConsoleElement@@UAE_NABV?$vector@V?$basic_string@_WU?$char_traits@_W@std@@V?$K2StringAllocator@_W@@@std@@V?$K2VectorAllocator@V?$basic_string@_WU?$char_traits@_W@std@@V?$K2StringAllocator@_W@@@std@@@@@@@Z 19066a30     k2_debug:k2_debug.dll
 0005:00000a34       __imp_?GetType@ICvar@@QBE?AW4ECvarType@@XZ 19066a34     k2_debug:k2_debug.dll
 0005:00000a38       __imp_??A?$CVec3@M@@QAEAAMI@Z 19066a38     k2_debug:k2_debug.dll
 0005:00000a3c       __imp_?SingleToWide@@YA?AV?$basic_string@_WU?$char_traits@_W@std@@V?$K2StringAllocator@_W@@@std@@ABV?$basic_string@DU?$char_traits@D@std@@V?$K2StringAllocator@D@@@2@@Z 19066a3c     k2_debug:k2_debug.dll
 0005:00000a40       __imp_??0?$CVec4@M@@QAE@XZ 19066a40     k2_debug:k2_debug.dll
 0005:00000a44       __imp_?SetFloat@ICvar@@QAEXM@Z 19066a44     k2_debug:k2_debug.dll
 0005:00000a48       __imp_??9?$CVec4@M@@QBE_NABV0@@Z 19066a48     k2_debug:k2_debug.dll
 0005:00000a4c       __imp_?AtoX@@YAAAV?$CVec4@M@@ABV?$basic_string@_WU?$char_traits@_W@std@@V?$K2StringAllocator@_W@@@std@@AAV1@@Z 19066a4c     k2_debug:k2_debug.dll
 0005:00000a50       __imp_??8?$CVec4@M@@QBE_NABV0@@Z 19066a50     k2_debug:k2_debug.dll
 0005:00000a54       __imp_?XtoW@@YA?AV?$basic_string@_WU?$char_traits@_W@std@@V?$K2StringAllocator@_W@@@std@@ABV?$CVec4@M@@HHH@Z 19066a54     k2_debug:k2_debug.dll
 0005:00000a58       __imp_??9?$CVec3@M@@QBE_NABV0@@Z 19066a58     k2_debug:k2_debug.dll
 0005:00000a5c       __imp_?AtoX@@YAAAV?$CVec3@M@@ABV?$basic_string@_WU?$char_traits@_W@std@@V?$K2StringAllocator@_W@@@std@@AAV1@@Z 19066a5c     k2_debug:k2_debug.dll
 0005:00000a60       __imp_??8?$CVec3@M@@QBE_NABV0@@Z 19066a60     k2_debug:k2_debug.dll
 0005:00000a64       __imp_??0CSkeleton@@QAE@XZ 19066a64     k2_debug:k2_debug.dll
 0005:00000a68       __imp_??0?$CBoundingBox@M@@QAE@XZ 19066a68     k2_debug:k2_debug.dll
 0005:00000a6c       __imp_??0IBaseInput@@QAE@ABV?$basic_string@_WU?$char_traits@_W@std@@V?$K2StringAllocator@_W@@@std@@W4EActionType@@H@Z 19066a6c     k2_debug:k2_debug.dll
 0005:00000a70       __imp_??1IBaseInput@@UAE@XZ 19066a70     k2_debug:k2_debug.dll
 0005:00000a74       __imp_??0CUITrigger@@QAE@ABV?$basic_string@_WU?$char_traits@_W@std@@V?$K2StringAllocator@_W@@@std@@@Z 19066a74     k2_debug:k2_debug.dll
 0005:00000a78       __imp_??0CCmd@@QAE@ABV?$basic_string@_WU?$char_traits@_W@std@@V?$K2StringAllocator@_W@@@std@@P6A_NPAVCConsoleElement@@ABV?$vector@V?$basic_string@_WU?$char_traits@_W@std@@V?$K2StringAllocator@_W@@@std@@V?$K2VectorAllocator@V?$basic_string@_WU?$char_traits@_W@std@@V?$K2StringAllocator@_W@@@std@@@@@@@ZH@Z 19066a78     k2_debug:k2_debug.dll
 0005:00000a7c       __imp_??0CUICmd@@QAE@ABV?$basic_string@_WU?$char_traits@_W@std@@V?$K2StringAllocator@_W@@@std@@P6A?AV12@PAVIWidget@@ABV?$vector@PAVCUIScriptToken@@V?$K2VectorAllocator@PAVCUIScriptToken@@@@@@@ZHH@Z 19066a7c     k2_debug:k2_debug.dll
 0005:00000a80       __imp_??0CEventCmd@@QAE@ABV?$basic_string@_WU?$char_traits@_W@std@@V?$K2StringAllocator@_W@@@std@@P6A_NABV?$vector@V?$basic_string@_WU?$char_traits@_W@std@@V?$K2StringAllocator@_W@@@std@@V?$K2VectorAllocator@V?$basic_string@_WU?$char_traits@_W@std@@V?$K2StringAllocator@_W@@@std@@@@@@H@ZH@Z 19066a80     k2_debug:k2_debug.dll
 0005:00000a84       __imp_??0CAction@@QAE@ABV?$basic_string@_WU?$char_traits@_W@std@@V?$K2StringAllocator@_W@@@std@@W4EActionType@@P6AXMMABV?$CVec2@M@@0@ZH@Z 19066a84     k2_debug:k2_debug.dll
 0005:00000a88       __imp_??0CFunction@@QAE@ABV?$basic_string@_WU?$char_traits@_W@std@@V?$K2StringAllocator@_W@@@std@@P6A?AV12@ABV?$vector@V?$basic_string@_WU?$char_traits@_W@std@@V?$K2StringAllocator@_W@@@std@@V?$K2VectorAllocator@V?$basic_string@_WU?$char_traits@_W@std@@V?$K2StringAllocator@_W@@@std@@@@@@@Z@Z 19066a88     k2_debug:k2_debug.dll
 0005:00000a8c       __imp_?Seek@CBufferDynamic@@UAE_NI@Z 19066a8c     k2_debug:k2_debug.dll
 0005:00000a90       __imp_?FindNext@IBuffer@@UBEI_W@Z 19066a90     k2_debug:k2_debug.dll
 0005:00000a94       __imp_?FindNext@IBuffer@@UBEID@Z 19066a94     k2_debug:k2_debug.dll
 0005:00000a98       __imp_?Write@CBufferDynamic@@UAE_NPBXI@Z 19066a98     k2_debug:k2_debug.dll
 0005:00000a9c       __imp_?Read@CBufferDynamic@@UBE_NPAXI@Z 19066a9c     k2_debug:k2_debug.dll
 0005:00000aa0       __imp_?Lock@CBufferDynamic@@UAEPADI@Z 19066aa0     k2_debug:k2_debug.dll
 0005:00000aa4       __imp_?WriteBytes@CBufferDynamic@@UAE_NEI@Z 19066aa4     k2_debug:k2_debug.dll
 0005:00000aa8       __imp_??1IBuffer@@UAE@XZ   19066aa8     k2_debug:k2_debug.dll
 0005:00000aac       __imp_?Init@IBuffer@@IAEXI@Z 19066aac     k2_debug:k2_debug.dll
 0005:00000ab0       __imp_??0IBuffer@@QAE@XZ   19066ab0     k2_debug:k2_debug.dll
 0005:00000ab4       __imp_?Resize@IBuffer@@QAE_NI@Z 19066ab4     k2_debug:k2_debug.dll
 0005:00000ab8       __imp_??1CSkeleton@@UAE@XZ 19066ab8     k2_debug:k2_debug.dll
 0005:00000abc       __imp_??1CUITrigger@@QAE@XZ 19066abc     k2_debug:k2_debug.dll
 0005:00000ac0       __imp_??1CCmd@@UAE@XZ      19066ac0     k2_debug:k2_debug.dll
 0005:00000ac4       __imp_??1CUICmd@@QAE@XZ    19066ac4     k2_debug:k2_debug.dll
 0005:00000ac8       __imp_??1CEventCmd@@QAE@XZ 19066ac8     k2_debug:k2_debug.dll
 0005:00000acc       __imp_??1CAction@@UAE@XZ   19066acc     k2_debug:k2_debug.dll
 0005:00000ad0       __imp_??1CFunction@@UAE@XZ 19066ad0     k2_debug:k2_debug.dll
 0005:00000ad4       __imp_?AddParticleSystem@CSceneManager@@QAEXPBVCParticleSystem@@_N@Z 19066ad4     k2_debug:k2_debug.dll
 0005:00000ad8       __imp_?Modify@CSceneEntityModifier@@QBEXAAVCSceneEntity@@@Z 19066ad8     k2_debug:k2_debug.dll
 0005:00000adc       __imp_?Cleanup@CEffectThread@@QAEXXZ 19066adc     k2_debug:k2_debug.dll
 0005:00000ae0       __imp_?PrepCamera@CSceneManager@@QAEXABVCCamera@@@Z 19066ae0     k2_debug:k2_debug.dll
 0005:00000ae4       __imp_?GetBounds@CModel@@QBEABV?$CBoundingBox@M@@XZ 19066ae4     k2_debug:k2_debug.dll
 0005:00000ae8       __imp_?Transform@?$CBoundingBox@M@@QAEXABV?$CVec3@M@@ABVCAxis@@M@Z 19066ae8     k2_debug:k2_debug.dll
 0005:00000aec       __imp_?AddOffset@CCamera@@QAEXABV?$CVec3@M@@@Z 19066aec     k2_debug:k2_debug.dll
 0005:00000af0       __imp_?GetInteger@ICvar@@SAHABV?$basic_string@_WU?$char_traits@_W@std@@V?$K2StringAllocator@_W@@@std@@@Z 19066af0     k2_debug:k2_debug.dll
 0005:00000af4       __imp_??0CBitmap@@QAE@HHH@Z 19066af4     k2_debug:k2_debug.dll
 0005:00000af8       __imp_?GetBuffer@CBitmap@@QAEPAEXZ 19066af8     k2_debug:k2_debug.dll
 0005:00000afc       __imp_?GetSize@CBitmap@@QBEHXZ 19066afc     k2_debug:k2_debug.dll
 0005:00000b00       __imp_?UpdateFogofWar@CVid@@QAEXABVCBitmap@@@Z 19066b00     k2_debug:k2_debug.dll
 0005:00000b04       __imp_?RenderFogofWar@CVid@@QAEXM_NM@Z 19066b04     k2_debug:k2_debug.dll
 0005:00000b08       __imp_??1CBitmap@@QAE@XZ   19066b08     k2_debug:k2_debug.dll
 0005:00000b0c       __imp_?Render@CSceneManager@@QAEXXZ 19066b0c     k2_debug:k2_debug.dll
 0005:00000b10       __imp_?Draw2D@@3AAVCDraw2D@@A 19066b10     k2_debug:k2_debug.dll
 0005:00000b14       __imp_?GetScreenH@CDraw2D@@QAEMXZ 19066b14     k2_debug:k2_debug.dll
 0005:00000b18       __imp_?Rect@CDraw2D@@QAEXMMMMH@Z 19066b18     k2_debug:k2_debug.dll
 0005:00000b1c       __imp_??0CSceneEntity@@QAE@XZ 19066b1c     k2_debug:k2_debug.dll
 0005:00000b20       __imp_?Clear@CSceneEntity@@QAEXXZ 19066b20     k2_debug:k2_debug.dll
 0005:00000b24       __imp_?SetPosition@CSceneEntity@@QAEXABV?$CVec3@M@@@Z 19066b24     k2_debug:k2_debug.dll
 0005:00000b28       __imp_?g_pSceneManager@@3PAVCSceneManager@@A 19066b28     k2_debug:k2_debug.dll
 0005:00000b2c       __imp_?AddEntity@CSceneManager@@QAEAAUSSceneEntityEntry@@ABVCSceneEntity@@_N@Z 19066b2c     k2_debug:k2_debug.dll
 0005:00000b30       __imp_??1CSceneEntity@@QAE@XZ 19066b30     k2_debug:k2_debug.dll
 0005:00000b34       __imp_?XtoW@@YA?AV?$basic_string@_WU?$char_traits@_W@std@@V?$K2StringAllocator@_W@@@std@@ABV?$CVec3@M@@HHH@Z 19066b34     k2_debug:k2_debug.dll
 0005:00000b38       __imp_??0CException@@QAE@ABV0@@Z 19066b38     k2_debug:k2_debug.dll
 0005:00000b3c       __imp_??1CException@@QAE@XZ 19066b3c     k2_debug:k2_debug.dll
 0005:00000b40       __imp_??0CException@@QAE@ABV?$basic_string@_WU?$char_traits@_W@std@@V?$K2StringAllocator@_W@@@std@@W4EExceptionType@@@Z 19066b40     k2_debug:k2_debug.dll
 0005:00000b44       __imp_?g_pActionRegistry@@3PAVCActionRegistry@@A 19066b44     k2_debug:k2_debug.dll
 0005:00000b48       __imp_?BindAxis@CActionRegistry@@QAEXW4EBindTable@@W4EAxis@@HABV?$basic_string@_WU?$char_traits@_W@std@@V?$K2StringAllocator@_W@@@std@@2H@Z 19066b48     k2_debug:k2_debug.dll
 0005:00000b4c       __imp_?BindButton@CActionRegistry@@QAEXW4EBindTable@@W4EButton@@HABV?$basic_string@_WU?$char_traits@_W@std@@V?$K2StringAllocator@_W@@@std@@2H@Z 19066b4c     k2_debug:k2_debug.dll
 0005:00000b50       __imp_?BindImpulse@CActionRegistry@@QAEXW4EBindTable@@W4EButton@@HABV?$basic_string@_WU?$char_traits@_W@std@@V?$K2StringAllocator@_W@@@std@@2H@Z 19066b50     k2_debug:k2_debug.dll
 0005:00000b54       __imp_?SetString@ICvar@@SAXABV?$basic_string@_WU?$char_traits@_W@std@@V?$K2StringAllocator@_W@@@std@@0@Z 19066b54     k2_debug:k2_debug.dll
 0005:00000b58       __imp_?LoadInterface@CUIManager@@QAEIABV?$basic_string@_WU?$char_traits@_W@std@@V?$K2StringAllocator@_W@@@std@@@Z 19066b58     k2_debug:k2_debug.dll
 0005:00000b5c       __imp_?ExecuteScript@CConsole@@QAE_NABV?$basic_string@_WU?$char_traits@_W@std@@V?$K2StringAllocator@_W@@@std@@_NPAV?$map@V?$basic_string@_WU?$char_traits@_W@std@@V?$K2StringAllocator@_W@@@std@@V12@U?$less@V?$basic_string@_WU?$char_traits@_W@std@@V?$K2StringAllocator@_W@@@std@@@2@V?$K2MapAllocator@U?$pair@$$CBV?$basic_string@_WU?$char_traits@_W@std@@V?$K2StringAllocator@_W@@@std@@V12@@std@@@@@@@Z 19066b5c     k2_debug:k2_debug.dll
 0005:00000b60       __imp_?SetModified@ICvar@@QAEX_N@Z 19066b60     k2_debug:k2_debug.dll
 0005:00000b64       __imp_?GetInterface@CUIManager@@QBEPAVCInterface@@ABV?$basic_string@_WU?$char_traits@_W@std@@V?$K2StringAllocator@_W@@@std@@@Z 19066b64     k2_debug:k2_debug.dll
 0005:00000b68       __imp_?Trigger@CUITrigger@@QAEXABV?$basic_string@_WU?$char_traits@_W@std@@V?$K2StringAllocator@_W@@@std@@_N@Z 19066b68     k2_debug:k2_debug.dll
 0005:00000b6c       __imp_?GetAnimName@CResourceManager@@QAEABV?$basic_string@_WU?$char_traits@_W@std@@V?$K2StringAllocator@_W@@@std@@II@Z 19066b6c     k2_debug:k2_debug.dll
 0005:00000b70       __imp_??G?$CVec3@M@@QBE?AV0@ABV0@@Z 19066b70     k2_debug:k2_debug.dll
 0005:00000b74       __imp_?UpdateHandle@CSoundManager@@QAE_NIABV?$CVec3@M@@0_N@Z 19066b74     k2_debug:k2_debug.dll
 0005:00000b78       __imp_?Modified@ICvar@@QAEXXZ 19066b78     k2_debug:k2_debug.dll
 0005:00000b7c       __imp_?g_pUIManager@@3PAVCUIManager@@A 19066b7c     k2_debug:k2_debug.dll
 0005:00000b80       __imp_?GetActiveInterface@CUIManager@@QBEPAVCInterface@@XZ 19066b80     k2_debug:k2_debug.dll
 0005:00000b84       __imp_??Z?$CVec3@M@@QAEAAV0@ABV0@@Z 19066b84     k2_debug:k2_debug.dll
 0005:00000b88       __imp_??Y?$CVec3@M@@QAEAAV0@ABV0@@Z 19066b88     k2_debug:k2_debug.dll
 0005:00000b8c       __imp_?M_Randnum@@YAHHH@Z  19066b8c     k2_debug:k2_debug.dll
 0005:00000b90       __imp_??0CSample@@QAE@ABV?$basic_string@_WU?$char_traits@_W@std@@V?$K2StringAllocator@_W@@@std@@H@Z 19066b90     k2_debug:k2_debug.dll
 0005:00000b94       __imp_?Register@CResourceManager@@QAEIPAVIResource@@II@Z 19066b94     k2_debug:k2_debug.dll
 0005:00000b98       __imp_?K2SoundManager@@3AAVCSoundManager@@A 19066b98     k2_debug:k2_debug.dll
 0005:00000b9c       __imp_?StopHandle@CSoundManager@@QAEXI@Z 19066b9c     k2_debug:k2_debug.dll
 0005:00000ba0       __imp_?PlaySFXSound@CSoundManager@@QAEIIPBV?$CVec3@M@@0MMHHHHHHHMMHM@Z 19066ba0     k2_debug:k2_debug.dll
 0005:00000ba4       __imp_??0?$CVec3@M@@QAE@XZ 19066ba4     k2_debug:k2_debug.dll
 0005:00000ba8       __imp_?GetUseEntityEffectScale@CEffectThread@@QAE_NXZ 19066ba8     k2_debug:k2_debug.dll
 0005:00000bac       __imp_?Execute@CEffectThread@@QAE_NI@Z 19066bac     k2_debug:k2_debug.dll
 0005:00000bb0       __imp_?AddOutputHistoryT@CConsoleStream@@AAEXABV?$basic_string@_WU?$char_traits@_W@std@@V?$K2StringAllocator@_W@@@std@@@Z 19066bb0     k2_debug:k2_debug.dll
 0005:00000bb4       __imp_?g_pConsole@@3PAVCConsole@@A 19066bb4     k2_debug:k2_debug.dll
 0005:00000bb8       __imp_?IsDeferred@CEffectThread@@QAE_NXZ 19066bb8     k2_debug:k2_debug.dll
 0005:00000bbc       __imp_?Expire@CEffectThread@@QAEXI@Z 19066bbc     k2_debug:k2_debug.dll
 0005:00000bc0       __imp_?IsPersistent@CEffectThread@@QAE_NXZ 19066bc0     k2_debug:k2_debug.dll
 0005:00000bc4       __imp_?Register@CResourceManager@@QAEIABV?$basic_string@_WU?$char_traits@_W@std@@V?$K2StringAllocator@_W@@@std@@II@Z 19066bc4     k2_debug:k2_debug.dll
 0005:00000bc8       __imp_?GetEffect@CResourceManager@@QAEPAVCEffect@@I@Z 19066bc8     k2_debug:k2_debug.dll
 0005:00000bcc       __imp_?SpawnThread@CEffect@@QAEPAVCEffectThread@@I@Z 19066bcc     k2_debug:k2_debug.dll
 0005:00000bd0       __imp_?GetModel@CResourceManager@@QAEPAVCModel@@I@Z 19066bd0     k2_debug:k2_debug.dll
 0005:00000bd4       __imp_?SetAnimTime@CSkeleton@@QAEXMH@Z 19066bd4     k2_debug:k2_debug.dll
 0005:00000bd8       __imp_?SetAnimSpeed@CSkeleton@@QAEXMH@Z 19066bd8     k2_debug:k2_debug.dll
 0005:00000bdc       __imp_?Evaluate@CUIScriptToken@@QAEABV?$basic_string@_WU?$char_traits@_W@std@@V?$K2StringAllocator@_W@@@std@@XZ 19066bdc     k2_debug:k2_debug.dll
 0005:00000be0       __imp_?StartAnim@CSkeleton@@QAEHABV?$basic_string@_WU?$char_traits@_W@std@@V?$K2StringAllocator@_W@@@std@@IHHMI@Z 19066be0     k2_debug:k2_debug.dll
 0005:00000be4       __imp_?SetFloat@ICvar@@SAXABV?$basic_string@_WU?$char_traits@_W@std@@V?$K2StringAllocator@_W@@@std@@M@Z 19066be4     k2_debug:k2_debug.dll
 0005:00000be8       __imp_??RCCmd@@QAE_NABV?$basic_string@_WU?$char_traits@_W@std@@V?$K2StringAllocator@_W@@@std@@000000000@Z 19066be8     k2_debug:k2_debug.dll
 0005:00000bec       __imp_?TSNULL@@3V?$basic_string@_WU?$char_traits@_W@std@@V?$K2StringAllocator@_W@@@std@@B 19066bec     k2_debug:k2_debug.dll
 0005:00000bf0       __imp_??A?$CVec3@M@@QBEABMH@Z 19066bf0     k2_debug:k2_debug.dll
 0005:00000bf4       __imp_?Clear@?$CVec3@M@@QAEAAV1@XZ 19066bf4     k2_debug:k2_debug.dll
 0005:00000bf8       __imp_?g_ResourceManager@@3AAVCResourceManager@@A 19066bf8     k2_debug:k2_debug.dll
 0005:00000bfc       __imp_?GetModelBounds@CResourceManager@@QAEABV?$CBoundingBox@M@@I@Z 19066bfc     k2_debug:k2_debug.dll
 0005:00000c00       __imp_?GetMax@?$CBoundingBox@M@@QBEABV?$CVec3@M@@XZ 19066c00     k2_debug:k2_debug.dll
 0005:00000c04       __imp_??0?$CVec3@M@@QAE@MMM@Z 19066c04     k2_debug:k2_debug.dll
 0005:00000c08       __imp_?GetMin@?$CBoundingBox@M@@QBEABV?$CVec3@M@@XZ 19066c08     k2_debug:k2_debug.dll
 0005:00000c0c       __imp_??H?$CVec3@M@@QBE?AV0@ABV0@@Z 19066c0c     k2_debug:k2_debug.dll
 0005:00000c10       __imp_??D?$CVec3@M@@QBE?AV0@M@Z 19066c10     k2_debug:k2_debug.dll
 0005:00000c14       __imp_?GetDim@?$CBoundingBox@M@@QBEMW4EVectorComponent@@@Z 19066c14     k2_debug:k2_debug.dll
 0005:00000c18       __imp_??1?$CBoundingBox@M@@QAE@XZ 19066c18     k2_debug:k2_debug.dll
 0005:00000c1c       __imp_?SetVec3@ICvar@@SAXABV?$basic_string@_WU?$char_traits@_W@std@@V?$K2StringAllocator@_W@@@std@@MMM@Z 19066c1c     k2_debug:k2_debug.dll
 0005:00000c20       __imp_??0?$CVec4@M@@QAE@MMMM@Z 19066c20     k2_debug:k2_debug.dll
 0005:00000c24       __imp_?m_cMicroHeapManager@CMemManager@@0PAVHeapManager@MICRO_ALLOCATOR@@A 19066c24     k2_debug:k2_debug.dll
 0005:00000c28       __imp_?heap_malloc@MICRO_ALLOCATOR@@YAPAXPAVHeapManager@1@I@Z 19066c28     k2_debug:k2_debug.dll
 0005:00000c2c       __imp_?Deallocate@CMemManager@@SAXPAXPBDW4MemoryType@@1F@Z 19066c2c     k2_debug:k2_debug.dll
 0005:00000c30       __imp_?s_bReleased@CMemManager@@0_NA 19066c30     k2_debug:k2_debug.dll
 0005:00000c34       __imp_?s_pInstance@CMemManager@@0PAV1@A 19066c34     k2_debug:k2_debug.dll
 0005:00000c38       __imp_?s_bRequested@CMemManager@@0_NA 19066c38     k2_debug:k2_debug.dll
 0005:00000c3c       __imp_?ReadBits@CBufferBit@@QBEII@Z 19066c3c     k2_debug:k2_debug.dll
 0005:00000c40       __imp_?Init@CMemManager@@AAEXXZ 19066c40     k2_debug:k2_debug.dll
 0005:00000c44       \177k2_debug_NULL_THUNK_DATA 19066c44     k2_debug:k2_debug.dll

 entry point at        0002:00000ca8

