; Listing generated by Microsoft (R) Optimizing Compiler Version 14.00.50727.762 

	TITLE	c:\code\hon\src\shell\main_win32.cpp
	.686P
	.XMM
	include listing.inc
	.model	flat

INCLUDELIB MSVCRTD
INCLUDELIB OLDNAMES

PUBLIC	?g_hInstance@@3PAUHINSTANCE__@@A		; g_hInstance
PUBLIC	?hConWindow@@3PAUHWND__@@A			; hConWindow
_BSS	SEGMENT
?g_hInstance@@3PAUHINSTANCE__@@A DD 01H DUP (?)		; g_hInstance
?hConWindow@@3PAUHWND__@@A DD 01H DUP (?)		; hConWindow
_BSS	ENDS
PUBLIC	??_C@_1BK@NKLNEEAL@?$AAW?$AAM?$AA_?$AAS?$AAY?$AAS?$AAC?$AAH?$AAA?$AAR?$AA?3?$AA?5?$AA?$AA@ ; `string'
PUBLIC	??_C@_1O@EGFLIGMM@?$AAC?$AAH?$AAA?$AAR?$AA?3?$AA?5?$AA?$AA@ ; `string'
PUBLIC	??_C@_13MCLHKIEA@?$AA?$FL?$AA?$AA@		; `string'
PUBLIC	??_C@_13OHNMPHJM@?$AA?$FN?$AA?$AA@		; `string'
PUBLIC	??6CConsoleStream@@QAEAAV0@D@Z			; CConsoleStream::operator<<
PUBLIC	??6CConsoleStream@@QAEAAV0@PBD@Z		; CConsoleStream::operator<<
PUBLIC	??_C@_1BA@MOBKFND@?$AAK?$AAE?$AAY?$AAU?$AAP?$AA?3?$AA?5?$AA?$AA@ ; `string'
PUBLIC	?XtoW@@YA?AV?$basic_string@_WU?$char_traits@_W@std@@V?$K2StringAllocator@_W@@@std@@IHHH@Z ; XtoW
PUBLIC	??_C@_01CLKCMJKC@?5?$AA@			; `string'
PUBLIC	??6CConsoleStream@@QAEAAV0@_W@Z			; CConsoleStream::operator<<
PUBLIC	??_C@_1BE@MEBLBOFB@?$AAK?$AAE?$AAY?$AAD?$AAO?$AAW?$AAN?$AA?3?$AA?5?$AA?$AA@ ; `string'
PUBLIC	??1?$CRect@H@@QAE@XZ				; CRect<int>::~CRect<int>
PUBLIC	??6CConsoleStream@@QAEAAV0@ABV?$CVec2@M@@@Z	; CConsoleStream::operator<<
PUBLIC	??_C@_1CA@NNBPKMNG@?$AAW?$AAM?$AA_?$AAM?$AAO?$AAU?$AAS?$AAE?$AAW?$AAH?$AAE?$AAE?$AAL?$AA?3?$AA?5?$AA?$AA@ ; `string'
PUBLIC	??_C@_1BE@OCDJJFJA@?$AAX?$AAB?$AAU?$AAT?$AAT?$AAO?$AAN?$AA?3?$AA?5?$AA?$AA@ ; `string'
PUBLIC	??_C@_1BE@CJHFOOKK@?$AAM?$AAB?$AAU?$AAT?$AAT?$AAO?$AAN?$AA?3?$AA?5?$AA?$AA@ ; `string'
PUBLIC	??_C@_1BE@LFCMDFKO@?$AAR?$AAB?$AAU?$AAT?$AAT?$AAO?$AAN?$AA?3?$AA?5?$AA?$AA@ ; `string'
PUBLIC	??1?$basic_string@DU?$char_traits@D@std@@V?$K2StringAllocator@D@@@std@@QAE@XZ ; std::basic_string<char,std::char_traits<char>,K2StringAllocator<char> >::~basic_string<char,std::char_traits<char>,K2StringAllocator<char> >
PUBLIC	??6CConsoleStream@@QAEAAV0@ABV?$basic_string@_WU?$char_traits@_W@std@@V?$K2StringAllocator@_W@@@std@@@Z ; CConsoleStream::operator<<
PUBLIC	??6CConsoleStream@@QAEAAV0@H@Z			; CConsoleStream::operator<<
PUBLIC	??6CConsoleStream@@QAEAAV0@I@Z			; CConsoleStream::operator<<
PUBLIC	??6CConsoleStream@@QAEAAV0@PB_W@Z		; CConsoleStream::operator<<
PUBLIC	??6CConsoleStream@@QAEAAV0@ABV?$basic_string@DU?$char_traits@D@std@@V?$K2StringAllocator@D@@@std@@@Z ; CConsoleStream::operator<<
PUBLIC	??6CConsole@@QAEAAVCConsoleStream@@PB_W@Z	; CConsole::operator<<
PUBLIC	??_C@_1BE@EMBCNFOM@?$AAL?$AAB?$AAU?$AAT?$AAT?$AAO?$AAN?$AA?3?$AA?5?$AA?$AA@ ; `string'
PUBLIC	?XtoS@@YA?AV?$basic_string@DU?$char_traits@D@std@@V?$K2StringAllocator@D@@@std@@IHHH@Z ; XtoS
PUBLIC	??_C@_13HOIJIPNN@?$AA?5?$AA?$AA@		; `string'
PUBLIC	??_C@_15CMBHNMLL@?$AA?5?$AA?$CI?$AA?$AA@	; `string'
PUBLIC	??_C@_13DEFPDAGF@?$AA?0?$AA?$AA@		; `string'
PUBLIC	??_C@_13DIBMAFH@?$AA?$CJ?$AA?$AA@		; `string'
PUBLIC	?GetNewl@CConsole@@QBEABV?$basic_string@_WU?$char_traits@_W@std@@V?$K2StringAllocator@_W@@@std@@XZ ; CConsole::GetNewl
PUBLIC	??B?$CCvar@_N_N@@QBE_NXZ			; CCvar<bool,bool>::operator bool
PUBLIC	??_C@_19CKOIIPIC@?$AAq?$AAu?$AAi?$AAt?$AA?$AA@	; `string'
PUBLIC	??1?$vector@V?$basic_string@_WU?$char_traits@_W@std@@V?$K2StringAllocator@_W@@@std@@V?$K2VectorAllocator@V?$basic_string@_WU?$char_traits@_W@std@@V?$K2StringAllocator@_W@@@std@@@@@@QAE@XZ ; vector<std::basic_string<wchar_t,std::char_traits<wchar_t>,K2StringAllocator<wchar_t> >,K2VectorAllocator<std::basic_string<wchar_t,std::char_traits<wchar_t>,K2StringAllocator<wchar_t> > > >::~vector<std::basic_string<wchar_t,std::char_traits<wchar_t>,K2StringAllocator<wchar_t> >,K2VectorAllocator<std::basic_string<wchar_t,std::char_traits<wchar_t>,K2StringAllocator<wchar_t> > > >
PUBLIC	??1?$basic_string@_WU?$char_traits@_W@std@@V?$K2StringAllocator@_W@@@std@@QAE@XZ ; std::basic_string<wchar_t,std::char_traits<wchar_t>,K2StringAllocator<wchar_t> >::~basic_string<wchar_t,std::char_traits<wchar_t>,K2StringAllocator<wchar_t> >
PUBLIC	?push_back@?$vector@V?$basic_string@_WU?$char_traits@_W@std@@V?$K2StringAllocator@_W@@@std@@V?$K2VectorAllocator@V?$basic_string@_WU?$char_traits@_W@std@@V?$K2StringAllocator@_W@@@std@@@@@std@@QAEXABV?$basic_string@_WU?$char_traits@_W@std@@V?$K2StringAllocator@_W@@@2@@Z ; std::vector<std::basic_string<wchar_t,std::char_traits<wchar_t>,K2StringAllocator<wchar_t> >,K2VectorAllocator<std::basic_string<wchar_t,std::char_traits<wchar_t>,K2StringAllocator<wchar_t> > > >::push_back
PUBLIC	??0?$basic_string@_WU?$char_traits@_W@std@@V?$K2StringAllocator@_W@@@std@@QAE@PB_W@Z ; std::basic_string<wchar_t,std::char_traits<wchar_t>,K2StringAllocator<wchar_t> >::basic_string<wchar_t,std::char_traits<wchar_t>,K2StringAllocator<wchar_t> >
PUBLIC	??0?$vector@V?$basic_string@_WU?$char_traits@_W@std@@V?$K2StringAllocator@_W@@@std@@V?$K2VectorAllocator@V?$basic_string@_WU?$char_traits@_W@std@@V?$K2StringAllocator@_W@@@std@@@@@@QAE@XZ ; vector<std::basic_string<wchar_t,std::char_traits<wchar_t>,K2StringAllocator<wchar_t> >,K2VectorAllocator<std::basic_string<wchar_t,std::char_traits<wchar_t>,K2StringAllocator<wchar_t> > > >::vector<std::basic_string<wchar_t,std::char_traits<wchar_t>,K2StringAllocator<wchar_t> >,K2VectorAllocator<std::basic_string<wchar_t,std::char_traits<wchar_t>,K2StringAllocator<wchar_t> > > >
PUBLIC	?System_MainWndProc@@YGJPAUHWND__@@IIJ@Z	; System_MainWndProc
EXTRN	__imp_?ShowCursor@CVid@@QAEX_N@Z:PROC
EXTRN	__imp_?AddEvent@CInput@@QAEX_W@Z:PROC
EXTRN	__imp_?GetButton@CSystem@@QAE?AW4EButton@@II@Z:PROC
EXTRN	__imp_?GetCursorPos@CInput@@QAE?AV?$CVec2@M@@XZ:PROC
EXTRN	__imp_?GetWindowArea@CSystem@@QAE?AV?$CRect@H@@XZ:PROC
EXTRN	__imp_?AddEvent@CInput@@QAEXW4EButton@@_NABV?$CVec2@M@@@Z:PROC
EXTRN	__imp_??0?$CVec2@M@@QAE@MM@Z:PROC
EXTRN	__imp_?Milliseconds@CSystem@@QAEIXZ:PROC
EXTRN	__imp_?Execute@CConsole@@QAEXABV?$basic_string@_WU?$char_traits@_W@std@@V?$K2StringAllocator@_W@@@std@@@Z:PROC
EXTRN	__imp_?g_pConsole@@3PAVCConsole@@A:DWORD
EXTRN	__imp_?FileDropNotify@CHost@@QAEXABV?$vector@V?$basic_string@_WU?$char_traits@_W@std@@V?$K2StringAllocator@_W@@@std@@V?$K2VectorAllocator@V?$basic_string@_WU?$char_traits@_W@std@@V?$K2StringAllocator@_W@@@std@@@@@@@Z:PROC
EXTRN	__imp_?g_pHost@@3PAVCHost@@A:DWORD
EXTRN	__imp__DragFinish@4:PROC
EXTRN	??_V@YAXPAX@Z:PROC				; operator delete[]
EXTRN	??_U@YAPAXI@Z:PROC				; operator new[]
EXTRN	__imp__DragQueryFileW@16:PROC
EXTRN	__imp__EndPaint@8:PROC
EXTRN	__imp__BeginPaint@8:PROC
EXTRN	__imp__DefWindowProcW@16:PROC
EXTRN	__imp_?UnsetMouseClipping@CSystem@@QAEXXZ:PROC
EXTRN	__imp_?SetCursor@CVid@@QAEXI@Z:PROC
EXTRN	__imp_?pVid@@3PAVCVid@@A:DWORD
EXTRN	__imp_?GetCursor@CInput@@QAEIXZ:PROC
EXTRN	__imp_?g_pInput@@3PAVCInput@@A:DWORD
EXTRN	__imp_?SetupKeystates@CSystem@@QAEXXZ:PROC
EXTRN	__imp_?SetFocus@CSystem@@QAEX_N@Z:PROC
EXTRN	__imp_?K2System@@3AAVCSystem@@A:DWORD
EXTRN	___security_cookie:DWORD
EXTRN	___CxxFrameHandler3:PROC
EXTRN	@__security_check_cookie@4:PROC
EXTRN	__fltused:DWORD
_BSS	SEGMENT
?ps@?1??System_MainWndProc@@YGJPAUHWND__@@IIJ@Z@4UtagPAINTSTRUCT@@A DB 040H DUP (?) ; `System_MainWndProc'::`2'::ps
_BSS	ENDS
;	COMDAT ??_C@_1BK@NKLNEEAL@?$AAW?$AAM?$AA_?$AAS?$AAY?$AAS?$AAC?$AAH?$AAA?$AAR?$AA?3?$AA?5?$AA?$AA@
; File c:\code\hon\src\shell\main_win32.cpp
CONST	SEGMENT
??_C@_1BK@NKLNEEAL@?$AAW?$AAM?$AA_?$AAS?$AAY?$AAS?$AAC?$AAH?$AAA?$AAR?$AA?3?$AA?5?$AA?$AA@ DB 'W'
	DB	00H, 'M', 00H, '_', 00H, 'S', 00H, 'Y', 00H, 'S', 00H, 'C', 00H
	DB	'H', 00H, 'A', 00H, 'R', 00H, ':', 00H, ' ', 00H, 00H, 00H ; `string'
CONST	ENDS
;	COMDAT ??_C@_1O@EGFLIGMM@?$AAC?$AAH?$AAA?$AAR?$AA?3?$AA?5?$AA?$AA@
CONST	SEGMENT
??_C@_1O@EGFLIGMM@?$AAC?$AAH?$AAA?$AAR?$AA?3?$AA?5?$AA?$AA@ DB 'C', 00H, 'H'
	DB	00H, 'A', 00H, 'R', 00H, ':', 00H, ' ', 00H, 00H, 00H ; `string'
CONST	ENDS
;	COMDAT ??_C@_13MCLHKIEA@?$AA?$FL?$AA?$AA@
CONST	SEGMENT
??_C@_13MCLHKIEA@?$AA?$FL?$AA?$AA@ DB '[', 00H, 00H, 00H ; `string'
CONST	ENDS
;	COMDAT ??_C@_13OHNMPHJM@?$AA?$FN?$AA?$AA@
CONST	SEGMENT
??_C@_13OHNMPHJM@?$AA?$FN?$AA?$AA@ DB ']', 00H, 00H, 00H ; `string'
CONST	ENDS
;	COMDAT ??_C@_1BA@MOBKFND@?$AAK?$AAE?$AAY?$AAU?$AAP?$AA?3?$AA?5?$AA?$AA@
CONST	SEGMENT
??_C@_1BA@MOBKFND@?$AAK?$AAE?$AAY?$AAU?$AAP?$AA?3?$AA?5?$AA?$AA@ DB 'K', 00H
	DB	'E', 00H, 'Y', 00H, 'U', 00H, 'P', 00H, ':', 00H, ' ', 00H, 00H
	DB	00H						; `string'
CONST	ENDS
;	COMDAT ??_C@_01CLKCMJKC@?5?$AA@
CONST	SEGMENT
??_C@_01CLKCMJKC@?5?$AA@ DB ' ', 00H			; `string'
CONST	ENDS
;	COMDAT ??_C@_1BE@MEBLBOFB@?$AAK?$AAE?$AAY?$AAD?$AAO?$AAW?$AAN?$AA?3?$AA?5?$AA?$AA@
CONST	SEGMENT
??_C@_1BE@MEBLBOFB@?$AAK?$AAE?$AAY?$AAD?$AAO?$AAW?$AAN?$AA?3?$AA?5?$AA?$AA@ DB 'K'
	DB	00H, 'E', 00H, 'Y', 00H, 'D', 00H, 'O', 00H, 'W', 00H, 'N', 00H
	DB	':', 00H, ' ', 00H, 00H, 00H			; `string'
CONST	ENDS
;	COMDAT ??_C@_1CA@NNBPKMNG@?$AAW?$AAM?$AA_?$AAM?$AAO?$AAU?$AAS?$AAE?$AAW?$AAH?$AAE?$AAE?$AAL?$AA?3?$AA?5?$AA?$AA@
CONST	SEGMENT
??_C@_1CA@NNBPKMNG@?$AAW?$AAM?$AA_?$AAM?$AAO?$AAU?$AAS?$AAE?$AAW?$AAH?$AAE?$AAE?$AAL?$AA?3?$AA?5?$AA?$AA@ DB 'W'
	DB	00H, 'M', 00H, '_', 00H, 'M', 00H, 'O', 00H, 'U', 00H, 'S', 00H
	DB	'E', 00H, 'W', 00H, 'H', 00H, 'E', 00H, 'E', 00H, 'L', 00H, ':'
	DB	00H, ' ', 00H, 00H, 00H			; `string'
CONST	ENDS
;	COMDAT ??_C@_1BE@OCDJJFJA@?$AAX?$AAB?$AAU?$AAT?$AAT?$AAO?$AAN?$AA?3?$AA?5?$AA?$AA@
CONST	SEGMENT
??_C@_1BE@OCDJJFJA@?$AAX?$AAB?$AAU?$AAT?$AAT?$AAO?$AAN?$AA?3?$AA?5?$AA?$AA@ DB 'X'
	DB	00H, 'B', 00H, 'U', 00H, 'T', 00H, 'T', 00H, 'O', 00H, 'N', 00H
	DB	':', 00H, ' ', 00H, 00H, 00H			; `string'
CONST	ENDS
;	COMDAT ??_C@_1BE@CJHFOOKK@?$AAM?$AAB?$AAU?$AAT?$AAT?$AAO?$AAN?$AA?3?$AA?5?$AA?$AA@
CONST	SEGMENT
??_C@_1BE@CJHFOOKK@?$AAM?$AAB?$AAU?$AAT?$AAT?$AAO?$AAN?$AA?3?$AA?5?$AA?$AA@ DB 'M'
	DB	00H, 'B', 00H, 'U', 00H, 'T', 00H, 'T', 00H, 'O', 00H, 'N', 00H
	DB	':', 00H, ' ', 00H, 00H, 00H			; `string'
CONST	ENDS
;	COMDAT ??_C@_1BE@LFCMDFKO@?$AAR?$AAB?$AAU?$AAT?$AAT?$AAO?$AAN?$AA?3?$AA?5?$AA?$AA@
CONST	SEGMENT
??_C@_1BE@LFCMDFKO@?$AAR?$AAB?$AAU?$AAT?$AAT?$AAO?$AAN?$AA?3?$AA?5?$AA?$AA@ DB 'R'
	DB	00H, 'B', 00H, 'U', 00H, 'T', 00H, 'T', 00H, 'O', 00H, 'N', 00H
	DB	':', 00H, ' ', 00H, 00H, 00H			; `string'
CONST	ENDS
;	COMDAT ??_C@_1BE@EMBCNFOM@?$AAL?$AAB?$AAU?$AAT?$AAT?$AAO?$AAN?$AA?3?$AA?5?$AA?$AA@
CONST	SEGMENT
??_C@_1BE@EMBCNFOM@?$AAL?$AAB?$AAU?$AAT?$AAT?$AAO?$AAN?$AA?3?$AA?5?$AA?$AA@ DB 'L'
	DB	00H, 'B', 00H, 'U', 00H, 'T', 00H, 'T', 00H, 'O', 00H, 'N', 00H
	DB	':', 00H, ' ', 00H, 00H, 00H			; `string'
CONST	ENDS
;	COMDAT ??_C@_13HOIJIPNN@?$AA?5?$AA?$AA@
CONST	SEGMENT
??_C@_13HOIJIPNN@?$AA?5?$AA?$AA@ DB ' ', 00H, 00H, 00H	; `string'
CONST	ENDS
;	COMDAT ??_C@_15CMBHNMLL@?$AA?5?$AA?$CI?$AA?$AA@
CONST	SEGMENT
??_C@_15CMBHNMLL@?$AA?5?$AA?$CI?$AA?$AA@ DB ' ', 00H, '(', 00H, 00H, 00H ; `string'
CONST	ENDS
;	COMDAT ??_C@_13DEFPDAGF@?$AA?0?$AA?$AA@
CONST	SEGMENT
??_C@_13DEFPDAGF@?$AA?0?$AA?$AA@ DB ',', 00H, 00H, 00H	; `string'
CONST	ENDS
;	COMDAT ??_C@_13DIBMAFH@?$AA?$CJ?$AA?$AA@
CONST	SEGMENT
??_C@_13DIBMAFH@?$AA?$CJ?$AA?$AA@ DB ')', 00H, 00H, 00H	; `string'
CONST	ENDS
;	COMDAT ??_C@_19CKOIIPIC@?$AAq?$AAu?$AAi?$AAt?$AA?$AA@
CONST	SEGMENT
??_C@_19CKOIIPIC@?$AAq?$AAu?$AAi?$AAt?$AA?$AA@ DB 'q', 00H, 'u', 00H, 'i', 00H
	DB	't', 00H, 00H, 00H				; `string'
CONST	ENDS
;	COMDAT xdata$x
xdata$x	SEGMENT
__ehfuncinfo$?System_MainWndProc@@YGJPAUHWND__@@IIJ@Z DD 019930522H
	DD	010H
	DD	FLAT:__unwindtable$?System_MainWndProc@@YGJPAUHWND__@@IIJ@Z
	DD	2 DUP(00H)
	DD	2 DUP(00H)
	DD	00H
	DD	01H
__unwindtable$?System_MainWndProc@@YGJPAUHWND__@@IIJ@Z DD 0ffffffffH
	DD	FLAT:__unwindfunclet$?System_MainWndProc@@YGJPAUHWND__@@IIJ@Z$0
	DD	00H
	DD	FLAT:__unwindfunclet$?System_MainWndProc@@YGJPAUHWND__@@IIJ@Z$1
	DD	0ffffffffH
	DD	FLAT:__unwindfunclet$?System_MainWndProc@@YGJPAUHWND__@@IIJ@Z$2
	DD	0ffffffffH
	DD	FLAT:__unwindfunclet$?System_MainWndProc@@YGJPAUHWND__@@IIJ@Z$3
	DD	03H
	DD	FLAT:__unwindfunclet$?System_MainWndProc@@YGJPAUHWND__@@IIJ@Z$4
	DD	0ffffffffH
	DD	FLAT:__unwindfunclet$?System_MainWndProc@@YGJPAUHWND__@@IIJ@Z$5
	DD	05H
	DD	FLAT:__unwindfunclet$?System_MainWndProc@@YGJPAUHWND__@@IIJ@Z$6
	DD	0ffffffffH
	DD	FLAT:__unwindfunclet$?System_MainWndProc@@YGJPAUHWND__@@IIJ@Z$7
	DD	07H
	DD	FLAT:__unwindfunclet$?System_MainWndProc@@YGJPAUHWND__@@IIJ@Z$8
	DD	0ffffffffH
	DD	FLAT:__unwindfunclet$?System_MainWndProc@@YGJPAUHWND__@@IIJ@Z$9
	DD	09H
	DD	FLAT:__unwindfunclet$?System_MainWndProc@@YGJPAUHWND__@@IIJ@Z$10
	DD	0ffffffffH
	DD	FLAT:__unwindfunclet$?System_MainWndProc@@YGJPAUHWND__@@IIJ@Z$11
	DD	0ffffffffH
	DD	FLAT:__unwindfunclet$?System_MainWndProc@@YGJPAUHWND__@@IIJ@Z$12
	DD	0ffffffffH
	DD	FLAT:__unwindfunclet$?System_MainWndProc@@YGJPAUHWND__@@IIJ@Z$13
	DD	0ffffffffH
	DD	FLAT:__unwindfunclet$?System_MainWndProc@@YGJPAUHWND__@@IIJ@Z$14
	DD	0ffffffffH
	DD	FLAT:__unwindfunclet$?System_MainWndProc@@YGJPAUHWND__@@IIJ@Z$15
; Function compile flags: /Odtp /ZI
xdata$x	ENDS
;	COMDAT ?System_MainWndProc@@YGJPAUHWND__@@IIJ@Z
_TEXT	SEGMENT
tv765 = -688						; size = 4
tv761 = -688						; size = 4
tv757 = -688						; size = 4
tv753 = -688						; size = 4
tv779 = -684						; size = 4
tv777 = -684						; size = 4
tv775 = -684						; size = 4
tv150 = -684						; size = 4
tv774 = -680						; size = 4
tv772 = -680						; size = 4
tv770 = -680						; size = 4
tv768 = -680						; size = 4
tv763 = -680						; size = 4
tv759 = -680						; size = 4
tv755 = -680						; size = 4
tv751 = -680						; size = 4
tv782 = -676						; size = 4
tv781 = -676						; size = 4
tv780 = -676						; size = 4
tv778 = -676						; size = 4
tv776 = -676						; size = 4
tv466 = -676						; size = 4
tv160 = -676						; size = 4
tv95 = -676						; size = 4
tv64 = -676						; size = 4
$T121576 = -672						; size = 4
$T121577 = -668						; size = 32
$T121578 = -636						; size = 4
$T121579 = -632						; size = 32
$T121580 = -600						; size = 32
$T121581 = -568						; size = 32
$T121582 = -536						; size = 8
$T121583 = -528						; size = 32
$T121584 = -496						; size = 32
$T121585 = -464						; size = 8
$T121586 = -456						; size = 32
$T121587 = -424						; size = 32
$T121588 = -392						; size = 8
$T121589 = -384						; size = 32
$T121590 = -352						; size = 32
$T121591 = -320						; size = 8
$T121592 = -312						; size = 8
$T121593 = -304						; size = 32
$T121594 = -272						; size = 8
$T121595 = -264						; size = 32
$T121596 = -232						; size = 8
$T121597 = -224						; size = 32
$T121598 = -192						; size = 32
_i$114947 = -96						; size = 4
_i$114930 = -92						; size = 4
_i$114921 = -88						; size = 4
_i$114915 = -84						; size = 4
_v2Pos$114911 = -80					; size = 8
_recWindow$114902 = -72					; size = 16
_iValue$114900 = -56					; size = 4
_uiLen$114827 = -52					; size = 4
_szFile$114826 = -48					; size = 4
_i$114822 = -44						; size = 4
_vsFiles$114821 = -40					; size = 20
_iCount$114820 = -20					; size = 4
_hDrop$114819 = -16					; size = 4
__$EHRec$ = -12						; size = 12
_hWnd$ = 8						; size = 4
_uMsg$ = 12						; size = 4
_wParam$ = 16						; size = 4
_lParam$ = 20						; size = 4
?System_MainWndProc@@YGJPAUHWND__@@IIJ@Z PROC		; System_MainWndProc, COMDAT

; 49   : {

	push	ebp
	mov	ebp, esp
	push	-1
	push	__ehhandler$?System_MainWndProc@@YGJPAUHWND__@@IIJ@Z
	mov	eax, DWORD PTR fs:0
	push	eax
	sub	esp, 676				; 000002a4H
	push	ebx
	push	esi
	push	edi
	mov	eax, DWORD PTR ___security_cookie
	xor	eax, ebp
	push	eax
	lea	eax, DWORD PTR __$EHRec$[ebp]
	mov	DWORD PTR fs:0, eax

; 50   : 	static PAINTSTRUCT ps;
; 51   : 
; 52   : 	switch (uMsg)

	mov	eax, DWORD PTR _uMsg$[ebp]
	mov	DWORD PTR tv64[ebp], eax
	cmp	DWORD PTR tv64[ebp], 256		; 00000100H
	ja	SHORT $LN53@System_Mai
	cmp	DWORD PTR tv64[ebp], 256		; 00000100H
	je	$LN17@System_Mai
	mov	ecx, DWORD PTR tv64[ebp]
	sub	ecx, 1
	mov	DWORD PTR tv64[ebp], ecx
	cmp	DWORD PTR tv64[ebp], 31			; 0000001fH
	ja	$LN1@System_Mai
	mov	edx, DWORD PTR tv64[ebp]
	movzx	eax, BYTE PTR $LN72@System_Mai[edx]
	jmp	DWORD PTR $LN74@System_Mai[eax*4]
$LN53@System_Mai:
	cmp	DWORD PTR tv64[ebp], 514		; 00000202H
	ja	SHORT $LN54@System_Mai
	cmp	DWORD PTR tv64[ebp], 513		; 00000201H
	jae	$LN38@System_Mai
	mov	ecx, DWORD PTR tv64[ebp]
	sub	ecx, 257				; 00000101H
	mov	DWORD PTR tv64[ebp], ecx
	cmp	DWORD PTR tv64[ebp], 5
	ja	$LN1@System_Mai
	mov	edx, DWORD PTR tv64[ebp]
	jmp	DWORD PTR $LN75@System_Mai[edx*4]
$LN54@System_Mai:
	cmp	DWORD PTR tv64[ebp], 524		; 0000020cH
	ja	SHORT $LN55@System_Mai
	cmp	DWORD PTR tv64[ebp], 523		; 0000020bH
	jae	$LN32@System_Mai
	mov	eax, DWORD PTR tv64[ebp]
	sub	eax, 516				; 00000204H
	mov	DWORD PTR tv64[ebp], eax
	cmp	DWORD PTR tv64[ebp], 6
	ja	$LN1@System_Mai
	mov	ecx, DWORD PTR tv64[ebp]
	jmp	DWORD PTR $LN76@System_Mai[ecx*4]
$LN55@System_Mai:
	cmp	DWORD PTR tv64[ebp], 563		; 00000233H
	je	$LN43@System_Mai
	cmp	DWORD PTR tv64[ebp], 786		; 00000312H
	je	$LN3@System_Mai
	jmp	$LN1@System_Mai
$LN48@System_Mai:

; 53   : 	{
; 54   : 		case WM_ACTIVATE:
; 55   : 			if (LOWORD(wParam))

	mov	eax, DWORD PTR _wParam$[ebp]
	and	eax, 65535				; 0000ffffH
	movzx	ecx, ax
	test	ecx, ecx
	je	SHORT $LN47@System_Mai

; 56   : 			{
; 57   : 				K2System.SetFocus(true);

	push	1
	mov	eax, DWORD PTR __imp_?K2System@@3AAVCSystem@@A
	mov	ecx, DWORD PTR [eax]
	call	DWORD PTR __imp_?SetFocus@CSystem@@QAEX_N@Z

; 58   : 				K2System.SetupKeystates();

	mov	eax, DWORD PTR __imp_?K2System@@3AAVCSystem@@A
	mov	ecx, DWORD PTR [eax]
	call	DWORD PTR __imp_?SetupKeystates@CSystem@@QAEXXZ

; 59   : 				Vid.SetCursor(Input.GetCursor());

	mov	eax, DWORD PTR __imp_?g_pInput@@3PAVCInput@@A
	mov	ecx, DWORD PTR [eax]
	call	DWORD PTR __imp_?GetCursor@CInput@@QAEIXZ
	push	eax
	mov	ecx, DWORD PTR __imp_?pVid@@3PAVCVid@@A
	mov	ecx, DWORD PTR [ecx]
	call	DWORD PTR __imp_?SetCursor@CVid@@QAEXI@Z

; 60   : 			}
; 61   : 			else

	jmp	SHORT $LN46@System_Mai
$LN47@System_Mai:

; 62   : 			{
; 63   : 				K2System.SetFocus(false);

	push	0
	mov	eax, DWORD PTR __imp_?K2System@@3AAVCSystem@@A
	mov	ecx, DWORD PTR [eax]
	call	DWORD PTR __imp_?SetFocus@CSystem@@QAEX_N@Z

; 64   : 				K2System.SetupKeystates();

	mov	eax, DWORD PTR __imp_?K2System@@3AAVCSystem@@A
	mov	ecx, DWORD PTR [eax]
	call	DWORD PTR __imp_?SetupKeystates@CSystem@@QAEXXZ

; 65   : 				K2System.UnsetMouseClipping();

	mov	eax, DWORD PTR __imp_?K2System@@3AAVCSystem@@A
	mov	ecx, DWORD PTR [eax]
	call	DWORD PTR __imp_?UnsetMouseClipping@CSystem@@QAEXXZ
$LN46@System_Mai:

; 66   : 			}
; 67   : 			return DefWindowProc(hWnd, uMsg, wParam, lParam);

	mov	eax, DWORD PTR _lParam$[ebp]
	push	eax
	mov	ecx, DWORD PTR _wParam$[ebp]
	push	ecx
	mov	edx, DWORD PTR _uMsg$[ebp]
	push	edx
	mov	eax, DWORD PTR _hWnd$[ebp]
	push	eax
	call	DWORD PTR __imp__DefWindowProcW@16
	jmp	$LN49@System_Mai
$LN45@System_Mai:

; 68   : 
; 69   : 		case WM_CREATE:
; 70   : 			return 0;

	xor	eax, eax
	jmp	$LN49@System_Mai
$LN44@System_Mai:

; 71   : 
; 72   : 		case WM_PAINT:
; 73   : 			BeginPaint(hWnd, &ps);

	push	OFFSET ?ps@?1??System_MainWndProc@@YGJPAUHWND__@@IIJ@Z@4UtagPAINTSTRUCT@@A
	mov	eax, DWORD PTR _hWnd$[ebp]
	push	eax
	call	DWORD PTR __imp__BeginPaint@8

; 74   : 			EndPaint(hWnd, &ps);

	push	OFFSET ?ps@?1??System_MainWndProc@@YGJPAUHWND__@@IIJ@Z@4UtagPAINTSTRUCT@@A
	mov	eax, DWORD PTR _hWnd$[ebp]
	push	eax
	call	DWORD PTR __imp__EndPaint@8

; 75   : 			return 0;

	xor	eax, eax
	jmp	$LN49@System_Mai
$LN43@System_Mai:

; 76   : 
; 77   : 		case WM_DROPFILES:
; 78   : 			{
; 79   : 				HDROP	hDrop = HDROP(wParam);

	mov	eax, DWORD PTR _wParam$[ebp]
	mov	DWORD PTR _hDrop$114819[ebp], eax

; 80   : 				int iCount(DragQueryFile(hDrop, 0xFFFFFFFF, 0, 0));

	push	0
	push	0
	push	-1
	mov	eax, DWORD PTR _hDrop$114819[ebp]
	push	eax
	call	DWORD PTR __imp__DragQueryFileW@16
	mov	DWORD PTR _iCount$114820[ebp], eax

; 81   : 				tsvector vsFiles;

	lea	ecx, DWORD PTR _vsFiles$114821[ebp]
	call	??0?$vector@V?$basic_string@_WU?$char_traits@_W@std@@V?$K2StringAllocator@_W@@@std@@V?$K2VectorAllocator@V?$basic_string@_WU?$char_traits@_W@std@@V?$K2StringAllocator@_W@@@std@@@@@@QAE@XZ ; vector<std::basic_string<wchar_t,std::char_traits<wchar_t>,K2StringAllocator<wchar_t> >,K2VectorAllocator<std::basic_string<wchar_t,std::char_traits<wchar_t>,K2StringAllocator<wchar_t> > > >::vector<std::basic_string<wchar_t,std::char_traits<wchar_t>,K2StringAllocator<wchar_t> >,K2VectorAllocator<std::basic_string<wchar_t,std::char_traits<wchar_t>,K2StringAllocator<wchar_t> > > >
	mov	DWORD PTR __$EHRec$[ebp+8], 0

; 82   : 				for (int i(0); i < iCount; ++i)

	mov	DWORD PTR _i$114822[ebp], 0
	jmp	SHORT $LN42@System_Mai
$LN41@System_Mai:
	mov	eax, DWORD PTR _i$114822[ebp]
	add	eax, 1
	mov	DWORD PTR _i$114822[ebp], eax
$LN42@System_Mai:
	mov	eax, DWORD PTR _i$114822[ebp]
	cmp	eax, DWORD PTR _iCount$114820[ebp]
	jge	$LN40@System_Mai

; 83   : 				{
; 84   : 					TCHAR *szFile(NULL);

	mov	DWORD PTR _szFile$114826[ebp], 0

; 85   : 					uint uiLen(DragQueryFile(hDrop, i, NULL, 0) + 1);

	push	0
	push	0
	mov	eax, DWORD PTR _i$114822[ebp]
	push	eax
	mov	ecx, DWORD PTR _hDrop$114819[ebp]
	push	ecx
	call	DWORD PTR __imp__DragQueryFileW@16
	add	eax, 1
	mov	DWORD PTR _uiLen$114827[ebp], eax

; 86   : 					szFile = new TCHAR[uiLen];

	xor	ecx, ecx
	mov	eax, DWORD PTR _uiLen$114827[ebp]
	mov	edx, 2
	mul	edx
	seto	cl
	neg	ecx
	or	ecx, eax
	push	ecx
	call	??_U@YAPAXI@Z				; operator new[]
	add	esp, 4
	mov	DWORD PTR $T121576[ebp], eax
	mov	eax, DWORD PTR $T121576[ebp]
	mov	DWORD PTR _szFile$114826[ebp], eax

; 87   : 					DragQueryFile(hDrop, i, szFile, uiLen);

	mov	eax, DWORD PTR _uiLen$114827[ebp]
	push	eax
	mov	ecx, DWORD PTR _szFile$114826[ebp]
	push	ecx
	mov	edx, DWORD PTR _i$114822[ebp]
	push	edx
	mov	eax, DWORD PTR _hDrop$114819[ebp]
	push	eax
	call	DWORD PTR __imp__DragQueryFileW@16

; 88   : 					vsFiles.push_back(szFile);

	mov	eax, DWORD PTR _szFile$114826[ebp]
	push	eax
	lea	ecx, DWORD PTR $T121577[ebp]
	call	??0?$basic_string@_WU?$char_traits@_W@std@@V?$K2StringAllocator@_W@@@std@@QAE@PB_W@Z ; std::basic_string<wchar_t,std::char_traits<wchar_t>,K2StringAllocator<wchar_t> >::basic_string<wchar_t,std::char_traits<wchar_t>,K2StringAllocator<wchar_t> >
	mov	BYTE PTR __$EHRec$[ebp+8], 1
	lea	ecx, DWORD PTR $T121577[ebp]
	push	ecx
	lea	ecx, DWORD PTR _vsFiles$114821[ebp]
	call	?push_back@?$vector@V?$basic_string@_WU?$char_traits@_W@std@@V?$K2StringAllocator@_W@@@std@@V?$K2VectorAllocator@V?$basic_string@_WU?$char_traits@_W@std@@V?$K2StringAllocator@_W@@@std@@@@@std@@QAEXABV?$basic_string@_WU?$char_traits@_W@std@@V?$K2StringAllocator@_W@@@2@@Z ; std::vector<std::basic_string<wchar_t,std::char_traits<wchar_t>,K2StringAllocator<wchar_t> >,K2VectorAllocator<std::basic_string<wchar_t,std::char_traits<wchar_t>,K2StringAllocator<wchar_t> > > >::push_back
	mov	BYTE PTR __$EHRec$[ebp+8], 0
	lea	ecx, DWORD PTR $T121577[ebp]
	call	??1?$basic_string@_WU?$char_traits@_W@std@@V?$K2StringAllocator@_W@@@std@@QAE@XZ ; std::basic_string<wchar_t,std::char_traits<wchar_t>,K2StringAllocator<wchar_t> >::~basic_string<wchar_t,std::char_traits<wchar_t>,K2StringAllocator<wchar_t> >

; 89   : 					delete[] szFile;

	mov	eax, DWORD PTR _szFile$114826[ebp]
	mov	DWORD PTR $T121578[ebp], eax
	mov	ecx, DWORD PTR $T121578[ebp]
	push	ecx
	call	??_V@YAXPAX@Z				; operator delete[]
	add	esp, 4

; 90   : 				}

	jmp	$LN41@System_Mai
$LN40@System_Mai:

; 91   : 				DragFinish(hDrop);

	mov	eax, DWORD PTR _hDrop$114819[ebp]
	push	eax
	call	DWORD PTR __imp__DragFinish@4

; 92   : 				Host.FileDropNotify(vsFiles);

	lea	eax, DWORD PTR _vsFiles$114821[ebp]
	push	eax
	mov	ecx, DWORD PTR __imp_?g_pHost@@3PAVCHost@@A
	mov	ecx, DWORD PTR [ecx]
	call	DWORD PTR __imp_?FileDropNotify@CHost@@QAEXABV?$vector@V?$basic_string@_WU?$char_traits@_W@std@@V?$K2StringAllocator@_W@@@std@@V?$K2VectorAllocator@V?$basic_string@_WU?$char_traits@_W@std@@V?$K2StringAllocator@_W@@@std@@@@@@@Z

; 93   : 			}

	mov	DWORD PTR __$EHRec$[ebp+8], -1
	lea	ecx, DWORD PTR _vsFiles$114821[ebp]
	call	??1?$vector@V?$basic_string@_WU?$char_traits@_W@std@@V?$K2StringAllocator@_W@@@std@@V?$K2VectorAllocator@V?$basic_string@_WU?$char_traits@_W@std@@V?$K2StringAllocator@_W@@@std@@@@@@QAE@XZ

; 94   : 			return 0;

	xor	eax, eax
	jmp	$LN49@System_Mai
$LN39@System_Mai:

; 95   : 
; 96   : 		case WM_CLOSE:
; 97   : 			Console.Execute(_T("quit"));

	push	OFFSET ??_C@_19CKOIIPIC@?$AAq?$AAu?$AAi?$AAt?$AA?$AA@
	lea	ecx, DWORD PTR $T121579[ebp]
	call	??0?$basic_string@_WU?$char_traits@_W@std@@V?$K2StringAllocator@_W@@@std@@QAE@PB_W@Z ; std::basic_string<wchar_t,std::char_traits<wchar_t>,K2StringAllocator<wchar_t> >::basic_string<wchar_t,std::char_traits<wchar_t>,K2StringAllocator<wchar_t> >
	mov	DWORD PTR __$EHRec$[ebp+8], 2
	lea	eax, DWORD PTR $T121579[ebp]
	push	eax
	mov	ecx, DWORD PTR __imp_?g_pConsole@@3PAVCConsole@@A
	mov	ecx, DWORD PTR [ecx]
	call	DWORD PTR __imp_?Execute@CConsole@@QAEXABV?$basic_string@_WU?$char_traits@_W@std@@V?$K2StringAllocator@_W@@@std@@@Z
	mov	DWORD PTR __$EHRec$[ebp+8], -1
	lea	ecx, DWORD PTR $T121579[ebp]
	call	??1?$basic_string@_WU?$char_traits@_W@std@@V?$K2StringAllocator@_W@@@std@@QAE@XZ ; std::basic_string<wchar_t,std::char_traits<wchar_t>,K2StringAllocator<wchar_t> >::~basic_string<wchar_t,std::char_traits<wchar_t>,K2StringAllocator<wchar_t> >

; 98   : 			return 0;

	xor	eax, eax
	jmp	$LN49@System_Mai
$LN38@System_Mai:

; 99   : 
; 100  : 		case WM_LBUTTONUP:
; 101  : 		case WM_LBUTTONDOWN:
; 102  : 			if (key_debugEvents)

	mov	ecx, OFFSET ?key_debugEvents@@3V?$CCvar@_N_N@@A ; key_debugEvents
	call	??B?$CCvar@_N_N@@QBE_NXZ		; CCvar<bool,bool>::operator bool
	movzx	eax, al
	test	eax, eax
	je	$LN37@System_Mai

; 103  : 				Console << _T("LBUTTON: ") << INT_HEX_STR(wParam) << _T(" ") << INT_HEX_STR(uMsg) << _T(" ") << K2System.Milliseconds() << _T(" (") << GET_X_LPARAM(lParam) << _T(",") << GET_Y_LPARAM(lParam) << _T(")") << newl;

	mov	eax, DWORD PTR __imp_?g_pConsole@@3PAVCConsole@@A
	mov	ecx, DWORD PTR [eax]
	call	?GetNewl@CConsole@@QBEABV?$basic_string@_WU?$char_traits@_W@std@@V?$K2StringAllocator@_W@@@std@@XZ ; CConsole::GetNewl
	push	eax
	push	OFFSET ??_C@_13DIBMAFH@?$AA?$CJ?$AA?$AA@
	mov	ecx, DWORD PTR _lParam$[ebp]
	shr	ecx, 16					; 00000010H
	movsx	edx, cx
	push	edx
	push	OFFSET ??_C@_13DEFPDAGF@?$AA?0?$AA?$AA@
	mov	eax, DWORD PTR _lParam$[ebp]
	and	eax, 65535				; 0000ffffH
	movsx	ecx, ax
	push	ecx
	push	OFFSET ??_C@_15CMBHNMLL@?$AA?5?$AA?$CI?$AA?$AA@
	mov	edx, DWORD PTR __imp_?K2System@@3AAVCSystem@@A
	mov	ecx, DWORD PTR [edx]
	call	DWORD PTR __imp_?Milliseconds@CSystem@@QAEIXZ
	push	eax
	push	OFFSET ??_C@_13HOIJIPNN@?$AA?5?$AA?$AA@
	push	16					; 00000010H
	push	10					; 0000000aH
	push	2
	mov	eax, DWORD PTR _uMsg$[ebp]
	push	eax
	lea	ecx, DWORD PTR $T121581[ebp]
	push	ecx
	call	?XtoS@@YA?AV?$basic_string@DU?$char_traits@D@std@@V?$K2StringAllocator@D@@@std@@IHHH@Z ; XtoS
	add	esp, 20					; 00000014H
	mov	DWORD PTR tv160[ebp], eax
	mov	edx, DWORD PTR tv160[ebp]
	mov	DWORD PTR tv751[ebp], edx
	mov	DWORD PTR __$EHRec$[ebp+8], 3
	mov	eax, DWORD PTR tv751[ebp]
	push	eax
	push	OFFSET ??_C@_13HOIJIPNN@?$AA?5?$AA?$AA@
	push	16					; 00000010H
	push	10					; 0000000aH
	push	2
	mov	ecx, DWORD PTR _wParam$[ebp]
	push	ecx
	lea	edx, DWORD PTR $T121580[ebp]
	push	edx
	call	?XtoS@@YA?AV?$basic_string@DU?$char_traits@D@std@@V?$K2StringAllocator@D@@@std@@IHHH@Z ; XtoS
	add	esp, 20					; 00000014H
	mov	DWORD PTR tv150[ebp], eax
	mov	eax, DWORD PTR tv150[ebp]
	mov	DWORD PTR tv753[ebp], eax
	mov	BYTE PTR __$EHRec$[ebp+8], 4
	mov	ecx, DWORD PTR tv753[ebp]
	push	ecx
	push	OFFSET ??_C@_1BE@EMBCNFOM@?$AAL?$AAB?$AAU?$AAT?$AAT?$AAO?$AAN?$AA?3?$AA?5?$AA?$AA@
	mov	edx, DWORD PTR __imp_?g_pConsole@@3PAVCConsole@@A
	mov	ecx, DWORD PTR [edx]
	call	??6CConsole@@QAEAAVCConsoleStream@@PB_W@Z ; CConsole::operator<<
	mov	ecx, eax
	call	??6CConsoleStream@@QAEAAV0@ABV?$basic_string@DU?$char_traits@D@std@@V?$K2StringAllocator@D@@@std@@@Z ; CConsoleStream::operator<<
	mov	ecx, eax
	call	??6CConsoleStream@@QAEAAV0@PB_W@Z	; CConsoleStream::operator<<
	mov	ecx, eax
	call	??6CConsoleStream@@QAEAAV0@ABV?$basic_string@DU?$char_traits@D@std@@V?$K2StringAllocator@D@@@std@@@Z ; CConsoleStream::operator<<
	mov	ecx, eax
	call	??6CConsoleStream@@QAEAAV0@PB_W@Z	; CConsoleStream::operator<<
	mov	ecx, eax
	call	??6CConsoleStream@@QAEAAV0@I@Z		; CConsoleStream::operator<<
	mov	ecx, eax
	call	??6CConsoleStream@@QAEAAV0@PB_W@Z	; CConsoleStream::operator<<
	mov	ecx, eax
	call	??6CConsoleStream@@QAEAAV0@H@Z		; CConsoleStream::operator<<
	mov	ecx, eax
	call	??6CConsoleStream@@QAEAAV0@PB_W@Z	; CConsoleStream::operator<<
	mov	ecx, eax
	call	??6CConsoleStream@@QAEAAV0@H@Z		; CConsoleStream::operator<<
	mov	ecx, eax
	call	??6CConsoleStream@@QAEAAV0@PB_W@Z	; CConsoleStream::operator<<
	mov	ecx, eax
	call	??6CConsoleStream@@QAEAAV0@ABV?$basic_string@_WU?$char_traits@_W@std@@V?$K2StringAllocator@_W@@@std@@@Z ; CConsoleStream::operator<<
	mov	BYTE PTR __$EHRec$[ebp+8], 3
	lea	ecx, DWORD PTR $T121580[ebp]
	call	??1?$basic_string@DU?$char_traits@D@std@@V?$K2StringAllocator@D@@@std@@QAE@XZ ; std::basic_string<char,std::char_traits<char>,K2StringAllocator<char> >::~basic_string<char,std::char_traits<char>,K2StringAllocator<char> >
	mov	DWORD PTR __$EHRec$[ebp+8], -1
	lea	ecx, DWORD PTR $T121581[ebp]
	call	??1?$basic_string@DU?$char_traits@D@std@@V?$K2StringAllocator@D@@@std@@QAE@XZ ; std::basic_string<char,std::char_traits<char>,K2StringAllocator<char> >::~basic_string<char,std::char_traits<char>,K2StringAllocator<char> >
$LN37@System_Mai:

; 104  : 			Input.AddEvent(BUTTON_MOUSEL, uMsg == WM_LBUTTONDOWN, CVec2f(float(LOWORD(lParam)), float(HIWORD(lParam))));

	mov	eax, DWORD PTR _lParam$[ebp]
	shr	eax, 16					; 00000010H
	movzx	ecx, ax
	cvtsi2ss xmm0, ecx
	push	ecx
	movss	DWORD PTR [esp], xmm0
	mov	edx, DWORD PTR _lParam$[ebp]
	and	edx, 65535				; 0000ffffH
	movzx	eax, dx
	cvtsi2ss xmm0, eax
	push	ecx
	movss	DWORD PTR [esp], xmm0
	lea	ecx, DWORD PTR $T121582[ebp]
	call	DWORD PTR __imp_??0?$CVec2@M@@QAE@MM@Z
	push	eax
	cmp	DWORD PTR _uMsg$[ebp], 513		; 00000201H
	sete	cl
	push	ecx
	push	311					; 00000137H
	mov	edx, DWORD PTR __imp_?g_pInput@@3PAVCInput@@A
	mov	ecx, DWORD PTR [edx]
	call	DWORD PTR __imp_?AddEvent@CInput@@QAEXW4EButton@@_NABV?$CVec2@M@@@Z

; 105  : 			return 0;

	xor	eax, eax
	jmp	$LN49@System_Mai
$LN36@System_Mai:

; 106  : 
; 107  : 		case WM_RBUTTONUP:
; 108  : 		case WM_RBUTTONDOWN:
; 109  : 			if (key_debugEvents)

	mov	ecx, OFFSET ?key_debugEvents@@3V?$CCvar@_N_N@@A ; key_debugEvents
	call	??B?$CCvar@_N_N@@QBE_NXZ		; CCvar<bool,bool>::operator bool
	movzx	eax, al
	test	eax, eax
	je	$LN35@System_Mai

; 110  : 				Console << _T("RBUTTON: ") << INT_HEX_STR(wParam) << _T(" ") << INT_HEX_STR(uMsg) << _T(" ") << K2System.Milliseconds() << newl;

	mov	eax, DWORD PTR __imp_?g_pConsole@@3PAVCConsole@@A
	mov	ecx, DWORD PTR [eax]
	call	?GetNewl@CConsole@@QBEABV?$basic_string@_WU?$char_traits@_W@std@@V?$K2StringAllocator@_W@@@std@@XZ ; CConsole::GetNewl
	push	eax
	mov	ecx, DWORD PTR __imp_?K2System@@3AAVCSystem@@A
	mov	ecx, DWORD PTR [ecx]
	call	DWORD PTR __imp_?Milliseconds@CSystem@@QAEIXZ
	push	eax
	push	OFFSET ??_C@_13HOIJIPNN@?$AA?5?$AA?$AA@
	push	16					; 00000010H
	push	10					; 0000000aH
	push	2
	mov	edx, DWORD PTR _uMsg$[ebp]
	push	edx
	lea	eax, DWORD PTR $T121584[ebp]
	push	eax
	call	?XtoS@@YA?AV?$basic_string@DU?$char_traits@D@std@@V?$K2StringAllocator@D@@@std@@IHHH@Z ; XtoS
	add	esp, 20					; 00000014H
	mov	DWORD PTR tv95[ebp], eax
	mov	ecx, DWORD PTR tv95[ebp]
	mov	DWORD PTR tv755[ebp], ecx
	mov	DWORD PTR __$EHRec$[ebp+8], 5
	mov	edx, DWORD PTR tv755[ebp]
	push	edx
	push	OFFSET ??_C@_13HOIJIPNN@?$AA?5?$AA?$AA@
	push	16					; 00000010H
	push	10					; 0000000aH
	push	2
	mov	eax, DWORD PTR _wParam$[ebp]
	push	eax
	lea	ecx, DWORD PTR $T121583[ebp]
	push	ecx
	call	?XtoS@@YA?AV?$basic_string@DU?$char_traits@D@std@@V?$K2StringAllocator@D@@@std@@IHHH@Z ; XtoS
	add	esp, 20					; 00000014H
	mov	DWORD PTR tv775[ebp], eax
	mov	edx, DWORD PTR tv775[ebp]
	mov	DWORD PTR tv757[ebp], edx
	mov	BYTE PTR __$EHRec$[ebp+8], 6
	mov	eax, DWORD PTR tv757[ebp]
	push	eax
	push	OFFSET ??_C@_1BE@LFCMDFKO@?$AAR?$AAB?$AAU?$AAT?$AAT?$AAO?$AAN?$AA?3?$AA?5?$AA?$AA@
	mov	ecx, DWORD PTR __imp_?g_pConsole@@3PAVCConsole@@A
	mov	ecx, DWORD PTR [ecx]
	call	??6CConsole@@QAEAAVCConsoleStream@@PB_W@Z ; CConsole::operator<<
	mov	ecx, eax
	call	??6CConsoleStream@@QAEAAV0@ABV?$basic_string@DU?$char_traits@D@std@@V?$K2StringAllocator@D@@@std@@@Z ; CConsoleStream::operator<<
	mov	ecx, eax
	call	??6CConsoleStream@@QAEAAV0@PB_W@Z	; CConsoleStream::operator<<
	mov	ecx, eax
	call	??6CConsoleStream@@QAEAAV0@ABV?$basic_string@DU?$char_traits@D@std@@V?$K2StringAllocator@D@@@std@@@Z ; CConsoleStream::operator<<
	mov	ecx, eax
	call	??6CConsoleStream@@QAEAAV0@PB_W@Z	; CConsoleStream::operator<<
	mov	ecx, eax
	call	??6CConsoleStream@@QAEAAV0@I@Z		; CConsoleStream::operator<<
	mov	ecx, eax
	call	??6CConsoleStream@@QAEAAV0@ABV?$basic_string@_WU?$char_traits@_W@std@@V?$K2StringAllocator@_W@@@std@@@Z ; CConsoleStream::operator<<
	mov	BYTE PTR __$EHRec$[ebp+8], 5
	lea	ecx, DWORD PTR $T121583[ebp]
	call	??1?$basic_string@DU?$char_traits@D@std@@V?$K2StringAllocator@D@@@std@@QAE@XZ ; std::basic_string<char,std::char_traits<char>,K2StringAllocator<char> >::~basic_string<char,std::char_traits<char>,K2StringAllocator<char> >
	mov	DWORD PTR __$EHRec$[ebp+8], -1
	lea	ecx, DWORD PTR $T121584[ebp]
	call	??1?$basic_string@DU?$char_traits@D@std@@V?$K2StringAllocator@D@@@std@@QAE@XZ ; std::basic_string<char,std::char_traits<char>,K2StringAllocator<char> >::~basic_string<char,std::char_traits<char>,K2StringAllocator<char> >
$LN35@System_Mai:

; 111  : 			Input.AddEvent(BUTTON_MOUSER, uMsg == WM_RBUTTONDOWN, CVec2f(float(LOWORD(lParam)), float(HIWORD(lParam))));

	mov	eax, DWORD PTR _lParam$[ebp]
	shr	eax, 16					; 00000010H
	movzx	ecx, ax
	cvtsi2ss xmm0, ecx
	push	ecx
	movss	DWORD PTR [esp], xmm0
	mov	edx, DWORD PTR _lParam$[ebp]
	and	edx, 65535				; 0000ffffH
	movzx	eax, dx
	cvtsi2ss xmm0, eax
	push	ecx
	movss	DWORD PTR [esp], xmm0
	lea	ecx, DWORD PTR $T121585[ebp]
	call	DWORD PTR __imp_??0?$CVec2@M@@QAE@MM@Z
	push	eax
	cmp	DWORD PTR _uMsg$[ebp], 516		; 00000204H
	sete	cl
	push	ecx
	push	312					; 00000138H
	mov	edx, DWORD PTR __imp_?g_pInput@@3PAVCInput@@A
	mov	ecx, DWORD PTR [edx]
	call	DWORD PTR __imp_?AddEvent@CInput@@QAEXW4EButton@@_NABV?$CVec2@M@@@Z

; 112  : 			return 0;

	xor	eax, eax
	jmp	$LN49@System_Mai
$LN34@System_Mai:

; 113  : 
; 114  : 		case WM_MBUTTONUP:
; 115  : 		case WM_MBUTTONDOWN:
; 116  : 			if (key_debugEvents)

	mov	ecx, OFFSET ?key_debugEvents@@3V?$CCvar@_N_N@@A ; key_debugEvents
	call	??B?$CCvar@_N_N@@QBE_NXZ		; CCvar<bool,bool>::operator bool
	movzx	eax, al
	test	eax, eax
	je	$LN33@System_Mai

; 117  : 				Console << _T("MBUTTON: ") << INT_HEX_STR(wParam) << _T(" ") << INT_HEX_STR(uMsg) << _T(" ") << K2System.Milliseconds() << newl;

	mov	eax, DWORD PTR __imp_?g_pConsole@@3PAVCConsole@@A
	mov	ecx, DWORD PTR [eax]
	call	?GetNewl@CConsole@@QBEABV?$basic_string@_WU?$char_traits@_W@std@@V?$K2StringAllocator@_W@@@std@@XZ ; CConsole::GetNewl
	push	eax
	mov	ecx, DWORD PTR __imp_?K2System@@3AAVCSystem@@A
	mov	ecx, DWORD PTR [ecx]
	call	DWORD PTR __imp_?Milliseconds@CSystem@@QAEIXZ
	push	eax
	push	OFFSET ??_C@_13HOIJIPNN@?$AA?5?$AA?$AA@
	push	16					; 00000010H
	push	10					; 0000000aH
	push	2
	mov	edx, DWORD PTR _uMsg$[ebp]
	push	edx
	lea	eax, DWORD PTR $T121587[ebp]
	push	eax
	call	?XtoS@@YA?AV?$basic_string@DU?$char_traits@D@std@@V?$K2StringAllocator@D@@@std@@IHHH@Z ; XtoS
	add	esp, 20					; 00000014H
	mov	DWORD PTR tv776[ebp], eax
	mov	ecx, DWORD PTR tv776[ebp]
	mov	DWORD PTR tv759[ebp], ecx
	mov	DWORD PTR __$EHRec$[ebp+8], 7
	mov	edx, DWORD PTR tv759[ebp]
	push	edx
	push	OFFSET ??_C@_13HOIJIPNN@?$AA?5?$AA?$AA@
	push	16					; 00000010H
	push	10					; 0000000aH
	push	2
	mov	eax, DWORD PTR _wParam$[ebp]
	push	eax
	lea	ecx, DWORD PTR $T121586[ebp]
	push	ecx
	call	?XtoS@@YA?AV?$basic_string@DU?$char_traits@D@std@@V?$K2StringAllocator@D@@@std@@IHHH@Z ; XtoS
	add	esp, 20					; 00000014H
	mov	DWORD PTR tv777[ebp], eax
	mov	edx, DWORD PTR tv777[ebp]
	mov	DWORD PTR tv761[ebp], edx
	mov	BYTE PTR __$EHRec$[ebp+8], 8
	mov	eax, DWORD PTR tv761[ebp]
	push	eax
	push	OFFSET ??_C@_1BE@CJHFOOKK@?$AAM?$AAB?$AAU?$AAT?$AAT?$AAO?$AAN?$AA?3?$AA?5?$AA?$AA@
	mov	ecx, DWORD PTR __imp_?g_pConsole@@3PAVCConsole@@A
	mov	ecx, DWORD PTR [ecx]
	call	??6CConsole@@QAEAAVCConsoleStream@@PB_W@Z ; CConsole::operator<<
	mov	ecx, eax
	call	??6CConsoleStream@@QAEAAV0@ABV?$basic_string@DU?$char_traits@D@std@@V?$K2StringAllocator@D@@@std@@@Z ; CConsoleStream::operator<<
	mov	ecx, eax
	call	??6CConsoleStream@@QAEAAV0@PB_W@Z	; CConsoleStream::operator<<
	mov	ecx, eax
	call	??6CConsoleStream@@QAEAAV0@ABV?$basic_string@DU?$char_traits@D@std@@V?$K2StringAllocator@D@@@std@@@Z ; CConsoleStream::operator<<
	mov	ecx, eax
	call	??6CConsoleStream@@QAEAAV0@PB_W@Z	; CConsoleStream::operator<<
	mov	ecx, eax
	call	??6CConsoleStream@@QAEAAV0@I@Z		; CConsoleStream::operator<<
	mov	ecx, eax
	call	??6CConsoleStream@@QAEAAV0@ABV?$basic_string@_WU?$char_traits@_W@std@@V?$K2StringAllocator@_W@@@std@@@Z ; CConsoleStream::operator<<
	mov	BYTE PTR __$EHRec$[ebp+8], 7
	lea	ecx, DWORD PTR $T121586[ebp]
	call	??1?$basic_string@DU?$char_traits@D@std@@V?$K2StringAllocator@D@@@std@@QAE@XZ ; std::basic_string<char,std::char_traits<char>,K2StringAllocator<char> >::~basic_string<char,std::char_traits<char>,K2StringAllocator<char> >
	mov	DWORD PTR __$EHRec$[ebp+8], -1
	lea	ecx, DWORD PTR $T121587[ebp]
	call	??1?$basic_string@DU?$char_traits@D@std@@V?$K2StringAllocator@D@@@std@@QAE@XZ ; std::basic_string<char,std::char_traits<char>,K2StringAllocator<char> >::~basic_string<char,std::char_traits<char>,K2StringAllocator<char> >
$LN33@System_Mai:

; 118  : 			Input.AddEvent(BUTTON_MOUSEM, uMsg == WM_MBUTTONDOWN, CVec2f(float(LOWORD(lParam)), float(HIWORD(lParam))));

	mov	eax, DWORD PTR _lParam$[ebp]
	shr	eax, 16					; 00000010H
	movzx	ecx, ax
	cvtsi2ss xmm0, ecx
	push	ecx
	movss	DWORD PTR [esp], xmm0
	mov	edx, DWORD PTR _lParam$[ebp]
	and	edx, 65535				; 0000ffffH
	movzx	eax, dx
	cvtsi2ss xmm0, eax
	push	ecx
	movss	DWORD PTR [esp], xmm0
	lea	ecx, DWORD PTR $T121588[ebp]
	call	DWORD PTR __imp_??0?$CVec2@M@@QAE@MM@Z
	push	eax
	cmp	DWORD PTR _uMsg$[ebp], 519		; 00000207H
	sete	cl
	push	ecx
	push	313					; 00000139H
	mov	edx, DWORD PTR __imp_?g_pInput@@3PAVCInput@@A
	mov	ecx, DWORD PTR [edx]
	call	DWORD PTR __imp_?AddEvent@CInput@@QAEXW4EButton@@_NABV?$CVec2@M@@@Z

; 119  : 			return 0;

	xor	eax, eax
	jmp	$LN49@System_Mai
$LN32@System_Mai:

; 120  : 
; 121  : 		case WM_XBUTTONUP:
; 122  : 		case WM_XBUTTONDOWN:
; 123  : 			if (key_debugEvents)

	mov	ecx, OFFSET ?key_debugEvents@@3V?$CCvar@_N_N@@A ; key_debugEvents
	call	??B?$CCvar@_N_N@@QBE_NXZ		; CCvar<bool,bool>::operator bool
	movzx	eax, al
	test	eax, eax
	je	$LN31@System_Mai

; 124  : 				Console << _T("XBUTTON: ") << INT_HEX_STR(wParam) << _T(" ") << INT_HEX_STR(uMsg) << _T(" ") << K2System.Milliseconds() << newl;

	mov	eax, DWORD PTR __imp_?g_pConsole@@3PAVCConsole@@A
	mov	ecx, DWORD PTR [eax]
	call	?GetNewl@CConsole@@QBEABV?$basic_string@_WU?$char_traits@_W@std@@V?$K2StringAllocator@_W@@@std@@XZ ; CConsole::GetNewl
	push	eax
	mov	ecx, DWORD PTR __imp_?K2System@@3AAVCSystem@@A
	mov	ecx, DWORD PTR [ecx]
	call	DWORD PTR __imp_?Milliseconds@CSystem@@QAEIXZ
	push	eax
	push	OFFSET ??_C@_13HOIJIPNN@?$AA?5?$AA?$AA@
	push	16					; 00000010H
	push	10					; 0000000aH
	push	2
	mov	edx, DWORD PTR _uMsg$[ebp]
	push	edx
	lea	eax, DWORD PTR $T121590[ebp]
	push	eax
	call	?XtoS@@YA?AV?$basic_string@DU?$char_traits@D@std@@V?$K2StringAllocator@D@@@std@@IHHH@Z ; XtoS
	add	esp, 20					; 00000014H
	mov	DWORD PTR tv778[ebp], eax
	mov	ecx, DWORD PTR tv778[ebp]
	mov	DWORD PTR tv763[ebp], ecx
	mov	DWORD PTR __$EHRec$[ebp+8], 9
	mov	edx, DWORD PTR tv763[ebp]
	push	edx
	push	OFFSET ??_C@_13HOIJIPNN@?$AA?5?$AA?$AA@
	push	16					; 00000010H
	push	10					; 0000000aH
	push	2
	mov	eax, DWORD PTR _wParam$[ebp]
	push	eax
	lea	ecx, DWORD PTR $T121589[ebp]
	push	ecx
	call	?XtoS@@YA?AV?$basic_string@DU?$char_traits@D@std@@V?$K2StringAllocator@D@@@std@@IHHH@Z ; XtoS
	add	esp, 20					; 00000014H
	mov	DWORD PTR tv779[ebp], eax
	mov	edx, DWORD PTR tv779[ebp]
	mov	DWORD PTR tv765[ebp], edx
	mov	BYTE PTR __$EHRec$[ebp+8], 10		; 0000000aH
	mov	eax, DWORD PTR tv765[ebp]
	push	eax
	push	OFFSET ??_C@_1BE@OCDJJFJA@?$AAX?$AAB?$AAU?$AAT?$AAT?$AAO?$AAN?$AA?3?$AA?5?$AA?$AA@
	mov	ecx, DWORD PTR __imp_?g_pConsole@@3PAVCConsole@@A
	mov	ecx, DWORD PTR [ecx]
	call	??6CConsole@@QAEAAVCConsoleStream@@PB_W@Z ; CConsole::operator<<
	mov	ecx, eax
	call	??6CConsoleStream@@QAEAAV0@ABV?$basic_string@DU?$char_traits@D@std@@V?$K2StringAllocator@D@@@std@@@Z ; CConsoleStream::operator<<
	mov	ecx, eax
	call	??6CConsoleStream@@QAEAAV0@PB_W@Z	; CConsoleStream::operator<<
	mov	ecx, eax
	call	??6CConsoleStream@@QAEAAV0@ABV?$basic_string@DU?$char_traits@D@std@@V?$K2StringAllocator@D@@@std@@@Z ; CConsoleStream::operator<<
	mov	ecx, eax
	call	??6CConsoleStream@@QAEAAV0@PB_W@Z	; CConsoleStream::operator<<
	mov	ecx, eax
	call	??6CConsoleStream@@QAEAAV0@I@Z		; CConsoleStream::operator<<
	mov	ecx, eax
	call	??6CConsoleStream@@QAEAAV0@ABV?$basic_string@_WU?$char_traits@_W@std@@V?$K2StringAllocator@_W@@@std@@@Z ; CConsoleStream::operator<<
	mov	BYTE PTR __$EHRec$[ebp+8], 9
	lea	ecx, DWORD PTR $T121589[ebp]
	call	??1?$basic_string@DU?$char_traits@D@std@@V?$K2StringAllocator@D@@@std@@QAE@XZ ; std::basic_string<char,std::char_traits<char>,K2StringAllocator<char> >::~basic_string<char,std::char_traits<char>,K2StringAllocator<char> >
	mov	DWORD PTR __$EHRec$[ebp+8], -1
	lea	ecx, DWORD PTR $T121590[ebp]
	call	??1?$basic_string@DU?$char_traits@D@std@@V?$K2StringAllocator@D@@@std@@QAE@XZ ; std::basic_string<char,std::char_traits<char>,K2StringAllocator<char> >::~basic_string<char,std::char_traits<char>,K2StringAllocator<char> >
$LN31@System_Mai:

; 125  : 			if (HIWORD(wParam) & XBUTTON1)

	mov	eax, DWORD PTR _wParam$[ebp]
	shr	eax, 16					; 00000010H
	movzx	ecx, ax
	and	ecx, 1
	je	SHORT $LN30@System_Mai

; 126  : 				Input.AddEvent(BUTTON_MOUSEX1, uMsg == WM_XBUTTONDOWN, CVec2f(float(LOWORD(lParam)), float(HIWORD(lParam))));

	mov	eax, DWORD PTR _lParam$[ebp]
	shr	eax, 16					; 00000010H
	movzx	ecx, ax
	cvtsi2ss xmm0, ecx
	push	ecx
	movss	DWORD PTR [esp], xmm0
	mov	edx, DWORD PTR _lParam$[ebp]
	and	edx, 65535				; 0000ffffH
	movzx	eax, dx
	cvtsi2ss xmm0, eax
	push	ecx
	movss	DWORD PTR [esp], xmm0
	lea	ecx, DWORD PTR $T121591[ebp]
	call	DWORD PTR __imp_??0?$CVec2@M@@QAE@MM@Z
	push	eax
	cmp	DWORD PTR _uMsg$[ebp], 523		; 0000020bH
	sete	cl
	push	ecx
	push	318					; 0000013eH
	mov	edx, DWORD PTR __imp_?g_pInput@@3PAVCInput@@A
	mov	ecx, DWORD PTR [edx]
	call	DWORD PTR __imp_?AddEvent@CInput@@QAEXW4EButton@@_NABV?$CVec2@M@@@Z
$LN30@System_Mai:

; 127  : 			if (HIWORD(wParam) & XBUTTON2)

	mov	eax, DWORD PTR _wParam$[ebp]
	shr	eax, 16					; 00000010H
	movzx	ecx, ax
	and	ecx, 2
	je	SHORT $LN29@System_Mai

; 128  : 				Input.AddEvent(BUTTON_MOUSEX2, uMsg == WM_XBUTTONDOWN, CVec2f(float(LOWORD(lParam)), float(HIWORD(lParam))));

	mov	eax, DWORD PTR _lParam$[ebp]
	shr	eax, 16					; 00000010H
	movzx	ecx, ax
	cvtsi2ss xmm0, ecx
	push	ecx
	movss	DWORD PTR [esp], xmm0
	mov	edx, DWORD PTR _lParam$[ebp]
	and	edx, 65535				; 0000ffffH
	movzx	eax, dx
	cvtsi2ss xmm0, eax
	push	ecx
	movss	DWORD PTR [esp], xmm0
	lea	ecx, DWORD PTR $T121592[ebp]
	call	DWORD PTR __imp_??0?$CVec2@M@@QAE@MM@Z
	push	eax
	cmp	DWORD PTR _uMsg$[ebp], 523		; 0000020bH
	sete	cl
	push	ecx
	push	319					; 0000013fH
	mov	edx, DWORD PTR __imp_?g_pInput@@3PAVCInput@@A
	mov	ecx, DWORD PTR [edx]
	call	DWORD PTR __imp_?AddEvent@CInput@@QAEXW4EButton@@_NABV?$CVec2@M@@@Z
$LN29@System_Mai:

; 129  : 			return TRUE;

	mov	eax, 1
	jmp	$LN49@System_Mai
$LN28@System_Mai:

; 130  : 
; 131  : 		case WM_MOUSEWHEEL:
; 132  : 			{
; 133  : 				int iValue(GET_WHEEL_DELTA_WPARAM(wParam) / WHEEL_DELTA);

	mov	eax, DWORD PTR _wParam$[ebp]
	shr	eax, 16					; 00000010H
	movsx	eax, ax
	cdq
	mov	ecx, 120				; 00000078H
	idiv	ecx
	mov	DWORD PTR _iValue$114900[ebp], eax

; 134  : 				CRecti recWindow(K2System.GetWindowArea());

	lea	eax, DWORD PTR _recWindow$114902[ebp]
	push	eax
	mov	ecx, DWORD PTR __imp_?K2System@@3AAVCSystem@@A
	mov	ecx, DWORD PTR [ecx]
	call	DWORD PTR __imp_?GetWindowArea@CSystem@@QAE?AV?$CRect@H@@XZ
	mov	DWORD PTR __$EHRec$[ebp+8], 11		; 0000000bH

; 135  : 				CVec2f v2Pos(float(GET_X_LPARAM(lParam) - recWindow.left), float(GET_Y_LPARAM(lParam) - recWindow.top));

	mov	eax, DWORD PTR _lParam$[ebp]
	shr	eax, 16					; 00000010H
	movsx	ecx, ax
	sub	ecx, DWORD PTR _recWindow$114902[ebp+4]
	cvtsi2ss xmm0, ecx
	push	ecx
	movss	DWORD PTR [esp], xmm0
	mov	edx, DWORD PTR _lParam$[ebp]
	and	edx, 65535				; 0000ffffH
	movsx	eax, dx
	sub	eax, DWORD PTR _recWindow$114902[ebp]
	cvtsi2ss xmm0, eax
	push	ecx
	movss	DWORD PTR [esp], xmm0
	lea	ecx, DWORD PTR _v2Pos$114911[ebp]
	call	DWORD PTR __imp_??0?$CVec2@M@@QAE@MM@Z

; 136  : 
; 137  : 				if (key_debugEvents)

	mov	ecx, OFFSET ?key_debugEvents@@3V?$CCvar@_N_N@@A ; key_debugEvents
	call	??B?$CCvar@_N_N@@QBE_NXZ		; CCvar<bool,bool>::operator bool
	movzx	eax, al
	test	eax, eax
	je	SHORT $LN27@System_Mai

; 138  : 					Console << _T("WM_MOUSEWHEEL: ") << iValue << _T(" ") << v2Pos << newl;

	mov	eax, DWORD PTR __imp_?g_pConsole@@3PAVCConsole@@A
	mov	ecx, DWORD PTR [eax]
	call	?GetNewl@CConsole@@QBEABV?$basic_string@_WU?$char_traits@_W@std@@V?$K2StringAllocator@_W@@@std@@XZ ; CConsole::GetNewl
	push	eax
	lea	ecx, DWORD PTR _v2Pos$114911[ebp]
	push	ecx
	push	OFFSET ??_C@_13HOIJIPNN@?$AA?5?$AA?$AA@
	mov	edx, DWORD PTR _iValue$114900[ebp]
	push	edx
	push	OFFSET ??_C@_1CA@NNBPKMNG@?$AAW?$AAM?$AA_?$AAM?$AAO?$AAU?$AAS?$AAE?$AAW?$AAH?$AAE?$AAE?$AAL?$AA?3?$AA?5?$AA?$AA@
	mov	eax, DWORD PTR __imp_?g_pConsole@@3PAVCConsole@@A
	mov	ecx, DWORD PTR [eax]
	call	??6CConsole@@QAEAAVCConsoleStream@@PB_W@Z ; CConsole::operator<<
	mov	ecx, eax
	call	??6CConsoleStream@@QAEAAV0@H@Z		; CConsoleStream::operator<<
	mov	ecx, eax
	call	??6CConsoleStream@@QAEAAV0@PB_W@Z	; CConsoleStream::operator<<
	mov	ecx, eax
	call	??6CConsoleStream@@QAEAAV0@ABV?$CVec2@M@@@Z ; CConsoleStream::operator<<
	mov	ecx, eax
	call	??6CConsoleStream@@QAEAAV0@ABV?$basic_string@_WU?$char_traits@_W@std@@V?$K2StringAllocator@_W@@@std@@@Z ; CConsoleStream::operator<<
$LN27@System_Mai:

; 139  : 
; 140  : 				if (iValue > 0)

	cmp	DWORD PTR _iValue$114900[ebp], 0
	jle	SHORT $LN26@System_Mai

; 141  : 				{
; 142  : 					for (int i(0); i < iValue; ++i)

	mov	DWORD PTR _i$114915[ebp], 0
	jmp	SHORT $LN25@System_Mai
$LN24@System_Mai:
	mov	eax, DWORD PTR _i$114915[ebp]
	add	eax, 1
	mov	DWORD PTR _i$114915[ebp], eax
$LN25@System_Mai:
	mov	eax, DWORD PTR _i$114915[ebp]
	cmp	eax, DWORD PTR _iValue$114900[ebp]
	jge	SHORT $LN23@System_Mai

; 143  : 					{
; 144  : 						Input.AddEvent(BUTTON_WHEELUP, true, v2Pos);

	lea	eax, DWORD PTR _v2Pos$114911[ebp]
	push	eax
	push	1
	push	314					; 0000013aH
	mov	ecx, DWORD PTR __imp_?g_pInput@@3PAVCInput@@A
	mov	ecx, DWORD PTR [ecx]
	call	DWORD PTR __imp_?AddEvent@CInput@@QAEXW4EButton@@_NABV?$CVec2@M@@@Z

; 145  : 						Input.AddEvent(BUTTON_WHEELUP, false, v2Pos);

	lea	eax, DWORD PTR _v2Pos$114911[ebp]
	push	eax
	push	0
	push	314					; 0000013aH
	mov	ecx, DWORD PTR __imp_?g_pInput@@3PAVCInput@@A
	mov	ecx, DWORD PTR [ecx]
	call	DWORD PTR __imp_?AddEvent@CInput@@QAEXW4EButton@@_NABV?$CVec2@M@@@Z

; 146  : 					}

	jmp	SHORT $LN24@System_Mai
$LN23@System_Mai:

; 147  : 				}
; 148  : 				else if (iValue < 0)

	jmp	SHORT $LN18@System_Mai
$LN26@System_Mai:
	cmp	DWORD PTR _iValue$114900[ebp], 0
	jge	SHORT $LN18@System_Mai

; 149  : 				{
; 150  : 					for (int i(0); i < -iValue; ++i)

	mov	DWORD PTR _i$114921[ebp], 0
	jmp	SHORT $LN20@System_Mai
$LN19@System_Mai:
	mov	eax, DWORD PTR _i$114921[ebp]
	add	eax, 1
	mov	DWORD PTR _i$114921[ebp], eax
$LN20@System_Mai:
	mov	eax, DWORD PTR _iValue$114900[ebp]
	neg	eax
	cmp	DWORD PTR _i$114921[ebp], eax
	jge	SHORT $LN18@System_Mai

; 151  : 					{
; 152  : 						Input.AddEvent(BUTTON_WHEELDOWN, true, v2Pos);

	lea	eax, DWORD PTR _v2Pos$114911[ebp]
	push	eax
	push	1
	push	315					; 0000013bH
	mov	ecx, DWORD PTR __imp_?g_pInput@@3PAVCInput@@A
	mov	ecx, DWORD PTR [ecx]
	call	DWORD PTR __imp_?AddEvent@CInput@@QAEXW4EButton@@_NABV?$CVec2@M@@@Z

; 153  : 						Input.AddEvent(BUTTON_WHEELDOWN, false, v2Pos);

	lea	eax, DWORD PTR _v2Pos$114911[ebp]
	push	eax
	push	0
	push	315					; 0000013bH
	mov	ecx, DWORD PTR __imp_?g_pInput@@3PAVCInput@@A
	mov	ecx, DWORD PTR [ecx]
	call	DWORD PTR __imp_?AddEvent@CInput@@QAEXW4EButton@@_NABV?$CVec2@M@@@Z

; 154  : 					}

	jmp	SHORT $LN19@System_Mai
$LN18@System_Mai:

; 155  : 				}
; 156  : 			}

	mov	DWORD PTR __$EHRec$[ebp+8], -1
	lea	ecx, DWORD PTR _recWindow$114902[ebp]
	call	??1?$CRect@H@@QAE@XZ			; CRect<int>::~CRect<int>

; 157  : 			return 0;

	xor	eax, eax
	jmp	$LN49@System_Mai
$LN17@System_Mai:

; 158  : 
; 159  : 		case WM_KEYDOWN:
; 160  : 		case WM_SYSKEYDOWN:
; 161  : 			if (key_debugEvents)

	mov	ecx, OFFSET ?key_debugEvents@@3V?$CCvar@_N_N@@A ; key_debugEvents
	call	??B?$CCvar@_N_N@@QBE_NXZ		; CCvar<bool,bool>::operator bool
	movzx	eax, al
	test	eax, eax
	je	$LN16@System_Mai

; 162  : 				Console << _T("KEYDOWN: ") << INT_HEX_STR(wParam) << _T(" ") << (TCHAR)wParam << _T(" ") << K2System.Milliseconds() << newl;

	mov	eax, DWORD PTR __imp_?g_pConsole@@3PAVCConsole@@A
	mov	ecx, DWORD PTR [eax]
	call	?GetNewl@CConsole@@QBEABV?$basic_string@_WU?$char_traits@_W@std@@V?$K2StringAllocator@_W@@@std@@XZ ; CConsole::GetNewl
	push	eax
	mov	ecx, DWORD PTR __imp_?K2System@@3AAVCSystem@@A
	mov	ecx, DWORD PTR [ecx]
	call	DWORD PTR __imp_?Milliseconds@CSystem@@QAEIXZ
	push	eax
	push	OFFSET ??_C@_13HOIJIPNN@?$AA?5?$AA?$AA@
	mov	dx, WORD PTR _wParam$[ebp]
	push	edx
	push	OFFSET ??_C@_13HOIJIPNN@?$AA?5?$AA?$AA@
	push	16					; 00000010H
	push	10					; 0000000aH
	push	2
	mov	eax, DWORD PTR _wParam$[ebp]
	push	eax
	lea	ecx, DWORD PTR $T121593[ebp]
	push	ecx
	call	?XtoS@@YA?AV?$basic_string@DU?$char_traits@D@std@@V?$K2StringAllocator@D@@@std@@IHHH@Z ; XtoS
	add	esp, 20					; 00000014H
	mov	DWORD PTR tv466[ebp], eax
	mov	edx, DWORD PTR tv466[ebp]
	mov	DWORD PTR tv768[ebp], edx
	mov	DWORD PTR __$EHRec$[ebp+8], 12		; 0000000cH
	mov	eax, DWORD PTR tv768[ebp]
	push	eax
	push	OFFSET ??_C@_1BE@MEBLBOFB@?$AAK?$AAE?$AAY?$AAD?$AAO?$AAW?$AAN?$AA?3?$AA?5?$AA?$AA@
	mov	ecx, DWORD PTR __imp_?g_pConsole@@3PAVCConsole@@A
	mov	ecx, DWORD PTR [ecx]
	call	??6CConsole@@QAEAAVCConsoleStream@@PB_W@Z ; CConsole::operator<<
	mov	ecx, eax
	call	??6CConsoleStream@@QAEAAV0@ABV?$basic_string@DU?$char_traits@D@std@@V?$K2StringAllocator@D@@@std@@@Z ; CConsoleStream::operator<<
	mov	ecx, eax
	call	??6CConsoleStream@@QAEAAV0@PB_W@Z	; CConsoleStream::operator<<
	mov	ecx, eax
	call	??6CConsoleStream@@QAEAAV0@_W@Z		; CConsoleStream::operator<<
	mov	ecx, eax
	call	??6CConsoleStream@@QAEAAV0@PB_W@Z	; CConsoleStream::operator<<
	mov	ecx, eax
	call	??6CConsoleStream@@QAEAAV0@I@Z		; CConsoleStream::operator<<
	mov	ecx, eax
	call	??6CConsoleStream@@QAEAAV0@ABV?$basic_string@_WU?$char_traits@_W@std@@V?$K2StringAllocator@_W@@@std@@@Z ; CConsoleStream::operator<<
	mov	DWORD PTR __$EHRec$[ebp+8], -1
	lea	ecx, DWORD PTR $T121593[ebp]
	call	??1?$basic_string@DU?$char_traits@D@std@@V?$K2StringAllocator@D@@@std@@QAE@XZ ; std::basic_string<char,std::char_traits<char>,K2StringAllocator<char> >::~basic_string<char,std::char_traits<char>,K2StringAllocator<char> >
$LN16@System_Mai:

; 163  : 			for (int i(0); i < (lParam & 0xffff); ++i) Input.AddEvent(K2System.GetButton(wParam, lParam), true, Input.GetCursorPos());

	mov	DWORD PTR _i$114930[ebp], 0
	jmp	SHORT $LN15@System_Mai
$LN14@System_Mai:
	mov	eax, DWORD PTR _i$114930[ebp]
	add	eax, 1
	mov	DWORD PTR _i$114930[ebp], eax
$LN15@System_Mai:
	mov	eax, DWORD PTR _lParam$[ebp]
	and	eax, 65535				; 0000ffffH
	cmp	DWORD PTR _i$114930[ebp], eax
	jge	SHORT $LN13@System_Mai
	lea	eax, DWORD PTR $T121594[ebp]
	push	eax
	mov	ecx, DWORD PTR __imp_?g_pInput@@3PAVCInput@@A
	mov	ecx, DWORD PTR [ecx]
	call	DWORD PTR __imp_?GetCursorPos@CInput@@QAE?AV?$CVec2@M@@XZ
	push	eax
	push	1
	mov	edx, DWORD PTR _lParam$[ebp]
	push	edx
	mov	eax, DWORD PTR _wParam$[ebp]
	push	eax
	mov	ecx, DWORD PTR __imp_?K2System@@3AAVCSystem@@A
	mov	ecx, DWORD PTR [ecx]
	call	DWORD PTR __imp_?GetButton@CSystem@@QAE?AW4EButton@@II@Z
	push	eax
	mov	edx, DWORD PTR __imp_?g_pInput@@3PAVCInput@@A
	mov	ecx, DWORD PTR [edx]
	call	DWORD PTR __imp_?AddEvent@CInput@@QAEXW4EButton@@_NABV?$CVec2@M@@@Z
	jmp	SHORT $LN14@System_Mai
$LN13@System_Mai:

; 164  : 			return 0;

	xor	eax, eax
	jmp	$LN49@System_Mai
$LN12@System_Mai:

; 165  : 
; 166  : 		case WM_KEYUP:
; 167  : 		case WM_SYSKEYUP:
; 168  : 			if (key_debugEvents)

	mov	ecx, OFFSET ?key_debugEvents@@3V?$CCvar@_N_N@@A ; key_debugEvents
	call	??B?$CCvar@_N_N@@QBE_NXZ		; CCvar<bool,bool>::operator bool
	movzx	eax, al
	test	eax, eax
	je	$LN11@System_Mai

; 169  : 				Console << _T("KEYUP: ") << XtoA(wParam, FMT_PADZERO, 10, 16) << " " << (char)wParam << _T(" ") << K2System.Milliseconds() << newl;

	mov	eax, DWORD PTR __imp_?g_pConsole@@3PAVCConsole@@A
	mov	ecx, DWORD PTR [eax]
	call	?GetNewl@CConsole@@QBEABV?$basic_string@_WU?$char_traits@_W@std@@V?$K2StringAllocator@_W@@@std@@XZ ; CConsole::GetNewl
	push	eax
	mov	ecx, DWORD PTR __imp_?K2System@@3AAVCSystem@@A
	mov	ecx, DWORD PTR [ecx]
	call	DWORD PTR __imp_?Milliseconds@CSystem@@QAEIXZ
	push	eax
	push	OFFSET ??_C@_13HOIJIPNN@?$AA?5?$AA?$AA@
	mov	dl, BYTE PTR _wParam$[ebp]
	push	edx
	push	OFFSET ??_C@_01CLKCMJKC@?5?$AA@
	push	16					; 00000010H
	push	10					; 0000000aH
	push	2
	mov	eax, DWORD PTR _wParam$[ebp]
	push	eax
	lea	ecx, DWORD PTR $T121595[ebp]
	push	ecx
	call	?XtoW@@YA?AV?$basic_string@_WU?$char_traits@_W@std@@V?$K2StringAllocator@_W@@@std@@IHHH@Z ; XtoW
	add	esp, 20					; 00000014H
	mov	DWORD PTR tv780[ebp], eax
	mov	edx, DWORD PTR tv780[ebp]
	mov	DWORD PTR tv770[ebp], edx
	mov	DWORD PTR __$EHRec$[ebp+8], 13		; 0000000dH
	mov	eax, DWORD PTR tv770[ebp]
	push	eax
	push	OFFSET ??_C@_1BA@MOBKFND@?$AAK?$AAE?$AAY?$AAU?$AAP?$AA?3?$AA?5?$AA?$AA@
	mov	ecx, DWORD PTR __imp_?g_pConsole@@3PAVCConsole@@A
	mov	ecx, DWORD PTR [ecx]
	call	??6CConsole@@QAEAAVCConsoleStream@@PB_W@Z ; CConsole::operator<<
	mov	ecx, eax
	call	??6CConsoleStream@@QAEAAV0@ABV?$basic_string@_WU?$char_traits@_W@std@@V?$K2StringAllocator@_W@@@std@@@Z ; CConsoleStream::operator<<
	mov	ecx, eax
	call	??6CConsoleStream@@QAEAAV0@PBD@Z	; CConsoleStream::operator<<
	mov	ecx, eax
	call	??6CConsoleStream@@QAEAAV0@D@Z		; CConsoleStream::operator<<
	mov	ecx, eax
	call	??6CConsoleStream@@QAEAAV0@PB_W@Z	; CConsoleStream::operator<<
	mov	ecx, eax
	call	??6CConsoleStream@@QAEAAV0@I@Z		; CConsoleStream::operator<<
	mov	ecx, eax
	call	??6CConsoleStream@@QAEAAV0@ABV?$basic_string@_WU?$char_traits@_W@std@@V?$K2StringAllocator@_W@@@std@@@Z ; CConsoleStream::operator<<
	mov	DWORD PTR __$EHRec$[ebp+8], -1
	lea	ecx, DWORD PTR $T121595[ebp]
	call	??1?$basic_string@_WU?$char_traits@_W@std@@V?$K2StringAllocator@_W@@@std@@QAE@XZ ; std::basic_string<wchar_t,std::char_traits<wchar_t>,K2StringAllocator<wchar_t> >::~basic_string<wchar_t,std::char_traits<wchar_t>,K2StringAllocator<wchar_t> >
$LN11@System_Mai:

; 170  : 			Input.AddEvent(K2System.GetButton(wParam, lParam), false, Input.GetCursorPos());

	lea	eax, DWORD PTR $T121596[ebp]
	push	eax
	mov	ecx, DWORD PTR __imp_?g_pInput@@3PAVCInput@@A
	mov	ecx, DWORD PTR [ecx]
	call	DWORD PTR __imp_?GetCursorPos@CInput@@QAE?AV?$CVec2@M@@XZ
	push	eax
	push	0
	mov	edx, DWORD PTR _lParam$[ebp]
	push	edx
	mov	eax, DWORD PTR _wParam$[ebp]
	push	eax
	mov	ecx, DWORD PTR __imp_?K2System@@3AAVCSystem@@A
	mov	ecx, DWORD PTR [ecx]
	call	DWORD PTR __imp_?GetButton@CSystem@@QAE?AW4EButton@@II@Z
	push	eax
	mov	edx, DWORD PTR __imp_?g_pInput@@3PAVCInput@@A
	mov	ecx, DWORD PTR [edx]
	call	DWORD PTR __imp_?AddEvent@CInput@@QAEXW4EButton@@_NABV?$CVec2@M@@@Z

; 171  : 			return 0;

	xor	eax, eax
	jmp	$LN49@System_Mai
$LN10@System_Mai:

; 172  : 
; 173  : 		case WM_CHAR:
; 174  : 			if (key_debugEvents)

	mov	ecx, OFFSET ?key_debugEvents@@3V?$CCvar@_N_N@@A ; key_debugEvents
	call	??B?$CCvar@_N_N@@QBE_NXZ		; CCvar<bool,bool>::operator bool
	movzx	eax, al
	test	eax, eax
	je	$LN9@System_Mai

; 175  : 				Console << _T("CHAR: ") << TCHAR(wParam) << _T("[") << INT_HEX_STR(wParam) << _T("]") << newl;

	mov	eax, DWORD PTR __imp_?g_pConsole@@3PAVCConsole@@A
	mov	ecx, DWORD PTR [eax]
	call	?GetNewl@CConsole@@QBEABV?$basic_string@_WU?$char_traits@_W@std@@V?$K2StringAllocator@_W@@@std@@XZ ; CConsole::GetNewl
	push	eax
	push	OFFSET ??_C@_13OHNMPHJM@?$AA?$FN?$AA?$AA@
	push	16					; 00000010H
	push	10					; 0000000aH
	push	2
	mov	ecx, DWORD PTR _wParam$[ebp]
	push	ecx
	lea	edx, DWORD PTR $T121597[ebp]
	push	edx
	call	?XtoS@@YA?AV?$basic_string@DU?$char_traits@D@std@@V?$K2StringAllocator@D@@@std@@IHHH@Z ; XtoS
	add	esp, 20					; 00000014H
	mov	DWORD PTR tv781[ebp], eax
	mov	eax, DWORD PTR tv781[ebp]
	mov	DWORD PTR tv772[ebp], eax
	mov	DWORD PTR __$EHRec$[ebp+8], 14		; 0000000eH
	mov	ecx, DWORD PTR tv772[ebp]
	push	ecx
	push	OFFSET ??_C@_13MCLHKIEA@?$AA?$FL?$AA?$AA@
	mov	dx, WORD PTR _wParam$[ebp]
	push	edx
	push	OFFSET ??_C@_1O@EGFLIGMM@?$AAC?$AAH?$AAA?$AAR?$AA?3?$AA?5?$AA?$AA@
	mov	eax, DWORD PTR __imp_?g_pConsole@@3PAVCConsole@@A
	mov	ecx, DWORD PTR [eax]
	call	??6CConsole@@QAEAAVCConsoleStream@@PB_W@Z ; CConsole::operator<<
	mov	ecx, eax
	call	??6CConsoleStream@@QAEAAV0@_W@Z		; CConsoleStream::operator<<
	mov	ecx, eax
	call	??6CConsoleStream@@QAEAAV0@PB_W@Z	; CConsoleStream::operator<<
	mov	ecx, eax
	call	??6CConsoleStream@@QAEAAV0@ABV?$basic_string@DU?$char_traits@D@std@@V?$K2StringAllocator@D@@@std@@@Z ; CConsoleStream::operator<<
	mov	ecx, eax
	call	??6CConsoleStream@@QAEAAV0@PB_W@Z	; CConsoleStream::operator<<
	mov	ecx, eax
	call	??6CConsoleStream@@QAEAAV0@ABV?$basic_string@_WU?$char_traits@_W@std@@V?$K2StringAllocator@_W@@@std@@@Z ; CConsoleStream::operator<<
	mov	DWORD PTR __$EHRec$[ebp+8], -1
	lea	ecx, DWORD PTR $T121597[ebp]
	call	??1?$basic_string@DU?$char_traits@D@std@@V?$K2StringAllocator@D@@@std@@QAE@XZ ; std::basic_string<char,std::char_traits<char>,K2StringAllocator<char> >::~basic_string<char,std::char_traits<char>,K2StringAllocator<char> >
$LN9@System_Mai:

; 176  : 			for (int i(0); i < (lParam & 0xffff); ++i) Input.AddEvent(TCHAR(wParam));

	mov	DWORD PTR _i$114947[ebp], 0
	jmp	SHORT $LN8@System_Mai
$LN7@System_Mai:
	mov	eax, DWORD PTR _i$114947[ebp]
	add	eax, 1
	mov	DWORD PTR _i$114947[ebp], eax
$LN8@System_Mai:
	mov	eax, DWORD PTR _lParam$[ebp]
	and	eax, 65535				; 0000ffffH
	cmp	DWORD PTR _i$114947[ebp], eax
	jge	SHORT $LN6@System_Mai
	mov	ax, WORD PTR _wParam$[ebp]
	push	eax
	mov	ecx, DWORD PTR __imp_?g_pInput@@3PAVCInput@@A
	mov	ecx, DWORD PTR [ecx]
	call	DWORD PTR __imp_?AddEvent@CInput@@QAEX_W@Z
	jmp	SHORT $LN7@System_Mai
$LN6@System_Mai:

; 177  : 			return 0;

	xor	eax, eax
	jmp	$LN49@System_Mai
$LN5@System_Mai:

; 178  : 
; 179  : 		case WM_SYSCHAR:
; 180  : 			if (key_debugEvents)

	mov	ecx, OFFSET ?key_debugEvents@@3V?$CCvar@_N_N@@A ; key_debugEvents
	call	??B?$CCvar@_N_N@@QBE_NXZ		; CCvar<bool,bool>::operator bool
	movzx	eax, al
	test	eax, eax
	je	$LN4@System_Mai

; 181  : 				Console << _T("WM_SYSCHAR: ") << TCHAR(wParam) << _T("[") << INT_HEX_STR(wParam) << _T("]") << newl;

	mov	eax, DWORD PTR __imp_?g_pConsole@@3PAVCConsole@@A
	mov	ecx, DWORD PTR [eax]
	call	?GetNewl@CConsole@@QBEABV?$basic_string@_WU?$char_traits@_W@std@@V?$K2StringAllocator@_W@@@std@@XZ ; CConsole::GetNewl
	push	eax
	push	OFFSET ??_C@_13OHNMPHJM@?$AA?$FN?$AA?$AA@
	push	16					; 00000010H
	push	10					; 0000000aH
	push	2
	mov	ecx, DWORD PTR _wParam$[ebp]
	push	ecx
	lea	edx, DWORD PTR $T121598[ebp]
	push	edx
	call	?XtoS@@YA?AV?$basic_string@DU?$char_traits@D@std@@V?$K2StringAllocator@D@@@std@@IHHH@Z ; XtoS
	add	esp, 20					; 00000014H
	mov	DWORD PTR tv782[ebp], eax
	mov	eax, DWORD PTR tv782[ebp]
	mov	DWORD PTR tv774[ebp], eax
	mov	DWORD PTR __$EHRec$[ebp+8], 15		; 0000000fH
	mov	ecx, DWORD PTR tv774[ebp]
	push	ecx
	push	OFFSET ??_C@_13MCLHKIEA@?$AA?$FL?$AA?$AA@
	mov	dx, WORD PTR _wParam$[ebp]
	push	edx
	push	OFFSET ??_C@_1BK@NKLNEEAL@?$AAW?$AAM?$AA_?$AAS?$AAY?$AAS?$AAC?$AAH?$AAA?$AAR?$AA?3?$AA?5?$AA?$AA@
	mov	eax, DWORD PTR __imp_?g_pConsole@@3PAVCConsole@@A
	mov	ecx, DWORD PTR [eax]
	call	??6CConsole@@QAEAAVCConsoleStream@@PB_W@Z ; CConsole::operator<<
	mov	ecx, eax
	call	??6CConsoleStream@@QAEAAV0@_W@Z		; CConsoleStream::operator<<
	mov	ecx, eax
	call	??6CConsoleStream@@QAEAAV0@PB_W@Z	; CConsoleStream::operator<<
	mov	ecx, eax
	call	??6CConsoleStream@@QAEAAV0@ABV?$basic_string@DU?$char_traits@D@std@@V?$K2StringAllocator@D@@@std@@@Z ; CConsoleStream::operator<<
	mov	ecx, eax
	call	??6CConsoleStream@@QAEAAV0@PB_W@Z	; CConsoleStream::operator<<
	mov	ecx, eax
	call	??6CConsoleStream@@QAEAAV0@ABV?$basic_string@_WU?$char_traits@_W@std@@V?$K2StringAllocator@_W@@@std@@@Z ; CConsoleStream::operator<<
	mov	DWORD PTR __$EHRec$[ebp+8], -1
	lea	ecx, DWORD PTR $T121598[ebp]
	call	??1?$basic_string@DU?$char_traits@D@std@@V?$K2StringAllocator@D@@@std@@QAE@XZ ; std::basic_string<char,std::char_traits<char>,K2StringAllocator<char> >::~basic_string<char,std::char_traits<char>,K2StringAllocator<char> >
$LN4@System_Mai:

; 182  : 			return 0;

	xor	eax, eax
	jmp	SHORT $LN49@System_Mai
$LN3@System_Mai:

; 183  : 
; 184  : 		case WM_HOTKEY:
; 185  : 			return 0;

	xor	eax, eax
	jmp	SHORT $LN49@System_Mai
$LN2@System_Mai:

; 186  : 
; 187  : 		case WM_SETCURSOR:
; 188  : 			Vid.ShowCursor(true);

	push	1
	mov	eax, DWORD PTR __imp_?pVid@@3PAVCVid@@A
	mov	ecx, DWORD PTR [eax]
	call	DWORD PTR __imp_?ShowCursor@CVid@@QAEX_N@Z

; 189  : 			return DefWindowProc(hWnd, uMsg, wParam, lParam);

	mov	eax, DWORD PTR _lParam$[ebp]
	push	eax
	mov	ecx, DWORD PTR _wParam$[ebp]
	push	ecx
	mov	edx, DWORD PTR _uMsg$[ebp]
	push	edx
	mov	eax, DWORD PTR _hWnd$[ebp]
	push	eax
	call	DWORD PTR __imp__DefWindowProcW@16
	jmp	SHORT $LN49@System_Mai
$LN1@System_Mai:

; 190  : 
; 191  : 		default:
; 192  :             return DefWindowProc(hWnd, uMsg, wParam, lParam);

	mov	eax, DWORD PTR _lParam$[ebp]
	push	eax
	mov	ecx, DWORD PTR _wParam$[ebp]
	push	ecx
	mov	edx, DWORD PTR _uMsg$[ebp]
	push	edx
	mov	eax, DWORD PTR _hWnd$[ebp]
	push	eax
	call	DWORD PTR __imp__DefWindowProcW@16
$LN49@System_Mai:

; 193  : 	}
; 194  : }

	mov	ecx, DWORD PTR __$EHRec$[ebp]
	mov	DWORD PTR fs:0, ecx
	pop	ecx
	pop	edi
	pop	esi
	pop	ebx
	mov	esp, ebp
	pop	ebp
	ret	16					; 00000010H
$LN74@System_Mai:
	DD	$LN45@System_Mai
	DD	$LN48@System_Mai
	DD	$LN44@System_Mai
	DD	$LN39@System_Mai
	DD	$LN2@System_Mai
	DD	$LN1@System_Mai
$LN72@System_Mai:
	DB	0
	DB	5
	DB	5
	DB	5
	DB	5
	DB	1
	DB	5
	DB	5
	DB	5
	DB	5
	DB	5
	DB	5
	DB	5
	DB	5
	DB	2
	DB	3
	DB	5
	DB	5
	DB	5
	DB	5
	DB	5
	DB	5
	DB	5
	DB	5
	DB	5
	DB	5
	DB	5
	DB	5
	DB	5
	DB	5
	DB	5
	DB	4
$LN75@System_Mai:
	DD	$LN12@System_Mai
	DD	$LN10@System_Mai
	DD	$LN1@System_Mai
	DD	$LN17@System_Mai
	DD	$LN12@System_Mai
	DD	$LN5@System_Mai
$LN76@System_Mai:
	DD	$LN36@System_Mai
	DD	$LN36@System_Mai
	DD	$LN1@System_Mai
	DD	$LN34@System_Mai
	DD	$LN34@System_Mai
	DD	$LN1@System_Mai
	DD	$LN28@System_Mai
_TEXT	ENDS
;	COMDAT text$x
text$x	SEGMENT
__unwindfunclet$?System_MainWndProc@@YGJPAUHWND__@@IIJ@Z$0:
	lea	ecx, DWORD PTR _vsFiles$114821[ebp]
	jmp	??1?$vector@V?$basic_string@_WU?$char_traits@_W@std@@V?$K2StringAllocator@_W@@@std@@V?$K2VectorAllocator@V?$basic_string@_WU?$char_traits@_W@std@@V?$K2StringAllocator@_W@@@std@@@@@@QAE@XZ
__unwindfunclet$?System_MainWndProc@@YGJPAUHWND__@@IIJ@Z$1:
	lea	ecx, DWORD PTR $T121577[ebp]
	jmp	??1?$basic_string@_WU?$char_traits@_W@std@@V?$K2StringAllocator@_W@@@std@@QAE@XZ ; std::basic_string<wchar_t,std::char_traits<wchar_t>,K2StringAllocator<wchar_t> >::~basic_string<wchar_t,std::char_traits<wchar_t>,K2StringAllocator<wchar_t> >
__unwindfunclet$?System_MainWndProc@@YGJPAUHWND__@@IIJ@Z$2:
	lea	ecx, DWORD PTR $T121579[ebp]
	jmp	??1?$basic_string@_WU?$char_traits@_W@std@@V?$K2StringAllocator@_W@@@std@@QAE@XZ ; std::basic_string<wchar_t,std::char_traits<wchar_t>,K2StringAllocator<wchar_t> >::~basic_string<wchar_t,std::char_traits<wchar_t>,K2StringAllocator<wchar_t> >
__unwindfunclet$?System_MainWndProc@@YGJPAUHWND__@@IIJ@Z$3:
	lea	ecx, DWORD PTR $T121581[ebp]
	jmp	??1?$basic_string@DU?$char_traits@D@std@@V?$K2StringAllocator@D@@@std@@QAE@XZ ; std::basic_string<char,std::char_traits<char>,K2StringAllocator<char> >::~basic_string<char,std::char_traits<char>,K2StringAllocator<char> >
__unwindfunclet$?System_MainWndProc@@YGJPAUHWND__@@IIJ@Z$4:
	lea	ecx, DWORD PTR $T121580[ebp]
	jmp	??1?$basic_string@DU?$char_traits@D@std@@V?$K2StringAllocator@D@@@std@@QAE@XZ ; std::basic_string<char,std::char_traits<char>,K2StringAllocator<char> >::~basic_string<char,std::char_traits<char>,K2StringAllocator<char> >
__unwindfunclet$?System_MainWndProc@@YGJPAUHWND__@@IIJ@Z$5:
	lea	ecx, DWORD PTR $T121584[ebp]
	jmp	??1?$basic_string@DU?$char_traits@D@std@@V?$K2StringAllocator@D@@@std@@QAE@XZ ; std::basic_string<char,std::char_traits<char>,K2StringAllocator<char> >::~basic_string<char,std::char_traits<char>,K2StringAllocator<char> >
__unwindfunclet$?System_MainWndProc@@YGJPAUHWND__@@IIJ@Z$6:
	lea	ecx, DWORD PTR $T121583[ebp]
	jmp	??1?$basic_string@DU?$char_traits@D@std@@V?$K2StringAllocator@D@@@std@@QAE@XZ ; std::basic_string<char,std::char_traits<char>,K2StringAllocator<char> >::~basic_string<char,std::char_traits<char>,K2StringAllocator<char> >
__unwindfunclet$?System_MainWndProc@@YGJPAUHWND__@@IIJ@Z$7:
	lea	ecx, DWORD PTR $T121587[ebp]
	jmp	??1?$basic_string@DU?$char_traits@D@std@@V?$K2StringAllocator@D@@@std@@QAE@XZ ; std::basic_string<char,std::char_traits<char>,K2StringAllocator<char> >::~basic_string<char,std::char_traits<char>,K2StringAllocator<char> >
__unwindfunclet$?System_MainWndProc@@YGJPAUHWND__@@IIJ@Z$8:
	lea	ecx, DWORD PTR $T121586[ebp]
	jmp	??1?$basic_string@DU?$char_traits@D@std@@V?$K2StringAllocator@D@@@std@@QAE@XZ ; std::basic_string<char,std::char_traits<char>,K2StringAllocator<char> >::~basic_string<char,std::char_traits<char>,K2StringAllocator<char> >
__unwindfunclet$?System_MainWndProc@@YGJPAUHWND__@@IIJ@Z$9:
	lea	ecx, DWORD PTR $T121590[ebp]
	jmp	??1?$basic_string@DU?$char_traits@D@std@@V?$K2StringAllocator@D@@@std@@QAE@XZ ; std::basic_string<char,std::char_traits<char>,K2StringAllocator<char> >::~basic_string<char,std::char_traits<char>,K2StringAllocator<char> >
__unwindfunclet$?System_MainWndProc@@YGJPAUHWND__@@IIJ@Z$10:
	lea	ecx, DWORD PTR $T121589[ebp]
	jmp	??1?$basic_string@DU?$char_traits@D@std@@V?$K2StringAllocator@D@@@std@@QAE@XZ ; std::basic_string<char,std::char_traits<char>,K2StringAllocator<char> >::~basic_string<char,std::char_traits<char>,K2StringAllocator<char> >
__unwindfunclet$?System_MainWndProc@@YGJPAUHWND__@@IIJ@Z$11:
	lea	ecx, DWORD PTR _recWindow$114902[ebp]
	jmp	??1?$CRect@H@@QAE@XZ			; CRect<int>::~CRect<int>
__unwindfunclet$?System_MainWndProc@@YGJPAUHWND__@@IIJ@Z$12:
	lea	ecx, DWORD PTR $T121593[ebp]
	jmp	??1?$basic_string@DU?$char_traits@D@std@@V?$K2StringAllocator@D@@@std@@QAE@XZ ; std::basic_string<char,std::char_traits<char>,K2StringAllocator<char> >::~basic_string<char,std::char_traits<char>,K2StringAllocator<char> >
__unwindfunclet$?System_MainWndProc@@YGJPAUHWND__@@IIJ@Z$13:
	lea	ecx, DWORD PTR $T121595[ebp]
	jmp	??1?$basic_string@_WU?$char_traits@_W@std@@V?$K2StringAllocator@_W@@@std@@QAE@XZ ; std::basic_string<wchar_t,std::char_traits<wchar_t>,K2StringAllocator<wchar_t> >::~basic_string<wchar_t,std::char_traits<wchar_t>,K2StringAllocator<wchar_t> >
__unwindfunclet$?System_MainWndProc@@YGJPAUHWND__@@IIJ@Z$14:
	lea	ecx, DWORD PTR $T121597[ebp]
	jmp	??1?$basic_string@DU?$char_traits@D@std@@V?$K2StringAllocator@D@@@std@@QAE@XZ ; std::basic_string<char,std::char_traits<char>,K2StringAllocator<char> >::~basic_string<char,std::char_traits<char>,K2StringAllocator<char> >
__unwindfunclet$?System_MainWndProc@@YGJPAUHWND__@@IIJ@Z$15:
	lea	ecx, DWORD PTR $T121598[ebp]
	jmp	??1?$basic_string@DU?$char_traits@D@std@@V?$K2StringAllocator@D@@@std@@QAE@XZ ; std::basic_string<char,std::char_traits<char>,K2StringAllocator<char> >::~basic_string<char,std::char_traits<char>,K2StringAllocator<char> >
__ehhandler$?System_MainWndProc@@YGJPAUHWND__@@IIJ@Z:
	mov	edx, DWORD PTR [esp+8]
	lea	eax, DWORD PTR [edx+12]
	mov	ecx, DWORD PTR [edx-692]
	xor	ecx, eax
	call	@__security_check_cookie@4
	mov	eax, OFFSET __ehfuncinfo$?System_MainWndProc@@YGJPAUHWND__@@IIJ@Z
	jmp	___CxxFrameHandler3
text$x	ENDS
?System_MainWndProc@@YGJPAUHWND__@@IIJ@Z ENDP		; System_MainWndProc
PUBLIC	??_C@_11LOCGONAA@?$AA?$AA@			; `string'
PUBLIC	??$?H_WU?$char_traits@_W@std@@V?$K2StringAllocator@_W@@@std@@YA?AV?$basic_string@_WU?$char_traits@_W@std@@V?$K2StringAllocator@_W@@@0@PB_WABV10@@Z ; std::operator+<wchar_t,std::char_traits<wchar_t>,K2StringAllocator<wchar_t> >
PUBLIC	??_C@_1BI@HHMDBMPD@?$AAS?$AAe?$AAr?$AAv?$AAe?$AAr?$AAC?$AAh?$AAa?$AAt?$AA?5?$AA?$AA@ ; `string'
PUBLIC	??$QuoteStr@V?$basic_string@_WU?$char_traits@_W@std@@V?$K2StringAllocator@_W@@@std@@@@YA?AV?$basic_string@_WU?$char_traits@_W@std@@V?$K2StringAllocator@_W@@@std@@V01@@Z ; QuoteStr<std::basic_string<wchar_t,std::char_traits<wchar_t>,K2StringAllocator<wchar_t> > >
PUBLIC	??0?$basic_string@_WU?$char_traits@_W@std@@V?$K2StringAllocator@_W@@@std@@QAE@ABV01@@Z ; std::basic_string<wchar_t,std::char_traits<wchar_t>,K2StringAllocator<wchar_t> >::basic_string<wchar_t,std::char_traits<wchar_t>,K2StringAllocator<wchar_t> >
PUBLIC	??_C@_15NAHPJHLP@?$AA?$DO?$AA?5?$AA?$AA@	; `string'
PUBLIC	??4?$basic_string@_WU?$char_traits@_W@std@@V?$K2StringAllocator@_W@@@std@@QAEAAV01@ABV01@@Z ; std::basic_string<wchar_t,std::char_traits<wchar_t>,K2StringAllocator<wchar_t> >::operator=
PUBLIC	?substr@?$basic_string@_WU?$char_traits@_W@std@@V?$K2StringAllocator@_W@@@std@@QBE?AV12@II@Z ; std::basic_string<wchar_t,std::char_traits<wchar_t>,K2StringAllocator<wchar_t> >::substr
PUBLIC	??A?$basic_string@_WU?$char_traits@_W@std@@V?$K2StringAllocator@_W@@@std@@QAEAA_WI@Z ; std::basic_string<wchar_t,std::char_traits<wchar_t>,K2StringAllocator<wchar_t> >::operator[]
PUBLIC	?length@?$basic_string@_WU?$char_traits@_W@std@@V?$K2StringAllocator@_W@@@std@@QBEIXZ ; std::basic_string<wchar_t,std::char_traits<wchar_t>,K2StringAllocator<wchar_t> >::length
PUBLIC	__$ArrayPad$
PUBLIC	?System_ConsoleWndProc@@YGJPAUHWND__@@IIJ@Z	; System_ConsoleWndProc
EXTRN	__imp__SetWindowTextW@8:PROC
EXTRN	__imp__GetWindowTextW@12:PROC
EXTRN	__imp__GetDlgItem@8:PROC
EXTRN	__imp_?Exit@CSystem@@QAEXH@Z:PROC
EXTRN	__imp_?RestartOnExit@CSystem@@QAEX_N@Z:PROC
EXTRN	__chkstk:PROC
;	COMDAT ??_C@_11LOCGONAA@?$AA?$AA@
CONST	SEGMENT
??_C@_11LOCGONAA@?$AA?$AA@ DB 00H, 00H			; `string'
CONST	ENDS
;	COMDAT ??_C@_1BI@HHMDBMPD@?$AAS?$AAe?$AAr?$AAv?$AAe?$AAr?$AAC?$AAh?$AAa?$AAt?$AA?5?$AA?$AA@
CONST	SEGMENT
??_C@_1BI@HHMDBMPD@?$AAS?$AAe?$AAr?$AAv?$AAe?$AAr?$AAC?$AAh?$AAa?$AAt?$AA?5?$AA?$AA@ DB 'S'
	DB	00H, 'e', 00H, 'r', 00H, 'v', 00H, 'e', 00H, 'r', 00H, 'C', 00H
	DB	'h', 00H, 'a', 00H, 't', 00H, ' ', 00H, 00H, 00H ; `string'
CONST	ENDS
;	COMDAT ??_C@_15NAHPJHLP@?$AA?$DO?$AA?5?$AA?$AA@
CONST	SEGMENT
??_C@_15NAHPJHLP@?$AA?$DO?$AA?5?$AA?$AA@ DB '>', 00H, ' ', 00H, 00H, 00H ; `string'
CONST	ENDS
;	COMDAT xdata$x
xdata$x	SEGMENT
__unwindtable$?System_ConsoleWndProc@@YGJPAUHWND__@@IIJ@Z DD 0ffffffffH
	DD	FLAT:__unwindfunclet$?System_ConsoleWndProc@@YGJPAUHWND__@@IIJ@Z$0
	DD	00H
	DD	FLAT:__unwindfunclet$?System_ConsoleWndProc@@YGJPAUHWND__@@IIJ@Z$1
	DD	00H
	DD	FLAT:__unwindfunclet$?System_ConsoleWndProc@@YGJPAUHWND__@@IIJ@Z$3
	DD	02H
	DD	FLAT:__unwindfunclet$?System_ConsoleWndProc@@YGJPAUHWND__@@IIJ@Z$4
__ehfuncinfo$?System_ConsoleWndProc@@YGJPAUHWND__@@IIJ@Z DD 019930522H
	DD	04H
	DD	FLAT:__unwindtable$?System_ConsoleWndProc@@YGJPAUHWND__@@IIJ@Z
	DD	2 DUP(00H)
	DD	2 DUP(00H)
	DD	00H
	DD	01H
; Function compile flags: /Odtp /ZI
xdata$x	ENDS
;	COMDAT ?System_ConsoleWndProc@@YGJPAUHWND__@@IIJ@Z
_TEXT	SEGMENT
tv226 = -4328						; size = 4
tv227 = -4324						; size = 4
tv224 = -4320						; size = 4
tv222 = -4316						; size = 4
tv219 = -4316						; size = 4
tv221 = -4312						; size = 4
tv87 = -4312						; size = 4
tv68 = -4312						; size = 4
tv64 = -4312						; size = 4
$T121637 = -4308					; size = 32
$T121638 = -4276					; size = 4
$T121639 = -4272					; size = 32
$T121640 = -4240					; size = 32
_sCmd$114984 = -4144					; size = 32
_szCmd$114981 = -4112					; size = 4096
__$ArrayPad$ = -16					; size = 4
__$EHRec$ = -12						; size = 12
_hWnd$ = 8						; size = 4
_uMsg$ = 12						; size = 4
_wParam$ = 16						; size = 4
_lParam$ = 20						; size = 4
?System_ConsoleWndProc@@YGJPAUHWND__@@IIJ@Z PROC	; System_ConsoleWndProc, COMDAT

; 197  : {

	push	ebp
	mov	ebp, esp
	push	-1
	push	__ehhandler$?System_ConsoleWndProc@@YGJPAUHWND__@@IIJ@Z
	mov	eax, DWORD PTR fs:0
	push	eax
	mov	eax, 4316				; 000010dcH
	call	__chkstk
	mov	eax, DWORD PTR ___security_cookie
	xor	eax, ebp
	mov	DWORD PTR __$ArrayPad$[ebp], eax
	push	ebx
	push	esi
	push	edi
	push	eax
	lea	eax, DWORD PTR __$EHRec$[ebp]
	mov	DWORD PTR fs:0, eax

; 198  : 	switch (uMsg)

	mov	eax, DWORD PTR _uMsg$[ebp]
	mov	DWORD PTR tv64[ebp], eax
	cmp	DWORD PTR tv64[ebp], 16			; 00000010H
	je	$LN2@System_Con
	cmp	DWORD PTR tv64[ebp], 272		; 00000110H
	je	SHORT $LN17@System_Con
	cmp	DWORD PTR tv64[ebp], 273		; 00000111H
	je	SHORT $LN16@System_Con
	jmp	$LN1@System_Con
$LN17@System_Con:

; 199  : 	{
; 200  : 		case WM_INITDIALOG:			
; 201  : 			return TRUE;

	mov	eax, 1
	jmp	$LN20@System_Con
$LN16@System_Con:

; 202  : 
; 203  : 		case WM_COMMAND:
; 204  : 			//control messages
; 205  : 			switch (LOWORD(wParam))

	mov	eax, DWORD PTR _wParam$[ebp]
	and	eax, 65535				; 0000ffffH
	movzx	ecx, ax
	mov	DWORD PTR tv68[ebp], ecx
	mov	edx, DWORD PTR tv68[ebp]
	sub	edx, 1000				; 000003e8H
	mov	DWORD PTR tv68[ebp], edx
	cmp	DWORD PTR tv68[ebp], 8
	ja	$LN14@System_Con
	mov	eax, DWORD PTR tv68[ebp]
	movzx	ecx, BYTE PTR $LN27@System_Con[eax]
	jmp	DWORD PTR $LN29@System_Con[ecx*4]
$LN13@System_Con:

; 206  : 			{
; 207  : 				case IDC_QUIT:
; 208  : 					K2System.RestartOnExit(false);

	push	0
	mov	eax, DWORD PTR __imp_?K2System@@3AAVCSystem@@A
	mov	ecx, DWORD PTR [eax]
	call	DWORD PTR __imp_?RestartOnExit@CSystem@@QAEX_N@Z

; 209  : 					K2System.Exit(0);

	push	0
	mov	eax, DWORD PTR __imp_?K2System@@3AAVCSystem@@A
	mov	ecx, DWORD PTR [eax]
	call	DWORD PTR __imp_?Exit@CSystem@@QAEXH@Z

; 210  : 					break;

	jmp	$LN14@System_Con
$LN12@System_Con:

; 211  : 
; 212  : 				case IDC_COMMAND:
; 213  : 				case IDC_CHAT:
; 214  : 					if (HIWORD(wParam) == EN_CHANGE)

	mov	eax, DWORD PTR _wParam$[ebp]
	shr	eax, 16					; 00000010H
	movzx	ecx, ax
	cmp	ecx, 768				; 00000300H
	jne	$LN11@System_Con

; 215  : 					{
; 216  : 						TCHAR szCmd[2048];
; 217  : 						GetWindowText(GetDlgItem(hWnd, LOWORD(wParam)), szCmd, 2047);

	push	2047					; 000007ffH
	lea	eax, DWORD PTR _szCmd$114981[ebp]
	push	eax
	mov	ecx, DWORD PTR _wParam$[ebp]
	and	ecx, 65535				; 0000ffffH
	movzx	edx, cx
	push	edx
	mov	eax, DWORD PTR _hWnd$[ebp]
	push	eax
	call	DWORD PTR __imp__GetDlgItem@8
	push	eax
	call	DWORD PTR __imp__GetWindowTextW@12

; 218  : 						tstring sCmd(szCmd);

	lea	eax, DWORD PTR _szCmd$114981[ebp]
	push	eax
	lea	ecx, DWORD PTR _sCmd$114984[ebp]
	call	??0?$basic_string@_WU?$char_traits@_W@std@@V?$K2StringAllocator@_W@@@std@@QAE@PB_W@Z ; std::basic_string<wchar_t,std::char_traits<wchar_t>,K2StringAllocator<wchar_t> >::basic_string<wchar_t,std::char_traits<wchar_t>,K2StringAllocator<wchar_t> >
	mov	DWORD PTR __$EHRec$[ebp+8], 0

; 219  : 
; 220  : 						if (sCmd.length() > 2)

	lea	ecx, DWORD PTR _sCmd$114984[ebp]
	call	?length@?$basic_string@_WU?$char_traits@_W@std@@V?$K2StringAllocator@_W@@@std@@QBEIXZ ; std::basic_string<wchar_t,std::char_traits<wchar_t>,K2StringAllocator<wchar_t> >::length
	cmp	eax, 2
	jbe	$LN10@System_Con

; 221  : 						{
; 222  : 							if (sCmd[sCmd.length() - 2] == _T('\r'))

	lea	ecx, DWORD PTR _sCmd$114984[ebp]
	call	?length@?$basic_string@_WU?$char_traits@_W@std@@V?$K2StringAllocator@_W@@@std@@QBEIXZ ; std::basic_string<wchar_t,std::char_traits<wchar_t>,K2StringAllocator<wchar_t> >::length
	sub	eax, 2
	push	eax
	lea	ecx, DWORD PTR _sCmd$114984[ebp]
	call	??A?$basic_string@_WU?$char_traits@_W@std@@V?$K2StringAllocator@_W@@@std@@QAEAA_WI@Z ; std::basic_string<wchar_t,std::char_traits<wchar_t>,K2StringAllocator<wchar_t> >::operator[]
	movzx	eax, WORD PTR [eax]
	cmp	eax, 13					; 0000000dH
	jne	$LN10@System_Con

; 223  : 							{
; 224  : 								sCmd = sCmd.substr(0, sCmd.length() - 2);

	lea	ecx, DWORD PTR _sCmd$114984[ebp]
	call	?length@?$basic_string@_WU?$char_traits@_W@std@@V?$K2StringAllocator@_W@@@std@@QBEIXZ ; std::basic_string<wchar_t,std::char_traits<wchar_t>,K2StringAllocator<wchar_t> >::length
	sub	eax, 2
	push	eax
	push	0
	lea	eax, DWORD PTR $T121637[ebp]
	push	eax
	lea	ecx, DWORD PTR _sCmd$114984[ebp]
	call	?substr@?$basic_string@_WU?$char_traits@_W@std@@V?$K2StringAllocator@_W@@@std@@QBE?AV12@II@Z ; std::basic_string<wchar_t,std::char_traits<wchar_t>,K2StringAllocator<wchar_t> >::substr
	mov	DWORD PTR tv87[ebp], eax
	mov	ecx, DWORD PTR tv87[ebp]
	mov	DWORD PTR tv219[ebp], ecx
	mov	BYTE PTR __$EHRec$[ebp+8], 1
	mov	edx, DWORD PTR tv219[ebp]
	push	edx
	lea	ecx, DWORD PTR _sCmd$114984[ebp]
	call	??4?$basic_string@_WU?$char_traits@_W@std@@V?$K2StringAllocator@_W@@@std@@QAEAAV01@ABV01@@Z ; std::basic_string<wchar_t,std::char_traits<wchar_t>,K2StringAllocator<wchar_t> >::operator=
	mov	BYTE PTR __$EHRec$[ebp+8], 0
	lea	ecx, DWORD PTR $T121637[ebp]
	call	??1?$basic_string@_WU?$char_traits@_W@std@@V?$K2StringAllocator@_W@@@std@@QAE@XZ ; std::basic_string<wchar_t,std::char_traits<wchar_t>,K2StringAllocator<wchar_t> >::~basic_string<wchar_t,std::char_traits<wchar_t>,K2StringAllocator<wchar_t> >

; 225  : 
; 226  : 								if (LOWORD(wParam) == IDC_COMMAND)

	mov	eax, DWORD PTR _wParam$[ebp]
	and	eax, 65535				; 0000ffffH
	movzx	ecx, ax
	cmp	ecx, 1001				; 000003e9H
	jne	SHORT $LN8@System_Con

; 227  : 								{
; 228  : 									Console.Std << _T("> ") << sCmd << newl;

	mov	eax, DWORD PTR __imp_?g_pConsole@@3PAVCConsole@@A
	mov	ecx, DWORD PTR [eax]
	call	?GetNewl@CConsole@@QBEABV?$basic_string@_WU?$char_traits@_W@std@@V?$K2StringAllocator@_W@@@std@@XZ ; CConsole::GetNewl
	push	eax
	lea	ecx, DWORD PTR _sCmd$114984[ebp]
	push	ecx
	push	OFFSET ??_C@_15NAHPJHLP@?$AA?$DO?$AA?5?$AA?$AA@
	mov	edx, DWORD PTR __imp_?g_pConsole@@3PAVCConsole@@A
	mov	ecx, DWORD PTR [edx]
	add	ecx, 280				; 00000118H
	call	??6CConsoleStream@@QAEAAV0@PB_W@Z	; CConsoleStream::operator<<
	mov	ecx, eax
	call	??6CConsoleStream@@QAEAAV0@ABV?$basic_string@_WU?$char_traits@_W@std@@V?$K2StringAllocator@_W@@@std@@@Z ; CConsoleStream::operator<<
	mov	ecx, eax
	call	??6CConsoleStream@@QAEAAV0@ABV?$basic_string@_WU?$char_traits@_W@std@@V?$K2StringAllocator@_W@@@std@@@Z ; CConsoleStream::operator<<

; 229  : 									Console.Execute(sCmd);

	lea	eax, DWORD PTR _sCmd$114984[ebp]
	push	eax
	mov	ecx, DWORD PTR __imp_?g_pConsole@@3PAVCConsole@@A
	mov	ecx, DWORD PTR [ecx]
	call	DWORD PTR __imp_?Execute@CConsole@@QAEXABV?$basic_string@_WU?$char_traits@_W@std@@V?$K2StringAllocator@_W@@@std@@@Z

; 230  : 								}
; 231  : 								else // Chatting

	jmp	$LN7@System_Con
$LN8@System_Con:

; 232  : 								{
; 233  : 									Console.Execute(_T("ServerChat ") + QuoteStr(sCmd));

	sub	esp, 32					; 00000020H
	mov	ecx, esp
	mov	DWORD PTR $T121638[ebp], esp
	lea	eax, DWORD PTR _sCmd$114984[ebp]
	push	eax
	call	??0?$basic_string@_WU?$char_traits@_W@std@@V?$K2StringAllocator@_W@@@std@@QAE@ABV01@@Z ; std::basic_string<wchar_t,std::char_traits<wchar_t>,K2StringAllocator<wchar_t> >::basic_string<wchar_t,std::char_traits<wchar_t>,K2StringAllocator<wchar_t> >
	mov	DWORD PTR tv221[ebp], eax
	lea	ecx, DWORD PTR $T121639[ebp]
	push	ecx
	call	??$QuoteStr@V?$basic_string@_WU?$char_traits@_W@std@@V?$K2StringAllocator@_W@@@std@@@@YA?AV?$basic_string@_WU?$char_traits@_W@std@@V?$K2StringAllocator@_W@@@std@@V01@@Z ; QuoteStr<std::basic_string<wchar_t,std::char_traits<wchar_t>,K2StringAllocator<wchar_t> > >
	add	esp, 36					; 00000024H
	mov	DWORD PTR tv222[ebp], eax
	mov	edx, DWORD PTR tv222[ebp]
	mov	DWORD PTR tv224[ebp], edx
	mov	BYTE PTR __$EHRec$[ebp+8], 2
	mov	eax, DWORD PTR tv224[ebp]
	push	eax
	push	OFFSET ??_C@_1BI@HHMDBMPD@?$AAS?$AAe?$AAr?$AAv?$AAe?$AAr?$AAC?$AAh?$AAa?$AAt?$AA?5?$AA?$AA@
	lea	ecx, DWORD PTR $T121640[ebp]
	push	ecx
	call	??$?H_WU?$char_traits@_W@std@@V?$K2StringAllocator@_W@@@std@@YA?AV?$basic_string@_WU?$char_traits@_W@std@@V?$K2StringAllocator@_W@@@0@PB_WABV10@@Z ; std::operator+<wchar_t,std::char_traits<wchar_t>,K2StringAllocator<wchar_t> >
	add	esp, 12					; 0000000cH
	mov	DWORD PTR tv227[ebp], eax
	mov	edx, DWORD PTR tv227[ebp]
	mov	DWORD PTR tv226[ebp], edx
	mov	BYTE PTR __$EHRec$[ebp+8], 3
	mov	eax, DWORD PTR tv226[ebp]
	push	eax
	mov	ecx, DWORD PTR __imp_?g_pConsole@@3PAVCConsole@@A
	mov	ecx, DWORD PTR [ecx]
	call	DWORD PTR __imp_?Execute@CConsole@@QAEXABV?$basic_string@_WU?$char_traits@_W@std@@V?$K2StringAllocator@_W@@@std@@@Z
	mov	BYTE PTR __$EHRec$[ebp+8], 2
	lea	ecx, DWORD PTR $T121640[ebp]
	call	??1?$basic_string@_WU?$char_traits@_W@std@@V?$K2StringAllocator@_W@@@std@@QAE@XZ ; std::basic_string<wchar_t,std::char_traits<wchar_t>,K2StringAllocator<wchar_t> >::~basic_string<wchar_t,std::char_traits<wchar_t>,K2StringAllocator<wchar_t> >
	mov	BYTE PTR __$EHRec$[ebp+8], 0
	lea	ecx, DWORD PTR $T121639[ebp]
	call	??1?$basic_string@_WU?$char_traits@_W@std@@V?$K2StringAllocator@_W@@@std@@QAE@XZ ; std::basic_string<wchar_t,std::char_traits<wchar_t>,K2StringAllocator<wchar_t> >::~basic_string<wchar_t,std::char_traits<wchar_t>,K2StringAllocator<wchar_t> >
$LN7@System_Con:

; 234  : 								}
; 235  : 
; 236  : 								SetWindowText(GetDlgItem(hWnd, LOWORD(wParam)), _T(""));

	push	OFFSET ??_C@_11LOCGONAA@?$AA?$AA@
	mov	eax, DWORD PTR _wParam$[ebp]
	and	eax, 65535				; 0000ffffH
	movzx	ecx, ax
	push	ecx
	mov	edx, DWORD PTR _hWnd$[ebp]
	push	edx
	call	DWORD PTR __imp__GetDlgItem@8
	push	eax
	call	DWORD PTR __imp__SetWindowTextW@8
$LN10@System_Con:

; 237  : 							}
; 238  : 						}
; 239  : 					}

	mov	DWORD PTR __$EHRec$[ebp+8], -1
	lea	ecx, DWORD PTR _sCmd$114984[ebp]
	call	??1?$basic_string@_WU?$char_traits@_W@std@@V?$K2StringAllocator@_W@@@std@@QAE@XZ ; std::basic_string<wchar_t,std::char_traits<wchar_t>,K2StringAllocator<wchar_t> >::~basic_string<wchar_t,std::char_traits<wchar_t>,K2StringAllocator<wchar_t> >
$LN11@System_Con:

; 240  : 					break;

	jmp	SHORT $LN14@System_Con

; 241  : 
; 242  : 				case IDC_DEVELOPER:
; 243  : 					//TODO: Add functionality to "Print Debug Messages" toggle.
; 244  : 					break;

	jmp	SHORT $LN14@System_Con
$LN5@System_Con:

; 245  : 
; 246  : 				case IDC_OUTPUT:				
; 247  : 					if (HIWORD(wParam) == EN_MAXTEXT)

	mov	eax, DWORD PTR _wParam$[ebp]
	shr	eax, 16					; 00000010H
	movzx	ecx, ax
	cmp	ecx, 1281				; 00000501H
	jne	SHORT $LN14@System_Con

; 248  : 						SetWindowText(GetDlgItem(hWnd, LOWORD(wParam)), _T(""));

	push	OFFSET ??_C@_11LOCGONAA@?$AA?$AA@
	mov	eax, DWORD PTR _wParam$[ebp]
	and	eax, 65535				; 0000ffffH
	movzx	ecx, ax
	push	ecx
	mov	edx, DWORD PTR _hWnd$[ebp]
	push	edx
	call	DWORD PTR __imp__GetDlgItem@8
	push	eax
	call	DWORD PTR __imp__SetWindowTextW@8
$LN14@System_Con:

; 249  : 					break;
; 250  : 
; 251  : 				default:
; 252  : 					break;
; 253  : 			}
; 254  : 
; 255  : 			return TRUE;

	mov	eax, 1
	jmp	SHORT $LN20@System_Con
$LN2@System_Con:

; 256  : 
; 257  : 		case WM_CLOSE:
; 258  : 			K2System.RestartOnExit(false);

	push	0
	mov	eax, DWORD PTR __imp_?K2System@@3AAVCSystem@@A
	mov	ecx, DWORD PTR [eax]
	call	DWORD PTR __imp_?RestartOnExit@CSystem@@QAEX_N@Z

; 259  : 			K2System.Exit(0);

	push	0
	mov	eax, DWORD PTR __imp_?K2System@@3AAVCSystem@@A
	mov	ecx, DWORD PTR [eax]
	call	DWORD PTR __imp_?Exit@CSystem@@QAEXH@Z

; 260  : 			return TRUE;

	mov	eax, 1
	jmp	SHORT $LN20@System_Con
$LN1@System_Con:

; 261  : 
; 262  : 		default:
; 263  : 			return FALSE;

	xor	eax, eax
$LN20@System_Con:

; 264  : 	}
; 265  : }

	mov	ecx, DWORD PTR __$EHRec$[ebp]
	mov	DWORD PTR fs:0, ecx
	pop	ecx
	pop	edi
	pop	esi
	pop	ebx
	mov	ecx, DWORD PTR __$ArrayPad$[ebp]
	xor	ecx, ebp
	call	@__security_check_cookie@4
	mov	esp, ebp
	pop	ebp
	ret	16					; 00000010H
	npad	2
$LN29@System_Con:
	DD	$LN5@System_Con
	DD	$LN12@System_Con
	DD	$LN13@System_Con
	DD	$LN14@System_Con
$LN27@System_Con:
	DB	0
	DB	1
	DB	2
	DB	3
	DB	3
	DB	3
	DB	3
	DB	3
	DB	1
_TEXT	ENDS
;	COMDAT text$x
text$x	SEGMENT
__unwindfunclet$?System_ConsoleWndProc@@YGJPAUHWND__@@IIJ@Z$0:
	lea	ecx, DWORD PTR _sCmd$114984[ebp]
	jmp	??1?$basic_string@_WU?$char_traits@_W@std@@V?$K2StringAllocator@_W@@@std@@QAE@XZ ; std::basic_string<wchar_t,std::char_traits<wchar_t>,K2StringAllocator<wchar_t> >::~basic_string<wchar_t,std::char_traits<wchar_t>,K2StringAllocator<wchar_t> >
__unwindfunclet$?System_ConsoleWndProc@@YGJPAUHWND__@@IIJ@Z$1:
	lea	ecx, DWORD PTR $T121637[ebp]
	jmp	??1?$basic_string@_WU?$char_traits@_W@std@@V?$K2StringAllocator@_W@@@std@@QAE@XZ ; std::basic_string<wchar_t,std::char_traits<wchar_t>,K2StringAllocator<wchar_t> >::~basic_string<wchar_t,std::char_traits<wchar_t>,K2StringAllocator<wchar_t> >
__unwindfunclet$?System_ConsoleWndProc@@YGJPAUHWND__@@IIJ@Z$3:
	lea	ecx, DWORD PTR $T121639[ebp]
	jmp	??1?$basic_string@_WU?$char_traits@_W@std@@V?$K2StringAllocator@_W@@@std@@QAE@XZ ; std::basic_string<wchar_t,std::char_traits<wchar_t>,K2StringAllocator<wchar_t> >::~basic_string<wchar_t,std::char_traits<wchar_t>,K2StringAllocator<wchar_t> >
__unwindfunclet$?System_ConsoleWndProc@@YGJPAUHWND__@@IIJ@Z$4:
	lea	ecx, DWORD PTR $T121640[ebp]
	jmp	??1?$basic_string@_WU?$char_traits@_W@std@@V?$K2StringAllocator@_W@@@std@@QAE@XZ ; std::basic_string<wchar_t,std::char_traits<wchar_t>,K2StringAllocator<wchar_t> >::~basic_string<wchar_t,std::char_traits<wchar_t>,K2StringAllocator<wchar_t> >
__ehhandler$?System_ConsoleWndProc@@YGJPAUHWND__@@IIJ@Z:
	mov	edx, DWORD PTR [esp+8]
	lea	eax, DWORD PTR [edx+12]
	mov	ecx, DWORD PTR [edx-4332]
	xor	ecx, eax
	call	@__security_check_cookie@4
	mov	ecx, DWORD PTR [edx-4]
	xor	ecx, eax
	call	@__security_check_cookie@4
	mov	eax, OFFSET __ehfuncinfo$?System_ConsoleWndProc@@YGJPAUHWND__@@IIJ@Z
	jmp	___CxxFrameHandler3
text$x	ENDS
?System_ConsoleWndProc@@YGJPAUHWND__@@IIJ@Z ENDP	; System_ConsoleWndProc
PUBLIC	?cmdCrashFn@@YA_NPAVCConsoleElement@@ABV?$vector@V?$basic_string@_WU?$char_traits@_W@std@@V?$K2StringAllocator@_W@@@std@@V?$K2VectorAllocator@V?$basic_string@_WU?$char_traits@_W@std@@V?$K2StringAllocator@_W@@@std@@@@@@@Z ; cmdCrashFn
; Function compile flags: /Odtp /ZI
;	COMDAT ?cmdCrashFn@@YA_NPAVCConsoleElement@@ABV?$vector@V?$basic_string@_WU?$char_traits@_W@std@@V?$K2StringAllocator@_W@@@std@@V?$K2VectorAllocator@V?$basic_string@_WU?$char_traits@_W@std@@V?$K2StringAllocator@_W@@@std@@@@@@@Z
_TEXT	SEGMENT
_p$ = -4						; size = 4
_pElem$ = 8						; size = 4
_vArgList$ = 12						; size = 4
?cmdCrashFn@@YA_NPAVCConsoleElement@@ABV?$vector@V?$basic_string@_WU?$char_traits@_W@std@@V?$K2StringAllocator@_W@@@std@@V?$K2VectorAllocator@V?$basic_string@_WU?$char_traits@_W@std@@V?$K2StringAllocator@_W@@@std@@@@@@@Z PROC ; cmdCrashFn, COMDAT

; 273  : {

	push	ebp
	mov	ebp, esp
	sub	esp, 68					; 00000044H
	push	ebx
	push	esi
	push	edi

; 274  : 	int *p(0);

	mov	DWORD PTR _p$[ebp], 0

; 275  : 	*p = 0;

	mov	eax, DWORD PTR _p$[ebp]
	mov	DWORD PTR [eax], 0

; 276  : 	return false;

	xor	al, al

; 277  : }

	pop	edi
	pop	esi
	pop	ebx
	mov	esp, ebp
	pop	ebp
	ret	0
?cmdCrashFn@@YA_NPAVCConsoleElement@@ABV?$vector@V?$basic_string@_WU?$char_traits@_W@std@@V?$K2StringAllocator@_W@@@std@@V?$K2VectorAllocator@V?$basic_string@_WU?$char_traits@_W@std@@V?$K2StringAllocator@_W@@@std@@@@@@@Z ENDP ; cmdCrashFn
_TEXT	ENDS
PUBLIC	??1?$vector@HV?$K2VectorAllocator@H@@@@QAE@XZ	; vector<int,K2VectorAllocator<int> >::~vector<int,K2VectorAllocator<int> >
PUBLIC	??1?$_Vector_iterator@HV?$K2VectorAllocator@H@@@std@@QAE@XZ ; std::_Vector_iterator<int,K2VectorAllocator<int> >::~_Vector_iterator<int,K2VectorAllocator<int> >
PUBLIC	??D?$_Vector_iterator@HV?$K2VectorAllocator@H@@@std@@QBEAAHXZ ; std::_Vector_iterator<int,K2VectorAllocator<int> >::operator*
PUBLIC	?end@?$vector@HV?$K2VectorAllocator@H@@@std@@QAE?AV?$_Vector_iterator@HV?$K2VectorAllocator@H@@@2@XZ ; std::vector<int,K2VectorAllocator<int> >::end
PUBLIC	??0?$vector@HV?$K2VectorAllocator@H@@@@QAE@I@Z	; vector<int,K2VectorAllocator<int> >::vector<int,K2VectorAllocator<int> >
PUBLIC	?cmdCrashSTLFn@@YA_NPAVCConsoleElement@@ABV?$vector@V?$basic_string@_WU?$char_traits@_W@std@@V?$K2StringAllocator@_W@@@std@@V?$K2VectorAllocator@V?$basic_string@_WU?$char_traits@_W@std@@V?$K2StringAllocator@_W@@@std@@@@@@@Z ; cmdCrashSTLFn
;	COMDAT xdata$x
xdata$x	SEGMENT
__unwindtable$?cmdCrashSTLFn@@YA_NPAVCConsoleElement@@ABV?$vector@V?$basic_string@_WU?$char_traits@_W@std@@V?$K2StringAllocator@_W@@@std@@V?$K2VectorAllocator@V?$basic_string@_WU?$char_traits@_W@std@@V?$K2StringAllocator@_W@@@std@@@@@@@Z DD 0ffffffffH
	DD	FLAT:__unwindfunclet$?cmdCrashSTLFn@@YA_NPAVCConsoleElement@@ABV?$vector@V?$basic_string@_WU?$char_traits@_W@std@@V?$K2StringAllocator@_W@@@std@@V?$K2VectorAllocator@V?$basic_string@_WU?$char_traits@_W@std@@V?$K2StringAllocator@_W@@@std@@@@@@@Z$0
	DD	00H
	DD	FLAT:__unwindfunclet$?cmdCrashSTLFn@@YA_NPAVCConsoleElement@@ABV?$vector@V?$basic_string@_WU?$char_traits@_W@std@@V?$K2StringAllocator@_W@@@std@@V?$K2VectorAllocator@V?$basic_string@_WU?$char_traits@_W@std@@V?$K2StringAllocator@_W@@@std@@@@@@@Z$1
__ehfuncinfo$?cmdCrashSTLFn@@YA_NPAVCConsoleElement@@ABV?$vector@V?$basic_string@_WU?$char_traits@_W@std@@V?$K2StringAllocator@_W@@@std@@V?$K2VectorAllocator@V?$basic_string@_WU?$char_traits@_W@std@@V?$K2StringAllocator@_W@@@std@@@@@@@Z DD 019930522H
	DD	02H
	DD	FLAT:__unwindtable$?cmdCrashSTLFn@@YA_NPAVCConsoleElement@@ABV?$vector@V?$basic_string@_WU?$char_traits@_W@std@@V?$K2StringAllocator@_W@@@std@@V?$K2VectorAllocator@V?$basic_string@_WU?$char_traits@_W@std@@V?$K2StringAllocator@_W@@@std@@@@@@@Z
	DD	2 DUP(00H)
	DD	2 DUP(00H)
	DD	00H
	DD	01H
; Function compile flags: /Odtp /ZI
xdata$x	ENDS
;	COMDAT ?cmdCrashSTLFn@@YA_NPAVCConsoleElement@@ABV?$vector@V?$basic_string@_WU?$char_traits@_W@std@@V?$K2StringAllocator@_W@@@std@@V?$K2VectorAllocator@V?$basic_string@_WU?$char_traits@_W@std@@V?$K2StringAllocator@_W@@@std@@@@@@@Z
_TEXT	SEGMENT
tv77 = -120						; size = 4
tv65 = -116						; size = 4
$T121659 = -112						; size = 12
$T121660 = -97						; size = 1
_v$ = -32						; size = 20
__$EHRec$ = -12						; size = 12
_pElem$ = 8						; size = 4
_vArgList$ = 12						; size = 4
?cmdCrashSTLFn@@YA_NPAVCConsoleElement@@ABV?$vector@V?$basic_string@_WU?$char_traits@_W@std@@V?$K2StringAllocator@_W@@@std@@V?$K2VectorAllocator@V?$basic_string@_WU?$char_traits@_W@std@@V?$K2StringAllocator@_W@@@std@@@@@@@Z PROC ; cmdCrashSTLFn, COMDAT

; 284  : {

	push	ebp
	mov	ebp, esp
	push	-1
	push	__ehhandler$?cmdCrashSTLFn@@YA_NPAVCConsoleElement@@ABV?$vector@V?$basic_string@_WU?$char_traits@_W@std@@V?$K2StringAllocator@_W@@@std@@V?$K2VectorAllocator@V?$basic_string@_WU?$char_traits@_W@std@@V?$K2StringAllocator@_W@@@std@@@@@@@Z
	mov	eax, DWORD PTR fs:0
	push	eax
	sub	esp, 108				; 0000006cH
	push	ebx
	push	esi
	push	edi
	mov	eax, DWORD PTR ___security_cookie
	xor	eax, ebp
	push	eax
	lea	eax, DWORD PTR __$EHRec$[ebp]
	mov	DWORD PTR fs:0, eax

; 285  : 	vector<int> v(0);

	push	0
	lea	ecx, DWORD PTR _v$[ebp]
	call	??0?$vector@HV?$K2VectorAllocator@H@@@@QAE@I@Z ; vector<int,K2VectorAllocator<int> >::vector<int,K2VectorAllocator<int> >
	mov	DWORD PTR __$EHRec$[ebp+8], 0

; 286  : 	*v.end() = 0;

	lea	eax, DWORD PTR $T121659[ebp]
	push	eax
	lea	ecx, DWORD PTR _v$[ebp]
	call	?end@?$vector@HV?$K2VectorAllocator@H@@@std@@QAE?AV?$_Vector_iterator@HV?$K2VectorAllocator@H@@@2@XZ ; std::vector<int,K2VectorAllocator<int> >::end
	mov	DWORD PTR tv65[ebp], eax
	mov	ecx, DWORD PTR tv65[ebp]
	mov	DWORD PTR tv77[ebp], ecx
	mov	BYTE PTR __$EHRec$[ebp+8], 1
	mov	ecx, DWORD PTR tv77[ebp]
	call	??D?$_Vector_iterator@HV?$K2VectorAllocator@H@@@std@@QBEAAHXZ ; std::_Vector_iterator<int,K2VectorAllocator<int> >::operator*
	mov	DWORD PTR [eax], 0
	mov	BYTE PTR __$EHRec$[ebp+8], 0
	lea	ecx, DWORD PTR $T121659[ebp]
	call	??1?$_Vector_iterator@HV?$K2VectorAllocator@H@@@std@@QAE@XZ

; 287  : 	return false;

	mov	BYTE PTR $T121660[ebp], 0
	mov	DWORD PTR __$EHRec$[ebp+8], -1
	lea	ecx, DWORD PTR _v$[ebp]
	call	??1?$vector@HV?$K2VectorAllocator@H@@@@QAE@XZ
	mov	al, BYTE PTR $T121660[ebp]

; 288  : }

	mov	ecx, DWORD PTR __$EHRec$[ebp]
	mov	DWORD PTR fs:0, ecx
	pop	ecx
	pop	edi
	pop	esi
	pop	ebx
	mov	esp, ebp
	pop	ebp
	ret	0
_TEXT	ENDS
;	COMDAT text$x
text$x	SEGMENT
__unwindfunclet$?cmdCrashSTLFn@@YA_NPAVCConsoleElement@@ABV?$vector@V?$basic_string@_WU?$char_traits@_W@std@@V?$K2StringAllocator@_W@@@std@@V?$K2VectorAllocator@V?$basic_string@_WU?$char_traits@_W@std@@V?$K2StringAllocator@_W@@@std@@@@@@@Z$0:
	lea	ecx, DWORD PTR _v$[ebp]
	jmp	??1?$vector@HV?$K2VectorAllocator@H@@@@QAE@XZ
__unwindfunclet$?cmdCrashSTLFn@@YA_NPAVCConsoleElement@@ABV?$vector@V?$basic_string@_WU?$char_traits@_W@std@@V?$K2StringAllocator@_W@@@std@@V?$K2VectorAllocator@V?$basic_string@_WU?$char_traits@_W@std@@V?$K2StringAllocator@_W@@@std@@@@@@@Z$1:
	lea	ecx, DWORD PTR $T121659[ebp]
	jmp	??1?$_Vector_iterator@HV?$K2VectorAllocator@H@@@std@@QAE@XZ
__ehhandler$?cmdCrashSTLFn@@YA_NPAVCConsoleElement@@ABV?$vector@V?$basic_string@_WU?$char_traits@_W@std@@V?$K2StringAllocator@_W@@@std@@V?$K2VectorAllocator@V?$basic_string@_WU?$char_traits@_W@std@@V?$K2StringAllocator@_W@@@std@@@@@@@Z:
	mov	edx, DWORD PTR [esp+8]
	lea	eax, DWORD PTR [edx+12]
	mov	ecx, DWORD PTR [edx-124]
	xor	ecx, eax
	call	@__security_check_cookie@4
	mov	eax, OFFSET __ehfuncinfo$?cmdCrashSTLFn@@YA_NPAVCConsoleElement@@ABV?$vector@V?$basic_string@_WU?$char_traits@_W@std@@V?$K2StringAllocator@_W@@@std@@V?$K2VectorAllocator@V?$basic_string@_WU?$char_traits@_W@std@@V?$K2StringAllocator@_W@@@std@@@@@@@Z
	jmp	___CxxFrameHandler3
text$x	ENDS
?cmdCrashSTLFn@@YA_NPAVCConsoleElement@@ABV?$vector@V?$basic_string@_WU?$char_traits@_W@std@@V?$K2StringAllocator@_W@@@std@@V?$K2VectorAllocator@V?$basic_string@_WU?$char_traits@_W@std@@V?$K2StringAllocator@_W@@@std@@@@@@@Z ENDP ; cmdCrashSTLFn
PUBLIC	??1?$vector@HV?$K2VectorAllocator@H@@@std@@QAE@XZ ; std::vector<int,K2VectorAllocator<int> >::~vector<int,K2VectorAllocator<int> >
; Function compile flags: /Odtp /ZI
;	COMDAT ??1?$vector@HV?$K2VectorAllocator@H@@@@QAE@XZ
_TEXT	SEGMENT
_this$ = -4						; size = 4
??1?$vector@HV?$K2VectorAllocator@H@@@@QAE@XZ PROC	; vector<int,K2VectorAllocator<int> >::~vector<int,K2VectorAllocator<int> >, COMDAT
; _this$ = ecx
	push	ebp
	mov	ebp, esp
	sub	esp, 68					; 00000044H
	push	ebx
	push	esi
	push	edi
	mov	DWORD PTR _this$[ebp], ecx
	mov	ecx, DWORD PTR _this$[ebp]
	call	??1?$vector@HV?$K2VectorAllocator@H@@@std@@QAE@XZ ; std::vector<int,K2VectorAllocator<int> >::~vector<int,K2VectorAllocator<int> >
	pop	edi
	pop	esi
	pop	ebx
	mov	esp, ebp
	pop	ebp
	ret	0
??1?$vector@HV?$K2VectorAllocator@H@@@@QAE@XZ ENDP	; vector<int,K2VectorAllocator<int> >::~vector<int,K2VectorAllocator<int> >
_TEXT	ENDS
PUBLIC	??1?$_Vector_const_iterator@HV?$K2VectorAllocator@H@@@std@@QAE@XZ ; std::_Vector_const_iterator<int,K2VectorAllocator<int> >::~_Vector_const_iterator<int,K2VectorAllocator<int> >
; Function compile flags: /Odtp /ZI
;	COMDAT ??1?$_Vector_iterator@HV?$K2VectorAllocator@H@@@std@@QAE@XZ
_TEXT	SEGMENT
_this$ = -4						; size = 4
??1?$_Vector_iterator@HV?$K2VectorAllocator@H@@@std@@QAE@XZ PROC ; std::_Vector_iterator<int,K2VectorAllocator<int> >::~_Vector_iterator<int,K2VectorAllocator<int> >, COMDAT
; _this$ = ecx
	push	ebp
	mov	ebp, esp
	sub	esp, 68					; 00000044H
	push	ebx
	push	esi
	push	edi
	mov	DWORD PTR _this$[ebp], ecx
	mov	ecx, DWORD PTR _this$[ebp]
	call	??1?$_Vector_const_iterator@HV?$K2VectorAllocator@H@@@std@@QAE@XZ
	pop	edi
	pop	esi
	pop	ebx
	mov	esp, ebp
	pop	ebp
	ret	0
??1?$_Vector_iterator@HV?$K2VectorAllocator@H@@@std@@QAE@XZ ENDP ; std::_Vector_iterator<int,K2VectorAllocator<int> >::~_Vector_iterator<int,K2VectorAllocator<int> >
_TEXT	ENDS
PUBLIC	??1?$_Ranit@HHPBHABH@std@@QAE@XZ		; std::_Ranit<int,int,int const *,int const &>::~_Ranit<int,int,int const *,int const &>
; Function compile flags: /Odtp /ZI
;	COMDAT ??1?$_Vector_const_iterator@HV?$K2VectorAllocator@H@@@std@@QAE@XZ
_TEXT	SEGMENT
_this$ = -4						; size = 4
??1?$_Vector_const_iterator@HV?$K2VectorAllocator@H@@@std@@QAE@XZ PROC ; std::_Vector_const_iterator<int,K2VectorAllocator<int> >::~_Vector_const_iterator<int,K2VectorAllocator<int> >, COMDAT
; _this$ = ecx
	push	ebp
	mov	ebp, esp
	sub	esp, 68					; 00000044H
	push	ebx
	push	esi
	push	edi
	mov	DWORD PTR _this$[ebp], ecx
	mov	ecx, DWORD PTR _this$[ebp]
	call	??1?$_Ranit@HHPBHABH@std@@QAE@XZ
	pop	edi
	pop	esi
	pop	ebx
	mov	esp, ebp
	pop	ebp
	ret	0
??1?$_Vector_const_iterator@HV?$K2VectorAllocator@H@@@std@@QAE@XZ ENDP ; std::_Vector_const_iterator<int,K2VectorAllocator<int> >::~_Vector_const_iterator<int,K2VectorAllocator<int> >
_TEXT	ENDS
PUBLIC	??1_Iterator_base@std@@QAE@XZ			; std::_Iterator_base::~_Iterator_base
; Function compile flags: /Odtp /ZI
;	COMDAT ??1?$_Ranit@HHPBHABH@std@@QAE@XZ
_TEXT	SEGMENT
_this$ = -4						; size = 4
??1?$_Ranit@HHPBHABH@std@@QAE@XZ PROC			; std::_Ranit<int,int,int const *,int const &>::~_Ranit<int,int,int const *,int const &>, COMDAT
; _this$ = ecx
	push	ebp
	mov	ebp, esp
	sub	esp, 68					; 00000044H
	push	ebx
	push	esi
	push	edi
	mov	DWORD PTR _this$[ebp], ecx
	mov	ecx, DWORD PTR _this$[ebp]
	call	??1_Iterator_base@std@@QAE@XZ		; std::_Iterator_base::~_Iterator_base
	pop	edi
	pop	esi
	pop	ebx
	mov	esp, ebp
	pop	ebp
	ret	0
??1?$_Ranit@HHPBHABH@std@@QAE@XZ ENDP			; std::_Ranit<int,int,int const *,int const &>::~_Ranit<int,int,int const *,int const &>
_TEXT	ENDS
PUBLIC	?cmdInfiniteLoopFn@@YA_NPAVCConsoleElement@@ABV?$vector@V?$basic_string@_WU?$char_traits@_W@std@@V?$K2StringAllocator@_W@@@std@@V?$K2VectorAllocator@V?$basic_string@_WU?$char_traits@_W@std@@V?$K2StringAllocator@_W@@@std@@@@@@@Z ; cmdInfiniteLoopFn
; Function compile flags: /Odtp /ZI
;	COMDAT ?cmdInfiniteLoopFn@@YA_NPAVCConsoleElement@@ABV?$vector@V?$basic_string@_WU?$char_traits@_W@std@@V?$K2StringAllocator@_W@@@std@@V?$K2VectorAllocator@V?$basic_string@_WU?$char_traits@_W@std@@V?$K2StringAllocator@_W@@@std@@@@@@@Z
_TEXT	SEGMENT
_pElem$ = 8						; size = 4
_vArgList$ = 12						; size = 4
?cmdInfiniteLoopFn@@YA_NPAVCConsoleElement@@ABV?$vector@V?$basic_string@_WU?$char_traits@_W@std@@V?$K2StringAllocator@_W@@@std@@V?$K2VectorAllocator@V?$basic_string@_WU?$char_traits@_W@std@@V?$K2StringAllocator@_W@@@std@@@@@@@Z PROC ; cmdInfiniteLoopFn, COMDAT

; 295  : {

	push	ebp
	mov	ebp, esp
	sub	esp, 64					; 00000040H
	push	ebx
	push	esi
	push	edi
$LN2@cmdInfinit:

; 296  : 	while (true);

	mov	eax, 1
	test	eax, eax
	je	SHORT $LN1@cmdInfinit
	jmp	SHORT $LN2@cmdInfinit
$LN1@cmdInfinit:

; 297  : 	return false;

	xor	al, al

; 298  : }

	pop	edi
	pop	esi
	pop	ebx
	mov	esp, ebp
	pop	ebp
	ret	0
?cmdInfiniteLoopFn@@YA_NPAVCConsoleElement@@ABV?$vector@V?$basic_string@_WU?$char_traits@_W@std@@V?$K2StringAllocator@_W@@@std@@V?$K2VectorAllocator@V?$basic_string@_WU?$char_traits@_W@std@@V?$K2StringAllocator@_W@@@std@@@@@@@Z ENDP ; cmdInfiniteLoopFn
_TEXT	ENDS
PUBLIC	?cmdAbortFn@@YA_NPAVCConsoleElement@@ABV?$vector@V?$basic_string@_WU?$char_traits@_W@std@@V?$K2StringAllocator@_W@@@std@@V?$K2VectorAllocator@V?$basic_string@_WU?$char_traits@_W@std@@V?$K2StringAllocator@_W@@@std@@@@@@@Z ; cmdAbortFn
EXTRN	__imp__abort:PROC
; Function compile flags: /Odtp /ZI
;	COMDAT ?cmdAbortFn@@YA_NPAVCConsoleElement@@ABV?$vector@V?$basic_string@_WU?$char_traits@_W@std@@V?$K2StringAllocator@_W@@@std@@V?$K2VectorAllocator@V?$basic_string@_WU?$char_traits@_W@std@@V?$K2StringAllocator@_W@@@std@@@@@@@Z
_TEXT	SEGMENT
_pElem$ = 8						; size = 4
_vArgList$ = 12						; size = 4
?cmdAbortFn@@YA_NPAVCConsoleElement@@ABV?$vector@V?$basic_string@_WU?$char_traits@_W@std@@V?$K2StringAllocator@_W@@@std@@V?$K2VectorAllocator@V?$basic_string@_WU?$char_traits@_W@std@@V?$K2StringAllocator@_W@@@std@@@@@@@Z PROC ; cmdAbortFn, COMDAT

; 305  : {

	push	ebp
	mov	ebp, esp
	sub	esp, 64					; 00000040H
	push	ebx
	push	esi
	push	edi

; 306  : 	abort();

	call	DWORD PTR __imp__abort

; 307  : 	return false;

	xor	al, al

; 308  : }

	pop	edi
	pop	esi
	pop	ebx
	mov	esp, ebp
	pop	ebp
	ret	0
?cmdAbortFn@@YA_NPAVCConsoleElement@@ABV?$vector@V?$basic_string@_WU?$char_traits@_W@std@@V?$K2StringAllocator@_W@@@std@@V?$K2VectorAllocator@V?$basic_string@_WU?$char_traits@_W@std@@V?$K2StringAllocator@_W@@@std@@@@@@@Z ENDP ; cmdAbortFn
_TEXT	ENDS
PUBLIC	??_C@_1CO@FDBPJGMO@?$AAU?$AAn?$AAh?$AAa?$AAn?$AAd?$AAl?$AAe?$AAd?$AA?5?$AAe?$AAx?$AAc?$AAe?$AAp?$AAt?$AAi?$AAo?$AAn?$AA?5?$AA?9?$AA?5?$AA?$AA@ ; `string'
PUBLIC	??_C@_19ILJNDDBA@?$AAg?$AAa?$AAm?$AAe?$AA?$AA@	; `string'
PUBLIC	??_C@_1CE@JLKJELPN@?$AAH?$AAe?$AAr?$AAo?$AAe?$AAs?$AA?5?$AAo?$AAf?$AA?5?$AAN?$AAe?$AAw?$AAe?$AAr?$AAt?$AAh?$AA?$AA@ ; `string'
PUBLIC	??_C@_1BC@GHGNCIGF@?$AA0?$AA?4?$AA0?$AA?4?$AA6?$AA1?$AA?4?$AA0?$AA?$AA@ ; `string'
PUBLIC	??_C@_1EA@LELDNEGL@?$AA?5?$AA?$FL?$AAD?$AAE?$AAB?$AAU?$AAG?$AA?$FN?$AA?5?$AA?$FL?$AAU?$AAN?$AAI?$AAC?$AAO?$AAD?$AAE?$AA?$FN?$AA?5?$AA?$FL?$AAS?$AAE?$AAC?$AAU?$AAR?$AAE?$AA?5?$AAC?$AAR?$AAT?$AA?$FN?$AA?$AA@ ; `string'
PUBLIC	??_C@_13COJANIEC@?$AA0?$AA?$AA@			; `string'
PUBLIC	??_C@_17LHHHPLCE@?$AAw?$AAa?$AA1?$AA?$AA@	; `string'
PUBLIC	??_C@_19EPEMMAHE@?$AAi?$AA6?$AA8?$AA6?$AA?$AA@	; `string'
PUBLIC	??0?$basic_string@DU?$char_traits@D@std@@V?$K2StringAllocator@D@@@std@@QAE@PBD@Z ; std::basic_string<char,std::char_traits<char>,K2StringAllocator<char> >::basic_string<char,std::char_traits<char>,K2StringAllocator<char> >
PUBLIC	??_C@_0BN@FNKEAOOD@masterserver?4hon?4s2games?4com?$AA@ ; `string'
PUBLIC	_WinMain@16
PUBLIC	??_R0?AVCException@@@8				; CException `RTTI Type Descriptor'
EXTRN	__imp_?Shutdown@CHost@@QAEXXZ:PROC
EXTRN	__imp_?Error@CSystem@@QAEXABV?$basic_string@_WU?$char_traits@_W@std@@V?$K2StringAllocator@_W@@@std@@@Z:PROC
EXTRN	__imp_?GetMsg@CException@@QBE?AV?$basic_string@_WU?$char_traits@_W@std@@V?$K2StringAllocator@_W@@@std@@XZ:PROC
EXTRN	__imp_?Process@CException@@QAEXABV?$basic_string@_WU?$char_traits@_W@std@@V?$K2StringAllocator@_W@@@std@@_N@Z:PROC
EXTRN	__imp_?Execute@CHost@@QAEXXZ:PROC
EXTRN	__imp_?Init@CHost@@QAEXABV?$basic_string@_WU?$char_traits@_W@std@@V?$K2StringAllocator@_W@@@std@@@Z:PROC
EXTRN	__imp_?InitKeyboardMap@CSystem@@QAEXXZ:PROC
EXTRN	__imp_?SetConsoleWndProc@CSystem@@QAEXPAX@Z:PROC
EXTRN	__imp_?SetMainWndProc@CSystem@@QAEXPAX@Z:PROC
EXTRN	__imp_?SetInstanceHandle@CSystem@@QAEXPAX@Z:PROC
EXTRN	__imp_?Init@CSystem@@QAEXABV?$basic_string@_WU?$char_traits@_W@std@@V?$K2StringAllocator@_W@@@std@@000000ABV?$basic_string@DU?$char_traits@D@std@@V?$K2StringAllocator@D@@@3@@Z:PROC
EXTRN	??_7type_info@@6B@:DWORD			; type_info::`vftable'
;	COMDAT ??_R0?AVCException@@@8
_DATA	SEGMENT
??_R0?AVCException@@@8 DD FLAT:??_7type_info@@6B@	; CException `RTTI Type Descriptor'
	DD	00H
	DB	'.?AVCException@@', 00H
_DATA	ENDS
;	COMDAT ??_C@_1CO@FDBPJGMO@?$AAU?$AAn?$AAh?$AAa?$AAn?$AAd?$AAl?$AAe?$AAd?$AA?5?$AAe?$AAx?$AAc?$AAe?$AAp?$AAt?$AAi?$AAo?$AAn?$AA?5?$AA?9?$AA?5?$AA?$AA@
CONST	SEGMENT
??_C@_1CO@FDBPJGMO@?$AAU?$AAn?$AAh?$AAa?$AAn?$AAd?$AAl?$AAe?$AAd?$AA?5?$AAe?$AAx?$AAc?$AAe?$AAp?$AAt?$AAi?$AAo?$AAn?$AA?5?$AA?9?$AA?5?$AA?$AA@ DB 'U'
	DB	00H, 'n', 00H, 'h', 00H, 'a', 00H, 'n', 00H, 'd', 00H, 'l', 00H
	DB	'e', 00H, 'd', 00H, ' ', 00H, 'e', 00H, 'x', 00H, 'c', 00H, 'e'
	DB	00H, 'p', 00H, 't', 00H, 'i', 00H, 'o', 00H, 'n', 00H, ' ', 00H
	DB	'-', 00H, ' ', 00H, 00H, 00H			; `string'
CONST	ENDS
;	COMDAT ??_C@_19ILJNDDBA@?$AAg?$AAa?$AAm?$AAe?$AA?$AA@
CONST	SEGMENT
??_C@_19ILJNDDBA@?$AAg?$AAa?$AAm?$AAe?$AA?$AA@ DB 'g', 00H, 'a', 00H, 'm', 00H
	DB	'e', 00H, 00H, 00H				; `string'
CONST	ENDS
;	COMDAT ??_C@_1CE@JLKJELPN@?$AAH?$AAe?$AAr?$AAo?$AAe?$AAs?$AA?5?$AAo?$AAf?$AA?5?$AAN?$AAe?$AAw?$AAe?$AAr?$AAt?$AAh?$AA?$AA@
CONST	SEGMENT
??_C@_1CE@JLKJELPN@?$AAH?$AAe?$AAr?$AAo?$AAe?$AAs?$AA?5?$AAo?$AAf?$AA?5?$AAN?$AAe?$AAw?$AAe?$AAr?$AAt?$AAh?$AA?$AA@ DB 'H'
	DB	00H, 'e', 00H, 'r', 00H, 'o', 00H, 'e', 00H, 's', 00H, ' ', 00H
	DB	'o', 00H, 'f', 00H, ' ', 00H, 'N', 00H, 'e', 00H, 'w', 00H, 'e'
	DB	00H, 'r', 00H, 't', 00H, 'h', 00H, 00H, 00H	; `string'
CONST	ENDS
;	COMDAT ??_C@_1BC@GHGNCIGF@?$AA0?$AA?4?$AA0?$AA?4?$AA6?$AA1?$AA?4?$AA0?$AA?$AA@
CONST	SEGMENT
??_C@_1BC@GHGNCIGF@?$AA0?$AA?4?$AA0?$AA?4?$AA6?$AA1?$AA?4?$AA0?$AA?$AA@ DB '0'
	DB	00H, '.', 00H, '0', 00H, '.', 00H, '6', 00H, '1', 00H, '.', 00H
	DB	'0', 00H, 00H, 00H				; `string'
CONST	ENDS
;	COMDAT ??_C@_1EA@LELDNEGL@?$AA?5?$AA?$FL?$AAD?$AAE?$AAB?$AAU?$AAG?$AA?$FN?$AA?5?$AA?$FL?$AAU?$AAN?$AAI?$AAC?$AAO?$AAD?$AAE?$AA?$FN?$AA?5?$AA?$FL?$AAS?$AAE?$AAC?$AAU?$AAR?$AAE?$AA?5?$AAC?$AAR?$AAT?$AA?$FN?$AA?$AA@
CONST	SEGMENT
??_C@_1EA@LELDNEGL@?$AA?5?$AA?$FL?$AAD?$AAE?$AAB?$AAU?$AAG?$AA?$FN?$AA?5?$AA?$FL?$AAU?$AAN?$AAI?$AAC?$AAO?$AAD?$AAE?$AA?$FN?$AA?5?$AA?$FL?$AAS?$AAE?$AAC?$AAU?$AAR?$AAE?$AA?5?$AAC?$AAR?$AAT?$AA?$FN?$AA?$AA@ DB ' '
	DB	00H, '[', 00H, 'D', 00H, 'E', 00H, 'B', 00H, 'U', 00H, 'G', 00H
	DB	']', 00H, ' ', 00H, '[', 00H, 'U', 00H, 'N', 00H, 'I', 00H, 'C'
	DB	00H, 'O', 00H, 'D', 00H, 'E', 00H, ']', 00H, ' ', 00H, '[', 00H
	DB	'S', 00H, 'E', 00H, 'C', 00H, 'U', 00H, 'R', 00H, 'E', 00H, ' '
	DB	00H, 'C', 00H, 'R', 00H, 'T', 00H, ']', 00H, 00H, 00H ; `string'
CONST	ENDS
;	COMDAT ??_C@_13COJANIEC@?$AA0?$AA?$AA@
CONST	SEGMENT
??_C@_13COJANIEC@?$AA0?$AA?$AA@ DB '0', 00H, 00H, 00H	; `string'
CONST	ENDS
;	COMDAT ??_C@_17LHHHPLCE@?$AAw?$AAa?$AA1?$AA?$AA@
CONST	SEGMENT
??_C@_17LHHHPLCE@?$AAw?$AAa?$AA1?$AA?$AA@ DB 'w', 00H, 'a', 00H, '1', 00H
	DB	00H, 00H					; `string'
CONST	ENDS
;	COMDAT ??_C@_19EPEMMAHE@?$AAi?$AA6?$AA8?$AA6?$AA?$AA@
CONST	SEGMENT
??_C@_19EPEMMAHE@?$AAi?$AA6?$AA8?$AA6?$AA?$AA@ DB 'i', 00H, '6', 00H, '8', 00H
	DB	'6', 00H, 00H, 00H				; `string'
CONST	ENDS
;	COMDAT ??_C@_0BN@FNKEAOOD@masterserver?4hon?4s2games?4com?$AA@
CONST	SEGMENT
??_C@_0BN@FNKEAOOD@masterserver?4hon?4s2games?4com?$AA@ DB 'masterserver.'
	DB	'hon.s2games.com', 00H			; `string'
CONST	ENDS
;	COMDAT xdata$x
xdata$x	SEGMENT
__catchsym$_WinMain@16$13 DD 08H
	DD	FLAT:??_R0?AVCException@@@8
	DD	0ffffffecH
	DD	FLAT:__catch$_WinMain@16$0
__tryblocktable$_WinMain@16 DD 08H
	DD	09H
	DD	0cH
	DD	01H
	DD	FLAT:__catchsym$_WinMain@16$13
__ehfuncinfo$_WinMain@16 DD 019930522H
	DD	0dH
	DD	FLAT:__unwindtable$_WinMain@16
	DD	01H
	DD	FLAT:__tryblocktable$_WinMain@16
	DD	2 DUP(00H)
	DD	00H
	DD	01H
__unwindtable$_WinMain@16 DD 0ffffffffH
	DD	FLAT:__unwindfunclet$_WinMain@16$2
	DD	00H
	DD	FLAT:__unwindfunclet$_WinMain@16$3
	DD	01H
	DD	FLAT:__unwindfunclet$_WinMain@16$4
	DD	02H
	DD	FLAT:__unwindfunclet$_WinMain@16$5
	DD	03H
	DD	FLAT:__unwindfunclet$_WinMain@16$6
	DD	04H
	DD	FLAT:__unwindfunclet$_WinMain@16$7
	DD	05H
	DD	FLAT:__unwindfunclet$_WinMain@16$8
	DD	06H
	DD	FLAT:__unwindfunclet$_WinMain@16$9
	DD	0ffffffffH
	DD	00H
	DD	08H
	DD	FLAT:__unwindfunclet$_WinMain@16$10
	DD	0ffffffffH
	DD	00H
	DD	0aH
	DD	FLAT:__unwindfunclet$_WinMain@16$11
	DD	0aH
	DD	FLAT:__unwindfunclet$_WinMain@16$12
; Function compile flags: /Odtp /ZI
xdata$x	ENDS
;	COMDAT _WinMain@16
_TEXT	SEGMENT
tv178 = -444						; size = 4
tv155 = -440						; size = 4
tv133 = -440						; size = 4
$T121687 = -436						; size = 32
$T121688 = -404						; size = 32
$T121689 = -372						; size = 32
$T121690 = -340						; size = 32
$T121691 = -308						; size = 32
$T121692 = -276						; size = 32
$T121693 = -244						; size = 32
$T121694 = -212						; size = 32
$T121695 = -180						; size = 32
$T121696 = -148						; size = 32
$T121697 = -116						; size = 32
_ex$115251 = -20					; size = 4
__$EHRec$ = -16						; size = 16
_hInstance$ = 8						; size = 4
_hPrevInstance$ = 12					; size = 4
_lpCmdLine$ = 16					; size = 4
_nCmdShow$ = 20						; size = 4
_WinMain@16 PROC					; COMDAT

; 317  : {

	push	ebp
	mov	ebp, esp
	push	-1
	push	__ehhandler$_WinMain@16
	mov	eax, DWORD PTR fs:0
	push	eax
	push	ecx
	sub	esp, 428				; 000001acH
	push	ebx
	push	esi
	push	edi
	mov	eax, DWORD PTR ___security_cookie
	xor	eax, ebp
	push	eax
	lea	eax, DWORD PTR __$EHRec$[ebp+4]
	mov	DWORD PTR fs:0, eax
	mov	DWORD PTR __$EHRec$[ebp], esp

; 318  : 	g_hInstance = hInstance;

	mov	eax, DWORD PTR _hInstance$[ebp]
	mov	DWORD PTR ?g_hInstance@@3PAUHINSTANCE__@@A, eax ; g_hInstance

; 319  : 
; 320  : #ifdef BUILD_OS_CODE
; 321  : 	K2System.Init(GAME_NAME, VERSION_STRING, BUILD_INFO_STRING, BUILDNUMBER, BUILD_OS, BUILD_OS_CODE, BUILD_ARCH, MASTER_SERVER_ADDRESS);
; 322  : #else
; 323  : 	K2System.Init(GAME_NAME, VERSION_STRING, BUILD_INFO_STRING, BUILDNUMBER, BUILD_OS, BUILD_OS, BUILD_ARCH, MASTER_SERVER_ADDRESS);

	push	OFFSET ??_C@_0BN@FNKEAOOD@masterserver?4hon?4s2games?4com?$AA@
	lea	ecx, DWORD PTR $T121687[ebp]
	call	??0?$basic_string@DU?$char_traits@D@std@@V?$K2StringAllocator@D@@@std@@QAE@PBD@Z ; std::basic_string<char,std::char_traits<char>,K2StringAllocator<char> >::basic_string<char,std::char_traits<char>,K2StringAllocator<char> >
	mov	DWORD PTR __$EHRec$[ebp+12], 0
	push	OFFSET ??_C@_19EPEMMAHE@?$AAi?$AA6?$AA8?$AA6?$AA?$AA@
	lea	ecx, DWORD PTR $T121688[ebp]
	call	??0?$basic_string@_WU?$char_traits@_W@std@@V?$K2StringAllocator@_W@@@std@@QAE@PB_W@Z ; std::basic_string<wchar_t,std::char_traits<wchar_t>,K2StringAllocator<wchar_t> >::basic_string<wchar_t,std::char_traits<wchar_t>,K2StringAllocator<wchar_t> >
	mov	BYTE PTR __$EHRec$[ebp+12], 1
	push	OFFSET ??_C@_17LHHHPLCE@?$AAw?$AAa?$AA1?$AA?$AA@
	lea	ecx, DWORD PTR $T121689[ebp]
	call	??0?$basic_string@_WU?$char_traits@_W@std@@V?$K2StringAllocator@_W@@@std@@QAE@PB_W@Z ; std::basic_string<wchar_t,std::char_traits<wchar_t>,K2StringAllocator<wchar_t> >::basic_string<wchar_t,std::char_traits<wchar_t>,K2StringAllocator<wchar_t> >
	mov	BYTE PTR __$EHRec$[ebp+12], 2
	push	OFFSET ??_C@_17LHHHPLCE@?$AAw?$AAa?$AA1?$AA?$AA@
	lea	ecx, DWORD PTR $T121690[ebp]
	call	??0?$basic_string@_WU?$char_traits@_W@std@@V?$K2StringAllocator@_W@@@std@@QAE@PB_W@Z ; std::basic_string<wchar_t,std::char_traits<wchar_t>,K2StringAllocator<wchar_t> >::basic_string<wchar_t,std::char_traits<wchar_t>,K2StringAllocator<wchar_t> >
	mov	BYTE PTR __$EHRec$[ebp+12], 3
	push	OFFSET ??_C@_13COJANIEC@?$AA0?$AA?$AA@
	lea	ecx, DWORD PTR $T121691[ebp]
	call	??0?$basic_string@_WU?$char_traits@_W@std@@V?$K2StringAllocator@_W@@@std@@QAE@PB_W@Z ; std::basic_string<wchar_t,std::char_traits<wchar_t>,K2StringAllocator<wchar_t> >::basic_string<wchar_t,std::char_traits<wchar_t>,K2StringAllocator<wchar_t> >
	mov	BYTE PTR __$EHRec$[ebp+12], 4
	push	OFFSET ??_C@_1EA@LELDNEGL@?$AA?5?$AA?$FL?$AAD?$AAE?$AAB?$AAU?$AAG?$AA?$FN?$AA?5?$AA?$FL?$AAU?$AAN?$AAI?$AAC?$AAO?$AAD?$AAE?$AA?$FN?$AA?5?$AA?$FL?$AAS?$AAE?$AAC?$AAU?$AAR?$AAE?$AA?5?$AAC?$AAR?$AAT?$AA?$FN?$AA?$AA@
	lea	ecx, DWORD PTR $T121692[ebp]
	call	??0?$basic_string@_WU?$char_traits@_W@std@@V?$K2StringAllocator@_W@@@std@@QAE@PB_W@Z ; std::basic_string<wchar_t,std::char_traits<wchar_t>,K2StringAllocator<wchar_t> >::basic_string<wchar_t,std::char_traits<wchar_t>,K2StringAllocator<wchar_t> >
	mov	BYTE PTR __$EHRec$[ebp+12], 5
	push	OFFSET ??_C@_1BC@GHGNCIGF@?$AA0?$AA?4?$AA0?$AA?4?$AA6?$AA1?$AA?4?$AA0?$AA?$AA@
	lea	ecx, DWORD PTR $T121693[ebp]
	call	??0?$basic_string@_WU?$char_traits@_W@std@@V?$K2StringAllocator@_W@@@std@@QAE@PB_W@Z ; std::basic_string<wchar_t,std::char_traits<wchar_t>,K2StringAllocator<wchar_t> >::basic_string<wchar_t,std::char_traits<wchar_t>,K2StringAllocator<wchar_t> >
	mov	BYTE PTR __$EHRec$[ebp+12], 6
	push	OFFSET ??_C@_1CE@JLKJELPN@?$AAH?$AAe?$AAr?$AAo?$AAe?$AAs?$AA?5?$AAo?$AAf?$AA?5?$AAN?$AAe?$AAw?$AAe?$AAr?$AAt?$AAh?$AA?$AA@
	lea	ecx, DWORD PTR $T121694[ebp]
	call	??0?$basic_string@_WU?$char_traits@_W@std@@V?$K2StringAllocator@_W@@@std@@QAE@PB_W@Z ; std::basic_string<wchar_t,std::char_traits<wchar_t>,K2StringAllocator<wchar_t> >::basic_string<wchar_t,std::char_traits<wchar_t>,K2StringAllocator<wchar_t> >
	mov	BYTE PTR __$EHRec$[ebp+12], 7
	lea	eax, DWORD PTR $T121687[ebp]
	push	eax
	lea	ecx, DWORD PTR $T121688[ebp]
	push	ecx
	lea	edx, DWORD PTR $T121689[ebp]
	push	edx
	lea	eax, DWORD PTR $T121690[ebp]
	push	eax
	lea	ecx, DWORD PTR $T121691[ebp]
	push	ecx
	lea	edx, DWORD PTR $T121692[ebp]
	push	edx
	lea	eax, DWORD PTR $T121693[ebp]
	push	eax
	lea	ecx, DWORD PTR $T121694[ebp]
	push	ecx
	mov	edx, DWORD PTR __imp_?K2System@@3AAVCSystem@@A
	mov	ecx, DWORD PTR [edx]
	call	DWORD PTR __imp_?Init@CSystem@@QAEXABV?$basic_string@_WU?$char_traits@_W@std@@V?$K2StringAllocator@_W@@@std@@000000ABV?$basic_string@DU?$char_traits@D@std@@V?$K2StringAllocator@D@@@3@@Z
	mov	BYTE PTR __$EHRec$[ebp+12], 6
	lea	ecx, DWORD PTR $T121694[ebp]
	call	??1?$basic_string@_WU?$char_traits@_W@std@@V?$K2StringAllocator@_W@@@std@@QAE@XZ ; std::basic_string<wchar_t,std::char_traits<wchar_t>,K2StringAllocator<wchar_t> >::~basic_string<wchar_t,std::char_traits<wchar_t>,K2StringAllocator<wchar_t> >
	mov	BYTE PTR __$EHRec$[ebp+12], 5
	lea	ecx, DWORD PTR $T121693[ebp]
	call	??1?$basic_string@_WU?$char_traits@_W@std@@V?$K2StringAllocator@_W@@@std@@QAE@XZ ; std::basic_string<wchar_t,std::char_traits<wchar_t>,K2StringAllocator<wchar_t> >::~basic_string<wchar_t,std::char_traits<wchar_t>,K2StringAllocator<wchar_t> >
	mov	BYTE PTR __$EHRec$[ebp+12], 4
	lea	ecx, DWORD PTR $T121692[ebp]
	call	??1?$basic_string@_WU?$char_traits@_W@std@@V?$K2StringAllocator@_W@@@std@@QAE@XZ ; std::basic_string<wchar_t,std::char_traits<wchar_t>,K2StringAllocator<wchar_t> >::~basic_string<wchar_t,std::char_traits<wchar_t>,K2StringAllocator<wchar_t> >
	mov	BYTE PTR __$EHRec$[ebp+12], 3
	lea	ecx, DWORD PTR $T121691[ebp]
	call	??1?$basic_string@_WU?$char_traits@_W@std@@V?$K2StringAllocator@_W@@@std@@QAE@XZ ; std::basic_string<wchar_t,std::char_traits<wchar_t>,K2StringAllocator<wchar_t> >::~basic_string<wchar_t,std::char_traits<wchar_t>,K2StringAllocator<wchar_t> >
	mov	BYTE PTR __$EHRec$[ebp+12], 2
	lea	ecx, DWORD PTR $T121690[ebp]
	call	??1?$basic_string@_WU?$char_traits@_W@std@@V?$K2StringAllocator@_W@@@std@@QAE@XZ ; std::basic_string<wchar_t,std::char_traits<wchar_t>,K2StringAllocator<wchar_t> >::~basic_string<wchar_t,std::char_traits<wchar_t>,K2StringAllocator<wchar_t> >
	mov	BYTE PTR __$EHRec$[ebp+12], 1
	lea	ecx, DWORD PTR $T121689[ebp]
	call	??1?$basic_string@_WU?$char_traits@_W@std@@V?$K2StringAllocator@_W@@@std@@QAE@XZ ; std::basic_string<wchar_t,std::char_traits<wchar_t>,K2StringAllocator<wchar_t> >::~basic_string<wchar_t,std::char_traits<wchar_t>,K2StringAllocator<wchar_t> >
	mov	BYTE PTR __$EHRec$[ebp+12], 0
	lea	ecx, DWORD PTR $T121688[ebp]
	call	??1?$basic_string@_WU?$char_traits@_W@std@@V?$K2StringAllocator@_W@@@std@@QAE@XZ ; std::basic_string<wchar_t,std::char_traits<wchar_t>,K2StringAllocator<wchar_t> >::~basic_string<wchar_t,std::char_traits<wchar_t>,K2StringAllocator<wchar_t> >
	mov	DWORD PTR __$EHRec$[ebp+12], -1
	lea	ecx, DWORD PTR $T121687[ebp]
	call	??1?$basic_string@DU?$char_traits@D@std@@V?$K2StringAllocator@D@@@std@@QAE@XZ ; std::basic_string<char,std::char_traits<char>,K2StringAllocator<char> >::~basic_string<char,std::char_traits<char>,K2StringAllocator<char> >

; 324  : #endif
; 325  : 
; 326  : 	K2System.SetInstanceHandle(hInstance);

	mov	eax, DWORD PTR _hInstance$[ebp]
	push	eax
	mov	ecx, DWORD PTR __imp_?K2System@@3AAVCSystem@@A
	mov	ecx, DWORD PTR [ecx]
	call	DWORD PTR __imp_?SetInstanceHandle@CSystem@@QAEXPAX@Z

; 327  : 	K2System.SetMainWndProc(System_MainWndProc);

	push	OFFSET ?System_MainWndProc@@YGJPAUHWND__@@IIJ@Z ; System_MainWndProc
	mov	eax, DWORD PTR __imp_?K2System@@3AAVCSystem@@A
	mov	ecx, DWORD PTR [eax]
	call	DWORD PTR __imp_?SetMainWndProc@CSystem@@QAEXPAX@Z

; 328  : 	K2System.SetConsoleWndProc(System_ConsoleWndProc);

	push	OFFSET ?System_ConsoleWndProc@@YGJPAUHWND__@@IIJ@Z ; System_ConsoleWndProc
	mov	eax, DWORD PTR __imp_?K2System@@3AAVCSystem@@A
	mov	ecx, DWORD PTR [eax]
	call	DWORD PTR __imp_?SetConsoleWndProc@CSystem@@QAEXPAX@Z

; 329  : 	K2System.InitKeyboardMap();

	mov	eax, DWORD PTR __imp_?K2System@@3AAVCSystem@@A
	mov	ecx, DWORD PTR [eax]
	call	DWORD PTR __imp_?InitKeyboardMap@CSystem@@QAEXXZ

; 330  : 	K2System.SetupKeystates();

	mov	eax, DWORD PTR __imp_?K2System@@3AAVCSystem@@A
	mov	ecx, DWORD PTR [eax]
	call	DWORD PTR __imp_?SetupKeystates@CSystem@@QAEXXZ

; 331  : 
; 332  : 	try
; 333  : 	{

	mov	DWORD PTR __$EHRec$[ebp+12], 8

; 334  : 		Host.Init(DEFAULT_GAME);

	push	OFFSET ??_C@_19ILJNDDBA@?$AAg?$AAa?$AAm?$AAe?$AA?$AA@
	lea	ecx, DWORD PTR $T121695[ebp]
	call	??0?$basic_string@_WU?$char_traits@_W@std@@V?$K2StringAllocator@_W@@@std@@QAE@PB_W@Z ; std::basic_string<wchar_t,std::char_traits<wchar_t>,K2StringAllocator<wchar_t> >::basic_string<wchar_t,std::char_traits<wchar_t>,K2StringAllocator<wchar_t> >
	mov	DWORD PTR tv133[ebp], eax
	mov	BYTE PTR __$EHRec$[ebp+12], 9
	lea	eax, DWORD PTR $T121695[ebp]
	push	eax
	mov	ecx, DWORD PTR __imp_?g_pHost@@3PAVCHost@@A
	mov	ecx, DWORD PTR [ecx]
	call	DWORD PTR __imp_?Init@CHost@@QAEXABV?$basic_string@_WU?$char_traits@_W@std@@V?$K2StringAllocator@_W@@@std@@@Z
	mov	BYTE PTR __$EHRec$[ebp+12], 8
	lea	ecx, DWORD PTR $T121695[ebp]
	call	??1?$basic_string@_WU?$char_traits@_W@std@@V?$K2StringAllocator@_W@@@std@@QAE@XZ ; std::basic_string<wchar_t,std::char_traits<wchar_t>,K2StringAllocator<wchar_t> >::~basic_string<wchar_t,std::char_traits<wchar_t>,K2StringAllocator<wchar_t> >

; 335  : 		Host.Execute();

	mov	eax, DWORD PTR __imp_?g_pHost@@3PAVCHost@@A
	mov	ecx, DWORD PTR [eax]
	call	DWORD PTR __imp_?Execute@CHost@@QAEXXZ
	jmp	$LN4@WinMain
__catch$_WinMain@16$0:

; 336  : 	}
; 337  : 	catch (CException &ex)
; 338  : 	{
; 339  : 		ex.Process(_T("Unhandled exception - "), NO_THROW);

	push	OFFSET ??_C@_1CO@FDBPJGMO@?$AAU?$AAn?$AAh?$AAa?$AAn?$AAd?$AAl?$AAe?$AAd?$AA?5?$AAe?$AAx?$AAc?$AAe?$AAp?$AAt?$AAi?$AAo?$AAn?$AA?5?$AA?9?$AA?5?$AA?$AA@
	lea	ecx, DWORD PTR $T121696[ebp]
	call	??0?$basic_string@_WU?$char_traits@_W@std@@V?$K2StringAllocator@_W@@@std@@QAE@PB_W@Z ; std::basic_string<wchar_t,std::char_traits<wchar_t>,K2StringAllocator<wchar_t> >::basic_string<wchar_t,std::char_traits<wchar_t>,K2StringAllocator<wchar_t> >
	mov	BYTE PTR __$EHRec$[ebp+12], 11		; 0000000bH
	push	0
	lea	eax, DWORD PTR $T121696[ebp]
	push	eax
	mov	ecx, DWORD PTR _ex$115251[ebp]
	call	DWORD PTR __imp_?Process@CException@@QAEXABV?$basic_string@_WU?$char_traits@_W@std@@V?$K2StringAllocator@_W@@@std@@_N@Z
	mov	BYTE PTR __$EHRec$[ebp+12], 10		; 0000000aH
	lea	ecx, DWORD PTR $T121696[ebp]
	call	??1?$basic_string@_WU?$char_traits@_W@std@@V?$K2StringAllocator@_W@@@std@@QAE@XZ ; std::basic_string<wchar_t,std::char_traits<wchar_t>,K2StringAllocator<wchar_t> >::~basic_string<wchar_t,std::char_traits<wchar_t>,K2StringAllocator<wchar_t> >

; 340  : 		K2System.Error(ex.GetMsg());

	lea	eax, DWORD PTR $T121697[ebp]
	push	eax
	mov	ecx, DWORD PTR _ex$115251[ebp]
	call	DWORD PTR __imp_?GetMsg@CException@@QBE?AV?$basic_string@_WU?$char_traits@_W@std@@V?$K2StringAllocator@_W@@@std@@XZ
	mov	DWORD PTR tv155[ebp], eax
	mov	ecx, DWORD PTR tv155[ebp]
	mov	DWORD PTR tv178[ebp], ecx
	mov	BYTE PTR __$EHRec$[ebp+12], 12		; 0000000cH
	mov	edx, DWORD PTR tv178[ebp]
	push	edx
	mov	eax, DWORD PTR __imp_?K2System@@3AAVCSystem@@A
	mov	ecx, DWORD PTR [eax]
	call	DWORD PTR __imp_?Error@CSystem@@QAEXABV?$basic_string@_WU?$char_traits@_W@std@@V?$K2StringAllocator@_W@@@std@@@Z
	mov	BYTE PTR __$EHRec$[ebp+12], 10		; 0000000aH
	lea	ecx, DWORD PTR $T121697[ebp]
	call	??1?$basic_string@_WU?$char_traits@_W@std@@V?$K2StringAllocator@_W@@@std@@QAE@XZ ; std::basic_string<wchar_t,std::char_traits<wchar_t>,K2StringAllocator<wchar_t> >::~basic_string<wchar_t,std::char_traits<wchar_t>,K2StringAllocator<wchar_t> >

; 341  : 	}

	mov	DWORD PTR __$EHRec$[ebp+12], -1
	mov	eax, __tryend$_WinMain@16$1
	ret	0
$LN4@WinMain:
	mov	DWORD PTR __$EHRec$[ebp+12], -1
__tryend$_WinMain@16$1:

; 342  : 	/*catch (...)
; 343  : 	{
; 344  : 		Console << (_T("Unhandled exception"), NO_THROW);
; 345  : 		K2System.Error(_T("Unhandled exception"));
; 346  : 		throw;
; 347  : 	}*/
; 348  : 
; 349  : 	Host.Shutdown();

	mov	eax, DWORD PTR __imp_?g_pHost@@3PAVCHost@@A
	mov	ecx, DWORD PTR [eax]
	call	DWORD PTR __imp_?Shutdown@CHost@@QAEXXZ

; 350  : 	return 0;

	xor	eax, eax

; 351  : }

	mov	ecx, DWORD PTR __$EHRec$[ebp+4]
	mov	DWORD PTR fs:0, ecx
	pop	ecx
	pop	edi
	pop	esi
	pop	ebx
	mov	esp, ebp
	pop	ebp
	ret	16					; 00000010H
_TEXT	ENDS
;	COMDAT text$x
text$x	SEGMENT
__unwindfunclet$_WinMain@16$2:
	lea	ecx, DWORD PTR $T121687[ebp]
	jmp	??1?$basic_string@DU?$char_traits@D@std@@V?$K2StringAllocator@D@@@std@@QAE@XZ ; std::basic_string<char,std::char_traits<char>,K2StringAllocator<char> >::~basic_string<char,std::char_traits<char>,K2StringAllocator<char> >
__unwindfunclet$_WinMain@16$3:
	lea	ecx, DWORD PTR $T121688[ebp]
	jmp	??1?$basic_string@_WU?$char_traits@_W@std@@V?$K2StringAllocator@_W@@@std@@QAE@XZ ; std::basic_string<wchar_t,std::char_traits<wchar_t>,K2StringAllocator<wchar_t> >::~basic_string<wchar_t,std::char_traits<wchar_t>,K2StringAllocator<wchar_t> >
__unwindfunclet$_WinMain@16$4:
	lea	ecx, DWORD PTR $T121689[ebp]
	jmp	??1?$basic_string@_WU?$char_traits@_W@std@@V?$K2StringAllocator@_W@@@std@@QAE@XZ ; std::basic_string<wchar_t,std::char_traits<wchar_t>,K2StringAllocator<wchar_t> >::~basic_string<wchar_t,std::char_traits<wchar_t>,K2StringAllocator<wchar_t> >
__unwindfunclet$_WinMain@16$5:
	lea	ecx, DWORD PTR $T121690[ebp]
	jmp	??1?$basic_string@_WU?$char_traits@_W@std@@V?$K2StringAllocator@_W@@@std@@QAE@XZ ; std::basic_string<wchar_t,std::char_traits<wchar_t>,K2StringAllocator<wchar_t> >::~basic_string<wchar_t,std::char_traits<wchar_t>,K2StringAllocator<wchar_t> >
__unwindfunclet$_WinMain@16$6:
	lea	ecx, DWORD PTR $T121691[ebp]
	jmp	??1?$basic_string@_WU?$char_traits@_W@std@@V?$K2StringAllocator@_W@@@std@@QAE@XZ ; std::basic_string<wchar_t,std::char_traits<wchar_t>,K2StringAllocator<wchar_t> >::~basic_string<wchar_t,std::char_traits<wchar_t>,K2StringAllocator<wchar_t> >
__unwindfunclet$_WinMain@16$7:
	lea	ecx, DWORD PTR $T121692[ebp]
	jmp	??1?$basic_string@_WU?$char_traits@_W@std@@V?$K2StringAllocator@_W@@@std@@QAE@XZ ; std::basic_string<wchar_t,std::char_traits<wchar_t>,K2StringAllocator<wchar_t> >::~basic_string<wchar_t,std::char_traits<wchar_t>,K2StringAllocator<wchar_t> >
__unwindfunclet$_WinMain@16$8:
	lea	ecx, DWORD PTR $T121693[ebp]
	jmp	??1?$basic_string@_WU?$char_traits@_W@std@@V?$K2StringAllocator@_W@@@std@@QAE@XZ ; std::basic_string<wchar_t,std::char_traits<wchar_t>,K2StringAllocator<wchar_t> >::~basic_string<wchar_t,std::char_traits<wchar_t>,K2StringAllocator<wchar_t> >
__unwindfunclet$_WinMain@16$9:
	lea	ecx, DWORD PTR $T121694[ebp]
	jmp	??1?$basic_string@_WU?$char_traits@_W@std@@V?$K2StringAllocator@_W@@@std@@QAE@XZ ; std::basic_string<wchar_t,std::char_traits<wchar_t>,K2StringAllocator<wchar_t> >::~basic_string<wchar_t,std::char_traits<wchar_t>,K2StringAllocator<wchar_t> >
__unwindfunclet$_WinMain@16$10:
	lea	ecx, DWORD PTR $T121695[ebp]
	jmp	??1?$basic_string@_WU?$char_traits@_W@std@@V?$K2StringAllocator@_W@@@std@@QAE@XZ ; std::basic_string<wchar_t,std::char_traits<wchar_t>,K2StringAllocator<wchar_t> >::~basic_string<wchar_t,std::char_traits<wchar_t>,K2StringAllocator<wchar_t> >
__unwindfunclet$_WinMain@16$11:
	lea	ecx, DWORD PTR $T121696[ebp]
	jmp	??1?$basic_string@_WU?$char_traits@_W@std@@V?$K2StringAllocator@_W@@@std@@QAE@XZ ; std::basic_string<wchar_t,std::char_traits<wchar_t>,K2StringAllocator<wchar_t> >::~basic_string<wchar_t,std::char_traits<wchar_t>,K2StringAllocator<wchar_t> >
__unwindfunclet$_WinMain@16$12:
	lea	ecx, DWORD PTR $T121697[ebp]
	jmp	??1?$basic_string@_WU?$char_traits@_W@std@@V?$K2StringAllocator@_W@@@std@@QAE@XZ ; std::basic_string<wchar_t,std::char_traits<wchar_t>,K2StringAllocator<wchar_t> >::~basic_string<wchar_t,std::char_traits<wchar_t>,K2StringAllocator<wchar_t> >
__ehhandler$_WinMain@16:
	mov	edx, DWORD PTR [esp+8]
	lea	eax, DWORD PTR [edx+12]
	mov	ecx, DWORD PTR [edx-448]
	xor	ecx, eax
	call	@__security_check_cookie@4
	mov	eax, OFFSET __ehfuncinfo$_WinMain@16
	jmp	___CxxFrameHandler3
text$x	ENDS
_WinMain@16 ENDP
PUBLIC	??_C@_1BE@KIBOMOAF@?$AAP?$AAl?$AAa?$AAy?$AAi?$AAn?$AAg?$AA?3?$AA?5?$AA?$AA@ ; `string'
PUBLIC	?find_last_of@?$basic_string@_WU?$char_traits@_W@std@@V?$K2StringAllocator@_W@@@std@@QBEI_WI@Z ; std::basic_string<wchar_t,std::char_traits<wchar_t>,K2StringAllocator<wchar_t> >::find_last_of
PUBLIC	?find@?$basic_string@_WU?$char_traits@_W@std@@V?$K2StringAllocator@_W@@@std@@QBEI_WI@Z ; std::basic_string<wchar_t,std::char_traits<wchar_t>,K2StringAllocator<wchar_t> >::find
PUBLIC	?Set@CMemManager@@SAPAXPAXEI@Z			; CMemManager::Set
PUBLIC	??_C@_1DA@COMNCCFO@?$AAW?$AAi?$AAn?$AAa?$AAm?$AAp?$AA?5?$AAw?$AAi?$AAn?$AAd?$AAo?$AAw?$AA?5?$AAn?$AAo?$AAt?$AA?5?$AAf?$AAo?$AAu?$AAn?$AAd?$AA?$AA@ ; `string'
PUBLIC	??_C@_1BI@FAGFMEF@?$AAW?$AAi?$AAn?$AAa?$AAm?$AAp?$AA?5?$AAv?$AA1?$AA?4?$AAx?$AA?$AA@ ; `string'
PUBLIC	__$ArrayPad$
PUBLIC	?cmdWAStartFn@@YA_NPAVCConsoleElement@@ABV?$vector@V?$basic_string@_WU?$char_traits@_W@std@@V?$K2StringAllocator@_W@@@std@@V?$K2VectorAllocator@V?$basic_string@_WU?$char_traits@_W@std@@V?$K2StringAllocator@_W@@@std@@@@@@@Z ; cmdWAStartFn
EXTRN	__imp__SendMessageW@16:PROC
EXTRN	__imp__FindWindowW@8:PROC
;	COMDAT ??_C@_1BE@KIBOMOAF@?$AAP?$AAl?$AAa?$AAy?$AAi?$AAn?$AAg?$AA?3?$AA?5?$AA?$AA@
CONST	SEGMENT
??_C@_1BE@KIBOMOAF@?$AAP?$AAl?$AAa?$AAy?$AAi?$AAn?$AAg?$AA?3?$AA?5?$AA?$AA@ DB 'P'
	DB	00H, 'l', 00H, 'a', 00H, 'y', 00H, 'i', 00H, 'n', 00H, 'g', 00H
	DB	':', 00H, ' ', 00H, 00H, 00H			; `string'
CONST	ENDS
;	COMDAT ??_C@_1DA@COMNCCFO@?$AAW?$AAi?$AAn?$AAa?$AAm?$AAp?$AA?5?$AAw?$AAi?$AAn?$AAd?$AAo?$AAw?$AA?5?$AAn?$AAo?$AAt?$AA?5?$AAf?$AAo?$AAu?$AAn?$AAd?$AA?$AA@
CONST	SEGMENT
??_C@_1DA@COMNCCFO@?$AAW?$AAi?$AAn?$AAa?$AAm?$AAp?$AA?5?$AAw?$AAi?$AAn?$AAd?$AAo?$AAw?$AA?5?$AAn?$AAo?$AAt?$AA?5?$AAf?$AAo?$AAu?$AAn?$AAd?$AA?$AA@ DB 'W'
	DB	00H, 'i', 00H, 'n', 00H, 'a', 00H, 'm', 00H, 'p', 00H, ' ', 00H
	DB	'w', 00H, 'i', 00H, 'n', 00H, 'd', 00H, 'o', 00H, 'w', 00H, ' '
	DB	00H, 'n', 00H, 'o', 00H, 't', 00H, ' ', 00H, 'f', 00H, 'o', 00H
	DB	'u', 00H, 'n', 00H, 'd', 00H, 00H, 00H	; `string'
CONST	ENDS
;	COMDAT ??_C@_1BI@FAGFMEF@?$AAW?$AAi?$AAn?$AAa?$AAm?$AAp?$AA?5?$AAv?$AA1?$AA?4?$AAx?$AA?$AA@
CONST	SEGMENT
??_C@_1BI@FAGFMEF@?$AAW?$AAi?$AAn?$AAa?$AAm?$AAp?$AA?5?$AAv?$AA1?$AA?4?$AAx?$AA?$AA@ DB 'W'
	DB	00H, 'i', 00H, 'n', 00H, 'a', 00H, 'm', 00H, 'p', 00H, ' ', 00H
	DB	'v', 00H, '1', 00H, '.', 00H, 'x', 00H, 00H, 00H ; `string'
CONST	ENDS
;	COMDAT xdata$x
xdata$x	SEGMENT
__unwindtable$?cmdWAStartFn@@YA_NPAVCConsoleElement@@ABV?$vector@V?$basic_string@_WU?$char_traits@_W@std@@V?$K2StringAllocator@_W@@@std@@V?$K2VectorAllocator@V?$basic_string@_WU?$char_traits@_W@std@@V?$K2StringAllocator@_W@@@std@@@@@@@Z DD 0ffffffffH
	DD	FLAT:__unwindfunclet$?cmdWAStartFn@@YA_NPAVCConsoleElement@@ABV?$vector@V?$basic_string@_WU?$char_traits@_W@std@@V?$K2StringAllocator@_W@@@std@@V?$K2VectorAllocator@V?$basic_string@_WU?$char_traits@_W@std@@V?$K2StringAllocator@_W@@@std@@@@@@@Z$0
	DD	00H
	DD	FLAT:__unwindfunclet$?cmdWAStartFn@@YA_NPAVCConsoleElement@@ABV?$vector@V?$basic_string@_WU?$char_traits@_W@std@@V?$K2StringAllocator@_W@@@std@@V?$K2VectorAllocator@V?$basic_string@_WU?$char_traits@_W@std@@V?$K2StringAllocator@_W@@@std@@@@@@@Z$1
	DD	00H
	DD	FLAT:__unwindfunclet$?cmdWAStartFn@@YA_NPAVCConsoleElement@@ABV?$vector@V?$basic_string@_WU?$char_traits@_W@std@@V?$K2StringAllocator@_W@@@std@@V?$K2VectorAllocator@V?$basic_string@_WU?$char_traits@_W@std@@V?$K2StringAllocator@_W@@@std@@@@@@@Z$2
	DD	00H
	DD	FLAT:__unwindfunclet$?cmdWAStartFn@@YA_NPAVCConsoleElement@@ABV?$vector@V?$basic_string@_WU?$char_traits@_W@std@@V?$K2StringAllocator@_W@@@std@@V?$K2VectorAllocator@V?$basic_string@_WU?$char_traits@_W@std@@V?$K2StringAllocator@_W@@@std@@@@@@@Z$4
__ehfuncinfo$?cmdWAStartFn@@YA_NPAVCConsoleElement@@ABV?$vector@V?$basic_string@_WU?$char_traits@_W@std@@V?$K2StringAllocator@_W@@@std@@V?$K2VectorAllocator@V?$basic_string@_WU?$char_traits@_W@std@@V?$K2StringAllocator@_W@@@std@@@@@@@Z DD 019930522H
	DD	04H
	DD	FLAT:__unwindtable$?cmdWAStartFn@@YA_NPAVCConsoleElement@@ABV?$vector@V?$basic_string@_WU?$char_traits@_W@std@@V?$K2StringAllocator@_W@@@std@@V?$K2VectorAllocator@V?$basic_string@_WU?$char_traits@_W@std@@V?$K2StringAllocator@_W@@@std@@@@@@@Z
	DD	2 DUP(00H)
	DD	2 DUP(00H)
	DD	00H
	DD	01H
; Function compile flags: /Odtp /ZI
xdata$x	ENDS
;	COMDAT ?cmdWAStartFn@@YA_NPAVCConsoleElement@@ABV?$vector@V?$basic_string@_WU?$char_traits@_W@std@@V?$K2StringAllocator@_W@@@std@@V?$K2VectorAllocator@V?$basic_string@_WU?$char_traits@_W@std@@V?$K2StringAllocator@_W@@@std@@@@@@@Z
_TEXT	SEGMENT
tv199 = -752						; size = 4
tv197 = -748						; size = 4
tv193 = -748						; size = 4
tv191 = -748						; size = 4
tv201 = -744						; size = 4
tv196 = -744						; size = 4
tv128 = -744						; size = 4
$T121725 = -740						; size = 32
$T121726 = -708						; size = 32
$T121727 = -676						; size = 4
$T121728 = -672						; size = 32
$T121729 = -637						; size = 1
_z$ = -572						; size = 4
_sTitle$ = -568						; size = 32
_szTitle$ = -536					; size = 510
_lState$ = -24						; size = 4
_hWndWinamp$ = -20					; size = 4
__$ArrayPad$ = -16					; size = 4
__$EHRec$ = -12						; size = 12
_pElem$ = 8						; size = 4
_vArgList$ = 12						; size = 4
?cmdWAStartFn@@YA_NPAVCConsoleElement@@ABV?$vector@V?$basic_string@_WU?$char_traits@_W@std@@V?$K2StringAllocator@_W@@@std@@V?$K2VectorAllocator@V?$basic_string@_WU?$char_traits@_W@std@@V?$K2StringAllocator@_W@@@std@@@@@@@Z PROC ; cmdWAStartFn, COMDAT

; 378  : {

	push	ebp
	mov	ebp, esp
	push	-1
	push	__ehhandler$?cmdWAStartFn@@YA_NPAVCConsoleElement@@ABV?$vector@V?$basic_string@_WU?$char_traits@_W@std@@V?$K2StringAllocator@_W@@@std@@V?$K2VectorAllocator@V?$basic_string@_WU?$char_traits@_W@std@@V?$K2StringAllocator@_W@@@std@@@@@@@Z
	mov	eax, DWORD PTR fs:0
	push	eax
	sub	esp, 740				; 000002e4H
	mov	eax, DWORD PTR ___security_cookie
	xor	eax, ebp
	mov	DWORD PTR __$ArrayPad$[ebp], eax
	push	ebx
	push	esi
	push	edi
	push	eax
	lea	eax, DWORD PTR __$EHRec$[ebp]
	mov	DWORD PTR fs:0, eax

; 379  : 	HWND hWndWinamp(FindWindow(_T("Winamp v1.x"), NULL));

	push	0
	push	OFFSET ??_C@_1BI@FAGFMEF@?$AAW?$AAi?$AAn?$AAa?$AAm?$AAp?$AA?5?$AAv?$AA1?$AA?4?$AAx?$AA?$AA@
	call	DWORD PTR __imp__FindWindowW@8
	mov	DWORD PTR _hWndWinamp$[ebp], eax

; 380  : 	if (hWndWinamp == NULL)

	cmp	DWORD PTR _hWndWinamp$[ebp], 0
	jne	SHORT $LN5@cmdWAStart

; 381  : 	{
; 382  : 		Console << _T("Winamp window not found") << newl;

	mov	eax, DWORD PTR __imp_?g_pConsole@@3PAVCConsole@@A
	mov	ecx, DWORD PTR [eax]
	call	?GetNewl@CConsole@@QBEABV?$basic_string@_WU?$char_traits@_W@std@@V?$K2StringAllocator@_W@@@std@@XZ ; CConsole::GetNewl
	push	eax
	push	OFFSET ??_C@_1DA@COMNCCFO@?$AAW?$AAi?$AAn?$AAa?$AAm?$AAp?$AA?5?$AAw?$AAi?$AAn?$AAd?$AAo?$AAw?$AA?5?$AAn?$AAo?$AAt?$AA?5?$AAf?$AAo?$AAu?$AAn?$AAd?$AA?$AA@
	mov	ecx, DWORD PTR __imp_?g_pConsole@@3PAVCConsole@@A
	mov	ecx, DWORD PTR [ecx]
	call	??6CConsole@@QAEAAVCConsoleStream@@PB_W@Z ; CConsole::operator<<
	mov	ecx, eax
	call	??6CConsoleStream@@QAEAAV0@ABV?$basic_string@_WU?$char_traits@_W@std@@V?$K2StringAllocator@_W@@@std@@@Z ; CConsoleStream::operator<<

; 383  : 		return false;

	xor	al, al
	jmp	$LN6@cmdWAStart
$LN5@cmdWAStart:

; 384  : 	}
; 385  : 
; 386  : 	LRESULT lState(SendMessage(hWndWinamp, WM_USER, 0, 104));

	push	104					; 00000068H
	push	0
	push	1024					; 00000400H
	mov	eax, DWORD PTR _hWndWinamp$[ebp]
	push	eax
	call	DWORD PTR __imp__SendMessageW@16
	mov	DWORD PTR _lState$[ebp], eax

; 387  : 	if (lState == 0)

	cmp	DWORD PTR _lState$[ebp], 0
	jne	SHORT $LN4@cmdWAStart

; 388  : 		SendMessage(hWndWinamp, WM_COMMAND, 40045, 0);

	push	0
	push	40045					; 00009c6dH
	push	273					; 00000111H
	mov	eax, DWORD PTR _hWndWinamp$[ebp]
	push	eax
	call	DWORD PTR __imp__SendMessageW@16

; 389  : 	else

	jmp	SHORT $LN3@cmdWAStart
$LN4@cmdWAStart:

; 390  : 		SendMessage(hWndWinamp, WM_COMMAND, 40046, 0);

	push	0
	push	40046					; 00009c6eH
	push	273					; 00000111H
	mov	eax, DWORD PTR _hWndWinamp$[ebp]
	push	eax
	call	DWORD PTR __imp__SendMessageW@16
$LN3@cmdWAStart:

; 391  : 
; 392  : 	TCHAR szTitle[255];
; 393  : 	MemManager.Set(szTitle, 0, 255);

	push	255					; 000000ffH
	push	0
	lea	eax, DWORD PTR _szTitle$[ebp]
	push	eax
	call	?Set@CMemManager@@SAPAXPAXEI@Z		; CMemManager::Set
	add	esp, 12					; 0000000cH

; 394  : 	GetWindowText(hWndWinamp, szTitle, 254);

	push	254					; 000000feH
	lea	eax, DWORD PTR _szTitle$[ebp]
	push	eax
	mov	ecx, DWORD PTR _hWndWinamp$[ebp]
	push	ecx
	call	DWORD PTR __imp__GetWindowTextW@12

; 395  : 	tstring sTitle(szTitle);

	lea	eax, DWORD PTR _szTitle$[ebp]
	push	eax
	lea	ecx, DWORD PTR _sTitle$[ebp]
	call	??0?$basic_string@_WU?$char_traits@_W@std@@V?$K2StringAllocator@_W@@@std@@QAE@PB_W@Z ; std::basic_string<wchar_t,std::char_traits<wchar_t>,K2StringAllocator<wchar_t> >::basic_string<wchar_t,std::char_traits<wchar_t>,K2StringAllocator<wchar_t> >
	mov	DWORD PTR __$EHRec$[ebp+8], 0

; 396  : 	size_t z(sTitle.find(_T('.')));

	push	0
	push	46					; 0000002eH
	lea	ecx, DWORD PTR _sTitle$[ebp]
	call	?find@?$basic_string@_WU?$char_traits@_W@std@@V?$K2StringAllocator@_W@@@std@@QBEI_WI@Z ; std::basic_string<wchar_t,std::char_traits<wchar_t>,K2StringAllocator<wchar_t> >::find
	mov	DWORD PTR _z$[ebp], eax

; 397  : 	if (z != tstring::npos)

	cmp	DWORD PTR _z$[ebp], -1
	je	SHORT $LN2@cmdWAStart

; 398  : 		sTitle = sTitle.substr(z + 2);

	push	-1
	mov	eax, DWORD PTR _z$[ebp]
	add	eax, 2
	push	eax
	lea	ecx, DWORD PTR $T121725[ebp]
	push	ecx
	lea	ecx, DWORD PTR _sTitle$[ebp]
	call	?substr@?$basic_string@_WU?$char_traits@_W@std@@V?$K2StringAllocator@_W@@@std@@QBE?AV12@II@Z ; std::basic_string<wchar_t,std::char_traits<wchar_t>,K2StringAllocator<wchar_t> >::substr
	mov	DWORD PTR tv128[ebp], eax
	mov	edx, DWORD PTR tv128[ebp]
	mov	DWORD PTR tv191[ebp], edx
	mov	BYTE PTR __$EHRec$[ebp+8], 1
	mov	eax, DWORD PTR tv191[ebp]
	push	eax
	lea	ecx, DWORD PTR _sTitle$[ebp]
	call	??4?$basic_string@_WU?$char_traits@_W@std@@V?$K2StringAllocator@_W@@@std@@QAEAAV01@ABV01@@Z ; std::basic_string<wchar_t,std::char_traits<wchar_t>,K2StringAllocator<wchar_t> >::operator=
	mov	BYTE PTR __$EHRec$[ebp+8], 0
	lea	ecx, DWORD PTR $T121725[ebp]
	call	??1?$basic_string@_WU?$char_traits@_W@std@@V?$K2StringAllocator@_W@@@std@@QAE@XZ ; std::basic_string<wchar_t,std::char_traits<wchar_t>,K2StringAllocator<wchar_t> >::~basic_string<wchar_t,std::char_traits<wchar_t>,K2StringAllocator<wchar_t> >
$LN2@cmdWAStart:

; 399  : 	z = sTitle.find_last_of(_T('-'));

	push	-1
	push	45					; 0000002dH
	lea	ecx, DWORD PTR _sTitle$[ebp]
	call	?find_last_of@?$basic_string@_WU?$char_traits@_W@std@@V?$K2StringAllocator@_W@@@std@@QBEI_WI@Z ; std::basic_string<wchar_t,std::char_traits<wchar_t>,K2StringAllocator<wchar_t> >::find_last_of
	mov	DWORD PTR _z$[ebp], eax

; 400  : 	if (z != tstring::npos)

	cmp	DWORD PTR _z$[ebp], -1
	je	SHORT $LN1@cmdWAStart

; 401  : 		sTitle = sTitle.substr(0, z - 1);

	mov	eax, DWORD PTR _z$[ebp]
	sub	eax, 1
	push	eax
	push	0
	lea	ecx, DWORD PTR $T121726[ebp]
	push	ecx
	lea	ecx, DWORD PTR _sTitle$[ebp]
	call	?substr@?$basic_string@_WU?$char_traits@_W@std@@V?$K2StringAllocator@_W@@@std@@QBE?AV12@II@Z ; std::basic_string<wchar_t,std::char_traits<wchar_t>,K2StringAllocator<wchar_t> >::substr
	mov	DWORD PTR tv201[ebp], eax
	mov	edx, DWORD PTR tv201[ebp]
	mov	DWORD PTR tv193[ebp], edx
	mov	BYTE PTR __$EHRec$[ebp+8], 2
	mov	eax, DWORD PTR tv193[ebp]
	push	eax
	lea	ecx, DWORD PTR _sTitle$[ebp]
	call	??4?$basic_string@_WU?$char_traits@_W@std@@V?$K2StringAllocator@_W@@@std@@QAEAAV01@ABV01@@Z ; std::basic_string<wchar_t,std::char_traits<wchar_t>,K2StringAllocator<wchar_t> >::operator=
	mov	BYTE PTR __$EHRec$[ebp+8], 0
	lea	ecx, DWORD PTR $T121726[ebp]
	call	??1?$basic_string@_WU?$char_traits@_W@std@@V?$K2StringAllocator@_W@@@std@@QAE@XZ ; std::basic_string<wchar_t,std::char_traits<wchar_t>,K2StringAllocator<wchar_t> >::~basic_string<wchar_t,std::char_traits<wchar_t>,K2StringAllocator<wchar_t> >
$LN1@cmdWAStart:

; 402  : 	Console << _T("Playing: ") << QuoteStr(sTitle) << newl;

	mov	eax, DWORD PTR __imp_?g_pConsole@@3PAVCConsole@@A
	mov	ecx, DWORD PTR [eax]
	call	?GetNewl@CConsole@@QBEABV?$basic_string@_WU?$char_traits@_W@std@@V?$K2StringAllocator@_W@@@std@@XZ ; CConsole::GetNewl
	push	eax
	sub	esp, 32					; 00000020H
	mov	ecx, esp
	mov	DWORD PTR $T121727[ebp], esp
	lea	edx, DWORD PTR _sTitle$[ebp]
	push	edx
	call	??0?$basic_string@_WU?$char_traits@_W@std@@V?$K2StringAllocator@_W@@@std@@QAE@ABV01@@Z ; std::basic_string<wchar_t,std::char_traits<wchar_t>,K2StringAllocator<wchar_t> >::basic_string<wchar_t,std::char_traits<wchar_t>,K2StringAllocator<wchar_t> >
	mov	DWORD PTR tv196[ebp], eax
	lea	eax, DWORD PTR $T121728[ebp]
	push	eax
	call	??$QuoteStr@V?$basic_string@_WU?$char_traits@_W@std@@V?$K2StringAllocator@_W@@@std@@@@YA?AV?$basic_string@_WU?$char_traits@_W@std@@V?$K2StringAllocator@_W@@@std@@V01@@Z ; QuoteStr<std::basic_string<wchar_t,std::char_traits<wchar_t>,K2StringAllocator<wchar_t> > >
	add	esp, 36					; 00000024H
	mov	DWORD PTR tv197[ebp], eax
	mov	ecx, DWORD PTR tv197[ebp]
	mov	DWORD PTR tv199[ebp], ecx
	mov	BYTE PTR __$EHRec$[ebp+8], 3
	mov	edx, DWORD PTR tv199[ebp]
	push	edx
	push	OFFSET ??_C@_1BE@KIBOMOAF@?$AAP?$AAl?$AAa?$AAy?$AAi?$AAn?$AAg?$AA?3?$AA?5?$AA?$AA@
	mov	eax, DWORD PTR __imp_?g_pConsole@@3PAVCConsole@@A
	mov	ecx, DWORD PTR [eax]
	call	??6CConsole@@QAEAAVCConsoleStream@@PB_W@Z ; CConsole::operator<<
	mov	ecx, eax
	call	??6CConsoleStream@@QAEAAV0@ABV?$basic_string@_WU?$char_traits@_W@std@@V?$K2StringAllocator@_W@@@std@@@Z ; CConsoleStream::operator<<
	mov	ecx, eax
	call	??6CConsoleStream@@QAEAAV0@ABV?$basic_string@_WU?$char_traits@_W@std@@V?$K2StringAllocator@_W@@@std@@@Z ; CConsoleStream::operator<<
	mov	BYTE PTR __$EHRec$[ebp+8], 0
	lea	ecx, DWORD PTR $T121728[ebp]
	call	??1?$basic_string@_WU?$char_traits@_W@std@@V?$K2StringAllocator@_W@@@std@@QAE@XZ ; std::basic_string<wchar_t,std::char_traits<wchar_t>,K2StringAllocator<wchar_t> >::~basic_string<wchar_t,std::char_traits<wchar_t>,K2StringAllocator<wchar_t> >

; 403  : 	return true;

	mov	BYTE PTR $T121729[ebp], 1
	mov	DWORD PTR __$EHRec$[ebp+8], -1
	lea	ecx, DWORD PTR _sTitle$[ebp]
	call	??1?$basic_string@_WU?$char_traits@_W@std@@V?$K2StringAllocator@_W@@@std@@QAE@XZ ; std::basic_string<wchar_t,std::char_traits<wchar_t>,K2StringAllocator<wchar_t> >::~basic_string<wchar_t,std::char_traits<wchar_t>,K2StringAllocator<wchar_t> >
	mov	al, BYTE PTR $T121729[ebp]
$LN6@cmdWAStart:

; 404  : }

	mov	ecx, DWORD PTR __$EHRec$[ebp]
	mov	DWORD PTR fs:0, ecx
	pop	ecx
	pop	edi
	pop	esi
	pop	ebx
	mov	ecx, DWORD PTR __$ArrayPad$[ebp]
	xor	ecx, ebp
	call	@__security_check_cookie@4
	mov	esp, ebp
	pop	ebp
	ret	0
_TEXT	ENDS
;	COMDAT text$x
text$x	SEGMENT
__unwindfunclet$?cmdWAStartFn@@YA_NPAVCConsoleElement@@ABV?$vector@V?$basic_string@_WU?$char_traits@_W@std@@V?$K2StringAllocator@_W@@@std@@V?$K2VectorAllocator@V?$basic_string@_WU?$char_traits@_W@std@@V?$K2StringAllocator@_W@@@std@@@@@@@Z$0:
	lea	ecx, DWORD PTR _sTitle$[ebp]
	jmp	??1?$basic_string@_WU?$char_traits@_W@std@@V?$K2StringAllocator@_W@@@std@@QAE@XZ ; std::basic_string<wchar_t,std::char_traits<wchar_t>,K2StringAllocator<wchar_t> >::~basic_string<wchar_t,std::char_traits<wchar_t>,K2StringAllocator<wchar_t> >
__unwindfunclet$?cmdWAStartFn@@YA_NPAVCConsoleElement@@ABV?$vector@V?$basic_string@_WU?$char_traits@_W@std@@V?$K2StringAllocator@_W@@@std@@V?$K2VectorAllocator@V?$basic_string@_WU?$char_traits@_W@std@@V?$K2StringAllocator@_W@@@std@@@@@@@Z$1:
	lea	ecx, DWORD PTR $T121725[ebp]
	jmp	??1?$basic_string@_WU?$char_traits@_W@std@@V?$K2StringAllocator@_W@@@std@@QAE@XZ ; std::basic_string<wchar_t,std::char_traits<wchar_t>,K2StringAllocator<wchar_t> >::~basic_string<wchar_t,std::char_traits<wchar_t>,K2StringAllocator<wchar_t> >
__unwindfunclet$?cmdWAStartFn@@YA_NPAVCConsoleElement@@ABV?$vector@V?$basic_string@_WU?$char_traits@_W@std@@V?$K2StringAllocator@_W@@@std@@V?$K2VectorAllocator@V?$basic_string@_WU?$char_traits@_W@std@@V?$K2StringAllocator@_W@@@std@@@@@@@Z$2:
	lea	ecx, DWORD PTR $T121726[ebp]
	jmp	??1?$basic_string@_WU?$char_traits@_W@std@@V?$K2StringAllocator@_W@@@std@@QAE@XZ ; std::basic_string<wchar_t,std::char_traits<wchar_t>,K2StringAllocator<wchar_t> >::~basic_string<wchar_t,std::char_traits<wchar_t>,K2StringAllocator<wchar_t> >
__unwindfunclet$?cmdWAStartFn@@YA_NPAVCConsoleElement@@ABV?$vector@V?$basic_string@_WU?$char_traits@_W@std@@V?$K2StringAllocator@_W@@@std@@V?$K2VectorAllocator@V?$basic_string@_WU?$char_traits@_W@std@@V?$K2StringAllocator@_W@@@std@@@@@@@Z$4:
	lea	ecx, DWORD PTR $T121728[ebp]
	jmp	??1?$basic_string@_WU?$char_traits@_W@std@@V?$K2StringAllocator@_W@@@std@@QAE@XZ ; std::basic_string<wchar_t,std::char_traits<wchar_t>,K2StringAllocator<wchar_t> >::~basic_string<wchar_t,std::char_traits<wchar_t>,K2StringAllocator<wchar_t> >
__ehhandler$?cmdWAStartFn@@YA_NPAVCConsoleElement@@ABV?$vector@V?$basic_string@_WU?$char_traits@_W@std@@V?$K2StringAllocator@_W@@@std@@V?$K2VectorAllocator@V?$basic_string@_WU?$char_traits@_W@std@@V?$K2StringAllocator@_W@@@std@@@@@@@Z:
	mov	edx, DWORD PTR [esp+8]
	lea	eax, DWORD PTR [edx+12]
	mov	ecx, DWORD PTR [edx-756]
	xor	ecx, eax
	call	@__security_check_cookie@4
	mov	ecx, DWORD PTR [edx-4]
	xor	ecx, eax
	call	@__security_check_cookie@4
	mov	eax, OFFSET __ehfuncinfo$?cmdWAStartFn@@YA_NPAVCConsoleElement@@ABV?$vector@V?$basic_string@_WU?$char_traits@_W@std@@V?$K2StringAllocator@_W@@@std@@V?$K2VectorAllocator@V?$basic_string@_WU?$char_traits@_W@std@@V?$K2StringAllocator@_W@@@std@@@@@@@Z
	jmp	___CxxFrameHandler3
text$x	ENDS
?cmdWAStartFn@@YA_NPAVCConsoleElement@@ABV?$vector@V?$basic_string@_WU?$char_traits@_W@std@@V?$K2StringAllocator@_W@@@std@@V?$K2VectorAllocator@V?$basic_string@_WU?$char_traits@_W@std@@V?$K2StringAllocator@_W@@@std@@@@@@@Z ENDP ; cmdWAStartFn
PUBLIC	?cmdWAStopFn@@YA_NPAVCConsoleElement@@ABV?$vector@V?$basic_string@_WU?$char_traits@_W@std@@V?$K2StringAllocator@_W@@@std@@V?$K2VectorAllocator@V?$basic_string@_WU?$char_traits@_W@std@@V?$K2StringAllocator@_W@@@std@@@@@@@Z ; cmdWAStopFn
; Function compile flags: /Odtp /ZI
;	COMDAT ?cmdWAStopFn@@YA_NPAVCConsoleElement@@ABV?$vector@V?$basic_string@_WU?$char_traits@_W@std@@V?$K2StringAllocator@_W@@@std@@V?$K2VectorAllocator@V?$basic_string@_WU?$char_traits@_W@std@@V?$K2StringAllocator@_W@@@std@@@@@@@Z
_TEXT	SEGMENT
_hWndWinamp$ = -4					; size = 4
_pElem$ = 8						; size = 4
_vArgList$ = 12						; size = 4
?cmdWAStopFn@@YA_NPAVCConsoleElement@@ABV?$vector@V?$basic_string@_WU?$char_traits@_W@std@@V?$K2StringAllocator@_W@@@std@@V?$K2VectorAllocator@V?$basic_string@_WU?$char_traits@_W@std@@V?$K2StringAllocator@_W@@@std@@@@@@@Z PROC ; cmdWAStopFn, COMDAT

; 407  : {

	push	ebp
	mov	ebp, esp
	sub	esp, 68					; 00000044H
	push	ebx
	push	esi
	push	edi

; 408  : 	HWND hWndWinamp(FindWindow(_T("Winamp v1.x"), NULL));

	push	0
	push	OFFSET ??_C@_1BI@FAGFMEF@?$AAW?$AAi?$AAn?$AAa?$AAm?$AAp?$AA?5?$AAv?$AA1?$AA?4?$AAx?$AA?$AA@
	call	DWORD PTR __imp__FindWindowW@8
	mov	DWORD PTR _hWndWinamp$[ebp], eax

; 409  : 	if (hWndWinamp == NULL)

	cmp	DWORD PTR _hWndWinamp$[ebp], 0
	jne	SHORT $LN1@cmdWAStopF

; 410  : 	{
; 411  : 		Console << _T("Winamp window not found") << newl;

	mov	eax, DWORD PTR __imp_?g_pConsole@@3PAVCConsole@@A
	mov	ecx, DWORD PTR [eax]
	call	?GetNewl@CConsole@@QBEABV?$basic_string@_WU?$char_traits@_W@std@@V?$K2StringAllocator@_W@@@std@@XZ ; CConsole::GetNewl
	push	eax
	push	OFFSET ??_C@_1DA@COMNCCFO@?$AAW?$AAi?$AAn?$AAa?$AAm?$AAp?$AA?5?$AAw?$AAi?$AAn?$AAd?$AAo?$AAw?$AA?5?$AAn?$AAo?$AAt?$AA?5?$AAf?$AAo?$AAu?$AAn?$AAd?$AA?$AA@
	mov	ecx, DWORD PTR __imp_?g_pConsole@@3PAVCConsole@@A
	mov	ecx, DWORD PTR [ecx]
	call	??6CConsole@@QAEAAVCConsoleStream@@PB_W@Z ; CConsole::operator<<
	mov	ecx, eax
	call	??6CConsoleStream@@QAEAAV0@ABV?$basic_string@_WU?$char_traits@_W@std@@V?$K2StringAllocator@_W@@@std@@@Z ; CConsoleStream::operator<<

; 412  : 		return false;

	xor	al, al
	jmp	SHORT $LN2@cmdWAStopF
$LN1@cmdWAStopF:

; 413  : 	}
; 414  : 
; 415  : 	SendMessage(hWndWinamp, WM_COMMAND, 40047, 0);

	push	0
	push	40047					; 00009c6fH
	push	273					; 00000111H
	mov	eax, DWORD PTR _hWndWinamp$[ebp]
	push	eax
	call	DWORD PTR __imp__SendMessageW@16

; 416  : 	return true;

	mov	al, 1
$LN2@cmdWAStopF:

; 417  : }

	pop	edi
	pop	esi
	pop	ebx
	mov	esp, ebp
	pop	ebp
	ret	0
?cmdWAStopFn@@YA_NPAVCConsoleElement@@ABV?$vector@V?$basic_string@_WU?$char_traits@_W@std@@V?$K2StringAllocator@_W@@@std@@V?$K2VectorAllocator@V?$basic_string@_WU?$char_traits@_W@std@@V?$K2StringAllocator@_W@@@std@@@@@@@Z ENDP ; cmdWAStopFn
_TEXT	ENDS
PUBLIC	?cmdWAPrevFn@@YA_NPAVCConsoleElement@@ABV?$vector@V?$basic_string@_WU?$char_traits@_W@std@@V?$K2StringAllocator@_W@@@std@@V?$K2VectorAllocator@V?$basic_string@_WU?$char_traits@_W@std@@V?$K2StringAllocator@_W@@@std@@@@@@@Z ; cmdWAPrevFn
; Function compile flags: /Odtp /ZI
;	COMDAT ?cmdWAPrevFn@@YA_NPAVCConsoleElement@@ABV?$vector@V?$basic_string@_WU?$char_traits@_W@std@@V?$K2StringAllocator@_W@@@std@@V?$K2VectorAllocator@V?$basic_string@_WU?$char_traits@_W@std@@V?$K2StringAllocator@_W@@@std@@@@@@@Z
_TEXT	SEGMENT
_hWndWinamp$ = -4					; size = 4
_pElem$ = 8						; size = 4
_vArgList$ = 12						; size = 4
?cmdWAPrevFn@@YA_NPAVCConsoleElement@@ABV?$vector@V?$basic_string@_WU?$char_traits@_W@std@@V?$K2StringAllocator@_W@@@std@@V?$K2VectorAllocator@V?$basic_string@_WU?$char_traits@_W@std@@V?$K2StringAllocator@_W@@@std@@@@@@@Z PROC ; cmdWAPrevFn, COMDAT

; 420  : {

	push	ebp
	mov	ebp, esp
	sub	esp, 68					; 00000044H
	push	ebx
	push	esi
	push	edi

; 421  : 	HWND hWndWinamp(FindWindow(_T("Winamp v1.x"), NULL));

	push	0
	push	OFFSET ??_C@_1BI@FAGFMEF@?$AAW?$AAi?$AAn?$AAa?$AAm?$AAp?$AA?5?$AAv?$AA1?$AA?4?$AAx?$AA?$AA@
	call	DWORD PTR __imp__FindWindowW@8
	mov	DWORD PTR _hWndWinamp$[ebp], eax

; 422  : 	if (hWndWinamp == NULL)

	cmp	DWORD PTR _hWndWinamp$[ebp], 0
	jne	SHORT $LN1@cmdWAPrevF

; 423  : 	{
; 424  : 		Console << _T("Winamp window not found") << newl;

	mov	eax, DWORD PTR __imp_?g_pConsole@@3PAVCConsole@@A
	mov	ecx, DWORD PTR [eax]
	call	?GetNewl@CConsole@@QBEABV?$basic_string@_WU?$char_traits@_W@std@@V?$K2StringAllocator@_W@@@std@@XZ ; CConsole::GetNewl
	push	eax
	push	OFFSET ??_C@_1DA@COMNCCFO@?$AAW?$AAi?$AAn?$AAa?$AAm?$AAp?$AA?5?$AAw?$AAi?$AAn?$AAd?$AAo?$AAw?$AA?5?$AAn?$AAo?$AAt?$AA?5?$AAf?$AAo?$AAu?$AAn?$AAd?$AA?$AA@
	mov	ecx, DWORD PTR __imp_?g_pConsole@@3PAVCConsole@@A
	mov	ecx, DWORD PTR [ecx]
	call	??6CConsole@@QAEAAVCConsoleStream@@PB_W@Z ; CConsole::operator<<
	mov	ecx, eax
	call	??6CConsoleStream@@QAEAAV0@ABV?$basic_string@_WU?$char_traits@_W@std@@V?$K2StringAllocator@_W@@@std@@@Z ; CConsoleStream::operator<<

; 425  : 		return false;

	xor	al, al
	jmp	SHORT $LN2@cmdWAPrevF
$LN1@cmdWAPrevF:

; 426  : 	}
; 427  : 
; 428  : 	SendMessage(hWndWinamp, WM_COMMAND, 40044, 0);

	push	0
	push	40044					; 00009c6cH
	push	273					; 00000111H
	mov	eax, DWORD PTR _hWndWinamp$[ebp]
	push	eax
	call	DWORD PTR __imp__SendMessageW@16

; 429  : 	return true;

	mov	al, 1
$LN2@cmdWAPrevF:

; 430  : }

	pop	edi
	pop	esi
	pop	ebx
	mov	esp, ebp
	pop	ebp
	ret	0
?cmdWAPrevFn@@YA_NPAVCConsoleElement@@ABV?$vector@V?$basic_string@_WU?$char_traits@_W@std@@V?$K2StringAllocator@_W@@@std@@V?$K2VectorAllocator@V?$basic_string@_WU?$char_traits@_W@std@@V?$K2StringAllocator@_W@@@std@@@@@@@Z ENDP ; cmdWAPrevFn
_TEXT	ENDS
PUBLIC	?cmdWANextFn@@YA_NPAVCConsoleElement@@ABV?$vector@V?$basic_string@_WU?$char_traits@_W@std@@V?$K2StringAllocator@_W@@@std@@V?$K2VectorAllocator@V?$basic_string@_WU?$char_traits@_W@std@@V?$K2StringAllocator@_W@@@std@@@@@@@Z ; cmdWANextFn
; Function compile flags: /Odtp /ZI
;	COMDAT ?cmdWANextFn@@YA_NPAVCConsoleElement@@ABV?$vector@V?$basic_string@_WU?$char_traits@_W@std@@V?$K2StringAllocator@_W@@@std@@V?$K2VectorAllocator@V?$basic_string@_WU?$char_traits@_W@std@@V?$K2StringAllocator@_W@@@std@@@@@@@Z
_TEXT	SEGMENT
_hWndWinamp$ = -4					; size = 4
_pElem$ = 8						; size = 4
_vArgList$ = 12						; size = 4
?cmdWANextFn@@YA_NPAVCConsoleElement@@ABV?$vector@V?$basic_string@_WU?$char_traits@_W@std@@V?$K2StringAllocator@_W@@@std@@V?$K2VectorAllocator@V?$basic_string@_WU?$char_traits@_W@std@@V?$K2StringAllocator@_W@@@std@@@@@@@Z PROC ; cmdWANextFn, COMDAT

; 433  : {

	push	ebp
	mov	ebp, esp
	sub	esp, 68					; 00000044H
	push	ebx
	push	esi
	push	edi

; 434  : 	HWND hWndWinamp(FindWindow(_T("Winamp v1.x"), NULL));

	push	0
	push	OFFSET ??_C@_1BI@FAGFMEF@?$AAW?$AAi?$AAn?$AAa?$AAm?$AAp?$AA?5?$AAv?$AA1?$AA?4?$AAx?$AA?$AA@
	call	DWORD PTR __imp__FindWindowW@8
	mov	DWORD PTR _hWndWinamp$[ebp], eax

; 435  : 	if (hWndWinamp == NULL)

	cmp	DWORD PTR _hWndWinamp$[ebp], 0
	jne	SHORT $LN1@cmdWANextF

; 436  : 	{
; 437  : 		Console << _T("Winamp window not found") << newl;

	mov	eax, DWORD PTR __imp_?g_pConsole@@3PAVCConsole@@A
	mov	ecx, DWORD PTR [eax]
	call	?GetNewl@CConsole@@QBEABV?$basic_string@_WU?$char_traits@_W@std@@V?$K2StringAllocator@_W@@@std@@XZ ; CConsole::GetNewl
	push	eax
	push	OFFSET ??_C@_1DA@COMNCCFO@?$AAW?$AAi?$AAn?$AAa?$AAm?$AAp?$AA?5?$AAw?$AAi?$AAn?$AAd?$AAo?$AAw?$AA?5?$AAn?$AAo?$AAt?$AA?5?$AAf?$AAo?$AAu?$AAn?$AAd?$AA?$AA@
	mov	ecx, DWORD PTR __imp_?g_pConsole@@3PAVCConsole@@A
	mov	ecx, DWORD PTR [ecx]
	call	??6CConsole@@QAEAAVCConsoleStream@@PB_W@Z ; CConsole::operator<<
	mov	ecx, eax
	call	??6CConsoleStream@@QAEAAV0@ABV?$basic_string@_WU?$char_traits@_W@std@@V?$K2StringAllocator@_W@@@std@@@Z ; CConsoleStream::operator<<

; 438  : 		return false;

	xor	al, al
	jmp	SHORT $LN2@cmdWANextF
$LN1@cmdWANextF:

; 439  : 	}
; 440  : 
; 441  : 	SendMessage(hWndWinamp, WM_COMMAND, 40048, 0);

	push	0
	push	40048					; 00009c70H
	push	273					; 00000111H
	mov	eax, DWORD PTR _hWndWinamp$[ebp]
	push	eax
	call	DWORD PTR __imp__SendMessageW@16

; 442  : 	return true;

	mov	al, 1
$LN2@cmdWANextF:

; 443  : }

	pop	edi
	pop	esi
	pop	ebx
	mov	esp, ebp
	pop	ebp
	ret	0
?cmdWANextFn@@YA_NPAVCConsoleElement@@ABV?$vector@V?$basic_string@_WU?$char_traits@_W@std@@V?$K2StringAllocator@_W@@@std@@V?$K2VectorAllocator@V?$basic_string@_WU?$char_traits@_W@std@@V?$K2StringAllocator@_W@@@std@@@@@@@Z ENDP ; cmdWANextFn
_TEXT	ENDS
PUBLIC	??0?$vector@HV?$K2VectorAllocator@H@@@std@@QAE@I@Z ; std::vector<int,K2VectorAllocator<int> >::vector<int,K2VectorAllocator<int> >
; Function compile flags: /Odtp /ZI
; File c:\code\hon\src\k2\k2_stl.h
;	COMDAT ??0?$vector@HV?$K2VectorAllocator@H@@@@QAE@I@Z
_TEXT	SEGMENT
_this$ = -4						; size = 4
__Count$ = 8						; size = 4
??0?$vector@HV?$K2VectorAllocator@H@@@@QAE@I@Z PROC	; vector<int,K2VectorAllocator<int> >::vector<int,K2VectorAllocator<int> >, COMDAT
; _this$ = ecx

; 104  : 	{	

	push	ebp
	mov	ebp, esp
	sub	esp, 68					; 00000044H
	push	ebx
	push	esi
	push	edi
	mov	DWORD PTR _this$[ebp], ecx
	mov	eax, DWORD PTR __Count$[ebp]
	push	eax
	mov	ecx, DWORD PTR _this$[ebp]
	call	??0?$vector@HV?$K2VectorAllocator@H@@@std@@QAE@I@Z ; std::vector<int,K2VectorAllocator<int> >::vector<int,K2VectorAllocator<int> >

; 105  : 	}

	mov	eax, DWORD PTR _this$[ebp]
	pop	edi
	pop	esi
	pop	ebx
	mov	esp, ebp
	pop	ebp
	ret	4
??0?$vector@HV?$K2VectorAllocator@H@@@@QAE@I@Z ENDP	; vector<int,K2VectorAllocator<int> >::vector<int,K2VectorAllocator<int> >
_TEXT	ENDS
PUBLIC	??1?$_Vector_val@HV?$K2VectorAllocator@H@@@std@@QAE@XZ ; std::_Vector_val<int,K2VectorAllocator<int> >::~_Vector_val<int,K2VectorAllocator<int> >
PUBLIC	?_Tidy@?$vector@HV?$K2VectorAllocator@H@@@std@@IAEXXZ ; std::vector<int,K2VectorAllocator<int> >::_Tidy
;	COMDAT xdata$x
; File c:\program files\microsoft visual studio 8\vc\include\vector
xdata$x	SEGMENT
__unwindtable$??1?$vector@HV?$K2VectorAllocator@H@@@std@@QAE@XZ DD 0ffffffffH
	DD	FLAT:__unwindfunclet$??1?$vector@HV?$K2VectorAllocator@H@@@std@@QAE@XZ$0
__ehfuncinfo$??1?$vector@HV?$K2VectorAllocator@H@@@std@@QAE@XZ DD 019930522H
	DD	01H
	DD	FLAT:__unwindtable$??1?$vector@HV?$K2VectorAllocator@H@@@std@@QAE@XZ
	DD	2 DUP(00H)
	DD	2 DUP(00H)
	DD	00H
	DD	01H
; Function compile flags: /Odtp /ZI
xdata$x	ENDS
;	COMDAT ??1?$vector@HV?$K2VectorAllocator@H@@@std@@QAE@XZ
_TEXT	SEGMENT
_this$ = -16						; size = 4
__$EHRec$ = -12						; size = 12
??1?$vector@HV?$K2VectorAllocator@H@@@std@@QAE@XZ PROC	; std::vector<int,K2VectorAllocator<int> >::~vector<int,K2VectorAllocator<int> >, COMDAT
; _this$ = ecx

; 545  : 		{	// destroy the object

	push	ebp
	mov	ebp, esp
	push	-1
	push	__ehhandler$??1?$vector@HV?$K2VectorAllocator@H@@@std@@QAE@XZ
	mov	eax, DWORD PTR fs:0
	push	eax
	sub	esp, 68					; 00000044H
	push	ebx
	push	esi
	push	edi
	mov	eax, DWORD PTR ___security_cookie
	xor	eax, ebp
	push	eax
	lea	eax, DWORD PTR __$EHRec$[ebp]
	mov	DWORD PTR fs:0, eax
	mov	DWORD PTR _this$[ebp], ecx
	mov	DWORD PTR __$EHRec$[ebp+8], 0

; 546  : 		_Tidy();

	mov	ecx, DWORD PTR _this$[ebp]
	call	?_Tidy@?$vector@HV?$K2VectorAllocator@H@@@std@@IAEXXZ ; std::vector<int,K2VectorAllocator<int> >::_Tidy

; 547  : 		}

	mov	DWORD PTR __$EHRec$[ebp+8], -1
	mov	ecx, DWORD PTR _this$[ebp]
	call	??1?$_Vector_val@HV?$K2VectorAllocator@H@@@std@@QAE@XZ
	mov	ecx, DWORD PTR __$EHRec$[ebp]
	mov	DWORD PTR fs:0, ecx
	pop	ecx
	pop	edi
	pop	esi
	pop	ebx
	mov	esp, ebp
	pop	ebp
	ret	0
_TEXT	ENDS
;	COMDAT text$x
text$x	SEGMENT
__unwindfunclet$??1?$vector@HV?$K2VectorAllocator@H@@@std@@QAE@XZ$0:
	mov	ecx, DWORD PTR _this$[ebp]
	jmp	??1?$_Vector_val@HV?$K2VectorAllocator@H@@@std@@QAE@XZ
__ehhandler$??1?$vector@HV?$K2VectorAllocator@H@@@std@@QAE@XZ:
	mov	edx, DWORD PTR [esp+8]
	lea	eax, DWORD PTR [edx+12]
	mov	ecx, DWORD PTR [edx-84]
	xor	ecx, eax
	call	@__security_check_cookie@4
	mov	eax, OFFSET __ehfuncinfo$??1?$vector@HV?$K2VectorAllocator@H@@@std@@QAE@XZ
	jmp	___CxxFrameHandler3
text$x	ENDS
??1?$vector@HV?$K2VectorAllocator@H@@@std@@QAE@XZ ENDP	; std::vector<int,K2VectorAllocator<int> >::~vector<int,K2VectorAllocator<int> >
PUBLIC	??0?$_Vector_iterator@HV?$K2VectorAllocator@H@@@std@@QAE@PAHPBV_Container_base@1@@Z ; std::_Vector_iterator<int,K2VectorAllocator<int> >::_Vector_iterator<int,K2VectorAllocator<int> >
; Function compile flags: /Odtp /ZI
;	COMDAT ?end@?$vector@HV?$K2VectorAllocator@H@@@std@@QAE?AV?$_Vector_iterator@HV?$K2VectorAllocator@H@@@2@XZ
_TEXT	SEGMENT
$T121762 = -72						; size = 4
_this$ = -4						; size = 4
___$ReturnUdt$ = 8					; size = 4
?end@?$vector@HV?$K2VectorAllocator@H@@@std@@QAE?AV?$_Vector_iterator@HV?$K2VectorAllocator@H@@@2@XZ PROC ; std::vector<int,K2VectorAllocator<int> >::end, COMDAT
; _this$ = ecx

; 637  : 		{	// return iterator for end of mutable sequence

	push	ebp
	mov	ebp, esp
	sub	esp, 72					; 00000048H
	push	ebx
	push	esi
	push	edi
	mov	DWORD PTR _this$[ebp], ecx
	mov	DWORD PTR $T121762[ebp], 0

; 638  : 		return (iterator(_Mylast, this));

	mov	eax, DWORD PTR _this$[ebp]
	push	eax
	mov	ecx, DWORD PTR _this$[ebp]
	mov	edx, DWORD PTR [ecx+12]
	push	edx
	mov	ecx, DWORD PTR ___$ReturnUdt$[ebp]
	call	??0?$_Vector_iterator@HV?$K2VectorAllocator@H@@@std@@QAE@PAHPBV_Container_base@1@@Z ; std::_Vector_iterator<int,K2VectorAllocator<int> >::_Vector_iterator<int,K2VectorAllocator<int> >
	mov	eax, DWORD PTR $T121762[ebp]
	or	eax, 1
	mov	DWORD PTR $T121762[ebp], eax
	mov	eax, DWORD PTR ___$ReturnUdt$[ebp]

; 639  : 		}

	pop	edi
	pop	esi
	pop	ebx
	mov	esp, ebp
	pop	ebp
	ret	4
?end@?$vector@HV?$K2VectorAllocator@H@@@std@@QAE?AV?$_Vector_iterator@HV?$K2VectorAllocator@H@@@2@XZ ENDP ; std::vector<int,K2VectorAllocator<int> >::end
_TEXT	ENDS
PUBLIC	?find@?$basic_string@_WU?$char_traits@_W@std@@V?$K2StringAllocator@_W@@@std@@QBEIPB_WII@Z ; std::basic_string<wchar_t,std::char_traits<wchar_t>,K2StringAllocator<wchar_t> >::find
; Function compile flags: /Odtp /ZI
; File c:\program files\microsoft visual studio 8\vc\include\xstring
;	COMDAT ?find@?$basic_string@_WU?$char_traits@_W@std@@V?$K2StringAllocator@_W@@@std@@QBEI_WI@Z
_TEXT	SEGMENT
_this$ = -4						; size = 4
__Ch$ = 8						; size = 2
__Off$ = 12						; size = 4
?find@?$basic_string@_WU?$char_traits@_W@std@@V?$K2StringAllocator@_W@@@std@@QBEI_WI@Z PROC ; std::basic_string<wchar_t,std::char_traits<wchar_t>,K2StringAllocator<wchar_t> >::find, COMDAT
; _this$ = ecx

; 1755 : 		{	// look for _Ch at or after _Off

	push	ebp
	mov	ebp, esp
	sub	esp, 68					; 00000044H
	push	ebx
	push	esi
	push	edi
	mov	DWORD PTR _this$[ebp], ecx

; 1756 : 		return (find((const _Elem *)&_Ch, _Off, 1));

	push	1
	mov	eax, DWORD PTR __Off$[ebp]
	push	eax
	lea	ecx, DWORD PTR __Ch$[ebp]
	push	ecx
	mov	ecx, DWORD PTR _this$[ebp]
	call	?find@?$basic_string@_WU?$char_traits@_W@std@@V?$K2StringAllocator@_W@@@std@@QBEIPB_WII@Z ; std::basic_string<wchar_t,std::char_traits<wchar_t>,K2StringAllocator<wchar_t> >::find

; 1757 : 		}

	pop	edi
	pop	esi
	pop	ebx
	mov	esp, ebp
	pop	ebp
	ret	8
?find@?$basic_string@_WU?$char_traits@_W@std@@V?$K2StringAllocator@_W@@@std@@QBEI_WI@Z ENDP ; std::basic_string<wchar_t,std::char_traits<wchar_t>,K2StringAllocator<wchar_t> >::find
_TEXT	ENDS
PUBLIC	?rfind@?$basic_string@_WU?$char_traits@_W@std@@V?$K2StringAllocator@_W@@@std@@QBEIPB_WII@Z ; std::basic_string<wchar_t,std::char_traits<wchar_t>,K2StringAllocator<wchar_t> >::rfind
; Function compile flags: /Odtp /ZI
;	COMDAT ?find_last_of@?$basic_string@_WU?$char_traits@_W@std@@V?$K2StringAllocator@_W@@@std@@QBEI_WI@Z
_TEXT	SEGMENT
_this$ = -4						; size = 4
__Ch$ = 8						; size = 2
__Off$ = 12						; size = 4
?find_last_of@?$basic_string@_WU?$char_traits@_W@std@@V?$K2StringAllocator@_W@@@std@@QBEI_WI@Z PROC ; std::basic_string<wchar_t,std::char_traits<wchar_t>,K2StringAllocator<wchar_t> >::find_last_of, COMDAT
; _this$ = ecx

; 1854 : 		{	// look for _Ch before _Off

	push	ebp
	mov	ebp, esp
	sub	esp, 68					; 00000044H
	push	ebx
	push	esi
	push	edi
	mov	DWORD PTR _this$[ebp], ecx

; 1855 : 		return (rfind((const _Elem *)&_Ch, _Off, 1));

	push	1
	mov	eax, DWORD PTR __Off$[ebp]
	push	eax
	lea	ecx, DWORD PTR __Ch$[ebp]
	push	ecx
	mov	ecx, DWORD PTR _this$[ebp]
	call	?rfind@?$basic_string@_WU?$char_traits@_W@std@@V?$K2StringAllocator@_W@@@std@@QBEIPB_WII@Z ; std::basic_string<wchar_t,std::char_traits<wchar_t>,K2StringAllocator<wchar_t> >::rfind

; 1856 : 		}

	pop	edi
	pop	esi
	pop	ebx
	mov	esp, ebp
	pop	ebp
	ret	8
?find_last_of@?$basic_string@_WU?$char_traits@_W@std@@V?$K2StringAllocator@_W@@@std@@QBEI_WI@Z ENDP ; std::basic_string<wchar_t,std::char_traits<wchar_t>,K2StringAllocator<wchar_t> >::find_last_of
_TEXT	ENDS
PUBLIC	??0?$basic_string@_WU?$char_traits@_W@std@@V?$K2StringAllocator@_W@@@std@@QAE@ABV01@II@Z ; std::basic_string<wchar_t,std::char_traits<wchar_t>,K2StringAllocator<wchar_t> >::basic_string<wchar_t,std::char_traits<wchar_t>,K2StringAllocator<wchar_t> >
; Function compile flags: /Odtp /ZI
;	COMDAT ?substr@?$basic_string@_WU?$char_traits@_W@std@@V?$K2StringAllocator@_W@@@std@@QBE?AV12@II@Z
_TEXT	SEGMENT
$T121771 = -72						; size = 4
_this$ = -4						; size = 4
___$ReturnUdt$ = 8					; size = 4
__Off$ = 12						; size = 4
__Count$ = 16						; size = 4
?substr@?$basic_string@_WU?$char_traits@_W@std@@V?$K2StringAllocator@_W@@@std@@QBE?AV12@II@Z PROC ; std::basic_string<wchar_t,std::char_traits<wchar_t>,K2StringAllocator<wchar_t> >::substr, COMDAT
; _this$ = ecx

; 1922 : 		{	// return [_Off, _Off + _Count) as new string

	push	ebp
	mov	ebp, esp
	sub	esp, 72					; 00000048H
	push	ebx
	push	esi
	push	edi
	mov	DWORD PTR _this$[ebp], ecx
	mov	DWORD PTR $T121771[ebp], 0

; 1923 : 		return (_Myt(*this, _Off, _Count));

	mov	eax, DWORD PTR __Count$[ebp]
	push	eax
	mov	ecx, DWORD PTR __Off$[ebp]
	push	ecx
	mov	edx, DWORD PTR _this$[ebp]
	push	edx
	mov	ecx, DWORD PTR ___$ReturnUdt$[ebp]
	call	??0?$basic_string@_WU?$char_traits@_W@std@@V?$K2StringAllocator@_W@@@std@@QAE@ABV01@II@Z ; std::basic_string<wchar_t,std::char_traits<wchar_t>,K2StringAllocator<wchar_t> >::basic_string<wchar_t,std::char_traits<wchar_t>,K2StringAllocator<wchar_t> >
	mov	eax, DWORD PTR $T121771[ebp]
	or	eax, 1
	mov	DWORD PTR $T121771[ebp], eax
	mov	eax, DWORD PTR ___$ReturnUdt$[ebp]

; 1924 : 		}

	pop	edi
	pop	esi
	pop	ebx
	mov	esp, ebp
	pop	ebp
	ret	12					; 0000000cH
?substr@?$basic_string@_WU?$char_traits@_W@std@@V?$K2StringAllocator@_W@@@std@@QBE?AV12@II@Z ENDP ; std::basic_string<wchar_t,std::char_traits<wchar_t>,K2StringAllocator<wchar_t> >::substr
; Function compile flags: /Odtp /ZI
; File c:\code\hon\src\k2\c_rect.h
_TEXT	ENDS
;	COMDAT ??1?$CRect@H@@QAE@XZ
_TEXT	SEGMENT
_this$ = -4						; size = 4
??1?$CRect@H@@QAE@XZ PROC				; CRect<int>::~CRect<int>, COMDAT
; _this$ = ecx

; 41   : 	~CRect() {}

	push	ebp
	mov	ebp, esp
	sub	esp, 68					; 00000044H
	push	ebx
	push	esi
	push	edi
	mov	DWORD PTR _this$[ebp], ecx
	pop	edi
	pop	esi
	pop	ebx
	mov	esp, ebp
	pop	ebp
	ret	0
??1?$CRect@H@@QAE@XZ ENDP				; CRect<int>::~CRect<int>
; Function compile flags: /Odtp /ZI
; File c:\code\hon\src\k2\c_cvar.h
_TEXT	ENDS
;	COMDAT ??B?$CCvar@_N_N@@QBE_NXZ
_TEXT	SEGMENT
_this$ = -4						; size = 4
??B?$CCvar@_N_N@@QBE_NXZ PROC				; CCvar<bool,bool>::operator bool, COMDAT
; _this$ = ecx

; 354  : 					operator T() const							{ return m_Value; }

	push	ebp
	mov	ebp, esp
	sub	esp, 68					; 00000044H
	push	ebx
	push	esi
	push	edi
	mov	DWORD PTR _this$[ebp], ecx
	mov	eax, DWORD PTR _this$[ebp]
	mov	al, BYTE PTR [eax+269]
	pop	edi
	pop	esi
	pop	ebx
	mov	esp, ebp
	pop	ebp
	ret	0
??B?$CCvar@_N_N@@QBE_NXZ ENDP				; CCvar<bool,bool>::operator bool
_TEXT	ENDS
PUBLIC	??D?$_Vector_const_iterator@HV?$K2VectorAllocator@H@@@std@@QBEABHXZ ; std::_Vector_const_iterator<int,K2VectorAllocator<int> >::operator*
; Function compile flags: /Odtp /ZI
; File c:\program files\microsoft visual studio 8\vc\include\vector
;	COMDAT ??D?$_Vector_iterator@HV?$K2VectorAllocator@H@@@std@@QBEAAHXZ
_TEXT	SEGMENT
_this$ = -4						; size = 4
??D?$_Vector_iterator@HV?$K2VectorAllocator@H@@@std@@QBEAAHXZ PROC ; std::_Vector_iterator<int,K2VectorAllocator<int> >::operator*, COMDAT
; _this$ = ecx

; 325  : 		{	// return designated object

	push	ebp
	mov	ebp, esp
	sub	esp, 68					; 00000044H
	push	ebx
	push	esi
	push	edi
	mov	DWORD PTR _this$[ebp], ecx

; 326  : 		return ((reference)**(_Mybase *)this);

	mov	ecx, DWORD PTR _this$[ebp]
	call	??D?$_Vector_const_iterator@HV?$K2VectorAllocator@H@@@std@@QBEABHXZ ; std::_Vector_const_iterator<int,K2VectorAllocator<int> >::operator*

; 327  : 		}

	pop	edi
	pop	esi
	pop	ebx
	mov	esp, ebp
	pop	ebp
	ret	0
??D?$_Vector_iterator@HV?$K2VectorAllocator@H@@@std@@QBEAAHXZ ENDP ; std::_Vector_iterator<int,K2VectorAllocator<int> >::operator*
_TEXT	ENDS
PUBLIC	??1?$K2VectorAllocator@H@@QAE@XZ		; K2VectorAllocator<int>::~K2VectorAllocator<int>
EXTRN	__imp_??1_Container_base@std@@QAE@XZ:PROC
;	COMDAT xdata$x
xdata$x	SEGMENT
__unwindtable$??1?$_Vector_val@HV?$K2VectorAllocator@H@@@std@@QAE@XZ DD 0ffffffffH
	DD	FLAT:__unwindfunclet$??1?$_Vector_val@HV?$K2VectorAllocator@H@@@std@@QAE@XZ$0
__ehfuncinfo$??1?$_Vector_val@HV?$K2VectorAllocator@H@@@std@@QAE@XZ DD 019930522H
	DD	01H
	DD	FLAT:__unwindtable$??1?$_Vector_val@HV?$K2VectorAllocator@H@@@std@@QAE@XZ
	DD	2 DUP(00H)
	DD	2 DUP(00H)
	DD	00H
	DD	01H
; Function compile flags: /Odtp /ZI
xdata$x	ENDS
;	COMDAT ??1?$_Vector_val@HV?$K2VectorAllocator@H@@@std@@QAE@XZ
_TEXT	SEGMENT
_this$ = -16						; size = 4
__$EHRec$ = -12						; size = 12
??1?$_Vector_val@HV?$K2VectorAllocator@H@@@std@@QAE@XZ PROC ; std::_Vector_val<int,K2VectorAllocator<int> >::~_Vector_val<int,K2VectorAllocator<int> >, COMDAT
; _this$ = ecx
	push	ebp
	mov	ebp, esp
	push	-1
	push	__ehhandler$??1?$_Vector_val@HV?$K2VectorAllocator@H@@@std@@QAE@XZ
	mov	eax, DWORD PTR fs:0
	push	eax
	sub	esp, 68					; 00000044H
	push	ebx
	push	esi
	push	edi
	mov	eax, DWORD PTR ___security_cookie
	xor	eax, ebp
	push	eax
	lea	eax, DWORD PTR __$EHRec$[ebp]
	mov	DWORD PTR fs:0, eax
	mov	DWORD PTR _this$[ebp], ecx
	mov	DWORD PTR __$EHRec$[ebp+8], 0
	mov	ecx, DWORD PTR _this$[ebp]
	add	ecx, 4
	call	??1?$K2VectorAllocator@H@@QAE@XZ	; K2VectorAllocator<int>::~K2VectorAllocator<int>
	mov	DWORD PTR __$EHRec$[ebp+8], -1
	mov	ecx, DWORD PTR _this$[ebp]
	call	DWORD PTR __imp_??1_Container_base@std@@QAE@XZ
	mov	ecx, DWORD PTR __$EHRec$[ebp]
	mov	DWORD PTR fs:0, ecx
	pop	ecx
	pop	edi
	pop	esi
	pop	ebx
	mov	esp, ebp
	pop	ebp
	ret	0
_TEXT	ENDS
;	COMDAT text$x
text$x	SEGMENT
__unwindfunclet$??1?$_Vector_val@HV?$K2VectorAllocator@H@@@std@@QAE@XZ$0:
	mov	ecx, DWORD PTR _this$[ebp]
	jmp	DWORD PTR __imp_??1_Container_base@std@@QAE@XZ
__ehhandler$??1?$_Vector_val@HV?$K2VectorAllocator@H@@@std@@QAE@XZ:
	mov	edx, DWORD PTR [esp+8]
	lea	eax, DWORD PTR [edx+12]
	mov	ecx, DWORD PTR [edx-84]
	xor	ecx, eax
	call	@__security_check_cookie@4
	mov	eax, OFFSET __ehfuncinfo$??1?$_Vector_val@HV?$K2VectorAllocator@H@@@std@@QAE@XZ
	jmp	___CxxFrameHandler3
text$x	ENDS
??1?$_Vector_val@HV?$K2VectorAllocator@H@@@std@@QAE@XZ ENDP ; std::_Vector_val<int,K2VectorAllocator<int> >::~_Vector_val<int,K2VectorAllocator<int> >
PUBLIC	?_Orphan_me@_Iterator_base@std@@QAEXXZ		; std::_Iterator_base::_Orphan_me
EXTRN	__imp_??1_Lockit@std@@QAE@XZ:PROC
EXTRN	__imp_??0_Lockit@std@@QAE@H@Z:PROC
;	COMDAT xdata$x
; File c:\program files\microsoft visual studio 8\vc\include\xutility
xdata$x	SEGMENT
__unwindtable$??1_Iterator_base@std@@QAE@XZ DD 0ffffffffH
	DD	FLAT:__unwindfunclet$??1_Iterator_base@std@@QAE@XZ$0
__ehfuncinfo$??1_Iterator_base@std@@QAE@XZ DD 019930522H
	DD	01H
	DD	FLAT:__unwindtable$??1_Iterator_base@std@@QAE@XZ
	DD	2 DUP(00H)
	DD	2 DUP(00H)
	DD	00H
	DD	01H
; Function compile flags: /Odtp /ZI
xdata$x	ENDS
;	COMDAT ??1_Iterator_base@std@@QAE@XZ
_TEXT	SEGMENT
__Lock$ = -20						; size = 4
_this$ = -16						; size = 4
__$EHRec$ = -12						; size = 12
??1_Iterator_base@std@@QAE@XZ PROC			; std::_Iterator_base::~_Iterator_base, COMDAT
; _this$ = ecx

; 148  : 		{	// destroy the iterator

	push	ebp
	mov	ebp, esp
	push	-1
	push	__ehhandler$??1_Iterator_base@std@@QAE@XZ
	mov	eax, DWORD PTR fs:0
	push	eax
	sub	esp, 72					; 00000048H
	push	ebx
	push	esi
	push	edi
	mov	eax, DWORD PTR ___security_cookie
	xor	eax, ebp
	push	eax
	lea	eax, DWORD PTR __$EHRec$[ebp]
	mov	DWORD PTR fs:0, eax
	mov	DWORD PTR _this$[ebp], ecx

; 149  : 		_Lockit _Lock(_LOCK_DEBUG);

	push	3
	lea	ecx, DWORD PTR __Lock$[ebp]
	call	DWORD PTR __imp_??0_Lockit@std@@QAE@H@Z
	mov	DWORD PTR __$EHRec$[ebp+8], 0

; 150  : 		_Orphan_me();

	mov	ecx, DWORD PTR _this$[ebp]
	call	?_Orphan_me@_Iterator_base@std@@QAEXXZ	; std::_Iterator_base::_Orphan_me

; 151  : 		}

	mov	DWORD PTR __$EHRec$[ebp+8], -1
	lea	ecx, DWORD PTR __Lock$[ebp]
	call	DWORD PTR __imp_??1_Lockit@std@@QAE@XZ
	mov	ecx, DWORD PTR __$EHRec$[ebp]
	mov	DWORD PTR fs:0, ecx
	pop	ecx
	pop	edi
	pop	esi
	pop	ebx
	mov	esp, ebp
	pop	ebp
	ret	0
_TEXT	ENDS
;	COMDAT text$x
text$x	SEGMENT
__unwindfunclet$??1_Iterator_base@std@@QAE@XZ$0:
	lea	ecx, DWORD PTR __Lock$[ebp]
	jmp	DWORD PTR __imp_??1_Lockit@std@@QAE@XZ
__ehhandler$??1_Iterator_base@std@@QAE@XZ:
	mov	edx, DWORD PTR [esp+8]
	lea	eax, DWORD PTR [edx+12]
	mov	ecx, DWORD PTR [edx-88]
	xor	ecx, eax
	call	@__security_check_cookie@4
	mov	eax, OFFSET __ehfuncinfo$??1_Iterator_base@std@@QAE@XZ
	jmp	___CxxFrameHandler3
text$x	ENDS
??1_Iterator_base@std@@QAE@XZ ENDP			; std::_Iterator_base::~_Iterator_base
PUBLIC	??_C@_1DC@POOIKBAO@?$AAI?$AAT?$AAE?$AAR?$AAA?$AAT?$AAO?$AAR?$AA?5?$AAL?$AAI?$AAS?$AAT?$AA?5?$AAC?$AAO?$AAR?$AAR?$AAU?$AAP?$AAT?$AAE?$AAD?$AA?$CB?$AA?$AA@ ; `string'
PUBLIC	??_C@_1HO@NAKOAEEB@?$AAc?$AA?3?$AA?2?$AAp?$AAr?$AAo?$AAg?$AAr?$AAa?$AAm?$AA?5?$AAf?$AAi?$AAl?$AAe?$AAs?$AA?2?$AAm?$AAi?$AAc?$AAr?$AAo?$AAs?$AAo?$AAf?$AAt?$AA?5?$AAv?$AAi?$AAs?$AAu?$AAa@ ; `string'
EXTRN	__imp_?_Debug_message@std@@YAXPB_W0I@Z:PROC
;	COMDAT ??_C@_1DC@POOIKBAO@?$AAI?$AAT?$AAE?$AAR?$AAA?$AAT?$AAO?$AAR?$AA?5?$AAL?$AAI?$AAS?$AAT?$AA?5?$AAC?$AAO?$AAR?$AAR?$AAU?$AAP?$AAT?$AAE?$AAD?$AA?$CB?$AA?$AA@
CONST	SEGMENT
??_C@_1DC@POOIKBAO@?$AAI?$AAT?$AAE?$AAR?$AAA?$AAT?$AAO?$AAR?$AA?5?$AAL?$AAI?$AAS?$AAT?$AA?5?$AAC?$AAO?$AAR?$AAR?$AAU?$AAP?$AAT?$AAE?$AAD?$AA?$CB?$AA?$AA@ DB 'I'
	DB	00H, 'T', 00H, 'E', 00H, 'R', 00H, 'A', 00H, 'T', 00H, 'O', 00H
	DB	'R', 00H, ' ', 00H, 'L', 00H, 'I', 00H, 'S', 00H, 'T', 00H, ' '
	DB	00H, 'C', 00H, 'O', 00H, 'R', 00H, 'R', 00H, 'U', 00H, 'P', 00H
	DB	'T', 00H, 'E', 00H, 'D', 00H, '!', 00H, 00H, 00H ; `string'
CONST	ENDS
;	COMDAT ??_C@_1HO@NAKOAEEB@?$AAc?$AA?3?$AA?2?$AAp?$AAr?$AAo?$AAg?$AAr?$AAa?$AAm?$AA?5?$AAf?$AAi?$AAl?$AAe?$AAs?$AA?2?$AAm?$AAi?$AAc?$AAr?$AAo?$AAs?$AAo?$AAf?$AAt?$AA?5?$AAv?$AAi?$AAs?$AAu?$AAa@
CONST	SEGMENT
??_C@_1HO@NAKOAEEB@?$AAc?$AA?3?$AA?2?$AAp?$AAr?$AAo?$AAg?$AAr?$AAa?$AAm?$AA?5?$AAf?$AAi?$AAl?$AAe?$AAs?$AA?2?$AAm?$AAi?$AAc?$AAr?$AAo?$AAs?$AAo?$AAf?$AAt?$AA?5?$AAv?$AAi?$AAs?$AAu?$AAa@ DB 'c'
	DB	00H, ':', 00H, '\', 00H, 'p', 00H, 'r', 00H, 'o', 00H, 'g', 00H
	DB	'r', 00H, 'a', 00H, 'm', 00H, ' ', 00H, 'f', 00H, 'i', 00H, 'l'
	DB	00H, 'e', 00H, 's', 00H, '\', 00H, 'm', 00H, 'i', 00H, 'c', 00H
	DB	'r', 00H, 'o', 00H, 's', 00H, 'o', 00H, 'f', 00H, 't', 00H, ' '
	DB	00H, 'v', 00H, 'i', 00H, 's', 00H, 'u', 00H, 'a', 00H, 'l', 00H
	DB	' ', 00H, 's', 00H, 't', 00H, 'u', 00H, 'd', 00H, 'i', 00H, 'o'
	DB	00H, ' ', 00H, '8', 00H, '\', 00H, 'v', 00H, 'c', 00H, '\', 00H
	DB	'i', 00H, 'n', 00H, 'c', 00H, 'l', 00H, 'u', 00H, 'd', 00H, 'e'
	DB	00H, '\', 00H, 'x', 00H, 'u', 00H, 't', 00H, 'i', 00H, 'l', 00H
	DB	'i', 00H, 't', 00H, 'y', 00H, 00H, 00H	; `string'
; Function compile flags: /Odtp /ZI
CONST	ENDS
;	COMDAT ?_Orphan_me@_Iterator_base@std@@QAEXXZ
_TEXT	SEGMENT
__Pnext$8754 = -8					; size = 4
_this$ = -4						; size = 4
?_Orphan_me@_Iterator_base@std@@QAEXXZ PROC		; std::_Iterator_base::_Orphan_me, COMDAT
; _this$ = ecx

; 169  : 		{	// cut ties with parent

	push	ebp
	mov	ebp, esp
	sub	esp, 72					; 00000048H
	push	ebx
	push	esi
	push	edi
	mov	DWORD PTR _this$[ebp], ecx

; 170  : 		if (_Mycont != 0 && _Mycont->_Myfirstiter != _IGNORE_MYITERLIST)

	mov	eax, DWORD PTR _this$[ebp]
	cmp	DWORD PTR [eax], 0
	je	SHORT $LN5@Orphan_me
	mov	eax, DWORD PTR _this$[ebp]
	mov	ecx, DWORD PTR [eax]
	cmp	DWORD PTR [ecx], -3			; fffffffdH
	je	SHORT $LN5@Orphan_me

; 171  : 			{	// adopted, remove self from list
; 172  : 			_Iterator_base **_Pnext =
; 173  : 				(_Iterator_base **)&_Mycont->_Myfirstiter;

	mov	eax, DWORD PTR _this$[ebp]
	mov	ecx, DWORD PTR [eax]
	mov	DWORD PTR __Pnext$8754[ebp], ecx
$LN3@Orphan_me:

; 174  : 			while (*_Pnext != 0 && *_Pnext != this)

	mov	eax, DWORD PTR __Pnext$8754[ebp]
	cmp	DWORD PTR [eax], 0
	je	SHORT $LN2@Orphan_me
	mov	eax, DWORD PTR __Pnext$8754[ebp]
	mov	ecx, DWORD PTR [eax]
	cmp	ecx, DWORD PTR _this$[ebp]
	je	SHORT $LN2@Orphan_me

; 175  : 				_Pnext = &(*_Pnext)->_Mynextiter;

	mov	eax, DWORD PTR __Pnext$8754[ebp]
	mov	ecx, DWORD PTR [eax]
	add	ecx, 4
	mov	DWORD PTR __Pnext$8754[ebp], ecx
	jmp	SHORT $LN3@Orphan_me
$LN2@Orphan_me:

; 176  : 
; 177  : 			if (*_Pnext == 0)

	mov	eax, DWORD PTR __Pnext$8754[ebp]
	cmp	DWORD PTR [eax], 0
	jne	SHORT $LN1@Orphan_me

; 178  : 				_DEBUG_ERROR("ITERATOR LIST CORRUPTED!");

	push	178					; 000000b2H
	push	OFFSET ??_C@_1HO@NAKOAEEB@?$AAc?$AA?3?$AA?2?$AAp?$AAr?$AAo?$AAg?$AAr?$AAa?$AAm?$AA?5?$AAf?$AAi?$AAl?$AAe?$AAs?$AA?2?$AAm?$AAi?$AAc?$AAr?$AAo?$AAs?$AAo?$AAf?$AAt?$AA?5?$AAv?$AAi?$AAs?$AAu?$AAa@
	push	OFFSET ??_C@_1DC@POOIKBAO@?$AAI?$AAT?$AAE?$AAR?$AAA?$AAT?$AAO?$AAR?$AA?5?$AAL?$AAI?$AAS?$AAT?$AA?5?$AAC?$AAO?$AAR?$AAR?$AAU?$AAP?$AAT?$AAE?$AAD?$AA?$CB?$AA?$AA@
	call	DWORD PTR __imp_?_Debug_message@std@@YAXPB_W0I@Z
	add	esp, 12					; 0000000cH
$LN1@Orphan_me:

; 179  : 			*_Pnext = _Mynextiter;

	mov	eax, DWORD PTR __Pnext$8754[ebp]
	mov	ecx, DWORD PTR _this$[ebp]
	mov	edx, DWORD PTR [ecx+4]
	mov	DWORD PTR [eax], edx

; 180  : 			_Mycont = 0;

	mov	eax, DWORD PTR _this$[ebp]
	mov	DWORD PTR [eax], 0
$LN5@Orphan_me:

; 181  : 			}
; 182  : 		}

	pop	edi
	pop	esi
	pop	ebx
	mov	esp, ebp
	pop	ebp
	ret	0
?_Orphan_me@_Iterator_base@std@@QAEXXZ ENDP		; std::_Iterator_base::_Orphan_me
_TEXT	ENDS
PUBLIC	?_Construct_n@?$vector@HV?$K2VectorAllocator@H@@@std@@QAEXIABH@Z ; std::vector<int,K2VectorAllocator<int> >::_Construct_n
PUBLIC	??0?$_Vector_val@HV?$K2VectorAllocator@H@@@std@@IAE@V?$K2VectorAllocator@H@@@Z ; std::_Vector_val<int,K2VectorAllocator<int> >::_Vector_val<int,K2VectorAllocator<int> >
PUBLIC	??0?$K2VectorAllocator@H@@QAE@XZ		; K2VectorAllocator<int>::K2VectorAllocator<int>
;	COMDAT xdata$x
; File c:\program files\microsoft visual studio 8\vc\include\vector
xdata$x	SEGMENT
__unwindtable$??0?$vector@HV?$K2VectorAllocator@H@@@std@@QAE@I@Z DD 0ffffffffH
	DD	FLAT:__unwindfunclet$??0?$vector@HV?$K2VectorAllocator@H@@@std@@QAE@I@Z$1
__ehfuncinfo$??0?$vector@HV?$K2VectorAllocator@H@@@std@@QAE@I@Z DD 019930522H
	DD	01H
	DD	FLAT:__unwindtable$??0?$vector@HV?$K2VectorAllocator@H@@@std@@QAE@I@Z
	DD	2 DUP(00H)
	DD	2 DUP(00H)
	DD	00H
	DD	01H
; Function compile flags: /Odtp /ZI
xdata$x	ENDS
;	COMDAT ??0?$vector@HV?$K2VectorAllocator@H@@@std@@QAE@I@Z
_TEXT	SEGMENT
tv85 = -96						; size = 4
tv84 = -92						; size = 4
$T121802 = -88						; size = 4
$T121803 = -84						; size = 4
_this$ = -16						; size = 4
__$EHRec$ = -12						; size = 12
__Count$ = 8						; size = 4
??0?$vector@HV?$K2VectorAllocator@H@@@std@@QAE@I@Z PROC	; std::vector<int,K2VectorAllocator<int> >::vector<int,K2VectorAllocator<int> >, COMDAT
; _this$ = ecx

; 469  : 		{	// construct from _Count * _Ty()

	push	ebp
	mov	ebp, esp
	push	-1
	push	__ehhandler$??0?$vector@HV?$K2VectorAllocator@H@@@std@@QAE@I@Z
	mov	eax, DWORD PTR fs:0
	push	eax
	sub	esp, 84					; 00000054H
	push	ebx
	push	esi
	push	edi
	mov	eax, DWORD PTR ___security_cookie
	xor	eax, ebp
	push	eax
	lea	eax, DWORD PTR __$EHRec$[ebp]
	mov	DWORD PTR fs:0, eax
	mov	DWORD PTR _this$[ebp], ecx
	push	ecx
	mov	ecx, esp
	mov	DWORD PTR $T121802[ebp], esp
	call	??0?$K2VectorAllocator@H@@QAE@XZ	; K2VectorAllocator<int>::K2VectorAllocator<int>
	mov	DWORD PTR tv84[ebp], eax
	mov	ecx, DWORD PTR _this$[ebp]
	call	??0?$_Vector_val@HV?$K2VectorAllocator@H@@@std@@IAE@V?$K2VectorAllocator@H@@@Z ; std::_Vector_val<int,K2VectorAllocator<int> >::_Vector_val<int,K2VectorAllocator<int> >
	mov	DWORD PTR tv85[ebp], eax
	mov	DWORD PTR __$EHRec$[ebp+8], 0

; 470  : 		_Construct_n(_Count, _Ty());

	mov	DWORD PTR $T121803[ebp], 0
	lea	eax, DWORD PTR $T121803[ebp]
	push	eax
	mov	ecx, DWORD PTR __Count$[ebp]
	push	ecx
	mov	ecx, DWORD PTR _this$[ebp]
	call	?_Construct_n@?$vector@HV?$K2VectorAllocator@H@@@std@@QAEXIABH@Z ; std::vector<int,K2VectorAllocator<int> >::_Construct_n

; 471  : 		}

	mov	DWORD PTR __$EHRec$[ebp+8], -1
	mov	eax, DWORD PTR _this$[ebp]
	mov	ecx, DWORD PTR __$EHRec$[ebp]
	mov	DWORD PTR fs:0, ecx
	pop	ecx
	pop	edi
	pop	esi
	pop	ebx
	mov	esp, ebp
	pop	ebp
	ret	4
_TEXT	ENDS
;	COMDAT text$x
text$x	SEGMENT
__unwindfunclet$??0?$vector@HV?$K2VectorAllocator@H@@@std@@QAE@I@Z$1:
	mov	ecx, DWORD PTR _this$[ebp]
	jmp	??1?$_Vector_val@HV?$K2VectorAllocator@H@@@std@@QAE@XZ
__ehhandler$??0?$vector@HV?$K2VectorAllocator@H@@@std@@QAE@I@Z:
	mov	edx, DWORD PTR [esp+8]
	lea	eax, DWORD PTR [edx+12]
	mov	ecx, DWORD PTR [edx-100]
	xor	ecx, eax
	call	@__security_check_cookie@4
	mov	eax, OFFSET __ehfuncinfo$??0?$vector@HV?$K2VectorAllocator@H@@@std@@QAE@I@Z
	jmp	___CxxFrameHandler3
text$x	ENDS
??0?$vector@HV?$K2VectorAllocator@H@@@std@@QAE@I@Z ENDP	; std::vector<int,K2VectorAllocator<int> >::vector<int,K2VectorAllocator<int> >
PUBLIC	?deallocate@?$K2VectorAllocator@H@@QAEXPAHI@Z	; K2VectorAllocator<int>::deallocate
PUBLIC	?_Destroy@?$vector@HV?$K2VectorAllocator@H@@@std@@IAEXPAH0@Z ; std::vector<int,K2VectorAllocator<int> >::_Destroy
EXTRN	__imp_?_Orphan_all@_Container_base@std@@QBEXXZ:PROC
; Function compile flags: /Odtp /ZI
;	COMDAT ?_Tidy@?$vector@HV?$K2VectorAllocator@H@@@std@@IAEXXZ
_TEXT	SEGMENT
_this$ = -4						; size = 4
?_Tidy@?$vector@HV?$K2VectorAllocator@H@@@std@@IAEXXZ PROC ; std::vector<int,K2VectorAllocator<int> >::_Tidy, COMDAT
; _this$ = ecx

; 1087 : 		{	// free all storage

	push	ebp
	mov	ebp, esp
	sub	esp, 68					; 00000044H
	push	ebx
	push	esi
	push	edi
	mov	DWORD PTR _this$[ebp], ecx

; 1088 : 		if (_Myfirst != 0)

	mov	eax, DWORD PTR _this$[ebp]
	cmp	DWORD PTR [eax+8], 0
	je	SHORT $LN1@Tidy

; 1089 : 			{	// something to free, destroy and deallocate it
; 1090 : 
; 1091 :  #if _HAS_ITERATOR_DEBUGGING
; 1092 : 			this->_Orphan_all();

	mov	ecx, DWORD PTR _this$[ebp]
	call	DWORD PTR __imp_?_Orphan_all@_Container_base@std@@QBEXXZ

; 1093 :  #endif /* _HAS_ITERATOR_DEBUGGING */
; 1094 : 
; 1095 : 			_Destroy(_Myfirst, _Mylast);

	mov	eax, DWORD PTR _this$[ebp]
	mov	ecx, DWORD PTR [eax+12]
	push	ecx
	mov	edx, DWORD PTR _this$[ebp]
	mov	eax, DWORD PTR [edx+8]
	push	eax
	mov	ecx, DWORD PTR _this$[ebp]
	call	?_Destroy@?$vector@HV?$K2VectorAllocator@H@@@std@@IAEXPAH0@Z ; std::vector<int,K2VectorAllocator<int> >::_Destroy

; 1096 : 			this->_Alval.deallocate(_Myfirst, _Myend - _Myfirst);

	mov	eax, DWORD PTR _this$[ebp]
	mov	ecx, DWORD PTR _this$[ebp]
	mov	edx, DWORD PTR [eax+16]
	sub	edx, DWORD PTR [ecx+8]
	sar	edx, 2
	push	edx
	mov	eax, DWORD PTR _this$[ebp]
	mov	ecx, DWORD PTR [eax+8]
	push	ecx
	mov	ecx, DWORD PTR _this$[ebp]
	add	ecx, 4
	call	?deallocate@?$K2VectorAllocator@H@@QAEXPAHI@Z ; K2VectorAllocator<int>::deallocate
$LN1@Tidy:

; 1097 : 			}
; 1098 : 		_Myfirst = 0, _Mylast = 0, _Myend = 0;

	mov	eax, DWORD PTR _this$[ebp]
	mov	DWORD PTR [eax+8], 0
	mov	ecx, DWORD PTR _this$[ebp]
	mov	DWORD PTR [ecx+12], 0
	mov	edx, DWORD PTR _this$[ebp]
	mov	DWORD PTR [edx+16], 0

; 1099 : 		}

	pop	edi
	pop	esi
	pop	ebx
	mov	esp, ebp
	pop	ebp
	ret	0
?_Tidy@?$vector@HV?$K2VectorAllocator@H@@@std@@IAEXXZ ENDP ; std::vector<int,K2VectorAllocator<int> >::_Tidy
; Function compile flags: /Odtp /ZI
; File c:\code\hon\src\k2\k2_stl_allocator.h
_TEXT	ENDS
;	COMDAT ??1?$K2VectorAllocator@H@@QAE@XZ
_TEXT	SEGMENT
_this$ = -4						; size = 4
??1?$K2VectorAllocator@H@@QAE@XZ PROC			; K2VectorAllocator<int>::~K2VectorAllocator<int>, COMDAT
; _this$ = ecx

; 128  : 	~K2VectorAllocator() {}

	push	ebp
	mov	ebp, esp
	sub	esp, 68					; 00000044H
	push	ebx
	push	esi
	push	edi
	mov	DWORD PTR _this$[ebp], ecx
	pop	edi
	pop	esi
	pop	ebx
	mov	esp, ebp
	pop	ebp
	ret	0
??1?$K2VectorAllocator@H@@QAE@XZ ENDP			; K2VectorAllocator<int>::~K2VectorAllocator<int>
_TEXT	ENDS
PUBLIC	??1?$_String_val@_WV?$K2StringAllocator@_W@@@std@@QAE@XZ ; std::_String_val<wchar_t,K2StringAllocator<wchar_t> >::~_String_val<wchar_t,K2StringAllocator<wchar_t> >
PUBLIC	?assign@?$basic_string@_WU?$char_traits@_W@std@@V?$K2StringAllocator@_W@@@std@@QAEAAV12@ABV12@II@Z ; std::basic_string<wchar_t,std::char_traits<wchar_t>,K2StringAllocator<wchar_t> >::assign
PUBLIC	?_Tidy@?$basic_string@_WU?$char_traits@_W@std@@V?$K2StringAllocator@_W@@@std@@IAEX_NI@Z ; std::basic_string<wchar_t,std::char_traits<wchar_t>,K2StringAllocator<wchar_t> >::_Tidy
PUBLIC	??0?$_String_val@_WV?$K2StringAllocator@_W@@@std@@IAE@V?$K2StringAllocator@_W@@@Z ; std::_String_val<wchar_t,K2StringAllocator<wchar_t> >::_String_val<wchar_t,K2StringAllocator<wchar_t> >
PUBLIC	??0?$K2StringAllocator@_W@@QAE@XZ		; K2StringAllocator<wchar_t>::K2StringAllocator<wchar_t>
;	COMDAT xdata$x
; File c:\program files\microsoft visual studio 8\vc\include\xstring
xdata$x	SEGMENT
__unwindtable$??0?$basic_string@_WU?$char_traits@_W@std@@V?$K2StringAllocator@_W@@@std@@QAE@ABV01@II@Z DD 0ffffffffH
	DD	FLAT:__unwindfunclet$??0?$basic_string@_WU?$char_traits@_W@std@@V?$K2StringAllocator@_W@@@std@@QAE@ABV01@II@Z$1
__ehfuncinfo$??0?$basic_string@_WU?$char_traits@_W@std@@V?$K2StringAllocator@_W@@@std@@QAE@ABV01@II@Z DD 019930522H
	DD	01H
	DD	FLAT:__unwindtable$??0?$basic_string@_WU?$char_traits@_W@std@@V?$K2StringAllocator@_W@@@std@@QAE@ABV01@II@Z
	DD	2 DUP(00H)
	DD	2 DUP(00H)
	DD	00H
	DD	01H
; Function compile flags: /Odtp /ZI
xdata$x	ENDS
;	COMDAT ??0?$basic_string@_WU?$char_traits@_W@std@@V?$K2StringAllocator@_W@@@std@@QAE@ABV01@II@Z
_TEXT	SEGMENT
tv90 = -92						; size = 4
tv89 = -88						; size = 4
$T121818 = -84						; size = 4
_this$ = -16						; size = 4
__$EHRec$ = -12						; size = 12
__Right$ = 8						; size = 4
__Roff$ = 12						; size = 4
__Count$ = 16						; size = 4
??0?$basic_string@_WU?$char_traits@_W@std@@V?$K2StringAllocator@_W@@@std@@QAE@ABV01@II@Z PROC ; std::basic_string<wchar_t,std::char_traits<wchar_t>,K2StringAllocator<wchar_t> >::basic_string<wchar_t,std::char_traits<wchar_t>,K2StringAllocator<wchar_t> >, COMDAT
; _this$ = ecx

; 609  : 		{	// construct from _Right [_Roff, _Roff + _Count)

	push	ebp
	mov	ebp, esp
	push	-1
	push	__ehhandler$??0?$basic_string@_WU?$char_traits@_W@std@@V?$K2StringAllocator@_W@@@std@@QAE@ABV01@II@Z
	mov	eax, DWORD PTR fs:0
	push	eax
	sub	esp, 80					; 00000050H
	push	ebx
	push	esi
	push	edi
	mov	eax, DWORD PTR ___security_cookie
	xor	eax, ebp
	push	eax
	lea	eax, DWORD PTR __$EHRec$[ebp]
	mov	DWORD PTR fs:0, eax
	mov	DWORD PTR _this$[ebp], ecx
	push	ecx
	mov	ecx, esp
	mov	DWORD PTR $T121818[ebp], esp
	call	??0?$K2StringAllocator@_W@@QAE@XZ	; K2StringAllocator<wchar_t>::K2StringAllocator<wchar_t>
	mov	DWORD PTR tv89[ebp], eax
	mov	ecx, DWORD PTR _this$[ebp]
	call	??0?$_String_val@_WV?$K2StringAllocator@_W@@@std@@IAE@V?$K2StringAllocator@_W@@@Z ; std::_String_val<wchar_t,K2StringAllocator<wchar_t> >::_String_val<wchar_t,K2StringAllocator<wchar_t> >
	mov	DWORD PTR tv90[ebp], eax
	mov	DWORD PTR __$EHRec$[ebp+8], 0

; 610  : #if _HAS_ITERATOR_DEBUGGING
; 611  : 		if (_Right._Myfirstiter == _IGNORE_MYITERLIST)

	mov	eax, DWORD PTR __Right$[ebp]
	cmp	DWORD PTR [eax], -3			; fffffffdH
	jne	SHORT $LN1@basic_stri

; 612  : 			{
; 613  : 			this->_Myfirstiter = _IGNORE_MYITERLIST;

	mov	eax, DWORD PTR _this$[ebp]
	mov	DWORD PTR [eax], -3			; fffffffdH
$LN1@basic_stri:

; 614  : 			}
; 615  : #endif
; 616  : 		_Tidy();

	push	0
	push	0
	mov	ecx, DWORD PTR _this$[ebp]
	call	?_Tidy@?$basic_string@_WU?$char_traits@_W@std@@V?$K2StringAllocator@_W@@@std@@IAEX_NI@Z ; std::basic_string<wchar_t,std::char_traits<wchar_t>,K2StringAllocator<wchar_t> >::_Tidy

; 617  : 		assign(_Right, _Roff, _Count);

	mov	eax, DWORD PTR __Count$[ebp]
	push	eax
	mov	ecx, DWORD PTR __Roff$[ebp]
	push	ecx
	mov	edx, DWORD PTR __Right$[ebp]
	push	edx
	mov	ecx, DWORD PTR _this$[ebp]
	call	?assign@?$basic_string@_WU?$char_traits@_W@std@@V?$K2StringAllocator@_W@@@std@@QAEAAV12@ABV12@II@Z ; std::basic_string<wchar_t,std::char_traits<wchar_t>,K2StringAllocator<wchar_t> >::assign

; 618  : 		}

	mov	DWORD PTR __$EHRec$[ebp+8], -1
	mov	eax, DWORD PTR _this$[ebp]
	mov	ecx, DWORD PTR __$EHRec$[ebp]
	mov	DWORD PTR fs:0, ecx
	pop	ecx
	pop	edi
	pop	esi
	pop	ebx
	mov	esp, ebp
	pop	ebp
	ret	12					; 0000000cH
_TEXT	ENDS
;	COMDAT text$x
text$x	SEGMENT
__unwindfunclet$??0?$basic_string@_WU?$char_traits@_W@std@@V?$K2StringAllocator@_W@@@std@@QAE@ABV01@II@Z$1:
	mov	ecx, DWORD PTR _this$[ebp]
	jmp	??1?$_String_val@_WV?$K2StringAllocator@_W@@@std@@QAE@XZ
__ehhandler$??0?$basic_string@_WU?$char_traits@_W@std@@V?$K2StringAllocator@_W@@@std@@QAE@ABV01@II@Z:
	mov	edx, DWORD PTR [esp+8]
	lea	eax, DWORD PTR [edx+12]
	mov	ecx, DWORD PTR [edx-96]
	xor	ecx, eax
	call	@__security_check_cookie@4
	mov	eax, OFFSET __ehfuncinfo$??0?$basic_string@_WU?$char_traits@_W@std@@V?$K2StringAllocator@_W@@@std@@QAE@ABV01@II@Z
	jmp	___CxxFrameHandler3
text$x	ENDS
??0?$basic_string@_WU?$char_traits@_W@std@@V?$K2StringAllocator@_W@@@std@@QAE@ABV01@II@Z ENDP ; std::basic_string<wchar_t,std::char_traits<wchar_t>,K2StringAllocator<wchar_t> >::basic_string<wchar_t,std::char_traits<wchar_t>,K2StringAllocator<wchar_t> >
PUBLIC	?_Myptr@?$basic_string@_WU?$char_traits@_W@std@@V?$K2StringAllocator@_W@@@std@@IBEPB_WXZ ; std::basic_string<wchar_t,std::char_traits<wchar_t>,K2StringAllocator<wchar_t> >::_Myptr
PUBLIC	??$_Debug_pointer@_W@std@@YAXPB_W0I@Z		; std::_Debug_pointer<wchar_t>
PUBLIC	??_C@_1HM@LNGKEPMM@?$AAc?$AA?3?$AA?2?$AAp?$AAr?$AAo?$AAg?$AAr?$AAa?$AAm?$AA?5?$AAf?$AAi?$AAl?$AAe?$AAs?$AA?2?$AAm?$AAi?$AAc?$AAr?$AAo?$AAs?$AAo?$AAf?$AAt?$AA?5?$AAv?$AAi?$AAs?$AAu?$AAa@ ; `string'
EXTRN	__imp_?compare@?$char_traits@_W@std@@SAHPB_W0I@Z:PROC
EXTRN	__imp_?find@?$char_traits@_W@std@@SAPB_WPB_WIAB_W@Z:PROC
;	COMDAT ??_C@_1HM@LNGKEPMM@?$AAc?$AA?3?$AA?2?$AAp?$AAr?$AAo?$AAg?$AAr?$AAa?$AAm?$AA?5?$AAf?$AAi?$AAl?$AAe?$AAs?$AA?2?$AAm?$AAi?$AAc?$AAr?$AAo?$AAs?$AAo?$AAf?$AAt?$AA?5?$AAv?$AAi?$AAs?$AAu?$AAa@
CONST	SEGMENT
??_C@_1HM@LNGKEPMM@?$AAc?$AA?3?$AA?2?$AAp?$AAr?$AAo?$AAg?$AAr?$AAa?$AAm?$AA?5?$AAf?$AAi?$AAl?$AAe?$AAs?$AA?2?$AAm?$AAi?$AAc?$AAr?$AAo?$AAs?$AAo?$AAf?$AAt?$AA?5?$AAv?$AAi?$AAs?$AAu?$AAa@ DB 'c'
	DB	00H, ':', 00H, '\', 00H, 'p', 00H, 'r', 00H, 'o', 00H, 'g', 00H
	DB	'r', 00H, 'a', 00H, 'm', 00H, ' ', 00H, 'f', 00H, 'i', 00H, 'l'
	DB	00H, 'e', 00H, 's', 00H, '\', 00H, 'm', 00H, 'i', 00H, 'c', 00H
	DB	'r', 00H, 'o', 00H, 's', 00H, 'o', 00H, 'f', 00H, 't', 00H, ' '
	DB	00H, 'v', 00H, 'i', 00H, 's', 00H, 'u', 00H, 'a', 00H, 'l', 00H
	DB	' ', 00H, 's', 00H, 't', 00H, 'u', 00H, 'd', 00H, 'i', 00H, 'o'
	DB	00H, ' ', 00H, '8', 00H, '\', 00H, 'v', 00H, 'c', 00H, '\', 00H
	DB	'i', 00H, 'n', 00H, 'c', 00H, 'l', 00H, 'u', 00H, 'd', 00H, 'e'
	DB	00H, '\', 00H, 'x', 00H, 's', 00H, 't', 00H, 'r', 00H, 'i', 00H
	DB	'n', 00H, 'g', 00H, 00H, 00H			; `string'
; Function compile flags: /Odtp /ZI
CONST	ENDS
;	COMDAT ?find@?$basic_string@_WU?$char_traits@_W@std@@V?$K2StringAllocator@_W@@@std@@QBEIPB_WII@Z
_TEXT	SEGMENT
__Vptr$115640 = -16					; size = 4
__Uptr$115639 = -12					; size = 4
__Nm$ = -8						; size = 4
_this$ = -4						; size = 4
__Ptr$ = 8						; size = 4
__Off$ = 12						; size = 4
__Count$ = 16						; size = 4
?find@?$basic_string@_WU?$char_traits@_W@std@@V?$K2StringAllocator@_W@@@std@@QBEIPB_WII@Z PROC ; std::basic_string<wchar_t,std::char_traits<wchar_t>,K2StringAllocator<wchar_t> >::find, COMDAT
; _this$ = ecx

; 1730 : 		{	// look for [_Ptr, _Ptr + _Count) beginnng at or after _Off

	push	ebp
	mov	ebp, esp
	sub	esp, 80					; 00000050H
	push	ebx
	push	esi
	push	edi
	mov	DWORD PTR _this$[ebp], ecx

; 1731 : 		_DEBUG_POINTER(_Ptr);

	push	1731					; 000006c3H
	push	OFFSET ??_C@_1HM@LNGKEPMM@?$AAc?$AA?3?$AA?2?$AAp?$AAr?$AAo?$AAg?$AAr?$AAa?$AAm?$AA?5?$AAf?$AAi?$AAl?$AAe?$AAs?$AA?2?$AAm?$AAi?$AAc?$AAr?$AAo?$AAs?$AAo?$AAf?$AAt?$AA?5?$AAv?$AAi?$AAs?$AAu?$AAa@
	mov	eax, DWORD PTR __Ptr$[ebp]
	push	eax
	call	??$_Debug_pointer@_W@std@@YAXPB_W0I@Z	; std::_Debug_pointer<wchar_t>
	add	esp, 12					; 0000000cH

; 1732 : 		if (_Count == 0 && _Off <= _Mysize)

	cmp	DWORD PTR __Count$[ebp], 0
	jne	SHORT $LN6@find
	mov	eax, DWORD PTR _this$[ebp]
	mov	ecx, DWORD PTR __Off$[ebp]
	cmp	ecx, DWORD PTR [eax+24]
	ja	SHORT $LN6@find

; 1733 : 			return (_Off);	// null string always matches (if inside string)

	mov	eax, DWORD PTR __Off$[ebp]
	jmp	$LN7@find
$LN6@find:

; 1734 : 
; 1735 : 		size_type _Nm;
; 1736 : 		if (_Off < _Mysize && _Count <= (_Nm = _Mysize - _Off))

	mov	eax, DWORD PTR _this$[ebp]
	mov	ecx, DWORD PTR __Off$[ebp]
	cmp	ecx, DWORD PTR [eax+24]
	jae	$LN5@find
	mov	eax, DWORD PTR _this$[ebp]
	mov	ecx, DWORD PTR [eax+24]
	sub	ecx, DWORD PTR __Off$[ebp]
	mov	DWORD PTR __Nm$[ebp], ecx
	mov	edx, DWORD PTR __Count$[ebp]
	cmp	edx, DWORD PTR __Nm$[ebp]
	ja	$LN5@find

; 1737 : 			{	// room for match, look for it
; 1738 : 			const _Elem *_Uptr, *_Vptr;
; 1739 : 			for (_Nm -= _Count - 1, _Vptr = _Myptr() + _Off;

	mov	eax, DWORD PTR __Count$[ebp]
	sub	eax, 1
	mov	ecx, DWORD PTR __Nm$[ebp]
	sub	ecx, eax
	mov	DWORD PTR __Nm$[ebp], ecx
	mov	ecx, DWORD PTR _this$[ebp]
	call	?_Myptr@?$basic_string@_WU?$char_traits@_W@std@@V?$K2StringAllocator@_W@@@std@@IBEPB_WXZ ; std::basic_string<wchar_t,std::char_traits<wchar_t>,K2StringAllocator<wchar_t> >::_Myptr
	mov	edx, DWORD PTR __Off$[ebp]
	lea	eax, DWORD PTR [eax+edx*2]
	mov	DWORD PTR __Vptr$115640[ebp], eax
	jmp	SHORT $LN4@find
$LN3@find:

; 1740 : 				(_Uptr = _Traits::find(_Vptr, _Nm, *_Ptr)) != 0;
; 1741 : 				_Nm -= _Uptr - _Vptr + 1, _Vptr = _Uptr + 1)

	mov	eax, DWORD PTR __Uptr$115639[ebp]
	sub	eax, DWORD PTR __Vptr$115640[ebp]
	sar	eax, 1
	add	eax, 1
	mov	ecx, DWORD PTR __Nm$[ebp]
	sub	ecx, eax
	mov	DWORD PTR __Nm$[ebp], ecx
	mov	edx, DWORD PTR __Uptr$115639[ebp]
	add	edx, 2
	mov	DWORD PTR __Vptr$115640[ebp], edx
$LN4@find:
	mov	eax, DWORD PTR __Ptr$[ebp]
	push	eax
	mov	ecx, DWORD PTR __Nm$[ebp]
	push	ecx
	mov	edx, DWORD PTR __Vptr$115640[ebp]
	push	edx
	call	DWORD PTR __imp_?find@?$char_traits@_W@std@@SAPB_WPB_WIAB_W@Z
	add	esp, 12					; 0000000cH
	mov	DWORD PTR __Uptr$115639[ebp], eax
	cmp	DWORD PTR __Uptr$115639[ebp], 0
	je	SHORT $LN5@find

; 1742 : 				if (_Traits::compare(_Uptr, _Ptr, _Count) == 0)

	mov	eax, DWORD PTR __Count$[ebp]
	push	eax
	mov	ecx, DWORD PTR __Ptr$[ebp]
	push	ecx
	mov	edx, DWORD PTR __Uptr$115639[ebp]
	push	edx
	call	DWORD PTR __imp_?compare@?$char_traits@_W@std@@SAHPB_W0I@Z
	add	esp, 12					; 0000000cH
	test	eax, eax
	jne	SHORT $LN1@find

; 1743 : 					return (_Uptr - _Myptr());	// found a match

	mov	ecx, DWORD PTR _this$[ebp]
	call	?_Myptr@?$basic_string@_WU?$char_traits@_W@std@@V?$K2StringAllocator@_W@@@std@@IBEPB_WXZ ; std::basic_string<wchar_t,std::char_traits<wchar_t>,K2StringAllocator<wchar_t> >::_Myptr
	mov	ecx, DWORD PTR __Uptr$115639[ebp]
	sub	ecx, eax
	sar	ecx, 1
	mov	eax, ecx
	jmp	SHORT $LN7@find
$LN1@find:

; 1744 : 			}

	jmp	SHORT $LN3@find
$LN5@find:

; 1745 : 
; 1746 : 		return (npos);	// no match

	or	eax, -1
$LN7@find:

; 1747 : 		}

	pop	edi
	pop	esi
	pop	ebx
	mov	esp, ebp
	pop	ebp
	ret	12					; 0000000cH
?find@?$basic_string@_WU?$char_traits@_W@std@@V?$K2StringAllocator@_W@@@std@@QBEIPB_WII@Z ENDP ; std::basic_string<wchar_t,std::char_traits<wchar_t>,K2StringAllocator<wchar_t> >::find
_TEXT	ENDS
EXTRN	__imp_?eq@?$char_traits@_W@std@@SA_NAB_W0@Z:PROC
; Function compile flags: /Odtp /ZI
;	COMDAT ?rfind@?$basic_string@_WU?$char_traits@_W@std@@V?$K2StringAllocator@_W@@@std@@QBEIPB_WII@Z
_TEXT	SEGMENT
tv81 = -76						; size = 4
tv71 = -76						; size = 4
__Uptr$115649 = -8					; size = 4
_this$ = -4						; size = 4
__Ptr$ = 8						; size = 4
__Off$ = 12						; size = 4
__Count$ = 16						; size = 4
?rfind@?$basic_string@_WU?$char_traits@_W@std@@V?$K2StringAllocator@_W@@@std@@QBEIPB_WII@Z PROC ; std::basic_string<wchar_t,std::char_traits<wchar_t>,K2StringAllocator<wchar_t> >::rfind, COMDAT
; _this$ = ecx

; 1766 : 		{	// look for [_Ptr, _Ptr + _Count) beginning before _Off

	push	ebp
	mov	ebp, esp
	sub	esp, 76					; 0000004cH
	push	ebx
	push	esi
	push	edi
	mov	DWORD PTR _this$[ebp], ecx

; 1767 : 		_DEBUG_POINTER(_Ptr);

	push	1767					; 000006e7H
	push	OFFSET ??_C@_1HM@LNGKEPMM@?$AAc?$AA?3?$AA?2?$AAp?$AAr?$AAo?$AAg?$AAr?$AAa?$AAm?$AA?5?$AAf?$AAi?$AAl?$AAe?$AAs?$AA?2?$AAm?$AAi?$AAc?$AAr?$AAo?$AAs?$AAo?$AAf?$AAt?$AA?5?$AAv?$AAi?$AAs?$AAu?$AAa@
	mov	eax, DWORD PTR __Ptr$[ebp]
	push	eax
	call	??$_Debug_pointer@_W@std@@YAXPB_W0I@Z	; std::_Debug_pointer<wchar_t>
	add	esp, 12					; 0000000cH

; 1768 : 		if (_Count == 0)

	cmp	DWORD PTR __Count$[ebp], 0
	jne	SHORT $LN8@rfind

; 1769 : 			return (_Off < _Mysize ? _Off : _Mysize);	// null always matches

	mov	eax, DWORD PTR _this$[ebp]
	mov	ecx, DWORD PTR __Off$[ebp]
	cmp	ecx, DWORD PTR [eax+24]
	jae	SHORT $LN11@rfind
	mov	edx, DWORD PTR __Off$[ebp]
	mov	DWORD PTR tv71[ebp], edx
	jmp	SHORT $LN12@rfind
$LN11@rfind:
	mov	eax, DWORD PTR _this$[ebp]
	mov	ecx, DWORD PTR [eax+24]
	mov	DWORD PTR tv71[ebp], ecx
$LN12@rfind:
	mov	eax, DWORD PTR tv71[ebp]
	jmp	$LN9@rfind
$LN8@rfind:

; 1770 : 		if (_Count <= _Mysize)

	mov	eax, DWORD PTR _this$[ebp]
	mov	ecx, DWORD PTR __Count$[ebp]
	cmp	ecx, DWORD PTR [eax+24]
	ja	$LN7@rfind

; 1771 : 			{	// room for match, look for it
; 1772 : 			const _Elem *_Uptr = _Myptr() +
; 1773 : 				(_Off < _Mysize - _Count ? _Off : _Mysize - _Count);

	mov	eax, DWORD PTR _this$[ebp]
	mov	ecx, DWORD PTR [eax+24]
	sub	ecx, DWORD PTR __Count$[ebp]
	cmp	DWORD PTR __Off$[ebp], ecx
	jae	SHORT $LN13@rfind
	mov	edx, DWORD PTR __Off$[ebp]
	mov	DWORD PTR tv81[ebp], edx
	jmp	SHORT $LN14@rfind
$LN13@rfind:
	mov	eax, DWORD PTR _this$[ebp]
	mov	ecx, DWORD PTR [eax+24]
	sub	ecx, DWORD PTR __Count$[ebp]
	mov	DWORD PTR tv81[ebp], ecx
$LN14@rfind:
	mov	ecx, DWORD PTR _this$[ebp]
	call	?_Myptr@?$basic_string@_WU?$char_traits@_W@std@@V?$K2StringAllocator@_W@@@std@@IBEPB_WXZ ; std::basic_string<wchar_t,std::char_traits<wchar_t>,K2StringAllocator<wchar_t> >::_Myptr
	mov	edx, DWORD PTR tv81[ebp]
	lea	eax, DWORD PTR [eax+edx*2]
	mov	DWORD PTR __Uptr$115649[ebp], eax
	jmp	SHORT $LN6@rfind
$LN5@rfind:

; 1774 : 			for (; ; --_Uptr)

	mov	eax, DWORD PTR __Uptr$115649[ebp]
	sub	eax, 2
	mov	DWORD PTR __Uptr$115649[ebp], eax
$LN6@rfind:

; 1775 : 				if (_Traits::eq(*_Uptr, *_Ptr)
; 1776 : 					&& _Traits::compare(_Uptr, _Ptr, _Count) == 0)

	mov	eax, DWORD PTR __Ptr$[ebp]
	push	eax
	mov	ecx, DWORD PTR __Uptr$115649[ebp]
	push	ecx
	call	DWORD PTR __imp_?eq@?$char_traits@_W@std@@SA_NAB_W0@Z
	add	esp, 8
	movzx	edx, al
	test	edx, edx
	je	SHORT $LN3@rfind
	mov	eax, DWORD PTR __Count$[ebp]
	push	eax
	mov	ecx, DWORD PTR __Ptr$[ebp]
	push	ecx
	mov	edx, DWORD PTR __Uptr$115649[ebp]
	push	edx
	call	DWORD PTR __imp_?compare@?$char_traits@_W@std@@SAHPB_W0I@Z
	add	esp, 12					; 0000000cH
	test	eax, eax
	jne	SHORT $LN3@rfind

; 1777 : 					return (_Uptr - _Myptr());	// found a match

	mov	ecx, DWORD PTR _this$[ebp]
	call	?_Myptr@?$basic_string@_WU?$char_traits@_W@std@@V?$K2StringAllocator@_W@@@std@@IBEPB_WXZ ; std::basic_string<wchar_t,std::char_traits<wchar_t>,K2StringAllocator<wchar_t> >::_Myptr
	mov	ecx, DWORD PTR __Uptr$115649[ebp]
	sub	ecx, eax
	sar	ecx, 1
	mov	eax, ecx
	jmp	SHORT $LN9@rfind
	jmp	SHORT $LN2@rfind
$LN3@rfind:

; 1778 : 				else if (_Uptr == _Myptr())

	mov	ecx, DWORD PTR _this$[ebp]
	call	?_Myptr@?$basic_string@_WU?$char_traits@_W@std@@V?$K2StringAllocator@_W@@@std@@IBEPB_WXZ ; std::basic_string<wchar_t,std::char_traits<wchar_t>,K2StringAllocator<wchar_t> >::_Myptr
	cmp	DWORD PTR __Uptr$115649[ebp], eax
	jne	SHORT $LN2@rfind

; 1779 : 					break;	// at beginning, no more chance for match

	jmp	SHORT $LN7@rfind
$LN2@rfind:

; 1780 : 			}

	jmp	SHORT $LN5@rfind
$LN7@rfind:

; 1781 : 
; 1782 : 		return (npos);	// no match

	or	eax, -1
$LN9@rfind:

; 1783 : 		}

	pop	edi
	pop	esi
	pop	ebx
	mov	esp, ebp
	pop	ebp
	ret	12					; 0000000cH
?rfind@?$basic_string@_WU?$char_traits@_W@std@@V?$K2StringAllocator@_W@@@std@@QBEIPB_WII@Z ENDP ; std::basic_string<wchar_t,std::char_traits<wchar_t>,K2StringAllocator<wchar_t> >::rfind
_TEXT	ENDS
PUBLIC	??0?$_Vector_const_iterator@HV?$K2VectorAllocator@H@@@std@@QAE@PAHPBV_Container_base@1@@Z ; std::_Vector_const_iterator<int,K2VectorAllocator<int> >::_Vector_const_iterator<int,K2VectorAllocator<int> >
; Function compile flags: /Odtp /ZI
; File c:\program files\microsoft visual studio 8\vc\include\vector
;	COMDAT ??0?$_Vector_iterator@HV?$K2VectorAllocator@H@@@std@@QAE@PAHPBV_Container_base@1@@Z
_TEXT	SEGMENT
_this$ = -4						; size = 4
__Ptr$ = 8						; size = 4
__Pvector$ = 12						; size = 4
??0?$_Vector_iterator@HV?$K2VectorAllocator@H@@@std@@QAE@PAHPBV_Container_base@1@@Z PROC ; std::_Vector_iterator<int,K2VectorAllocator<int> >::_Vector_iterator<int,K2VectorAllocator<int> >, COMDAT
; _this$ = ecx

; 308  : 		{	// construct with pointer _Ptr

	push	ebp
	mov	ebp, esp
	sub	esp, 68					; 00000044H
	push	ebx
	push	esi
	push	edi
	mov	DWORD PTR _this$[ebp], ecx
	mov	eax, DWORD PTR __Pvector$[ebp]
	push	eax
	mov	ecx, DWORD PTR __Ptr$[ebp]
	push	ecx
	mov	ecx, DWORD PTR _this$[ebp]
	call	??0?$_Vector_const_iterator@HV?$K2VectorAllocator@H@@@std@@QAE@PAHPBV_Container_base@1@@Z ; std::_Vector_const_iterator<int,K2VectorAllocator<int> >::_Vector_const_iterator<int,K2VectorAllocator<int> >

; 309  : 		}

	mov	eax, DWORD PTR _this$[ebp]
	pop	edi
	pop	esi
	pop	ebx
	mov	esp, ebp
	pop	ebp
	ret	8
??0?$_Vector_iterator@HV?$K2VectorAllocator@H@@@std@@QAE@PAHPBV_Container_base@1@@Z ENDP ; std::_Vector_iterator<int,K2VectorAllocator<int> >::_Vector_iterator<int,K2VectorAllocator<int> >
_TEXT	ENDS
PUBLIC	??_C@_1BO@MEPPHOO@?$AA?$CC?$AAo?$AAu?$AAt?$AA?5?$AAo?$AAf?$AA?5?$AAr?$AAa?$AAn?$AAg?$AAe?$AA?$CC?$AA?$AA@ ; `string'
PUBLIC	??_C@_1JG@COPCNMEN@?$AAs?$AAt?$AAd?$AA?3?$AA?3?$AA_?$AAV?$AAe?$AAc?$AAt?$AAo?$AAr?$AA_?$AAc?$AAo?$AAn?$AAs?$AAt?$AA_?$AAi?$AAt?$AAe?$AAr?$AAa?$AAt?$AAo?$AAr?$AA?$DM?$AAi?$AAn?$AAt?$AA?0@ ; `string'
PUBLIC	??_C@_1FG@CMLDHNON@?$AA?$CI?$AA?$CC?$AAS?$AAt?$AAa?$AAn?$AAd?$AAa?$AAr?$AAd?$AA?5?$AAC?$AA?$CL?$AA?$CL?$AA?5?$AAL?$AAi?$AAb?$AAr?$AAa?$AAr?$AAi?$AAe?$AAs?$AA?5?$AAO?$AAu?$AAt?$AA?5?$AAo?$AAf?$AA?5@ ; `string'
PUBLIC	??_C@_1EG@FOHJJHAC@?$AAv?$AAe?$AAc?$AAt?$AAo?$AAr?$AA?5?$AAi?$AAt?$AAe?$AAr?$AAa?$AAt?$AAo?$AAr?$AA?5?$AAn?$AAo?$AAt?$AA?5?$AAd?$AAe?$AAr?$AAe?$AAf?$AAe?$AAr?$AAe?$AAn?$AAc?$AAa?$AAb@ ; `string'
PUBLIC	??_C@_1HK@HNILGGDB@?$AAc?$AA?3?$AA?2?$AAp?$AAr?$AAo?$AAg?$AAr?$AAa?$AAm?$AA?5?$AAf?$AAi?$AAl?$AAe?$AAs?$AA?2?$AAm?$AAi?$AAc?$AAr?$AAo?$AAs?$AAo?$AAf?$AAt?$AA?5?$AAv?$AAi?$AAs?$AAu?$AAa@ ; `string'
EXTRN	__imp___invalid_parameter:PROC
EXTRN	__imp___CrtDbgReportW:PROC
;	COMDAT ??_C@_1BO@MEPPHOO@?$AA?$CC?$AAo?$AAu?$AAt?$AA?5?$AAo?$AAf?$AA?5?$AAr?$AAa?$AAn?$AAg?$AAe?$AA?$CC?$AA?$AA@
CONST	SEGMENT
??_C@_1BO@MEPPHOO@?$AA?$CC?$AAo?$AAu?$AAt?$AA?5?$AAo?$AAf?$AA?5?$AAr?$AAa?$AAn?$AAg?$AAe?$AA?$CC?$AA?$AA@ DB '"'
	DB	00H, 'o', 00H, 'u', 00H, 't', 00H, ' ', 00H, 'o', 00H, 'f', 00H
	DB	' ', 00H, 'r', 00H, 'a', 00H, 'n', 00H, 'g', 00H, 'e', 00H, '"'
	DB	00H, 00H, 00H				; `string'
CONST	ENDS
;	COMDAT ??_C@_1JG@COPCNMEN@?$AAs?$AAt?$AAd?$AA?3?$AA?3?$AA_?$AAV?$AAe?$AAc?$AAt?$AAo?$AAr?$AA_?$AAc?$AAo?$AAn?$AAs?$AAt?$AA_?$AAi?$AAt?$AAe?$AAr?$AAa?$AAt?$AAo?$AAr?$AA?$DM?$AAi?$AAn?$AAt?$AA?0@
CONST	SEGMENT
??_C@_1JG@COPCNMEN@?$AAs?$AAt?$AAd?$AA?3?$AA?3?$AA_?$AAV?$AAe?$AAc?$AAt?$AAo?$AAr?$AA_?$AAc?$AAo?$AAn?$AAs?$AAt?$AA_?$AAi?$AAt?$AAe?$AAr?$AAa?$AAt?$AAo?$AAr?$AA?$DM?$AAi?$AAn?$AAt?$AA?0@ DB 's'
	DB	00H, 't', 00H, 'd', 00H, ':', 00H, ':', 00H, '_', 00H, 'V', 00H
	DB	'e', 00H, 'c', 00H, 't', 00H, 'o', 00H, 'r', 00H, '_', 00H, 'c'
	DB	00H, 'o', 00H, 'n', 00H, 's', 00H, 't', 00H, '_', 00H, 'i', 00H
	DB	't', 00H, 'e', 00H, 'r', 00H, 'a', 00H, 't', 00H, 'o', 00H, 'r'
	DB	00H, '<', 00H, 'i', 00H, 'n', 00H, 't', 00H, ',', 00H, 'c', 00H
	DB	'l', 00H, 'a', 00H, 's', 00H, 's', 00H, ' ', 00H, 'K', 00H, '2'
	DB	00H, 'V', 00H, 'e', 00H, 'c', 00H, 't', 00H, 'o', 00H, 'r', 00H
	DB	'A', 00H, 'l', 00H, 'l', 00H, 'o', 00H, 'c', 00H, 'a', 00H, 't'
	DB	00H, 'o', 00H, 'r', 00H, '<', 00H, 'i', 00H, 'n', 00H, 't', 00H
	DB	'>', 00H, ' ', 00H, '>', 00H, ':', 00H, ':', 00H, 'o', 00H, 'p'
	DB	00H, 'e', 00H, 'r', 00H, 'a', 00H, 't', 00H, 'o', 00H, 'r', 00H
	DB	' ', 00H, '*', 00H, 00H, 00H			; `string'
CONST	ENDS
;	COMDAT ??_C@_1FG@CMLDHNON@?$AA?$CI?$AA?$CC?$AAS?$AAt?$AAa?$AAn?$AAd?$AAa?$AAr?$AAd?$AA?5?$AAC?$AA?$CL?$AA?$CL?$AA?5?$AAL?$AAi?$AAb?$AAr?$AAa?$AAr?$AAi?$AAe?$AAs?$AA?5?$AAO?$AAu?$AAt?$AA?5?$AAo?$AAf?$AA?5@
CONST	SEGMENT
??_C@_1FG@CMLDHNON@?$AA?$CI?$AA?$CC?$AAS?$AAt?$AAa?$AAn?$AAd?$AAa?$AAr?$AAd?$AA?5?$AAC?$AA?$CL?$AA?$CL?$AA?5?$AAL?$AAi?$AAb?$AAr?$AAa?$AAr?$AAi?$AAe?$AAs?$AA?5?$AAO?$AAu?$AAt?$AA?5?$AAo?$AAf?$AA?5@ DB '('
	DB	00H, '"', 00H, 'S', 00H, 't', 00H, 'a', 00H, 'n', 00H, 'd', 00H
	DB	'a', 00H, 'r', 00H, 'd', 00H, ' ', 00H, 'C', 00H, '+', 00H, '+'
	DB	00H, ' ', 00H, 'L', 00H, 'i', 00H, 'b', 00H, 'r', 00H, 'a', 00H
	DB	'r', 00H, 'i', 00H, 'e', 00H, 's', 00H, ' ', 00H, 'O', 00H, 'u'
	DB	00H, 't', 00H, ' ', 00H, 'o', 00H, 'f', 00H, ' ', 00H, 'R', 00H
	DB	'a', 00H, 'n', 00H, 'g', 00H, 'e', 00H, '"', 00H, ',', 00H, ' '
	DB	00H, '0', 00H, ')', 00H, 00H, 00H		; `string'
CONST	ENDS
;	COMDAT ??_C@_1EG@FOHJJHAC@?$AAv?$AAe?$AAc?$AAt?$AAo?$AAr?$AA?5?$AAi?$AAt?$AAe?$AAr?$AAa?$AAt?$AAo?$AAr?$AA?5?$AAn?$AAo?$AAt?$AA?5?$AAd?$AAe?$AAr?$AAe?$AAf?$AAe?$AAr?$AAe?$AAn?$AAc?$AAa?$AAb@
CONST	SEGMENT
??_C@_1EG@FOHJJHAC@?$AAv?$AAe?$AAc?$AAt?$AAo?$AAr?$AA?5?$AAi?$AAt?$AAe?$AAr?$AAa?$AAt?$AAo?$AAr?$AA?5?$AAn?$AAo?$AAt?$AA?5?$AAd?$AAe?$AAr?$AAe?$AAf?$AAe?$AAr?$AAe?$AAn?$AAc?$AAa?$AAb@ DB 'v'
	DB	00H, 'e', 00H, 'c', 00H, 't', 00H, 'o', 00H, 'r', 00H, ' ', 00H
	DB	'i', 00H, 't', 00H, 'e', 00H, 'r', 00H, 'a', 00H, 't', 00H, 'o'
	DB	00H, 'r', 00H, ' ', 00H, 'n', 00H, 'o', 00H, 't', 00H, ' ', 00H
	DB	'd', 00H, 'e', 00H, 'r', 00H, 'e', 00H, 'f', 00H, 'e', 00H, 'r'
	DB	00H, 'e', 00H, 'n', 00H, 'c', 00H, 'a', 00H, 'b', 00H, 'l', 00H
	DB	'e', 00H, 00H, 00H				; `string'
CONST	ENDS
;	COMDAT ??_C@_1HK@HNILGGDB@?$AAc?$AA?3?$AA?2?$AAp?$AAr?$AAo?$AAg?$AAr?$AAa?$AAm?$AA?5?$AAf?$AAi?$AAl?$AAe?$AAs?$AA?2?$AAm?$AAi?$AAc?$AAr?$AAo?$AAs?$AAo?$AAf?$AAt?$AA?5?$AAv?$AAi?$AAs?$AAu?$AAa@
CONST	SEGMENT
??_C@_1HK@HNILGGDB@?$AAc?$AA?3?$AA?2?$AAp?$AAr?$AAo?$AAg?$AAr?$AAa?$AAm?$AA?5?$AAf?$AAi?$AAl?$AAe?$AAs?$AA?2?$AAm?$AAi?$AAc?$AAr?$AAo?$AAs?$AAo?$AAf?$AAt?$AA?5?$AAv?$AAi?$AAs?$AAu?$AAa@ DB 'c'
	DB	00H, ':', 00H, '\', 00H, 'p', 00H, 'r', 00H, 'o', 00H, 'g', 00H
	DB	'r', 00H, 'a', 00H, 'm', 00H, ' ', 00H, 'f', 00H, 'i', 00H, 'l'
	DB	00H, 'e', 00H, 's', 00H, '\', 00H, 'm', 00H, 'i', 00H, 'c', 00H
	DB	'r', 00H, 'o', 00H, 's', 00H, 'o', 00H, 'f', 00H, 't', 00H, ' '
	DB	00H, 'v', 00H, 'i', 00H, 's', 00H, 'u', 00H, 'a', 00H, 'l', 00H
	DB	' ', 00H, 's', 00H, 't', 00H, 'u', 00H, 'd', 00H, 'i', 00H, 'o'
	DB	00H, ' ', 00H, '8', 00H, '\', 00H, 'v', 00H, 'c', 00H, '\', 00H
	DB	'i', 00H, 'n', 00H, 'c', 00H, 'l', 00H, 'u', 00H, 'd', 00H, 'e'
	DB	00H, '\', 00H, 'v', 00H, 'e', 00H, 'c', 00H, 't', 00H, 'o', 00H
	DB	'r', 00H, 00H, 00H				; `string'
; Function compile flags: /Odtp /ZI
CONST	ENDS
;	COMDAT ??D?$_Vector_const_iterator@HV?$K2VectorAllocator@H@@@std@@QBEABHXZ
_TEXT	SEGMENT
_this$ = -4						; size = 4
??D?$_Vector_const_iterator@HV?$K2VectorAllocator@H@@@std@@QBEABHXZ PROC ; std::_Vector_const_iterator<int,K2VectorAllocator<int> >::operator*, COMDAT
; _this$ = ecx

; 92   : 		{	// return designated object

	push	ebp
	mov	ebp, esp
	sub	esp, 68					; 00000044H
	push	ebx
	push	esi
	push	edi
	mov	DWORD PTR _this$[ebp], ecx

; 93   : 
; 94   :  #if _HAS_ITERATOR_DEBUGGING
; 95   : 		if (this->_Mycont == 0
; 96   : 			|| _Myptr < ((_Myvec *)this->_Mycont)->_Myfirst
; 97   : 			|| ((_Myvec *)this->_Mycont)->_Mylast <= _Myptr)

	mov	eax, DWORD PTR _this$[ebp]
	cmp	DWORD PTR [eax], 0
	je	SHORT $LN1@operator
	mov	eax, DWORD PTR _this$[ebp]
	mov	ecx, DWORD PTR [eax]
	mov	edx, DWORD PTR _this$[ebp]
	mov	eax, DWORD PTR [edx+8]
	cmp	eax, DWORD PTR [ecx+8]
	jb	SHORT $LN1@operator
	mov	eax, DWORD PTR _this$[ebp]
	mov	ecx, DWORD PTR [eax]
	mov	edx, DWORD PTR _this$[ebp]
	mov	eax, DWORD PTR [ecx+12]
	cmp	eax, DWORD PTR [edx+8]
	ja	SHORT $LN2@operator
$LN1@operator:

; 98   : 			{
; 99   : 			_DEBUG_ERROR("vector iterator not dereferencable");

	push	99					; 00000063H
	push	OFFSET ??_C@_1HK@HNILGGDB@?$AAc?$AA?3?$AA?2?$AAp?$AAr?$AAo?$AAg?$AAr?$AAa?$AAm?$AA?5?$AAf?$AAi?$AAl?$AAe?$AAs?$AA?2?$AAm?$AAi?$AAc?$AAr?$AAo?$AAs?$AAo?$AAf?$AAt?$AA?5?$AAv?$AAi?$AAs?$AAu?$AAa@
	push	OFFSET ??_C@_1EG@FOHJJHAC@?$AAv?$AAe?$AAc?$AAt?$AAo?$AAr?$AA?5?$AAi?$AAt?$AAe?$AAr?$AAa?$AAt?$AAo?$AAr?$AA?5?$AAn?$AAo?$AAt?$AA?5?$AAd?$AAe?$AAr?$AAe?$AAf?$AAe?$AAr?$AAe?$AAn?$AAc?$AAa?$AAb@
	call	DWORD PTR __imp_?_Debug_message@std@@YAXPB_W0I@Z
	add	esp, 12					; 0000000cH

; 100  : 			_SCL_SECURE_OUT_OF_RANGE;

	xor	eax, eax
	jne	SHORT $LN5@operator
	push	OFFSET ??_C@_1FG@CMLDHNON@?$AA?$CI?$AA?$CC?$AAS?$AAt?$AAa?$AAn?$AAd?$AAa?$AAr?$AAd?$AA?5?$AAC?$AA?$CL?$AA?$CL?$AA?5?$AAL?$AAi?$AAb?$AAr?$AAa?$AAr?$AAi?$AAe?$AAs?$AA?5?$AAO?$AAu?$AAt?$AA?5?$AAo?$AAf?$AA?5@
	push	0
	push	100					; 00000064H
	push	OFFSET ??_C@_1HK@HNILGGDB@?$AAc?$AA?3?$AA?2?$AAp?$AAr?$AAo?$AAg?$AAr?$AAa?$AAm?$AA?5?$AAf?$AAi?$AAl?$AAe?$AAs?$AA?2?$AAm?$AAi?$AAc?$AAr?$AAo?$AAs?$AAo?$AAf?$AAt?$AA?5?$AAv?$AAi?$AAs?$AAu?$AAa@
	push	2
	call	DWORD PTR __imp___CrtDbgReportW
	add	esp, 20					; 00000014H
	cmp	eax, 1
	jne	SHORT $LN5@operator
	int	3
$LN5@operator:
	push	0
	push	100					; 00000064H
	push	OFFSET ??_C@_1HK@HNILGGDB@?$AAc?$AA?3?$AA?2?$AAp?$AAr?$AAo?$AAg?$AAr?$AAa?$AAm?$AA?5?$AAf?$AAi?$AAl?$AAe?$AAs?$AA?2?$AAm?$AAi?$AAc?$AAr?$AAo?$AAs?$AAo?$AAf?$AAt?$AA?5?$AAv?$AAi?$AAs?$AAu?$AAa@
	push	OFFSET ??_C@_1JG@COPCNMEN@?$AAs?$AAt?$AAd?$AA?3?$AA?3?$AA_?$AAV?$AAe?$AAc?$AAt?$AAo?$AAr?$AA_?$AAc?$AAo?$AAn?$AAs?$AAt?$AA_?$AAi?$AAt?$AAe?$AAr?$AAa?$AAt?$AAo?$AAr?$AA?$DM?$AAi?$AAn?$AAt?$AA?0@
	push	OFFSET ??_C@_1BO@MEPPHOO@?$AA?$CC?$AAo?$AAu?$AAt?$AA?5?$AAo?$AAf?$AA?5?$AAr?$AAa?$AAn?$AAg?$AAe?$AA?$CC?$AA?$AA@
	call	DWORD PTR __imp___invalid_parameter
	add	esp, 20					; 00000014H
$LN2@operator:

; 101  : 			}
; 102  :  #else
; 103  :  		_SCL_SECURE_VALIDATE(this->_Mycont != NULL);
; 104  : 		_SCL_SECURE_VALIDATE_RANGE(_Myptr < ((_Myvec *)(this->_Mycont))->_Mylast);
; 105  :  #endif /* _HAS_ITERATOR_DEBUGGING */
; 106  : 
; 107  : 		return (*_Myptr);

	mov	eax, DWORD PTR _this$[ebp]
	mov	eax, DWORD PTR [eax+8]

; 108  : 		}

	pop	edi
	pop	esi
	pop	ebx
	mov	esp, ebp
	pop	ebp
	ret	0
??D?$_Vector_const_iterator@HV?$K2VectorAllocator@H@@@std@@QBEABHXZ ENDP ; std::_Vector_const_iterator<int,K2VectorAllocator<int> >::operator*
_TEXT	ENDS
PUBLIC	?_Ufill@?$vector@HV?$K2VectorAllocator@H@@@std@@IAEPAHPAHIABH@Z ; std::vector<int,K2VectorAllocator<int> >::_Ufill
PUBLIC	?_Buy@?$vector@HV?$K2VectorAllocator@H@@@std@@IAE_NI@Z ; std::vector<int,K2VectorAllocator<int> >::_Buy
EXTRN	__CxxThrowException@8:PROC
;	COMDAT xdata$x
xdata$x	SEGMENT
__catchsym$?_Construct_n@?$vector@HV?$K2VectorAllocator@H@@@std@@QAEXIABH@Z$2 DD 040H
	DD	00H
	DD	00H
	DD	FLAT:__catch$?_Construct_n@?$vector@HV?$K2VectorAllocator@H@@@std@@QAEXIABH@Z$0
__unwindtable$?_Construct_n@?$vector@HV?$K2VectorAllocator@H@@@std@@QAEXIABH@Z DD 0ffffffffH
	DD	00H
	DD	0ffffffffH
	DD	00H
__tryblocktable$?_Construct_n@?$vector@HV?$K2VectorAllocator@H@@@std@@QAEXIABH@Z DD 00H
	DD	00H
	DD	01H
	DD	01H
	DD	FLAT:__catchsym$?_Construct_n@?$vector@HV?$K2VectorAllocator@H@@@std@@QAEXIABH@Z$2
__ehfuncinfo$?_Construct_n@?$vector@HV?$K2VectorAllocator@H@@@std@@QAEXIABH@Z DD 019930522H
	DD	02H
	DD	FLAT:__unwindtable$?_Construct_n@?$vector@HV?$K2VectorAllocator@H@@@std@@QAEXIABH@Z
	DD	01H
	DD	FLAT:__tryblocktable$?_Construct_n@?$vector@HV?$K2VectorAllocator@H@@@std@@QAEXIABH@Z
	DD	2 DUP(00H)
	DD	00H
	DD	01H
; Function compile flags: /Odtp /ZI
xdata$x	ENDS
;	COMDAT ?_Construct_n@?$vector@HV?$K2VectorAllocator@H@@@std@@QAEXIABH@Z
_TEXT	SEGMENT
tv80 = -88						; size = 4
_this$ = -20						; size = 4
__$EHRec$ = -16						; size = 16
__Count$ = 8						; size = 4
__Val$ = 12						; size = 4
?_Construct_n@?$vector@HV?$K2VectorAllocator@H@@@std@@QAEXIABH@Z PROC ; std::vector<int,K2VectorAllocator<int> >::_Construct_n, COMDAT
; _this$ = ecx

; 532  : 		{	// construct from _Count * _Val

	push	ebp
	mov	ebp, esp
	push	-1
	push	__ehhandler$?_Construct_n@?$vector@HV?$K2VectorAllocator@H@@@std@@QAEXIABH@Z
	mov	eax, DWORD PTR fs:0
	push	eax
	push	ecx
	sub	esp, 72					; 00000048H
	push	ebx
	push	esi
	push	edi
	mov	eax, DWORD PTR ___security_cookie
	xor	eax, ebp
	push	eax
	lea	eax, DWORD PTR __$EHRec$[ebp+4]
	mov	DWORD PTR fs:0, eax
	mov	DWORD PTR __$EHRec$[ebp], esp
	mov	DWORD PTR _this$[ebp], ecx

; 533  : 		if (_Buy(_Count))

	mov	eax, DWORD PTR __Count$[ebp]
	push	eax
	mov	ecx, DWORD PTR _this$[ebp]
	call	?_Buy@?$vector@HV?$K2VectorAllocator@H@@@std@@IAE_NI@Z ; std::vector<int,K2VectorAllocator<int> >::_Buy
	movzx	ecx, al
	test	ecx, ecx
	je	SHORT $LN4@Construct_

; 534  : 			{	// nonzero, fill it
; 535  : 			_TRY_BEGIN

	mov	DWORD PTR __$EHRec$[ebp+12], 0

; 536  : 			_Mylast = _Ufill(_Myfirst, _Count, _Val);

	mov	eax, DWORD PTR __Val$[ebp]
	push	eax
	mov	ecx, DWORD PTR __Count$[ebp]
	push	ecx
	mov	edx, DWORD PTR _this$[ebp]
	mov	eax, DWORD PTR [edx+8]
	push	eax
	mov	ecx, DWORD PTR _this$[ebp]
	call	?_Ufill@?$vector@HV?$K2VectorAllocator@H@@@std@@IAEPAHPAHIABH@Z ; std::vector<int,K2VectorAllocator<int> >::_Ufill
	mov	DWORD PTR tv80[ebp], eax
	mov	ecx, DWORD PTR _this$[ebp]
	mov	edx, DWORD PTR tv80[ebp]
	mov	DWORD PTR [ecx+12], edx
	jmp	SHORT $LN5@Construct_
__catch$?_Construct_n@?$vector@HV?$K2VectorAllocator@H@@@std@@QAEXIABH@Z$0:

; 537  : 			_CATCH_ALL
; 538  : 			_Tidy();

	mov	ecx, DWORD PTR _this$[ebp]
	call	?_Tidy@?$vector@HV?$K2VectorAllocator@H@@@std@@IAEXXZ ; std::vector<int,K2VectorAllocator<int> >::_Tidy

; 539  : 			_RERAISE;

	push	0
	push	0
	call	__CxxThrowException@8

; 540  : 			_CATCH_END

	mov	DWORD PTR __$EHRec$[ebp+12], -1
	mov	eax, $LN4@Construct_
	ret	0
$LN5@Construct_:
	mov	DWORD PTR __$EHRec$[ebp+12], -1
$LN4@Construct_:

; 541  : 			}
; 542  : 		}

	mov	ecx, DWORD PTR __$EHRec$[ebp+4]
	mov	DWORD PTR fs:0, ecx
	pop	ecx
	pop	edi
	pop	esi
	pop	ebx
	mov	esp, ebp
	pop	ebp
	ret	8
_TEXT	ENDS
;	COMDAT text$x
text$x	SEGMENT
__ehhandler$?_Construct_n@?$vector@HV?$K2VectorAllocator@H@@@std@@QAEXIABH@Z:
	mov	edx, DWORD PTR [esp+8]
	lea	eax, DWORD PTR [edx+12]
	mov	ecx, DWORD PTR [edx-92]
	xor	ecx, eax
	call	@__security_check_cookie@4
	mov	eax, OFFSET __ehfuncinfo$?_Construct_n@?$vector@HV?$K2VectorAllocator@H@@@std@@QAEXIABH@Z
	jmp	___CxxFrameHandler3
text$x	ENDS
?_Construct_n@?$vector@HV?$K2VectorAllocator@H@@@std@@QAEXIABH@Z ENDP ; std::vector<int,K2VectorAllocator<int> >::_Construct_n
PUBLIC	??$_Destroy_range@HV?$K2VectorAllocator@H@@@std@@YAXPAH0AAV?$K2VectorAllocator@H@@@Z ; std::_Destroy_range<int,K2VectorAllocator<int> >
; Function compile flags: /Odtp /ZI
;	COMDAT ?_Destroy@?$vector@HV?$K2VectorAllocator@H@@@std@@IAEXPAH0@Z
_TEXT	SEGMENT
_this$ = -4						; size = 4
__First$ = 8						; size = 4
__Last$ = 12						; size = 4
?_Destroy@?$vector@HV?$K2VectorAllocator@H@@@std@@IAEXPAH0@Z PROC ; std::vector<int,K2VectorAllocator<int> >::_Destroy, COMDAT
; _this$ = ecx

; 1082 : 		{	// destroy [_First, _Last) using allocator

	push	ebp
	mov	ebp, esp
	sub	esp, 68					; 00000044H
	push	ebx
	push	esi
	push	edi
	mov	DWORD PTR _this$[ebp], ecx

; 1083 : 		_Destroy_range(_First, _Last, this->_Alval);

	mov	eax, DWORD PTR _this$[ebp]
	add	eax, 4
	push	eax
	mov	ecx, DWORD PTR __Last$[ebp]
	push	ecx
	mov	edx, DWORD PTR __First$[ebp]
	push	edx
	call	??$_Destroy_range@HV?$K2VectorAllocator@H@@@std@@YAXPAH0AAV?$K2VectorAllocator@H@@@Z ; std::_Destroy_range<int,K2VectorAllocator<int> >
	add	esp, 12					; 0000000cH

; 1084 : 		}

	pop	edi
	pop	esi
	pop	ebx
	mov	esp, ebp
	pop	ebp
	ret	8
?_Destroy@?$vector@HV?$K2VectorAllocator@H@@@std@@IAEXPAH0@Z ENDP ; std::vector<int,K2VectorAllocator<int> >::_Destroy
_TEXT	ENDS
PUBLIC	??0?$K2VectorAllocator@H@@QAE@ABV0@@Z		; K2VectorAllocator<int>::K2VectorAllocator<int>
EXTRN	__imp_??0_Container_base@std@@QAE@XZ:PROC
;	COMDAT xdata$x
xdata$x	SEGMENT
__unwindtable$??0?$_Vector_val@HV?$K2VectorAllocator@H@@@std@@IAE@V?$K2VectorAllocator@H@@@Z DD 0ffffffffH
	DD	FLAT:__unwindfunclet$??0?$_Vector_val@HV?$K2VectorAllocator@H@@@std@@IAE@V?$K2VectorAllocator@H@@@Z$0
	DD	00H
	DD	FLAT:__unwindfunclet$??0?$_Vector_val@HV?$K2VectorAllocator@H@@@std@@IAE@V?$K2VectorAllocator@H@@@Z$1
__ehfuncinfo$??0?$_Vector_val@HV?$K2VectorAllocator@H@@@std@@IAE@V?$K2VectorAllocator@H@@@Z DD 019930522H
	DD	02H
	DD	FLAT:__unwindtable$??0?$_Vector_val@HV?$K2VectorAllocator@H@@@std@@IAE@V?$K2VectorAllocator@H@@@Z
	DD	2 DUP(00H)
	DD	2 DUP(00H)
	DD	00H
	DD	01H
; Function compile flags: /Odtp /ZI
xdata$x	ENDS
;	COMDAT ??0?$_Vector_val@HV?$K2VectorAllocator@H@@@std@@IAE@V?$K2VectorAllocator@H@@@Z
_TEXT	SEGMENT
_this$ = -16						; size = 4
__$EHRec$ = -12						; size = 12
__Al$ = 8						; size = 1
??0?$_Vector_val@HV?$K2VectorAllocator@H@@@std@@IAE@V?$K2VectorAllocator@H@@@Z PROC ; std::_Vector_val<int,K2VectorAllocator<int> >::_Vector_val<int,K2VectorAllocator<int> >, COMDAT
; _this$ = ecx

; 412  : 		{	// construct allocator from _Al

	push	ebp
	mov	ebp, esp
	push	-1
	push	__ehhandler$??0?$_Vector_val@HV?$K2VectorAllocator@H@@@std@@IAE@V?$K2VectorAllocator@H@@@Z
	mov	eax, DWORD PTR fs:0
	push	eax
	sub	esp, 68					; 00000044H
	push	ebx
	push	esi
	push	edi
	mov	eax, DWORD PTR ___security_cookie
	xor	eax, ebp
	push	eax
	lea	eax, DWORD PTR __$EHRec$[ebp]
	mov	DWORD PTR fs:0, eax
	mov	DWORD PTR _this$[ebp], ecx
	mov	DWORD PTR __$EHRec$[ebp+8], 0
	mov	ecx, DWORD PTR _this$[ebp]
	call	DWORD PTR __imp_??0_Container_base@std@@QAE@XZ
	mov	BYTE PTR __$EHRec$[ebp+8], 1
	lea	eax, DWORD PTR __Al$[ebp]
	push	eax
	mov	ecx, DWORD PTR _this$[ebp]
	add	ecx, 4
	call	??0?$K2VectorAllocator@H@@QAE@ABV0@@Z	; K2VectorAllocator<int>::K2VectorAllocator<int>

; 413  : 		}

	mov	DWORD PTR __$EHRec$[ebp+8], -1
	lea	ecx, DWORD PTR __Al$[ebp]
	call	??1?$K2VectorAllocator@H@@QAE@XZ	; K2VectorAllocator<int>::~K2VectorAllocator<int>
	mov	eax, DWORD PTR _this$[ebp]
	mov	ecx, DWORD PTR __$EHRec$[ebp]
	mov	DWORD PTR fs:0, ecx
	pop	ecx
	pop	edi
	pop	esi
	pop	ebx
	mov	esp, ebp
	pop	ebp
	ret	4
_TEXT	ENDS
;	COMDAT text$x
text$x	SEGMENT
__unwindfunclet$??0?$_Vector_val@HV?$K2VectorAllocator@H@@@std@@IAE@V?$K2VectorAllocator@H@@@Z$0:
	lea	ecx, DWORD PTR __Al$[ebp]
	jmp	??1?$K2VectorAllocator@H@@QAE@XZ	; K2VectorAllocator<int>::~K2VectorAllocator<int>
__unwindfunclet$??0?$_Vector_val@HV?$K2VectorAllocator@H@@@std@@IAE@V?$K2VectorAllocator@H@@@Z$1:
	mov	ecx, DWORD PTR _this$[ebp]
	jmp	DWORD PTR __imp_??1_Container_base@std@@QAE@XZ
__ehhandler$??0?$_Vector_val@HV?$K2VectorAllocator@H@@@std@@IAE@V?$K2VectorAllocator@H@@@Z:
	mov	edx, DWORD PTR [esp+8]
	lea	eax, DWORD PTR [edx+12]
	mov	ecx, DWORD PTR [edx-84]
	xor	ecx, eax
	call	@__security_check_cookie@4
	mov	eax, OFFSET __ehfuncinfo$??0?$_Vector_val@HV?$K2VectorAllocator@H@@@std@@IAE@V?$K2VectorAllocator@H@@@Z
	jmp	___CxxFrameHandler3
text$x	ENDS
??0?$_Vector_val@HV?$K2VectorAllocator@H@@@std@@IAE@V?$K2VectorAllocator@H@@@Z ENDP ; std::_Vector_val<int,K2VectorAllocator<int> >::_Vector_val<int,K2VectorAllocator<int> >
PUBLIC	?GetInstance@CMemManager@@SAPAV1@XZ		; CMemManager::GetInstance
PUBLIC	??0?$allocator@H@std@@QAE@XZ			; std::allocator<int>::allocator<int>
; Function compile flags: /Odtp /ZI
; File c:\code\hon\src\k2\k2_stl_allocator.h
;	COMDAT ??0?$K2VectorAllocator@H@@QAE@XZ
_TEXT	SEGMENT
_this$ = -4						; size = 4
??0?$K2VectorAllocator@H@@QAE@XZ PROC			; K2VectorAllocator<int>::K2VectorAllocator<int>, COMDAT
; _this$ = ecx

; 118  : 	K2VectorAllocator()

	push	ebp
	mov	ebp, esp
	sub	esp, 68					; 00000044H
	push	ebx
	push	esi
	push	edi
	mov	DWORD PTR _this$[ebp], ecx
	mov	ecx, DWORD PTR _this$[ebp]
	call	??0?$allocator@H@std@@QAE@XZ		; std::allocator<int>::allocator<int>

; 119  : 	{
; 120  : 		// ensure that the memory manager is initialized.
; 121  : 		CMemManager::GetInstance();

	call	?GetInstance@CMemManager@@SAPAV1@XZ	; CMemManager::GetInstance

; 122  : 	}

	mov	eax, DWORD PTR _this$[ebp]
	pop	edi
	pop	esi
	pop	ebx
	mov	esp, ebp
	pop	ebp
	ret	0
??0?$K2VectorAllocator@H@@QAE@XZ ENDP			; K2VectorAllocator<int>::K2VectorAllocator<int>
_TEXT	ENDS
PUBLIC	??_C@_0P@HAHLNPOB@ctx_STL_vector?$AA@		; `string'
PUBLIC	??_C@_0CC@PDHCCDLE@c?3?2code?2hon?2src?2k2?2c_memmanager?4@ ; `string'
EXTRN	__imp_?Deallocate@CMemManager@@SAXPAXPBDW4MemoryType@@1F@Z:PROC
;	COMDAT ??_C@_0P@HAHLNPOB@ctx_STL_vector?$AA@
CONST	SEGMENT
??_C@_0P@HAHLNPOB@ctx_STL_vector?$AA@ DB 'ctx_STL_vector', 00H ; `string'
CONST	ENDS
;	COMDAT ??_C@_0CC@PDHCCDLE@c?3?2code?2hon?2src?2k2?2c_memmanager?4@
CONST	SEGMENT
??_C@_0CC@PDHCCDLE@c?3?2code?2hon?2src?2k2?2c_memmanager?4@ DB 'c:\code\h'
	DB	'on\src\k2\c_memmanager.h', 00H		; `string'
; Function compile flags: /Odtp /ZI
CONST	ENDS
;	COMDAT ?deallocate@?$K2VectorAllocator@H@@QAEXPAHI@Z
_TEXT	SEGMENT
_this$ = -4						; size = 4
__Ptr$ = 8						; size = 4
___formal$ = 12						; size = 4
?deallocate@?$K2VectorAllocator@H@@QAEXPAHI@Z PROC	; K2VectorAllocator<int>::deallocate, COMDAT
; _this$ = ecx

; 138  : 	void	deallocate(pointer _Ptr, size_type)		{ MemManager.Deallocate(_Ptr, "ctx_STL_vector"); }

	push	ebp
	mov	ebp, esp
	sub	esp, 68					; 00000044H
	push	ebx
	push	esi
	push	edi
	mov	DWORD PTR _this$[ebp], ecx
	push	162					; 000000a2H
	push	OFFSET ??_C@_0CC@PDHCCDLE@c?3?2code?2hon?2src?2k2?2c_memmanager?4@
	push	3
	push	OFFSET ??_C@_0P@HAHLNPOB@ctx_STL_vector?$AA@
	mov	eax, DWORD PTR __Ptr$[ebp]
	push	eax
	call	DWORD PTR __imp_?Deallocate@CMemManager@@SAXPAXPBDW4MemoryType@@1F@Z
	add	esp, 20					; 00000014H
	pop	edi
	pop	esi
	pop	ebx
	mov	esp, ebp
	pop	ebp
	ret	8
?deallocate@?$K2VectorAllocator@H@@QAEXPAHI@Z ENDP	; K2VectorAllocator<int>::deallocate
_TEXT	ENDS
PUBLIC	?_Adopt@_Iterator_base@std@@QAEXPBV_Container_base@2@@Z ; std::_Iterator_base::_Adopt
PUBLIC	??_C@_1CG@JNLFBNGN@?$AA?$CC?$AAi?$AAn?$AAv?$AAa?$AAl?$AAi?$AAd?$AA?5?$AAa?$AAr?$AAg?$AAu?$AAm?$AAe?$AAn?$AAt?$AA?$CC?$AA?$AA@ ; `string'
PUBLIC	??_C@_1KO@PIPHHAPP@?$AAs?$AAt?$AAd?$AA?3?$AA?3?$AA_?$AAV?$AAe?$AAc?$AAt?$AAo?$AAr?$AA_?$AAc?$AAo?$AAn?$AAs?$AAt?$AA_?$AAi?$AAt?$AAe?$AAr?$AAa?$AAt?$AAo?$AAr?$AA?$DM?$AAi?$AAn?$AAt?$AA?0@ ; `string'
PUBLIC	??_C@_1NK@JLHOCNGO@?$AA?$CI?$AA?$CC?$AA_?$AAP?$AAv?$AAe?$AAc?$AAt?$AAo?$AAr?$AA?5?$AA?$DN?$AA?$DN?$AA?5?$AAN?$AAU?$AAL?$AAL?$AA?5?$AA?$HM?$AA?$HM?$AA?5?$AA?$CI?$AA?$CI?$AA?$CI?$AA_?$AAM?$AAy?$AAv?$AAe?$AAc?$AA?5@ ; `string'
PUBLIC	??0?$_Ranit@HHPBHABH@std@@QAE@XZ		; std::_Ranit<int,int,int const *,int const &>::_Ranit<int,int,int const *,int const &>
;	COMDAT ??_C@_1CG@JNLFBNGN@?$AA?$CC?$AAi?$AAn?$AAv?$AAa?$AAl?$AAi?$AAd?$AA?5?$AAa?$AAr?$AAg?$AAu?$AAm?$AAe?$AAn?$AAt?$AA?$CC?$AA?$AA@
; File c:\program files\microsoft visual studio 8\vc\include\vector
CONST	SEGMENT
??_C@_1CG@JNLFBNGN@?$AA?$CC?$AAi?$AAn?$AAv?$AAa?$AAl?$AAi?$AAd?$AA?5?$AAa?$AAr?$AAg?$AAu?$AAm?$AAe?$AAn?$AAt?$AA?$CC?$AA?$AA@ DB '"'
	DB	00H, 'i', 00H, 'n', 00H, 'v', 00H, 'a', 00H, 'l', 00H, 'i', 00H
	DB	'd', 00H, ' ', 00H, 'a', 00H, 'r', 00H, 'g', 00H, 'u', 00H, 'm'
	DB	00H, 'e', 00H, 'n', 00H, 't', 00H, '"', 00H, 00H, 00H ; `string'
CONST	ENDS
;	COMDAT ??_C@_1KO@PIPHHAPP@?$AAs?$AAt?$AAd?$AA?3?$AA?3?$AA_?$AAV?$AAe?$AAc?$AAt?$AAo?$AAr?$AA_?$AAc?$AAo?$AAn?$AAs?$AAt?$AA_?$AAi?$AAt?$AAe?$AAr?$AAa?$AAt?$AAo?$AAr?$AA?$DM?$AAi?$AAn?$AAt?$AA?0@
CONST	SEGMENT
??_C@_1KO@PIPHHAPP@?$AAs?$AAt?$AAd?$AA?3?$AA?3?$AA_?$AAV?$AAe?$AAc?$AAt?$AAo?$AAr?$AA_?$AAc?$AAo?$AAn?$AAs?$AAt?$AA_?$AAi?$AAt?$AAe?$AAr?$AAa?$AAt?$AAo?$AAr?$AA?$DM?$AAi?$AAn?$AAt?$AA?0@ DB 's'
	DB	00H, 't', 00H, 'd', 00H, ':', 00H, ':', 00H, '_', 00H, 'V', 00H
	DB	'e', 00H, 'c', 00H, 't', 00H, 'o', 00H, 'r', 00H, '_', 00H, 'c'
	DB	00H, 'o', 00H, 'n', 00H, 's', 00H, 't', 00H, '_', 00H, 'i', 00H
	DB	't', 00H, 'e', 00H, 'r', 00H, 'a', 00H, 't', 00H, 'o', 00H, 'r'
	DB	00H, '<', 00H, 'i', 00H, 'n', 00H, 't', 00H, ',', 00H, 'c', 00H
	DB	'l', 00H, 'a', 00H, 's', 00H, 's', 00H, ' ', 00H, 'K', 00H, '2'
	DB	00H, 'V', 00H, 'e', 00H, 'c', 00H, 't', 00H, 'o', 00H, 'r', 00H
	DB	'A', 00H, 'l', 00H, 'l', 00H, 'o', 00H, 'c', 00H, 'a', 00H, 't'
	DB	00H, 'o', 00H, 'r', 00H, '<', 00H, 'i', 00H, 'n', 00H, 't', 00H
	DB	'>', 00H, ' ', 00H, '>', 00H, ':', 00H, ':', 00H, '_', 00H, 'V'
	DB	00H, 'e', 00H, 'c', 00H, 't', 00H, 'o', 00H, 'r', 00H, '_', 00H
	DB	'c', 00H, 'o', 00H, 'n', 00H, 's', 00H, 't', 00H, '_', 00H, 'i'
	DB	00H, 't', 00H, 'e', 00H, 'r', 00H, 'a', 00H, 't', 00H, 'o', 00H
	DB	'r', 00H, 00H, 00H				; `string'
CONST	ENDS
;	COMDAT ??_C@_1NK@JLHOCNGO@?$AA?$CI?$AA?$CC?$AA_?$AAP?$AAv?$AAe?$AAc?$AAt?$AAo?$AAr?$AA?5?$AA?$DN?$AA?$DN?$AA?5?$AAN?$AAU?$AAL?$AAL?$AA?5?$AA?$HM?$AA?$HM?$AA?5?$AA?$CI?$AA?$CI?$AA?$CI?$AA_?$AAM?$AAy?$AAv?$AAe?$AAc?$AA?5@
CONST	SEGMENT
??_C@_1NK@JLHOCNGO@?$AA?$CI?$AA?$CC?$AA_?$AAP?$AAv?$AAe?$AAc?$AAt?$AAo?$AAr?$AA?5?$AA?$DN?$AA?$DN?$AA?5?$AAN?$AAU?$AAL?$AAL?$AA?5?$AA?$HM?$AA?$HM?$AA?5?$AA?$CI?$AA?$CI?$AA?$CI?$AA_?$AAM?$AAy?$AAv?$AAe?$AAc?$AA?5@ DB '('
	DB	00H, '"', 00H, '_', 00H, 'P', 00H, 'v', 00H, 'e', 00H, 'c', 00H
	DB	't', 00H, 'o', 00H, 'r', 00H, ' ', 00H, '=', 00H, '=', 00H, ' '
	DB	00H, 'N', 00H, 'U', 00H, 'L', 00H, 'L', 00H, ' ', 00H, '|', 00H
	DB	'|', 00H, ' ', 00H, '(', 00H, '(', 00H, '(', 00H, '_', 00H, 'M'
	DB	00H, 'y', 00H, 'v', 00H, 'e', 00H, 'c', 00H, ' ', 00H, '*', 00H
	DB	')', 00H, '_', 00H, 'P', 00H, 'v', 00H, 'e', 00H, 'c', 00H, 't'
	DB	00H, 'o', 00H, 'r', 00H, ')', 00H, '-', 00H, '>', 00H, '_', 00H
	DB	'M', 00H, 'y', 00H, 'f', 00H, 'i', 00H, 'r', 00H, 's', 00H, 't'
	DB	00H, ' ', 00H, '<', 00H, '=', 00H, ' ', 00H, '_', 00H, 'P', 00H
	DB	't', 00H, 'r', 00H, ' ', 00H, '&', 00H, '&', 00H, ' ', 00H, '_'
	DB	00H, 'P', 00H, 't', 00H, 'r', 00H, ' ', 00H, '<', 00H, '=', 00H
	DB	' ', 00H, '(', 00H, '(', 00H, '_', 00H, 'M', 00H, 'y', 00H, 'v'
	DB	00H, 'e', 00H, 'c', 00H, ' ', 00H, '*', 00H, ')', 00H, '_', 00H
	DB	'P', 00H, 'v', 00H, 'e', 00H, 'c', 00H, 't', 00H, 'o', 00H, 'r'
	DB	00H, ')', 00H, '-', 00H, '>', 00H, '_', 00H, 'M', 00H, 'y', 00H
	DB	'l', 00H, 'a', 00H, 's', 00H, 't', 00H, ')', 00H, '"', 00H, ','
	DB	00H, ' ', 00H, '0', 00H, ')', 00H, 00H, 00H	; `string'
CONST	ENDS
;	COMDAT xdata$x
xdata$x	SEGMENT
__unwindtable$??0?$_Vector_const_iterator@HV?$K2VectorAllocator@H@@@std@@QAE@PAHPBV_Container_base@1@@Z DD 0ffffffffH
	DD	FLAT:__unwindfunclet$??0?$_Vector_const_iterator@HV?$K2VectorAllocator@H@@@std@@QAE@PAHPBV_Container_base@1@@Z$0
__ehfuncinfo$??0?$_Vector_const_iterator@HV?$K2VectorAllocator@H@@@std@@QAE@PAHPBV_Container_base@1@@Z DD 019930522H
	DD	01H
	DD	FLAT:__unwindtable$??0?$_Vector_const_iterator@HV?$K2VectorAllocator@H@@@std@@QAE@PAHPBV_Container_base@1@@Z
	DD	2 DUP(00H)
	DD	2 DUP(00H)
	DD	00H
	DD	01H
; Function compile flags: /Odtp /ZI
xdata$x	ENDS
;	COMDAT ??0?$_Vector_const_iterator@HV?$K2VectorAllocator@H@@@std@@QAE@PAHPBV_Container_base@1@@Z
_TEXT	SEGMENT
_this$ = -16						; size = 4
__$EHRec$ = -12						; size = 12
__Ptr$ = 8						; size = 4
__Pvector$ = 12						; size = 4
??0?$_Vector_const_iterator@HV?$K2VectorAllocator@H@@@std@@QAE@PAHPBV_Container_base@1@@Z PROC ; std::_Vector_const_iterator<int,K2VectorAllocator<int> >::_Vector_const_iterator<int,K2VectorAllocator<int> >, COMDAT
; _this$ = ecx

; 69   : 	_Vector_const_iterator(_Tptr _Ptr, const _Container_base *_Pvector)

	push	ebp
	mov	ebp, esp
	push	-1
	push	__ehhandler$??0?$_Vector_const_iterator@HV?$K2VectorAllocator@H@@@std@@QAE@PAHPBV_Container_base@1@@Z
	mov	eax, DWORD PTR fs:0
	push	eax
	sub	esp, 68					; 00000044H
	push	ebx
	push	esi
	push	edi
	mov	eax, DWORD PTR ___security_cookie
	xor	eax, ebp
	push	eax
	lea	eax, DWORD PTR __$EHRec$[ebp]
	mov	DWORD PTR fs:0, eax
	mov	DWORD PTR _this$[ebp], ecx
	mov	ecx, DWORD PTR _this$[ebp]
	call	??0?$_Ranit@HHPBHABH@std@@QAE@XZ
	mov	DWORD PTR __$EHRec$[ebp+8], 0

; 70   : 		{	// construct with pointer _Ptr
; 71   : 		_SCL_SECURE_VALIDATE(_Pvector == NULL || (((_Myvec *)_Pvector)->_Myfirst <= _Ptr && _Ptr <= ((_Myvec *)_Pvector)->_Mylast));

	cmp	DWORD PTR __Pvector$[ebp], 0
	je	SHORT $LN2@Vector_con
	mov	eax, DWORD PTR __Pvector$[ebp]
	mov	ecx, DWORD PTR [eax+8]
	cmp	ecx, DWORD PTR __Ptr$[ebp]
	ja	SHORT $LN1@Vector_con
	mov	eax, DWORD PTR __Pvector$[ebp]
	mov	ecx, DWORD PTR __Ptr$[ebp]
	cmp	ecx, DWORD PTR [eax+12]
	jbe	SHORT $LN2@Vector_con
$LN1@Vector_con:
	xor	eax, eax
	jne	SHORT $LN5@Vector_con
	push	OFFSET ??_C@_1NK@JLHOCNGO@?$AA?$CI?$AA?$CC?$AA_?$AAP?$AAv?$AAe?$AAc?$AAt?$AAo?$AAr?$AA?5?$AA?$DN?$AA?$DN?$AA?5?$AAN?$AAU?$AAL?$AAL?$AA?5?$AA?$HM?$AA?$HM?$AA?5?$AA?$CI?$AA?$CI?$AA?$CI?$AA_?$AAM?$AAy?$AAv?$AAe?$AAc?$AA?5@
	push	0
	push	71					; 00000047H
	push	OFFSET ??_C@_1HK@HNILGGDB@?$AAc?$AA?3?$AA?2?$AAp?$AAr?$AAo?$AAg?$AAr?$AAa?$AAm?$AA?5?$AAf?$AAi?$AAl?$AAe?$AAs?$AA?2?$AAm?$AAi?$AAc?$AAr?$AAo?$AAs?$AAo?$AAf?$AAt?$AA?5?$AAv?$AAi?$AAs?$AAu?$AAa@
	push	2
	call	DWORD PTR __imp___CrtDbgReportW
	add	esp, 20					; 00000014H
	cmp	eax, 1
	jne	SHORT $LN5@Vector_con
	int	3
$LN5@Vector_con:
	push	0
	push	71					; 00000047H
	push	OFFSET ??_C@_1HK@HNILGGDB@?$AAc?$AA?3?$AA?2?$AAp?$AAr?$AAo?$AAg?$AAr?$AAa?$AAm?$AA?5?$AAf?$AAi?$AAl?$AAe?$AAs?$AA?2?$AAm?$AAi?$AAc?$AAr?$AAo?$AAs?$AAo?$AAf?$AAt?$AA?5?$AAv?$AAi?$AAs?$AAu?$AAa@
	push	OFFSET ??_C@_1KO@PIPHHAPP@?$AAs?$AAt?$AAd?$AA?3?$AA?3?$AA_?$AAV?$AAe?$AAc?$AAt?$AAo?$AAr?$AA_?$AAc?$AAo?$AAn?$AAs?$AAt?$AA_?$AAi?$AAt?$AAe?$AAr?$AAa?$AAt?$AAo?$AAr?$AA?$DM?$AAi?$AAn?$AAt?$AA?0@
	push	OFFSET ??_C@_1CG@JNLFBNGN@?$AA?$CC?$AAi?$AAn?$AAv?$AAa?$AAl?$AAi?$AAd?$AA?5?$AAa?$AAr?$AAg?$AAu?$AAm?$AAe?$AAn?$AAt?$AA?$CC?$AA?$AA@
	call	DWORD PTR __imp___invalid_parameter
	add	esp, 20					; 00000014H
$LN2@Vector_con:

; 72   : 		this->_Adopt(_Pvector);

	mov	eax, DWORD PTR __Pvector$[ebp]
	push	eax
	mov	ecx, DWORD PTR _this$[ebp]
	call	?_Adopt@_Iterator_base@std@@QAEXPBV_Container_base@2@@Z ; std::_Iterator_base::_Adopt

; 73   : 		_Myptr = _Ptr;

	mov	eax, DWORD PTR _this$[ebp]
	mov	ecx, DWORD PTR __Ptr$[ebp]
	mov	DWORD PTR [eax+8], ecx

; 74   : 		}

	mov	DWORD PTR __$EHRec$[ebp+8], -1
	mov	eax, DWORD PTR _this$[ebp]
	mov	ecx, DWORD PTR __$EHRec$[ebp]
	mov	DWORD PTR fs:0, ecx
	pop	ecx
	pop	edi
	pop	esi
	pop	ebx
	mov	esp, ebp
	pop	ebp
	ret	8
_TEXT	ENDS
;	COMDAT text$x
text$x	SEGMENT
__unwindfunclet$??0?$_Vector_const_iterator@HV?$K2VectorAllocator@H@@@std@@QAE@PAHPBV_Container_base@1@@Z$0:
	mov	ecx, DWORD PTR _this$[ebp]
	jmp	??1?$_Ranit@HHPBHABH@std@@QAE@XZ
__ehhandler$??0?$_Vector_const_iterator@HV?$K2VectorAllocator@H@@@std@@QAE@PAHPBV_Container_base@1@@Z:
	mov	edx, DWORD PTR [esp+8]
	lea	eax, DWORD PTR [edx+12]
	mov	ecx, DWORD PTR [edx-84]
	xor	ecx, eax
	call	@__security_check_cookie@4
	mov	eax, OFFSET __ehfuncinfo$??0?$_Vector_const_iterator@HV?$K2VectorAllocator@H@@@std@@QAE@PAHPBV_Container_base@1@@Z
	jmp	___CxxFrameHandler3
text$x	ENDS
??0?$_Vector_const_iterator@HV?$K2VectorAllocator@H@@@std@@QAE@PAHPBV_Container_base@1@@Z ENDP ; std::_Vector_const_iterator<int,K2VectorAllocator<int> >::_Vector_const_iterator<int,K2VectorAllocator<int> >
;	COMDAT xdata$x
; File c:\program files\microsoft visual studio 8\vc\include\xutility
xdata$x	SEGMENT
__unwindtable$?_Adopt@_Iterator_base@std@@QAEXPBV_Container_base@2@@Z DD 0ffffffffH
	DD	FLAT:__unwindfunclet$?_Adopt@_Iterator_base@std@@QAEXPBV_Container_base@2@@Z$0
__ehfuncinfo$?_Adopt@_Iterator_base@std@@QAEXPBV_Container_base@2@@Z DD 019930522H
	DD	01H
	DD	FLAT:__unwindtable$?_Adopt@_Iterator_base@std@@QAEXPBV_Container_base@2@@Z
	DD	2 DUP(00H)
	DD	2 DUP(00H)
	DD	00H
	DD	01H
; Function compile flags: /Odtp /ZI
xdata$x	ENDS
;	COMDAT ?_Adopt@_Iterator_base@std@@QAEXPBV_Container_base@2@@Z
_TEXT	SEGMENT
__Lock$8746 = -20					; size = 4
_this$ = -16						; size = 4
__$EHRec$ = -12						; size = 12
__Parent$ = 8						; size = 4
?_Adopt@_Iterator_base@std@@QAEXPBV_Container_base@2@@Z PROC ; std::_Iterator_base::_Adopt, COMDAT
; _this$ = ecx

; 154  : 		{	// adopt this iterator by parent

	push	ebp
	mov	ebp, esp
	push	-1
	push	__ehhandler$?_Adopt@_Iterator_base@std@@QAEXPBV_Container_base@2@@Z
	mov	eax, DWORD PTR fs:0
	push	eax
	sub	esp, 72					; 00000048H
	push	ebx
	push	esi
	push	edi
	mov	eax, DWORD PTR ___security_cookie
	xor	eax, ebp
	push	eax
	lea	eax, DWORD PTR __$EHRec$[ebp]
	mov	DWORD PTR fs:0, eax
	mov	DWORD PTR _this$[ebp], ecx

; 155  : 		if (_Mycont != _Parent)

	mov	eax, DWORD PTR _this$[ebp]
	mov	ecx, DWORD PTR [eax]
	cmp	ecx, DWORD PTR __Parent$[ebp]
	je	SHORT $LN3@Adopt

; 156  : 			{	// change parentage
; 157  : 			_Lockit _Lock(_LOCK_DEBUG);

	push	3
	lea	ecx, DWORD PTR __Lock$8746[ebp]
	call	DWORD PTR __imp_??0_Lockit@std@@QAE@H@Z
	mov	DWORD PTR __$EHRec$[ebp+8], 0

; 158  : 			_Orphan_me();

	mov	ecx, DWORD PTR _this$[ebp]
	call	?_Orphan_me@_Iterator_base@std@@QAEXXZ	; std::_Iterator_base::_Orphan_me

; 159  : 			if (_Parent != 0 && _Parent->_Myfirstiter != _IGNORE_MYITERLIST)

	cmp	DWORD PTR __Parent$[ebp], 0
	je	SHORT $LN1@Adopt
	mov	eax, DWORD PTR __Parent$[ebp]
	cmp	DWORD PTR [eax], -3			; fffffffdH
	je	SHORT $LN1@Adopt

; 160  : 				{	// switch to new parent
; 161  : 				_Mynextiter = _Parent->_Myfirstiter;

	mov	eax, DWORD PTR _this$[ebp]
	mov	ecx, DWORD PTR __Parent$[ebp]
	mov	edx, DWORD PTR [ecx]
	mov	DWORD PTR [eax+4], edx

; 162  : 				((_Container_base *)_Parent)->_Myfirstiter = this;

	mov	eax, DWORD PTR __Parent$[ebp]
	mov	ecx, DWORD PTR _this$[ebp]
	mov	DWORD PTR [eax], ecx
$LN1@Adopt:

; 163  : 				}
; 164  : 			_Mycont = _Parent;

	mov	eax, DWORD PTR _this$[ebp]
	mov	ecx, DWORD PTR __Parent$[ebp]
	mov	DWORD PTR [eax], ecx

; 165  : 			}

	mov	DWORD PTR __$EHRec$[ebp+8], -1
	lea	ecx, DWORD PTR __Lock$8746[ebp]
	call	DWORD PTR __imp_??1_Lockit@std@@QAE@XZ
$LN3@Adopt:

; 166  : 		}

	mov	ecx, DWORD PTR __$EHRec$[ebp]
	mov	DWORD PTR fs:0, ecx
	pop	ecx
	pop	edi
	pop	esi
	pop	ebx
	mov	esp, ebp
	pop	ebp
	ret	4
_TEXT	ENDS
;	COMDAT text$x
text$x	SEGMENT
__unwindfunclet$?_Adopt@_Iterator_base@std@@QAEXPBV_Container_base@2@@Z$0:
	lea	ecx, DWORD PTR __Lock$8746[ebp]
	jmp	DWORD PTR __imp_??1_Lockit@std@@QAE@XZ
__ehhandler$?_Adopt@_Iterator_base@std@@QAEXPBV_Container_base@2@@Z:
	mov	edx, DWORD PTR [esp+8]
	lea	eax, DWORD PTR [edx+12]
	mov	ecx, DWORD PTR [edx-88]
	xor	ecx, eax
	call	@__security_check_cookie@4
	mov	eax, OFFSET __ehfuncinfo$?_Adopt@_Iterator_base@std@@QAEXPBV_Container_base@2@@Z
	jmp	___CxxFrameHandler3
text$x	ENDS
?_Adopt@_Iterator_base@std@@QAEXPBV_Container_base@2@@Z ENDP ; std::_Iterator_base::_Adopt
PUBLIC	??0_Iterator_base@std@@QAE@XZ			; std::_Iterator_base::_Iterator_base
; Function compile flags: /Odtp /ZI
;	COMDAT ??0?$_Ranit@HHPBHABH@std@@QAE@XZ
_TEXT	SEGMENT
_this$ = -4						; size = 4
??0?$_Ranit@HHPBHABH@std@@QAE@XZ PROC			; std::_Ranit<int,int,int const *,int const &>::_Ranit<int,int,int const *,int const &>, COMDAT
; _this$ = ecx
	push	ebp
	mov	ebp, esp
	sub	esp, 68					; 00000044H
	push	ebx
	push	esi
	push	edi
	mov	DWORD PTR _this$[ebp], ecx
	mov	ecx, DWORD PTR _this$[ebp]
	call	??0_Iterator_base@std@@QAE@XZ		; std::_Iterator_base::_Iterator_base
	mov	eax, DWORD PTR _this$[ebp]
	pop	edi
	pop	esi
	pop	ebx
	mov	esp, ebp
	pop	ebp
	ret	0
??0?$_Ranit@HHPBHABH@std@@QAE@XZ ENDP			; std::_Ranit<int,int,int const *,int const &>::_Ranit<int,int,int const *,int const &>
; Function compile flags: /Odtp /ZI
_TEXT	ENDS
;	COMDAT ??0_Iterator_base@std@@QAE@XZ
_TEXT	SEGMENT
_this$ = -4						; size = 4
??0_Iterator_base@std@@QAE@XZ PROC			; std::_Iterator_base::_Iterator_base, COMDAT
; _this$ = ecx

; 127  : 		{	// construct orphaned iterator

	push	ebp
	mov	ebp, esp
	sub	esp, 68					; 00000044H
	push	ebx
	push	esi
	push	edi
	mov	DWORD PTR _this$[ebp], ecx
	mov	eax, DWORD PTR _this$[ebp]
	mov	DWORD PTR [eax], 0
	mov	eax, DWORD PTR _this$[ebp]
	mov	DWORD PTR [eax+4], 0

; 128  : 		}

	mov	eax, DWORD PTR _this$[ebp]
	pop	edi
	pop	esi
	pop	ebx
	mov	esp, ebp
	pop	ebp
	ret	0
??0_Iterator_base@std@@QAE@XZ ENDP			; std::_Iterator_base::_Iterator_base
_TEXT	ENDS
PUBLIC	?allocate@?$K2VectorAllocator@H@@QAEPAHI@Z	; K2VectorAllocator<int>::allocate
PUBLIC	?_Xlen@?$vector@HV?$K2VectorAllocator@H@@@std@@KAXXZ ; std::vector<int,K2VectorAllocator<int> >::_Xlen
PUBLIC	?max_size@?$vector@HV?$K2VectorAllocator@H@@@std@@QBEIXZ ; std::vector<int,K2VectorAllocator<int> >::max_size
; Function compile flags: /Odtp /ZI
; File c:\program files\microsoft visual studio 8\vc\include\vector
;	COMDAT ?_Buy@?$vector@HV?$K2VectorAllocator@H@@@std@@IAE_NI@Z
_TEXT	SEGMENT
_this$ = -4						; size = 4
__Capacity$ = 8						; size = 4
?_Buy@?$vector@HV?$K2VectorAllocator@H@@@std@@IAE_NI@Z PROC ; std::vector<int,K2VectorAllocator<int> >::_Buy, COMDAT
; _this$ = ecx

; 1066 : 		{	// allocate array with _Capacity elements

	push	ebp
	mov	ebp, esp
	sub	esp, 68					; 00000044H
	push	ebx
	push	esi
	push	edi
	mov	DWORD PTR _this$[ebp], ecx

; 1067 : 		_Myfirst = 0, _Mylast = 0, _Myend = 0;

	mov	eax, DWORD PTR _this$[ebp]
	mov	DWORD PTR [eax+8], 0
	mov	ecx, DWORD PTR _this$[ebp]
	mov	DWORD PTR [ecx+12], 0
	mov	edx, DWORD PTR _this$[ebp]
	mov	DWORD PTR [edx+16], 0

; 1068 : 		if (_Capacity == 0)

	cmp	DWORD PTR __Capacity$[ebp], 0
	jne	SHORT $LN4@Buy

; 1069 : 			return (false);

	xor	al, al
	jmp	SHORT $LN5@Buy
	jmp	SHORT $LN3@Buy
$LN4@Buy:

; 1070 : 		else if (max_size() < _Capacity)

	mov	ecx, DWORD PTR _this$[ebp]
	call	?max_size@?$vector@HV?$K2VectorAllocator@H@@@std@@QBEIXZ ; std::vector<int,K2VectorAllocator<int> >::max_size
	cmp	eax, DWORD PTR __Capacity$[ebp]
	jae	SHORT $LN2@Buy

; 1071 : 			_Xlen();	// result too long

	call	?_Xlen@?$vector@HV?$K2VectorAllocator@H@@@std@@KAXXZ ; std::vector<int,K2VectorAllocator<int> >::_Xlen

; 1072 : 		else

	jmp	SHORT $LN3@Buy
$LN2@Buy:

; 1073 : 			{	// nonempty array, allocate storage
; 1074 : 			_Myfirst = this->_Alval.allocate(_Capacity);

	mov	eax, DWORD PTR __Capacity$[ebp]
	push	eax
	mov	ecx, DWORD PTR _this$[ebp]
	add	ecx, 4
	call	?allocate@?$K2VectorAllocator@H@@QAEPAHI@Z ; K2VectorAllocator<int>::allocate
	mov	ecx, DWORD PTR _this$[ebp]
	mov	DWORD PTR [ecx+8], eax

; 1075 : 			_Mylast = _Myfirst;

	mov	eax, DWORD PTR _this$[ebp]
	mov	ecx, DWORD PTR _this$[ebp]
	mov	edx, DWORD PTR [ecx+8]
	mov	DWORD PTR [eax+12], edx

; 1076 : 			_Myend = _Myfirst + _Capacity;

	mov	eax, DWORD PTR _this$[ebp]
	mov	ecx, DWORD PTR [eax+8]
	mov	edx, DWORD PTR __Capacity$[ebp]
	lea	eax, DWORD PTR [ecx+edx*4]
	mov	ecx, DWORD PTR _this$[ebp]
	mov	DWORD PTR [ecx+16], eax
$LN3@Buy:

; 1077 : 			}
; 1078 : 		return (true);

	mov	al, 1
$LN5@Buy:

; 1079 : 		}

	pop	edi
	pop	esi
	pop	ebx
	mov	esp, ebp
	pop	ebp
	ret	4
?_Buy@?$vector@HV?$K2VectorAllocator@H@@@std@@IAE_NI@Z ENDP ; std::vector<int,K2VectorAllocator<int> >::_Buy
_TEXT	ENDS
PUBLIC	??$unchecked_uninitialized_fill_n@PAHIHV?$K2VectorAllocator@H@@@stdext@@YAXPAHIABHAAV?$K2VectorAllocator@H@@@Z ; stdext::unchecked_uninitialized_fill_n<int *,unsigned int,int,K2VectorAllocator<int> >
; Function compile flags: /Odtp /ZI
;	COMDAT ?_Ufill@?$vector@HV?$K2VectorAllocator@H@@@std@@IAEPAHPAHIABH@Z
_TEXT	SEGMENT
_this$ = -4						; size = 4
__Ptr$ = 8						; size = 4
__Count$ = 12						; size = 4
__Val$ = 16						; size = 4
?_Ufill@?$vector@HV?$K2VectorAllocator@H@@@std@@IAEPAHPAHIABH@Z PROC ; std::vector<int,K2VectorAllocator<int> >::_Ufill, COMDAT
; _this$ = ecx

; 1207 : 		{	// copy initializing _Count * _Val, using allocator

	push	ebp
	mov	ebp, esp
	sub	esp, 68					; 00000044H
	push	ebx
	push	esi
	push	edi
	mov	DWORD PTR _this$[ebp], ecx

; 1208 : 		_STDEXT unchecked_uninitialized_fill_n(_Ptr, _Count, _Val, this->_Alval);

	mov	eax, DWORD PTR _this$[ebp]
	add	eax, 4
	push	eax
	mov	ecx, DWORD PTR __Val$[ebp]
	push	ecx
	mov	edx, DWORD PTR __Count$[ebp]
	push	edx
	mov	eax, DWORD PTR __Ptr$[ebp]
	push	eax
	call	??$unchecked_uninitialized_fill_n@PAHIHV?$K2VectorAllocator@H@@@stdext@@YAXPAHIABHAAV?$K2VectorAllocator@H@@@Z ; stdext::unchecked_uninitialized_fill_n<int *,unsigned int,int,K2VectorAllocator<int> >
	add	esp, 16					; 00000010H

; 1209 : 		return (_Ptr + _Count);

	mov	eax, DWORD PTR __Count$[ebp]
	mov	ecx, DWORD PTR __Ptr$[ebp]
	lea	eax, DWORD PTR [ecx+eax*4]

; 1210 : 		}

	pop	edi
	pop	esi
	pop	ebx
	mov	esp, ebp
	pop	ebp
	ret	12					; 0000000cH
?_Ufill@?$vector@HV?$K2VectorAllocator@H@@@std@@IAEPAHPAHIABH@Z ENDP ; std::vector<int,K2VectorAllocator<int> >::_Ufill
_TEXT	ENDS
PUBLIC	??0?$allocator@H@std@@QAE@ABV01@@Z		; std::allocator<int>::allocator<int>
; Function compile flags: /Odtp /ZI
; File c:\code\hon\src\k2\k2_stl_allocator.h
;	COMDAT ??0?$K2VectorAllocator@H@@QAE@ABV0@@Z
_TEXT	SEGMENT
_this$ = -4						; size = 4
_al$ = 8						; size = 4
??0?$K2VectorAllocator@H@@QAE@ABV0@@Z PROC		; K2VectorAllocator<int>::K2VectorAllocator<int>, COMDAT
; _this$ = ecx

; 126  : 	K2VectorAllocator(const K2VectorAllocator &al) : std::allocator<T>(al) {}

	push	ebp
	mov	ebp, esp
	sub	esp, 68					; 00000044H
	push	ebx
	push	esi
	push	edi
	mov	DWORD PTR _this$[ebp], ecx
	mov	eax, DWORD PTR _al$[ebp]
	push	eax
	mov	ecx, DWORD PTR _this$[ebp]
	call	??0?$allocator@H@std@@QAE@ABV01@@Z	; std::allocator<int>::allocator<int>
	mov	eax, DWORD PTR _this$[ebp]
	pop	edi
	pop	esi
	pop	ebx
	mov	esp, ebp
	pop	ebp
	ret	4
??0?$K2VectorAllocator@H@@QAE@ABV0@@Z ENDP		; K2VectorAllocator<int>::K2VectorAllocator<int>
; Function compile flags: /Odtp /ZI
; File c:\program files\microsoft visual studio 8\vc\include\xmemory
_TEXT	ENDS
;	COMDAT ??0?$allocator@H@std@@QAE@XZ
_TEXT	SEGMENT
_this$ = -4						; size = 4
??0?$allocator@H@std@@QAE@XZ PROC			; std::allocator<int>::allocator<int>, COMDAT
; _this$ = ecx

; 120  : 	allocator() _THROW0()

	push	ebp
	mov	ebp, esp
	sub	esp, 68					; 00000044H
	push	ebx
	push	esi
	push	edi
	mov	DWORD PTR _this$[ebp], ecx

; 121  : 		{	// construct default allocator (do nothing)
; 122  : 		}

	mov	eax, DWORD PTR _this$[ebp]
	pop	edi
	pop	esi
	pop	ebx
	mov	esp, ebp
	pop	ebp
	ret	0
??0?$allocator@H@std@@QAE@XZ ENDP			; std::allocator<int>::allocator<int>
_TEXT	ENDS
PUBLIC	?max_size@?$allocator@H@std@@QBEIXZ		; std::allocator<int>::max_size
; Function compile flags: /Odtp /ZI
; File c:\program files\microsoft visual studio 8\vc\include\vector
;	COMDAT ?max_size@?$vector@HV?$K2VectorAllocator@H@@@std@@QBEIXZ
_TEXT	SEGMENT
_this$ = -4						; size = 4
?max_size@?$vector@HV?$K2VectorAllocator@H@@@std@@QBEIXZ PROC ; std::vector<int,K2VectorAllocator<int> >::max_size, COMDAT
; _this$ = ecx

; 707  : 		{	// return maximum possible length of sequence

	push	ebp
	mov	ebp, esp
	sub	esp, 68					; 00000044H
	push	ebx
	push	esi
	push	edi
	mov	DWORD PTR _this$[ebp], ecx

; 708  : 		return (this->_Alval.max_size());

	mov	ecx, DWORD PTR _this$[ebp]
	add	ecx, 4
	call	?max_size@?$allocator@H@std@@QBEIXZ	; std::allocator<int>::max_size

; 709  : 		}

	pop	edi
	pop	esi
	pop	ebx
	mov	esp, ebp
	pop	ebp
	ret	0
?max_size@?$vector@HV?$K2VectorAllocator@H@@@std@@QBEIXZ ENDP ; std::vector<int,K2VectorAllocator<int> >::max_size
_TEXT	ENDS
PUBLIC	__TI3?AVlength_error@std@@
PUBLIC	??0length_error@std@@QAE@ABV?$basic_string@DU?$char_traits@D@std@@V?$allocator@D@2@@1@@Z ; std::length_error::length_error
PUBLIC	??_C@_0BD@OLBABOEK@vector?$DMT?$DO?5too?5long?$AA@ ; `string'
PUBLIC	??1length_error@std@@UAE@XZ			; std::length_error::~length_error
PUBLIC	__CTA3?AVlength_error@std@@
PUBLIC	__CT??_R0?AVlength_error@std@@@8??0length_error@std@@QAE@ABV01@@Z44
PUBLIC	??_R0?AVlength_error@std@@@8			; std::length_error `RTTI Type Descriptor'
PUBLIC	??0length_error@std@@QAE@ABV01@@Z		; std::length_error::length_error
PUBLIC	__CT??_R0?AVlogic_error@std@@@8??0logic_error@std@@QAE@ABV01@@Z44
PUBLIC	??_R0?AVlogic_error@std@@@8			; std::logic_error `RTTI Type Descriptor'
PUBLIC	??0logic_error@std@@QAE@ABV01@@Z		; std::logic_error::logic_error
PUBLIC	__CT??_R0?AVexception@std@@@8??0exception@std@@QAE@ABV01@@Z12
PUBLIC	??_R0?AVexception@std@@@8			; std::exception `RTTI Type Descriptor'
EXTRN	__imp_??1?$basic_string@DU?$char_traits@D@std@@V?$allocator@D@2@@std@@QAE@XZ:PROC
EXTRN	__imp_??0?$basic_string@DU?$char_traits@D@std@@V?$allocator@D@2@@std@@QAE@PBD@Z:PROC
EXTRN	??0exception@std@@QAE@ABV01@@Z:PROC		; std::exception::exception
;	COMDAT ??_R0?AVexception@std@@@8
_DATA	SEGMENT
??_R0?AVexception@std@@@8 DD FLAT:??_7type_info@@6B@	; std::exception `RTTI Type Descriptor'
	DD	00H
	DB	'.?AVexception@std@@', 00H
_DATA	ENDS
;	COMDAT __CT??_R0?AVexception@std@@@8??0exception@std@@QAE@ABV01@@Z12
xdata$x	SEGMENT
__CT??_R0?AVexception@std@@@8??0exception@std@@QAE@ABV01@@Z12 DD 00H
	DD	FLAT:??_R0?AVexception@std@@@8
	DD	00H
	DD	0ffffffffH
	ORG $+4
	DD	0cH
	DD	FLAT:??0exception@std@@QAE@ABV01@@Z
xdata$x	ENDS
;	COMDAT ??_R0?AVlogic_error@std@@@8
_DATA	SEGMENT
??_R0?AVlogic_error@std@@@8 DD FLAT:??_7type_info@@6B@	; std::logic_error `RTTI Type Descriptor'
	DD	00H
	DB	'.?AVlogic_error@std@@', 00H
_DATA	ENDS
;	COMDAT __CT??_R0?AVlogic_error@std@@@8??0logic_error@std@@QAE@ABV01@@Z44
xdata$x	SEGMENT
__CT??_R0?AVlogic_error@std@@@8??0logic_error@std@@QAE@ABV01@@Z44 DD 00H
	DD	FLAT:??_R0?AVlogic_error@std@@@8
	DD	00H
	DD	0ffffffffH
	ORG $+4
	DD	02cH
	DD	FLAT:??0logic_error@std@@QAE@ABV01@@Z
xdata$x	ENDS
;	COMDAT ??_R0?AVlength_error@std@@@8
_DATA	SEGMENT
??_R0?AVlength_error@std@@@8 DD FLAT:??_7type_info@@6B@	; std::length_error `RTTI Type Descriptor'
	DD	00H
	DB	'.?AVlength_error@std@@', 00H
_DATA	ENDS
;	COMDAT __CT??_R0?AVlength_error@std@@@8??0length_error@std@@QAE@ABV01@@Z44
xdata$x	SEGMENT
__CT??_R0?AVlength_error@std@@@8??0length_error@std@@QAE@ABV01@@Z44 DD 00H
	DD	FLAT:??_R0?AVlength_error@std@@@8
	DD	00H
	DD	0ffffffffH
	ORG $+4
	DD	02cH
	DD	FLAT:??0length_error@std@@QAE@ABV01@@Z
xdata$x	ENDS
;	COMDAT __CTA3?AVlength_error@std@@
xdata$x	SEGMENT
__CTA3?AVlength_error@std@@ DD 03H
	DD	FLAT:__CT??_R0?AVlength_error@std@@@8??0length_error@std@@QAE@ABV01@@Z44
	DD	FLAT:__CT??_R0?AVlogic_error@std@@@8??0logic_error@std@@QAE@ABV01@@Z44
	DD	FLAT:__CT??_R0?AVexception@std@@@8??0exception@std@@QAE@ABV01@@Z12
xdata$x	ENDS
;	COMDAT __TI3?AVlength_error@std@@
xdata$x	SEGMENT
__TI3?AVlength_error@std@@ DD 00H
	DD	FLAT:??1length_error@std@@UAE@XZ
	DD	00H
	DD	FLAT:__CTA3?AVlength_error@std@@
xdata$x	ENDS
;	COMDAT ??_C@_0BD@OLBABOEK@vector?$DMT?$DO?5too?5long?$AA@
CONST	SEGMENT
??_C@_0BD@OLBABOEK@vector?$DMT?$DO?5too?5long?$AA@ DB 'vector<T> too long'
	DB	00H						; `string'
CONST	ENDS
;	COMDAT xdata$x
xdata$x	SEGMENT
__unwindtable$?_Xlen@?$vector@HV?$K2VectorAllocator@H@@@std@@KAXXZ DD 0ffffffffH
	DD	FLAT:__unwindfunclet$?_Xlen@?$vector@HV?$K2VectorAllocator@H@@@std@@KAXXZ$0
__ehfuncinfo$?_Xlen@?$vector@HV?$K2VectorAllocator@H@@@std@@KAXXZ DD 019930522H
	DD	01H
	DD	FLAT:__unwindtable$?_Xlen@?$vector@HV?$K2VectorAllocator@H@@@std@@KAXXZ
	DD	2 DUP(00H)
	DD	2 DUP(00H)
	DD	00H
	DD	01H
; Function compile flags: /Odtp /ZI
xdata$x	ENDS
;	COMDAT ?_Xlen@?$vector@HV?$K2VectorAllocator@H@@@std@@KAXXZ
_TEXT	SEGMENT
$T121910 = -152						; size = 44
$T121911 = -108						; size = 32
__$EHRec$ = -12						; size = 12
?_Xlen@?$vector@HV?$K2VectorAllocator@H@@@std@@KAXXZ PROC ; std::vector<int,K2VectorAllocator<int> >::_Xlen, COMDAT

; 1213 : 		{	// report a length_error

	push	ebp
	mov	ebp, esp
	push	-1
	push	__ehhandler$?_Xlen@?$vector@HV?$K2VectorAllocator@H@@@std@@KAXXZ
	mov	eax, DWORD PTR fs:0
	push	eax
	sub	esp, 140				; 0000008cH
	push	ebx
	push	esi
	push	edi
	mov	eax, DWORD PTR ___security_cookie
	xor	eax, ebp
	push	eax
	lea	eax, DWORD PTR __$EHRec$[ebp]
	mov	DWORD PTR fs:0, eax

; 1214 : 		_THROW(length_error, "vector<T> too long");

	push	OFFSET ??_C@_0BD@OLBABOEK@vector?$DMT?$DO?5too?5long?$AA@
	lea	ecx, DWORD PTR $T121911[ebp]
	call	DWORD PTR __imp_??0?$basic_string@DU?$char_traits@D@std@@V?$allocator@D@2@@std@@QAE@PBD@Z
	mov	DWORD PTR __$EHRec$[ebp+8], 0
	lea	eax, DWORD PTR $T121911[ebp]
	push	eax
	lea	ecx, DWORD PTR $T121910[ebp]
	call	??0length_error@std@@QAE@ABV?$basic_string@DU?$char_traits@D@std@@V?$allocator@D@2@@1@@Z ; std::length_error::length_error
	push	OFFSET __TI3?AVlength_error@std@@
	lea	ecx, DWORD PTR $T121910[ebp]
	push	ecx
	call	__CxxThrowException@8
	mov	DWORD PTR __$EHRec$[ebp+8], -1
	lea	ecx, DWORD PTR $T121911[ebp]
	call	DWORD PTR __imp_??1?$basic_string@DU?$char_traits@D@std@@V?$allocator@D@2@@std@@QAE@XZ
$LN2@Xlen:

; 1215 : 		}

	mov	ecx, DWORD PTR __$EHRec$[ebp]
	mov	DWORD PTR fs:0, ecx
	pop	ecx
	pop	edi
	pop	esi
	pop	ebx
	mov	esp, ebp
	pop	ebp
	ret	0
_TEXT	ENDS
;	COMDAT text$x
text$x	SEGMENT
__unwindfunclet$?_Xlen@?$vector@HV?$K2VectorAllocator@H@@@std@@KAXXZ$0:
	lea	ecx, DWORD PTR $T121911[ebp]
	jmp	DWORD PTR __imp_??1?$basic_string@DU?$char_traits@D@std@@V?$allocator@D@2@@std@@QAE@XZ
__ehhandler$?_Xlen@?$vector@HV?$K2VectorAllocator@H@@@std@@KAXXZ:
	mov	edx, DWORD PTR [esp+8]
	lea	eax, DWORD PTR [edx+12]
	mov	ecx, DWORD PTR [edx-156]
	xor	ecx, eax
	call	@__security_check_cookie@4
	mov	eax, OFFSET __ehfuncinfo$?_Xlen@?$vector@HV?$K2VectorAllocator@H@@@std@@KAXXZ
	jmp	___CxxFrameHandler3
text$x	ENDS
?_Xlen@?$vector@HV?$K2VectorAllocator@H@@@std@@KAXXZ ENDP ; std::vector<int,K2VectorAllocator<int> >::_Xlen
PUBLIC	??_7length_error@std@@6B@			; std::length_error::`vftable'
PUBLIC	??0logic_error@std@@QAE@ABV?$basic_string@DU?$char_traits@D@std@@V?$allocator@D@2@@1@@Z ; std::logic_error::logic_error
PUBLIC	?what@logic_error@std@@UBEPBDXZ			; std::logic_error::what
EXTRN	??_Elength_error@std@@UAEPAXI@Z:PROC		; std::length_error::`vector deleting destructor'
;	COMDAT ??_7length_error@std@@6B@
; File c:\program files\microsoft visual studio 8\vc\include\stdexcept
CONST	SEGMENT
??_7length_error@std@@6B@ DD FLAT:??_Elength_error@std@@UAEPAXI@Z ; std::length_error::`vftable'
	DD	FLAT:?what@logic_error@std@@UBEPBDXZ
; Function compile flags: /Odtp /ZI
CONST	ENDS
;	COMDAT ??0length_error@std@@QAE@ABV?$basic_string@DU?$char_traits@D@std@@V?$allocator@D@2@@1@@Z
_TEXT	SEGMENT
_this$ = -4						; size = 4
__Message$ = 8						; size = 4
??0length_error@std@@QAE@ABV?$basic_string@DU?$char_traits@D@std@@V?$allocator@D@2@@1@@Z PROC ; std::length_error::length_error, COMDAT
; _this$ = ecx

; 106  : 		{	// construct from message string

	push	ebp
	mov	ebp, esp
	sub	esp, 68					; 00000044H
	push	ebx
	push	esi
	push	edi
	mov	DWORD PTR _this$[ebp], ecx
	mov	eax, DWORD PTR __Message$[ebp]
	push	eax
	mov	ecx, DWORD PTR _this$[ebp]
	call	??0logic_error@std@@QAE@ABV?$basic_string@DU?$char_traits@D@std@@V?$allocator@D@2@@1@@Z ; std::logic_error::logic_error
	mov	eax, DWORD PTR _this$[ebp]
	mov	DWORD PTR [eax], OFFSET ??_7length_error@std@@6B@

