 cgame_debug

 Timestamp is 4dfdae7f (Sun Jun 19 03:08:31 2011)

 Preferred load address is 19000000

 Start         Length     Name                   Class
 0001:00000000 000897b8H .textbss                DATA
 0002:00000000 000ef5faH .text                   CODE
 0002:000ef600 0001920aH .text$x                 CODE
 0002:00108810 000132b2H .text$yc                CODE
 0002:0011bad0 000054daH .text$yd                CODE
 0003:00000000 00000104H .CRT$XCA                DATA
 0003:00000104 00000916H .CRT$XCU                DATA
 0003:00000a1c 00000104H .CRT$XCZ                DATA
 0003:00000b20 00000104H .CRT$XIA                DATA
 0003:00000c24 00000104H .CRT$XIAA               DATA
 0003:00000d28 00000104H .CRT$XIC                DATA
 0003:00000e2c 00000104H .CRT$XIZ                DATA
 0003:00000f30 00019e54H .rdata                  DATA
 0003:0001ad84 00000158H .rdata$debug            DATA
 0003:0001aedc 00000156H .rdata$r                DATA
 0003:0001b034 00000104H .rtc$IAA                DATA
 0003:0001b138 00000104H .rtc$IZZ                DATA
 0003:0001b23c 00000104H .rtc$TAA                DATA
 0003:0001b340 00000104H .rtc$TZZ                DATA
 0003:0001b448 0001869aH .xdata$x                DATA
 0003:00033af0 0000015dH .edata                  DATA
 0004:00000000 000009c7H .data                   DATA
 0004:000009c8 00015108H .bss                    DATA
 0005:00000000 00000064H .idata$2                DATA
 0005:00000064 00000014H .idata$3                DATA
 0005:00000078 000009ccH .idata$4                DATA
 0005:00000a44 000009ccH .idata$5                DATA
 0005:00001410 00007647H .idata$6                DATA
 0006:00000000 00000169H .rsrc$01                DATA
 0006:00000170 00000a99H .rsrc$02                DATA

  Address         Publics by Value              Rva+Base       Lib:Object

 0000:00000000       ___safe_se_handler_table   00000000     <absolute>
 0000:00000000       __except_list              00000000     <absolute>
 0000:00000000       ___safe_se_handler_count   00000000     <absolute>
 0000:00009876       __ldused                   00009876     <absolute>
 0000:00009876       __fltused                  00009876     <absolute>
 0000:00000000       ___ImageBase               19000000     <linker-defined>
 0001:00000000       __enc$textbss$begin        19001000     <linker-defined>
 0001:000897b8       __enc$textbss$end          1908a7b8     <linker-defined>
 0002:00009dc0       ??0CBlockerTool@@QAE@XZ    19094dc0 f   c_blockertool.obj
 0002:0000a010       ??0ITool@@QAE@W4EToolID@@ABV?$basic_string@_WU?$char_traits@_W@std@@V?$K2StringAllocator@_W@@@std@@@Z 19095010 f i c_blockertool.obj
 0002:0000a090       ??1ITool@@UAE@XZ           19095090 f i c_blockertool.obj
 0002:0000a0c0       ?Enter@ITool@@UAEXXZ       190950c0 f i c_blockertool.obj
 0002:0000a0e0       ?Leave@ITool@@UAEXXZ       190950e0 f i c_blockertool.obj
 0002:0000a100       ?Render@ITool@@UAEXXZ      19095100 f i c_blockertool.obj
 0002:0000a120       ?Draw@ITool@@UAEXXZ        19095120 f i c_blockertool.obj
 0002:0000a140       ??_GITool@@UAEPAXI@Z       19095140 f i c_blockertool.obj
 0002:0000a140       ??_EITool@@UAEPAXI@Z       19095140 f i c_blockertool.obj
 0002:0000a190       ??_GCBlockerTool@@UAEPAXI@Z 19095190 f i c_blockertool.obj
 0002:0000a190       ??_ECBlockerTool@@UAEPAXI@Z 19095190 f i c_blockertool.obj
 0002:0000a1e0       ??1CBlockerTool@@UAE@XZ    190951e0 f i c_blockertool.obj
 0002:0000a210       ?PrimaryUp@CBlockerTool@@UAEXXZ 19095210 f   c_blockertool.obj
 0002:0000a240       ?PrimaryDown@CBlockerTool@@UAEXXZ 19095240 f   c_blockertool.obj
 0002:0000a270       ?SecondaryUp@CBlockerTool@@UAEXXZ 19095270 f   c_blockertool.obj
 0002:0000a2a0       ?SecondaryDown@CBlockerTool@@UAEXXZ 190952a0 f   c_blockertool.obj
 0002:0000a2e0       ?TertiaryUp@CBlockerTool@@UAEXXZ 190952e0 f   c_blockertool.obj
 0002:0000a300       ?TertiaryDown@CBlockerTool@@UAEXXZ 19095300 f   c_blockertool.obj
 0002:0000a320       ?QuaternaryUp@CBlockerTool@@UAEXXZ 19095320 f   c_blockertool.obj
 0002:0000a340       ?QuaternaryDown@CBlockerTool@@UAEXXZ 19095340 f   c_blockertool.obj
 0002:0000a360       ?Cancel@CBlockerTool@@UAEXXZ 19095360 f   c_blockertool.obj
 0002:0000a380       ?Delete@CBlockerTool@@UAEXXZ 19095380 f   c_blockertool.obj
 0002:0000a3a0       ?CalcToolProperties@CBlockerTool@@QAEXXZ 190953a0 f   c_blockertool.obj
 0002:0000a670       ??0STraceInfo@@QAE@XZ      19095670 f i c_blockertool.obj
 0002:0000a6b0       ?VisBlockerModify@CBlockerTool@@CAXPAEABV?$CRect@H@@ABVCBrush@@_N@Z 190956b0 f   c_blockertool.obj
 0002:0000a820       ??ACBrush@@QBEEH@Z         19095820 f i c_blockertool.obj
 0002:0000a850       ?GetBrushSize@CBrush@@QBEHXZ 19095850 f i c_blockertool.obj
 0002:0000a870       ?BlockerModify@CBlockerTool@@CAXPAEABV?$CRect@H@@ABVCBrush@@_N@Z 19095870 f   c_blockertool.obj
 0002:0000a9e0       ?PaintVisBlocker@CBlockerTool@@QAEXM@Z 190959e0 f   c_blockertool.obj
 0002:0000aeb0       ?BlockerTerrain@CBlockerTool@@QAEXM@Z 19095eb0 f   c_blockertool.obj
 0002:0000b380       ?Frame@CBlockerTool@@UAEXM@Z 19096380 f   c_blockertool.obj
 0002:0000b410       ?Draw@CBlockerTool@@UAEXXZ 19096410 f   c_blockertool.obj
 0002:0000b6f0       ?SetColor@CDraw2D@@QAEXMMM@Z 190966f0 f i c_blockertool.obj
 0002:0000b750       ?GetMaxHeight@CFontMap@@QBEMXZ 19096750 f i c_blockertool.obj
 0002:0000b780       ?Render@CBlockerTool@@UAEXXZ 19096780 f   c_blockertool.obj
 0002:0000ee50       ??0SSceneFaceVert@@QAE@XZ  19099e50 f i c_blockertool.obj
 0002:0000eea0       ?uiSetBlockerModeFn@@YA?AV?$basic_string@_WU?$char_traits@_W@std@@V?$K2StringAllocator@_W@@@std@@PAVIWidget@@ABV?$vector@PAVCUIScriptToken@@V?$K2VectorAllocator@PAVCUIScriptToken@@@@@@@Z 19099ea0 f   c_blockertool.obj
 0002:0000ef00       ?uiSetBlockerModeVoidFn@@YAXPAVIWidget@@ABV?$vector@PAVCUIScriptToken@@V?$K2VectorAllocator@PAVCUIScriptToken@@@@@@@Z 19099f00 f   c_blockertool.obj
 0002:0000f120       ??1?$CRect@H@@QAE@XZ       1909a120 f i c_blockertool.obj
 0002:0000f140       ??0?$CRect@H@@QAE@XZ       1909a140 f i c_blockertool.obj
 0002:0000f190       ?GetWidth@?$CRect@H@@QBEHXZ 1909a190 f i c_blockertool.obj
 0002:0000f1c0       ?GetHeight@?$CRect@H@@QBEHXZ 1909a1c0 f i c_blockertool.obj
 0002:0000f1f0       ?GetArea@?$CRect@H@@QBEHXZ 1909a1f0 f i c_blockertool.obj
 0002:0000f230       ?Shift@?$CRect@H@@QAEXHH@Z 1909a230 f i c_blockertool.obj
 0002:0000f2a0       ??4?$CCvar@HH@@QAEHABH@Z   1909a2a0 f i c_blockertool.obj
 0002:0000f2f0       ??0?$CVec4@E@@QAE@XZ       1909a2f0 f i c_blockertool.obj
 0002:0000f310       ??A?$CVec4@E@@QAEAAEH@Z    1909a310 f i c_blockertool.obj
 0002:0000f340       ?Set@CMemManager@@SAPAXPAXEI@Z 1909a340 f i c_blockertool.obj
 0002:0000f370       ?INT_ROUND@@YAHM@Z         1909a370 f i c_blockertool.obj
 0002:0000f3d0       ?INT_FLOOR@@YAHM@Z         1909a3d0 f i c_blockertool.obj
 0002:0000f3f0       ?INT_CEIL@@YAHM@Z          1909a3f0 f i c_blockertool.obj
 0002:0000f420       ?ceil@@YAMM@Z              1909a420 f i c_blockertool.obj
 0002:0000f450       _ceilf                     1909a450 f i c_blockertool.obj
 0002:0000f490       ??_H@YGXPAXIHP6EPAX0@Z@Z   1909a490 f i c_blockertool.obj
 0002:0000f4d0       ??0CPlane@@QAE@XZ          1909a4d0 f i c_blockertool.obj
 0002:0000f500       ??6CConsoleStream@@QAEAAV0@ABV?$basic_string@_WU?$char_traits@_W@std@@V?$K2StringAllocator@_W@@@std@@@Z 1909a500 f i c_blockertool.obj
 0002:0000f530       ?AddOutputHistory@CConsoleStream@@AAEXABV?$basic_string@_WU?$char_traits@_W@std@@V?$K2StringAllocator@_W@@@std@@@Z 1909a530 f i c_blockertool.obj
 0002:0000f560       ?GetNewl@CConsole@@QBEABV?$basic_string@_WU?$char_traits@_W@std@@V?$K2StringAllocator@_W@@@std@@XZ 1909a560 f i c_blockertool.obj
 0002:0000f590       ??6CConsole@@QAEAAVCConsoleStream@@PB_W@Z 1909a590 f i c_blockertool.obj
 0002:0000f5c0       ??6CConsoleStream@@QAEAAV0@PB_W@Z 1909a5c0 f i c_blockertool.obj
 0002:0000f650       ?GetScale@CWorld@@QBEMXZ   1909a650 f i c_blockertool.obj
 0002:0000f680       ?GetGridWidth@CWorld@@QBEHXZ 1909a680 f i c_blockertool.obj
 0002:0000f6b0       ?GetGridHeight@CWorld@@QBEHXZ 1909a6b0 f i c_blockertool.obj
 0002:0000f6e0       ?GetTileWidth@CWorld@@QBEHXZ 1909a6e0 f i c_blockertool.obj
 0002:0000f710       ?GetTileHeight@CWorld@@QBEHXZ 1909a710 f i c_blockertool.obj
 0002:0000f740       ?GetGridPoint@CWorld@@QBEMHH@Z 1909a740 f i c_blockertool.obj
 0002:0000f780       ?GetHeightMap@CWorld@@QBEPAMXZ 1909a780 f i c_blockertool.obj
 0002:0000f7b0       ?GetHeightMap@CHeightMap@@QBEPAMXZ 1909a7b0 f i c_blockertool.obj
 0002:0000f7d0       ?GetSplitMap@CWorld@@QBEPAEXZ 1909a7d0 f i c_blockertool.obj
 0002:0000f800       ?GetSplitMap@CTileSplitMap@@QBEPAEXZ 1909a800 f i c_blockertool.obj
 0002:0000f820       ?GetBlockerMap@CWorld@@QBEPAEXZ 1909a820 f i c_blockertool.obj
 0002:0000f850       ?GetBlockerMap@CVertexBlockerMap@@QBEPAEXZ 1909a850 f i c_blockertool.obj
 0002:0000f870       ?GetVisBlockerMap@CWorld@@QBEPAEXZ 1909a870 f i c_blockertool.obj
 0002:0000f8a0       ?GetVisBlockerMap@CTileVisBlockerMap@@QBEPAEXZ 1909a8a0 f i c_blockertool.obj
 0002:0000f8c0       ?IsInBounds@CWorld@@QBE_NHHW4ESpaceType@@@Z 1909a8c0 f i c_blockertool.obj
 0002:0000f920       ?GetWorld@CEditor@@QAEAAVCWorld@@XZ 1909a920 f i c_blockertool.obj
 0002:0000f950       ??0?$basic_string@_WU?$char_traits@_W@std@@V?$K2StringAllocator@_W@@@std@@QAE@PB_W@Z 1909a950 f i c_blockertool.obj
 0002:0000fa00       ??0?$basic_string@_WU?$char_traits@_W@std@@V?$K2StringAllocator@_W@@@std@@QAE@ABV01@@Z 1909aa00 f i c_blockertool.obj
 0002:0000faa0       ??1?$basic_string@_WU?$char_traits@_W@std@@V?$K2StringAllocator@_W@@@std@@QAE@XZ 1909aaa0 f i c_blockertool.obj
 0002:0000fb20       ??B?$CCvar@HH@@QBEHXZ      1909ab20 f i c_blockertool.obj
 0002:0000fb50       ??B?$CCvar@MM@@QBEMXZ      1909ab50 f i c_blockertool.obj
 0002:0000fb80       ??B?$CCvar@_N_N@@QBE_NXZ   1909ab80 f i c_blockertool.obj
 0002:0000fbb0       ?size@?$vector@PAVCUIScriptToken@@V?$K2VectorAllocator@PAVCUIScriptToken@@@@@std@@QBEIXZ 1909abb0 f i c_blockertool.obj
 0002:0000fc00       ??A?$vector@PAVCUIScriptToken@@V?$K2VectorAllocator@PAVCUIScriptToken@@@@@std@@QBEABQAVCUIScriptToken@@I@Z 1909ac00 f i c_blockertool.obj
 0002:0000fd20       ??1?$_String_val@_WV?$K2StringAllocator@_W@@@std@@QAE@XZ 1909ad20 f i c_blockertool.obj
 0002:0000fda0       ?assign@?$basic_string@_WU?$char_traits@_W@std@@V?$K2StringAllocator@_W@@@std@@QAEAAV12@ABV12@II@Z 1909ada0 f i c_blockertool.obj
 0002:0000fe90       ?assign@?$basic_string@_WU?$char_traits@_W@std@@V?$K2StringAllocator@_W@@@std@@QAEAAV12@PB_W@Z 1909ae90 f i c_blockertool.obj
 0002:0000fed0       ?_Tidy@?$basic_string@_WU?$char_traits@_W@std@@V?$K2StringAllocator@_W@@@std@@IAEX_NI@Z 1909aed0 f i c_blockertool.obj
 0002:0000ff70       ?_Myptr@?$basic_string@_WU?$char_traits@_W@std@@V?$K2StringAllocator@_W@@@std@@IAEPA_WXZ 1909af70 f i c_blockertool.obj
 0002:0000ffb0       ?_Myptr@?$basic_string@_WU?$char_traits@_W@std@@V?$K2StringAllocator@_W@@@std@@IBEPB_WXZ 1909afb0 f i c_blockertool.obj
 0002:0000fff0       ??0?$_String_val@_WV?$K2StringAllocator@_W@@@std@@IAE@V?$K2StringAllocator@_W@@@Z 1909aff0 f i c_blockertool.obj
 0002:00010090       ??0?$_String_val@_WV?$K2StringAllocator@_W@@@std@@QAE@ABV01@@Z 1909b090 f i c_blockertool.obj
 0002:00010130       ??0?$K2StringAllocator@_W@@QAE@XZ 1909b130 f i c_blockertool.obj
 0002:00010160       ?GetInstance@CMemManager@@SAPAV1@XZ 1909b160 f i c_blockertool.obj
 0002:00010230       ??1?$K2StringAllocator@_W@@QAE@XZ 1909b230 f i c_blockertool.obj
 0002:00010250       ?assign@?$basic_string@_WU?$char_traits@_W@std@@V?$K2StringAllocator@_W@@@std@@QAEAAV12@PB_WI@Z 1909b250 f i c_blockertool.obj
 0002:00010310       ?erase@?$basic_string@_WU?$char_traits@_W@std@@V?$K2StringAllocator@_W@@@std@@QAEAAV12@II@Z 1909b310 f i c_blockertool.obj
 0002:000103e0       ?size@?$basic_string@_WU?$char_traits@_W@std@@V?$K2StringAllocator@_W@@@std@@QBEIXZ 1909b3e0 f i c_blockertool.obj
 0002:00010400       ?_Eos@?$basic_string@_WU?$char_traits@_W@std@@V?$K2StringAllocator@_W@@@std@@IAEXI@Z 1909b400 f i c_blockertool.obj
 0002:00010450       ?_Grow@?$basic_string@_WU?$char_traits@_W@std@@V?$K2StringAllocator@_W@@@std@@IAE_NI_N@Z 1909b450 f i c_blockertool.obj
 0002:00010520       ??0?$K2StringAllocator@_W@@QAE@ABV0@@Z 1909b520 f i c_blockertool.obj
 0002:00010550       ?deallocate@?$K2StringAllocator@_W@@QAEXPA_WI@Z 1909b550 f i c_blockertool.obj
 0002:00010590       ?max_size@?$basic_string@_WU?$char_traits@_W@std@@V?$K2StringAllocator@_W@@@std@@QBEIXZ 1909b590 f i c_blockertool.obj
 0002:000105e0       ?_Copy@?$basic_string@_WU?$char_traits@_W@std@@V?$K2StringAllocator@_W@@@std@@IAEXII@Z 1909b5e0 f i c_blockertool.obj
 0002:000107d0       ?_Inside@?$basic_string@_WU?$char_traits@_W@std@@V?$K2StringAllocator@_W@@@std@@IAE_NPB_W@Z 1909b7d0 f i c_blockertool.obj
 0002:00010840       ?allocate@?$K2StringAllocator@_W@@QAEPA_WI@Z 1909b840 f i c_blockertool.obj
 0002:00010890       ?Allocate@CMemManager@@SAPAXIPBDW4MemoryType@@00F@Z 1909b890 f i c_blockertool.obj
 0002:000108d0       ??$?8_WU?$char_traits@_W@std@@V?$K2StringAllocator@_W@@@std@@YA_NABV?$basic_string@_WU?$char_traits@_W@std@@V?$K2StringAllocator@_W@@@0@PB_W@Z 1909b8d0 f i c_blockertool.obj
 0002:00010900       ?compare@?$basic_string@_WU?$char_traits@_W@std@@V?$K2StringAllocator@_W@@@std@@QBEHPB_W@Z 1909b900 f i c_blockertool.obj
 0002:00010950       ?compare@?$basic_string@_WU?$char_traits@_W@std@@V?$K2StringAllocator@_W@@@std@@QBEHIIPB_WI@Z 1909b950 f i c_blockertool.obj
 0002:00010a50       ??$copy_s@U?$char_traits@_W@std@@@_Traits_helper@std@@YAPA_WPA_WIPB_WI@Z 1909ba50 f i c_blockertool.obj
 0002:00010aa0       ??$_Char_traits_cat@U?$char_traits@_W@std@@@std@@YA?AU_Secure_char_traits_tag@0@XZ 1909baa0 f i c_blockertool.obj
 0002:00010ac0       ??$copy_s@U?$char_traits@_W@std@@@_Traits_helper@std@@YAPA_WPA_WIPB_WIU_Secure_char_traits_tag@1@@Z 1909bac0 f i c_blockertool.obj
 0002:00010b00       ??$_Debug_pointer@_W@std@@YAXPB_W0I@Z 1909bb00 f i c_blockertool.obj
 0002:00010b40       ??$move_s@U?$char_traits@_W@std@@@_Traits_helper@std@@YAPA_WPA_WIPB_WI@Z 1909bb40 f i c_blockertool.obj
 0002:00010b90       ??$move_s@U?$char_traits@_W@std@@@_Traits_helper@std@@YAPA_WPA_WIPB_WIU_Secure_char_traits_tag@1@@Z 1909bb90 f i c_blockertool.obj
 0002:00010bd0       ??0?$CCvar@_N_N@@QAE@ABV?$basic_string@_WU?$char_traits@_W@std@@V?$K2StringAllocator@_W@@@std@@_NHP6A_NPAVCConsoleElement@@ABV?$vector@V?$basic_string@_WU?$char_traits@_W@std@@V?$K2StringAllocator@_W@@@std@@V?$K2VectorAllocator@V?$basic_string@_WU?$char_traits@_W@std@@V?$K2StringAllocator@_W@@@std@@@@@@@Z@Z 1909bbd0 f i c_blockertool.obj
 0002:00010ce0       ??1?$vector@V?$basic_string@_WU?$char_traits@_W@std@@V?$K2StringAllocator@_W@@@std@@V?$K2VectorAllocator@V?$basic_string@_WU?$char_traits@_W@std@@V?$K2StringAllocator@_W@@@std@@@@@@QAE@XZ 1909bce0 f i c_blockertool.obj
 0002:00010d10       ??_G?$CCvar@_N_N@@UAEPAXI@Z 1909bd10 f i c_blockertool.obj
 0002:00010d10       ??_E?$CCvar@_N_N@@UAEPAXI@Z 1909bd10 f i c_blockertool.obj
 0002:00010d60       ?Toggle@?$CCvar@_N_N@@UAEXXZ 1909bd60 f i c_blockertool.obj
 0002:00010db0       ??0?$vector@V?$basic_string@_WU?$char_traits@_W@std@@V?$K2StringAllocator@_W@@@std@@V?$K2VectorAllocator@V?$basic_string@_WU?$char_traits@_W@std@@V?$K2StringAllocator@_W@@@std@@@@@@QAE@XZ 1909bdb0 f i c_blockertool.obj
 0002:00010de0       ??1?$vector@V?$basic_string@_WU?$char_traits@_W@std@@V?$K2StringAllocator@_W@@@std@@V?$K2VectorAllocator@V?$basic_string@_WU?$char_traits@_W@std@@V?$K2StringAllocator@_W@@@std@@@@@std@@QAE@XZ 1909bde0 f i c_blockertool.obj
 0002:00010e60       ?push_back@?$vector@V?$basic_string@_WU?$char_traits@_W@std@@V?$K2StringAllocator@_W@@@std@@V?$K2VectorAllocator@V?$basic_string@_WU?$char_traits@_W@std@@V?$K2StringAllocator@_W@@@std@@@@@std@@QAEXABV?$basic_string@_WU?$char_traits@_W@std@@V?$K2StringAllocator@_W@@@2@@Z 1909be60 f i c_blockertool.obj
 0002:00010f10       ??1?$_Vector_iterator@V?$basic_string@_WU?$char_traits@_W@std@@V?$K2StringAllocator@_W@@@std@@V?$K2VectorAllocator@V?$basic_string@_WU?$char_traits@_W@std@@V?$K2StringAllocator@_W@@@std@@@@@std@@QAE@XZ 1909bf10 f i c_blockertool.obj
 0002:00010f40       ??1?$_Vector_const_iterator@V?$basic_string@_WU?$char_traits@_W@std@@V?$K2StringAllocator@_W@@@std@@V?$K2VectorAllocator@V?$basic_string@_WU?$char_traits@_W@std@@V?$K2StringAllocator@_W@@@std@@@@@std@@QAE@XZ 1909bf40 f i c_blockertool.obj
 0002:00010f70       ??1?$_Ranit@V?$basic_string@_WU?$char_traits@_W@std@@V?$K2StringAllocator@_W@@@std@@HPBV12@ABV12@@std@@QAE@XZ 1909bf70 f i c_blockertool.obj
 0002:00010fa0       ??1_Iterator_base@std@@QAE@XZ 1909bfa0 f i c_blockertool.obj
 0002:00011020       ?_Orphan_me@_Iterator_base@std@@QAEXXZ 1909c020 f i c_blockertool.obj
 0002:000110c0       ?end@?$vector@V?$basic_string@_WU?$char_traits@_W@std@@V?$K2StringAllocator@_W@@@std@@V?$K2VectorAllocator@V?$basic_string@_WU?$char_traits@_W@std@@V?$K2StringAllocator@_W@@@std@@@@@std@@QAE?AV?$_Vector_iterator@V?$basic_string@_WU?$char_traits@_W@std@@V?$K2StringAllocator@_W@@@std@@V?$K2VectorAllocator@V?$basic_string@_WU?$char_traits@_W@std@@V?$K2StringAllocator@_W@@@std@@@@@2@XZ 1909c0c0 f i c_blockertool.obj
 0002:00011110       ?size@?$vector@V?$basic_string@_WU?$char_traits@_W@std@@V?$K2StringAllocator@_W@@@std@@V?$K2VectorAllocator@V?$basic_string@_WU?$char_traits@_W@std@@V?$K2StringAllocator@_W@@@std@@@@@std@@QBEIXZ 1909c110 f i c_blockertool.obj
 0002:00011160       ??1?$CCvar@_N_N@@UAE@XZ    1909c160 f i c_blockertool.obj
 0002:00011190       ?Reset@?$CCvar@_N_N@@UAEXXZ 1909c190 f i c_blockertool.obj
 0002:000111f0       ?IsDefault@?$CCvar@_N_N@@UBE_NXZ 1909c1f0 f i c_blockertool.obj
 0002:00011230       ?StoreValue@?$CCvar@_N_N@@UAEXXZ 1909c230 f i c_blockertool.obj
 0002:00011260       ?RestoreStored@?$CCvar@_N_N@@UAEXXZ 1909c260 f i c_blockertool.obj
 0002:00011290       ?GetString@?$CCvar@_N_N@@UBE?AV?$basic_string@_WU?$char_traits@_W@std@@V?$K2StringAllocator@_W@@@std@@XZ 1909c290 f i c_blockertool.obj
 0002:000112e0       ?XtoW@@YA?AV?$basic_string@_WU?$char_traits@_W@std@@V?$K2StringAllocator@_W@@@std@@_N0@Z 1909c2e0 f i c_blockertool.obj
 0002:00011380       ?SetIndex@?$CCvar@_N_N@@UAEXIABV?$basic_string@_WU?$char_traits@_W@std@@V?$K2StringAllocator@_W@@@std@@@Z 1909c380 f i c_blockertool.obj
 0002:000113a0       ?Inc@?$CCvar@_N_N@@UAEXABV?$basic_string@_WU?$char_traits@_W@std@@V?$K2StringAllocator@_W@@@std@@@Z 1909c3a0 f i c_blockertool.obj
 0002:000113c0       ??1?$_Vector_val@V?$basic_string@_WU?$char_traits@_W@std@@V?$K2StringAllocator@_W@@@std@@V?$K2VectorAllocator@V?$basic_string@_WU?$char_traits@_W@std@@V?$K2StringAllocator@_W@@@std@@@@@std@@QAE@XZ 1909c3c0 f i c_blockertool.obj
 0002:00011440       ??0?$vector@V?$basic_string@_WU?$char_traits@_W@std@@V?$K2StringAllocator@_W@@@std@@V?$K2VectorAllocator@V?$basic_string@_WU?$char_traits@_W@std@@V?$K2StringAllocator@_W@@@std@@@@@std@@QAE@XZ 1909c440 f i c_blockertool.obj
 0002:000114d0       ?capacity@?$vector@V?$basic_string@_WU?$char_traits@_W@std@@V?$K2StringAllocator@_W@@@std@@V?$K2VectorAllocator@V?$basic_string@_WU?$char_traits@_W@std@@V?$K2StringAllocator@_W@@@std@@@@@std@@QBEIXZ 1909c4d0 f i c_blockertool.obj
 0002:00011520       ?insert@?$vector@V?$basic_string@_WU?$char_traits@_W@std@@V?$K2StringAllocator@_W@@@std@@V?$K2VectorAllocator@V?$basic_string@_WU?$char_traits@_W@std@@V?$K2StringAllocator@_W@@@std@@@@@std@@QAE?AV?$_Vector_iterator@V?$basic_string@_WU?$char_traits@_W@std@@V?$K2StringAllocator@_W@@@std@@V?$K2VectorAllocator@V?$basic_string@_WU?$char_traits@_W@std@@V?$K2StringAllocator@_W@@@std@@@@@2@V32@ABV?$basic_string@_WU?$char_traits@_W@std@@V?$K2StringAllocator@_W@@@2@@Z 1909c520 f i c_blockertool.obj
 0002:00011690       ?begin@?$vector@V?$basic_string@_WU?$char_traits@_W@std@@V?$K2StringAllocator@_W@@@std@@V?$K2VectorAllocator@V?$basic_string@_WU?$char_traits@_W@std@@V?$K2StringAllocator@_W@@@std@@@@@std@@QAE?AV?$_Vector_iterator@V?$basic_string@_WU?$char_traits@_W@std@@V?$K2StringAllocator@_W@@@std@@V?$K2VectorAllocator@V?$basic_string@_WU?$char_traits@_W@std@@V?$K2StringAllocator@_W@@@std@@@@@2@XZ 1909c690 f i c_blockertool.obj
 0002:000116e0       ??H?$_Vector_iterator@V?$basic_string@_WU?$char_traits@_W@std@@V?$K2StringAllocator@_W@@@std@@V?$K2VectorAllocator@V?$basic_string@_WU?$char_traits@_W@std@@V?$K2StringAllocator@_W@@@std@@@@@std@@QBE?AV01@H@Z 1909c6e0 f i c_blockertool.obj
 0002:00011790       ??0?$_Vector_iterator@V?$basic_string@_WU?$char_traits@_W@std@@V?$K2StringAllocator@_W@@@std@@V?$K2VectorAllocator@V?$basic_string@_WU?$char_traits@_W@std@@V?$K2StringAllocator@_W@@@std@@@@@std@@QAE@ABV01@@Z 1909c790 f i c_blockertool.obj
 0002:000117c0       ??0?$_Vector_const_iterator@V?$basic_string@_WU?$char_traits@_W@std@@V?$K2StringAllocator@_W@@@std@@V?$K2VectorAllocator@V?$basic_string@_WU?$char_traits@_W@std@@V?$K2StringAllocator@_W@@@std@@@@@std@@QAE@ABV01@@Z 1909c7c0 f i c_blockertool.obj
 0002:00011800       ??0?$_Ranit@V?$basic_string@_WU?$char_traits@_W@std@@V?$K2StringAllocator@_W@@@std@@HPBV12@ABV12@@std@@QAE@ABU01@@Z 1909c800 f i c_blockertool.obj
 0002:00011830       ??0_Iterator_base@std@@QAE@ABV01@@Z 1909c830 f i c_blockertool.obj
 0002:00011880       ??4_Iterator_base@std@@QAEAAV01@ABV01@@Z 1909c880 f i c_blockertool.obj
 0002:00011930       ?_Adopt@_Iterator_base@std@@QAEXPBV_Container_base@2@@Z 1909c930 f i c_blockertool.obj
 0002:00011a00       ?_Buy@?$vector@V?$basic_string@_WU?$char_traits@_W@std@@V?$K2StringAllocator@_W@@@std@@V?$K2VectorAllocator@V?$basic_string@_WU?$char_traits@_W@std@@V?$K2StringAllocator@_W@@@std@@@@@std@@IAE_NI@Z 1909ca00 f i c_blockertool.obj
 0002:00011ab0       ?_Tidy@?$vector@V?$basic_string@_WU?$char_traits@_W@std@@V?$K2StringAllocator@_W@@@std@@V?$K2VectorAllocator@V?$basic_string@_WU?$char_traits@_W@std@@V?$K2StringAllocator@_W@@@std@@@@@std@@IAEXXZ 1909cab0 f i c_blockertool.obj
 0002:00011b50       ?_Destroy@?$vector@V?$basic_string@_WU?$char_traits@_W@std@@V?$K2StringAllocator@_W@@@std@@V?$K2VectorAllocator@V?$basic_string@_WU?$char_traits@_W@std@@V?$K2StringAllocator@_W@@@std@@@@@std@@IAEXPAV?$basic_string@_WU?$char_traits@_W@std@@V?$K2StringAllocator@_W@@@2@0@Z 1909cb50 f i c_blockertool.obj
 0002:00011b90       ?_Ufill@?$vector@V?$basic_string@_WU?$char_traits@_W@std@@V?$K2StringAllocator@_W@@@std@@V?$K2VectorAllocator@V?$basic_string@_WU?$char_traits@_W@std@@V?$K2StringAllocator@_W@@@std@@@@@std@@IAEPAV?$basic_string@_WU?$char_traits@_W@std@@V?$K2StringAllocator@_W@@@2@PAV32@IABV32@@Z 1909cb90 f i c_blockertool.obj
 0002:00011be0       ?_Orphan_range@?$vector@V?$basic_string@_WU?$char_traits@_W@std@@V?$K2StringAllocator@_W@@@std@@V?$K2VectorAllocator@V?$basic_string@_WU?$char_traits@_W@std@@V?$K2StringAllocator@_W@@@std@@@@@std@@IBEXPAV?$basic_string@_WU?$char_traits@_W@std@@V?$K2StringAllocator@_W@@@2@0@Z 1909cbe0 f i c_blockertool.obj
 0002:00011c80       ??1?$K2VectorAllocator@V?$basic_string@_WU?$char_traits@_W@std@@V?$K2StringAllocator@_W@@@std@@@@QAE@XZ 1909cc80 f i c_blockertool.obj
 0002:00011ca0       ?deallocate@?$K2VectorAllocator@V?$basic_string@_WU?$char_traits@_W@std@@V?$K2StringAllocator@_W@@@std@@@@QAEXPAV?$basic_string@_WU?$char_traits@_W@std@@V?$K2StringAllocator@_W@@@std@@I@Z 1909cca0 f i c_blockertool.obj
 0002:00011ce0       ??0?$_Vector_iterator@V?$basic_string@_WU?$char_traits@_W@std@@V?$K2StringAllocator@_W@@@std@@V?$K2VectorAllocator@V?$basic_string@_WU?$char_traits@_W@std@@V?$K2StringAllocator@_W@@@std@@@@@std@@QAE@PAV?$basic_string@_WU?$char_traits@_W@std@@V?$K2StringAllocator@_W@@@1@PBV_Container_base@1@@Z 1909cce0 f i c_blockertool.obj
 0002:00011d20       ??Y?$_Vector_iterator@V?$basic_string@_WU?$char_traits@_W@std@@V?$K2StringAllocator@_W@@@std@@V?$K2VectorAllocator@V?$basic_string@_WU?$char_traits@_W@std@@V?$K2StringAllocator@_W@@@std@@@@@std@@QAEAAV01@H@Z 1909cd20 f i c_blockertool.obj
 0002:00011d50       ?max_size@?$vector@V?$basic_string@_WU?$char_traits@_W@std@@V?$K2StringAllocator@_W@@@std@@V?$K2VectorAllocator@V?$basic_string@_WU?$char_traits@_W@std@@V?$K2StringAllocator@_W@@@std@@@@@std@@QBEIXZ 1909cd50 f i c_blockertool.obj
 0002:00011d80       ?_Insert_n@?$vector@V?$basic_string@_WU?$char_traits@_W@std@@V?$K2StringAllocator@_W@@@std@@V?$K2VectorAllocator@V?$basic_string@_WU?$char_traits@_W@std@@V?$K2StringAllocator@_W@@@std@@@@@std@@IAEXV?$_Vector_iterator@V?$basic_string@_WU?$char_traits@_W@std@@V?$K2StringAllocator@_W@@@std@@V?$K2VectorAllocator@V?$basic_string@_WU?$char_traits@_W@std@@V?$K2StringAllocator@_W@@@std@@@@@2@IABV?$basic_string@_WU?$char_traits@_W@std@@V?$K2StringAllocator@_W@@@2@@Z 1909cd80 f i c_blockertool.obj
 0002:00012270       ?_Xlen@?$vector@V?$basic_string@_WU?$char_traits@_W@std@@V?$K2StringAllocator@_W@@@std@@V?$K2VectorAllocator@V?$basic_string@_WU?$char_traits@_W@std@@V?$K2StringAllocator@_W@@@std@@@@@std@@KAXXZ 1909d270 f i c_blockertool.obj
 0002:00012320       ??0length_error@std@@QAE@ABV?$basic_string@DU?$char_traits@D@std@@V?$allocator@D@2@@1@@Z 1909d320 f i c_blockertool.obj
 0002:00012360       ??0logic_error@std@@QAE@ABV?$basic_string@DU?$char_traits@D@std@@V?$allocator@D@2@@1@@Z 1909d360 f i c_blockertool.obj
 0002:000123f0       ?what@logic_error@std@@UBEPBDXZ 1909d3f0 f i c_blockertool.obj
 0002:00012420       ??_Glogic_error@std@@UAEPAXI@Z 1909d420 f i c_blockertool.obj
 0002:00012420       ??_Elogic_error@std@@UAEPAXI@Z 1909d420 f i c_blockertool.obj
 0002:00012470       ??1logic_error@std@@UAE@XZ 1909d470 f i c_blockertool.obj
 0002:000124b0       ??1length_error@std@@UAE@XZ 1909d4b0 f i c_blockertool.obj
 0002:000124e0       ??_Glength_error@std@@UAEPAXI@Z 1909d4e0 f i c_blockertool.obj
 0002:000124e0       ??_Elength_error@std@@UAEPAXI@Z 1909d4e0 f i c_blockertool.obj
 0002:00012530       ??0logic_error@std@@QAE@ABV01@@Z 1909d530 f i c_blockertool.obj
 0002:000125d0       ??0length_error@std@@QAE@ABV01@@Z 1909d5d0 f i c_blockertool.obj
 0002:00012610       ??0?$_Vector_val@V?$basic_string@_WU?$char_traits@_W@std@@V?$K2StringAllocator@_W@@@std@@V?$K2VectorAllocator@V?$basic_string@_WU?$char_traits@_W@std@@V?$K2StringAllocator@_W@@@std@@@@@std@@IAE@V?$K2VectorAllocator@V?$basic_string@_WU?$char_traits@_W@std@@V?$K2StringAllocator@_W@@@std@@@@@Z 1909d610 f i c_blockertool.obj
 0002:000126b0       ??0?$K2VectorAllocator@V?$basic_string@_WU?$char_traits@_W@std@@V?$K2StringAllocator@_W@@@std@@@@QAE@XZ 1909d6b0 f i c_blockertool.obj
 0002:000126e0       ??0?$K2VectorAllocator@V?$basic_string@_WU?$char_traits@_W@std@@V?$K2StringAllocator@_W@@@std@@@@QAE@ABV0@@Z 1909d6e0 f i c_blockertool.obj
 0002:00012710       ?allocate@?$K2VectorAllocator@V?$basic_string@_WU?$char_traits@_W@std@@V?$K2StringAllocator@_W@@@std@@@@QAEPAV?$basic_string@_WU?$char_traits@_W@std@@V?$K2StringAllocator@_W@@@std@@I@Z 1909d710 f i c_blockertool.obj
 0002:00012760       ??G?$_Vector_iterator@V?$basic_string@_WU?$char_traits@_W@std@@V?$K2StringAllocator@_W@@@std@@V?$K2VectorAllocator@V?$basic_string@_WU?$char_traits@_W@std@@V?$K2StringAllocator@_W@@@std@@@@@std@@QBEHABV?$_Vector_const_iterator@V?$basic_string@_WU?$char_traits@_W@std@@V?$K2StringAllocator@_W@@@std@@V?$K2VectorAllocator@V?$basic_string@_WU?$char_traits@_W@std@@V?$K2StringAllocator@_W@@@std@@@@@1@@Z 1909d760 f i c_blockertool.obj
 0002:00012790       ??0?$_Vector_const_iterator@V?$basic_string@_WU?$char_traits@_W@std@@V?$K2StringAllocator@_W@@@std@@V?$K2VectorAllocator@V?$basic_string@_WU?$char_traits@_W@std@@V?$K2StringAllocator@_W@@@std@@@@@std@@QAE@PAV?$basic_string@_WU?$char_traits@_W@std@@V?$K2StringAllocator@_W@@@1@PBV_Container_base@1@@Z 1909d790 f i c_blockertool.obj
 0002:00012890       ??Y?$_Vector_const_iterator@V?$basic_string@_WU?$char_traits@_W@std@@V?$K2StringAllocator@_W@@@std@@V?$K2VectorAllocator@V?$basic_string@_WU?$char_traits@_W@std@@V?$K2StringAllocator@_W@@@std@@@@@std@@QAEAAV01@H@Z 1909d890 f i c_blockertool.obj
 0002:000129c0       ??0?$_Ranit@V?$basic_string@_WU?$char_traits@_W@std@@V?$K2StringAllocator@_W@@@std@@HPBV12@ABV12@@std@@QAE@XZ 1909d9c0 f i c_blockertool.obj
 0002:000129f0       ??0_Iterator_base@std@@QAE@XZ 1909d9f0 f i c_blockertool.obj
 0002:00012a30       ??0?$allocator@V?$basic_string@_WU?$char_traits@_W@std@@V?$K2StringAllocator@_W@@@std@@@std@@QAE@XZ 1909da30 f i c_blockertool.obj
 0002:00012a50       ??0?$allocator@V?$basic_string@_WU?$char_traits@_W@std@@V?$K2StringAllocator@_W@@@std@@@std@@QAE@ABV01@@Z 1909da50 f i c_blockertool.obj
 0002:00012a70       ?max_size@?$allocator@V?$basic_string@_WU?$char_traits@_W@std@@V?$K2StringAllocator@_W@@@std@@@std@@QBEIXZ 1909da70 f i c_blockertool.obj
 0002:00012ab0       ??G?$_Vector_const_iterator@V?$basic_string@_WU?$char_traits@_W@std@@V?$K2StringAllocator@_W@@@std@@V?$K2VectorAllocator@V?$basic_string@_WU?$char_traits@_W@std@@V?$K2StringAllocator@_W@@@std@@@@@std@@QBEHABV01@@Z 1909dab0 f i c_blockertool.obj
 0002:00012af0       ?_Compat@?$_Vector_const_iterator@V?$basic_string@_WU?$char_traits@_W@std@@V?$K2StringAllocator@_W@@@std@@V?$K2VectorAllocator@V?$basic_string@_WU?$char_traits@_W@std@@V?$K2StringAllocator@_W@@@std@@@@@std@@QBEXABV12@@Z 1909daf0 f i c_blockertool.obj
 0002:00012ba0       ?Set@?$CCvar@_N_N@@UAEXABV?$basic_string@_WU?$char_traits@_W@std@@V?$K2StringAllocator@_W@@@std@@@Z 1909dba0 f i c_blockertool.obj
 0002:00012c00       ?AtoX@@YAAA_NABV?$basic_string@_WU?$char_traits@_W@std@@V?$K2StringAllocator@_W@@@std@@AA_N@Z 1909dc00 f i c_blockertool.obj
 0002:00012cf0       ?CompareNoCase@@YAHABV?$basic_string@_WU?$char_traits@_W@std@@V?$K2StringAllocator@_W@@@std@@0@Z 1909dcf0 f i c_blockertool.obj
 0002:00012d20       ?WTOF@@YANABV?$basic_string@_WU?$char_traits@_W@std@@V?$K2StringAllocator@_W@@@std@@@Z 1909dd20 f i c_blockertool.obj
 0002:00012d50       ?c_str@?$basic_string@_WU?$char_traits@_W@std@@V?$K2StringAllocator@_W@@@std@@QBEPB_WXZ 1909dd50 f i c_blockertool.obj
 0002:00012d80       ??$_CompareNoCase@V?$basic_string@_WU?$char_traits@_W@std@@V?$K2StringAllocator@_W@@@std@@@@YAHABV?$basic_string@_WU?$char_traits@_W@std@@V?$K2StringAllocator@_W@@@std@@0@Z 1909dd80 f i c_blockertool.obj
 0002:00013040       ??1?$_String_const_iterator@_WU?$char_traits@_W@std@@V?$K2StringAllocator@_W@@@std@@QAE@XZ 1909e040 f i c_blockertool.obj
 0002:00013070       ??1?$_Ranit_base@_WHPB_WAB_WV_Iterator_base@std@@@std@@QAE@XZ 1909e070 f i c_blockertool.obj
 0002:000130a0       ?begin@?$basic_string@_WU?$char_traits@_W@std@@V?$K2StringAllocator@_W@@@std@@QBE?AV?$_String_const_iterator@_WU?$char_traits@_W@std@@V?$K2StringAllocator@_W@@@2@XZ 1909e0a0 f i c_blockertool.obj
 0002:000130f0       ?end@?$basic_string@_WU?$char_traits@_W@std@@V?$K2StringAllocator@_W@@@std@@QBE?AV?$_String_const_iterator@_WU?$char_traits@_W@std@@V?$K2StringAllocator@_W@@@2@XZ 1909e0f0 f i c_blockertool.obj
 0002:00013150       ??D?$_String_const_iterator@_WU?$char_traits@_W@std@@V?$K2StringAllocator@_W@@@std@@QBEAB_WXZ 1909e150 f i c_blockertool.obj
 0002:00013230       ??E?$_String_const_iterator@_WU?$char_traits@_W@std@@V?$K2StringAllocator@_W@@@std@@QAEAAV01@XZ 1909e230 f i c_blockertool.obj
 0002:00013350       ??9?$_String_const_iterator@_WU?$char_traits@_W@std@@V?$K2StringAllocator@_W@@@std@@QBE_NABV01@@Z 1909e350 f i c_blockertool.obj
 0002:00013390       ??0?$_String_const_iterator@_WU?$char_traits@_W@std@@V?$K2StringAllocator@_W@@@std@@QAE@PB_WPBV_Container_base@1@@Z 1909e390 f i c_blockertool.obj
 0002:000134b0       ??8?$_String_const_iterator@_WU?$char_traits@_W@std@@V?$K2StringAllocator@_W@@@std@@QBE_NABV01@@Z 1909e4b0 f i c_blockertool.obj
 0002:000134f0       ?_Compat@?$_String_const_iterator@_WU?$char_traits@_W@std@@V?$K2StringAllocator@_W@@@std@@QBEXABV12@@Z 1909e4f0 f i c_blockertool.obj
 0002:000135a0       ??0?$_Ranit_base@_WHPB_WAB_WV_Iterator_base@std@@@std@@QAE@XZ 1909e5a0 f i c_blockertool.obj
 0002:000135d0       ?GetRangeString@?$CCvar@_N_N@@UBE?AV?$basic_string@_WU?$char_traits@_W@std@@V?$K2StringAllocator@_W@@@std@@XZ 1909e5d0 f i c_blockertool.obj
 0002:00013830       ??$?H_WU?$char_traits@_W@std@@V?$K2StringAllocator@_W@@@std@@YA?AV?$basic_string@_WU?$char_traits@_W@std@@V?$K2StringAllocator@_W@@@0@PB_WABV10@@Z 1909e830 f i c_blockertool.obj
 0002:000138e0       ??Y?$basic_string@_WU?$char_traits@_W@std@@V?$K2StringAllocator@_W@@@std@@QAEAAV01@ABV01@@Z 1909e8e0 f i c_blockertool.obj
 0002:00013910       ?append@?$basic_string@_WU?$char_traits@_W@std@@V?$K2StringAllocator@_W@@@std@@QAEAAV12@ABV12@@Z 1909e910 f i c_blockertool.obj
 0002:00013950       ?append@?$basic_string@_WU?$char_traits@_W@std@@V?$K2StringAllocator@_W@@@std@@QAEAAV12@ABV12@II@Z 1909e950 f i c_blockertool.obj
 0002:00013a70       ??$?H_WU?$char_traits@_W@std@@V?$K2StringAllocator@_W@@@std@@YA?AV?$basic_string@_WU?$char_traits@_W@std@@V?$K2StringAllocator@_W@@@0@ABV10@PB_W@Z 1909ea70 f i c_blockertool.obj
 0002:00013b20       ??Y?$basic_string@_WU?$char_traits@_W@std@@V?$K2StringAllocator@_W@@@std@@QAEAAV01@PB_W@Z 1909eb20 f i c_blockertool.obj
 0002:00013b50       ?append@?$basic_string@_WU?$char_traits@_W@std@@V?$K2StringAllocator@_W@@@std@@QAEAAV12@PB_W@Z 1909eb50 f i c_blockertool.obj
 0002:00013b90       ?append@?$basic_string@_WU?$char_traits@_W@std@@V?$K2StringAllocator@_W@@@std@@QAEAAV12@PB_WI@Z 1909eb90 f i c_blockertool.obj
 0002:00013ca0       ??$?H_WU?$char_traits@_W@std@@V?$K2StringAllocator@_W@@@std@@YA?AV?$basic_string@_WU?$char_traits@_W@std@@V?$K2StringAllocator@_W@@@0@ABV10@0@Z 1909eca0 f i c_blockertool.obj
 0002:00013d50       ??$_Destroy_range@V?$basic_string@_WU?$char_traits@_W@std@@V?$K2StringAllocator@_W@@@std@@V?$K2VectorAllocator@V?$basic_string@_WU?$char_traits@_W@std@@V?$K2StringAllocator@_W@@@std@@@@@std@@YAXPAV?$basic_string@_WU?$char_traits@_W@std@@V?$K2StringAllocator@_W@@@0@0AAV?$K2VectorAllocator@V?$basic_string@_WU?$char_traits@_W@std@@V?$K2StringAllocator@_W@@@std@@@@@Z 1909ed50 f i c_blockertool.obj
 0002:00013da0       ??$_Ptr_cat@PAV?$basic_string@_WU?$char_traits@_W@std@@V?$K2StringAllocator@_W@@@std@@PAV12@@std@@YA?AU_Nonscalar_ptr_iterator_tag@0@AAPAV?$basic_string@_WU?$char_traits@_W@std@@V?$K2StringAllocator@_W@@@0@0@Z 1909eda0 f i c_blockertool.obj
 0002:00013dc0       ??$_Destroy_range@V?$basic_string@_WU?$char_traits@_W@std@@V?$K2StringAllocator@_W@@@std@@V?$K2VectorAllocator@V?$basic_string@_WU?$char_traits@_W@std@@V?$K2StringAllocator@_W@@@std@@@@@std@@YAXPAV?$basic_string@_WU?$char_traits@_W@std@@V?$K2StringAllocator@_W@@@0@0AAV?$K2VectorAllocator@V?$basic_string@_WU?$char_traits@_W@std@@V?$K2StringAllocator@_W@@@std@@@@U_Nonscalar_ptr_iterator_tag@0@@Z 1909edc0 f i c_blockertool.obj
 0002:00013e00       ?destroy@?$allocator@V?$basic_string@_WU?$char_traits@_W@std@@V?$K2StringAllocator@_W@@@std@@@std@@QAEXPAV?$basic_string@_WU?$char_traits@_W@std@@V?$K2StringAllocator@_W@@@2@@Z 1909ee00 f i c_blockertool.obj
 0002:00013e30       ??$unchecked_uninitialized_fill_n@PAV?$basic_string@_WU?$char_traits@_W@std@@V?$K2StringAllocator@_W@@@std@@IV12@V?$K2VectorAllocator@V?$basic_string@_WU?$char_traits@_W@std@@V?$K2StringAllocator@_W@@@std@@@@@stdext@@YAXPAV?$basic_string@_WU?$char_traits@_W@std@@V?$K2StringAllocator@_W@@@std@@IABV12@AAV?$K2VectorAllocator@V?$basic_string@_WU?$char_traits@_W@std@@V?$K2StringAllocator@_W@@@std@@@@@Z 1909ee30 f i c_blockertool.obj
 0002:00013e90       ??$_Uninit_fill_n@PAV?$basic_string@_WU?$char_traits@_W@std@@V?$K2StringAllocator@_W@@@std@@IV12@V?$K2VectorAllocator@V?$basic_string@_WU?$char_traits@_W@std@@V?$K2StringAllocator@_W@@@std@@@@@std@@YAXPAV?$basic_string@_WU?$char_traits@_W@std@@V?$K2StringAllocator@_W@@@0@IABV10@AAV?$K2VectorAllocator@V?$basic_string@_WU?$char_traits@_W@std@@V?$K2StringAllocator@_W@@@std@@@@U_Nonscalar_ptr_iterator_tag@0@U_Range_checked_iterator_tag@0@@Z 1909ee90 f i c_blockertool.obj
 0002:00013f80       ?construct@?$allocator@V?$basic_string@_WU?$char_traits@_W@std@@V?$K2StringAllocator@_W@@@std@@@std@@QAEXPAV?$basic_string@_WU?$char_traits@_W@std@@V?$K2StringAllocator@_W@@@2@ABV32@@Z 1909ef80 f i c_blockertool.obj
 0002:00013fb0       ??$_Construct@V?$basic_string@_WU?$char_traits@_W@std@@V?$K2StringAllocator@_W@@@std@@V12@@std@@YAXPAV?$basic_string@_WU?$char_traits@_W@std@@V?$K2StringAllocator@_W@@@0@ABV10@@Z 1909efb0 f i c_blockertool.obj
 0002:00014060       ??2@YAPAXIPAX@Z            1909f060 f i c_blockertool.obj
 0002:00014080       ??3@YAXPAX0@Z              1909f080 f i c_blockertool.obj
 0002:000140a0       ??$_Umove@PAV?$basic_string@_WU?$char_traits@_W@std@@V?$K2StringAllocator@_W@@@std@@@?$vector@V?$basic_string@_WU?$char_traits@_W@std@@V?$K2StringAllocator@_W@@@std@@V?$K2VectorAllocator@V?$basic_string@_WU?$char_traits@_W@std@@V?$K2StringAllocator@_W@@@std@@@@@std@@IAEPAV?$basic_string@_WU?$char_traits@_W@std@@V?$K2StringAllocator@_W@@@1@PAV21@00@Z 1909f0a0 f i c_blockertool.obj
 0002:000140e0       ??$_Unchecked_uninitialized_move@PAV?$basic_string@_WU?$char_traits@_W@std@@V?$K2StringAllocator@_W@@@std@@PAV12@V?$K2VectorAllocator@V?$basic_string@_WU?$char_traits@_W@std@@V?$K2StringAllocator@_W@@@std@@@@@stdext@@YAPAV?$basic_string@_WU?$char_traits@_W@std@@V?$K2StringAllocator@_W@@@std@@PAV12@00AAV?$K2VectorAllocator@V?$basic_string@_WU?$char_traits@_W@std@@V?$K2StringAllocator@_W@@@std@@@@@Z 1909f0e0 f i c_blockertool.obj
 0002:00014150       ??$_Checked_base@PAV?$basic_string@_WU?$char_traits@_W@std@@V?$K2StringAllocator@_W@@@std@@@std@@YAPAV?$basic_string@_WU?$char_traits@_W@std@@V?$K2StringAllocator@_W@@@0@AAPAV10@@Z 1909f150 f i c_blockertool.obj
 0002:00014180       ??$_Move_cat@PAV?$basic_string@_WU?$char_traits@_W@std@@V?$K2StringAllocator@_W@@@std@@@std@@YA?AU_Swap_move_tag@0@ABQAV?$basic_string@_WU?$char_traits@_W@std@@V?$K2StringAllocator@_W@@@0@@Z 1909f180 f i c_blockertool.obj
 0002:000141a0       ??$_Checked_base@PAV?$basic_string@_WU?$char_traits@_W@std@@V?$K2StringAllocator@_W@@@std@@@std@@YAPAV?$basic_string@_WU?$char_traits@_W@std@@V?$K2StringAllocator@_W@@@0@AAPAV10@U_Unchanged_checked_iterator_base_type_tag@0@@Z 1909f1a0 f i c_blockertool.obj
 0002:000141c0       ??$_Uninit_move@PAV?$basic_string@_WU?$char_traits@_W@std@@V?$K2StringAllocator@_W@@@std@@PAV12@V?$K2VectorAllocator@V?$basic_string@_WU?$char_traits@_W@std@@V?$K2StringAllocator@_W@@@std@@@@@std@@YAPAV?$basic_string@_WU?$char_traits@_W@std@@V?$K2StringAllocator@_W@@@0@PAV10@00AAV?$K2VectorAllocator@V?$basic_string@_WU?$char_traits@_W@std@@V?$K2StringAllocator@_W@@@std@@@@U_Swap_move_tag@0@U_Range_checked_iterator_tag@0@@Z 1909f1c0 f i c_blockertool.obj
 0002:00014350       ??$_Debug_range@PAV?$basic_string@_WU?$char_traits@_W@std@@V?$K2StringAllocator@_W@@@std@@@std@@YAXPAV?$basic_string@_WU?$char_traits@_W@std@@V?$K2StringAllocator@_W@@@0@0PB_WI@Z 1909f350 f i c_blockertool.obj
 0002:000143a0       ??$_Debug_pointer@V?$basic_string@_WU?$char_traits@_W@std@@V?$K2StringAllocator@_W@@@std@@@std@@YAXPAV?$basic_string@_WU?$char_traits@_W@std@@V?$K2StringAllocator@_W@@@0@PB_WI@Z 1909f3a0 f i c_blockertool.obj
 0002:000143e0       ??$swap@_WU?$char_traits@_W@std@@V?$K2StringAllocator@_W@@@std@@YAXAAV?$basic_string@_WU?$char_traits@_W@std@@V?$K2StringAllocator@_W@@@0@0@Z 1909f3e0 f i c_blockertool.obj
 0002:00014410       ??$_Iter_cat@PAV?$basic_string@_WU?$char_traits@_W@std@@V?$K2StringAllocator@_W@@@std@@@std@@YA?AUrandom_access_iterator_tag@0@ABQAV?$basic_string@_WU?$char_traits@_W@std@@V?$K2StringAllocator@_W@@@0@@Z 1909f410 f i c_blockertool.obj
 0002:00014430       ??$_Debug_range2@PAV?$basic_string@_WU?$char_traits@_W@std@@V?$K2StringAllocator@_W@@@std@@@std@@YAXPAV?$basic_string@_WU?$char_traits@_W@std@@V?$K2StringAllocator@_W@@@0@0PB_WIUrandom_access_iterator_tag@0@@Z 1909f430 f i c_blockertool.obj
 0002:000144b0       ?swap@?$basic_string@_WU?$char_traits@_W@std@@V?$K2StringAllocator@_W@@@std@@QAEXAAV12@@Z 1909f4b0 f i c_blockertool.obj
 0002:00014660       ??$?8_W_W@std@@YA_NABV?$allocator@_W@0@0@Z 1909f660 f i c_blockertool.obj
 0002:00014680       ??0?$basic_string@_WU?$char_traits@_W@std@@V?$K2StringAllocator@_W@@@std@@QAE@U_Has_debug_it@01@@Z 1909f680 f i c_blockertool.obj
 0002:00014730       ??4?$basic_string@_WU?$char_traits@_W@std@@V?$K2StringAllocator@_W@@@std@@QAEAAV01@ABV01@@Z 1909f730 f i c_blockertool.obj
 0002:00014760       ??0_Has_debug_it@?$basic_string@_WU?$char_traits@_W@std@@V?$K2StringAllocator@_W@@@std@@QAE@_N@Z 1909f760 f i c_blockertool.obj
 0002:00014790       ?assign@?$basic_string@_WU?$char_traits@_W@std@@V?$K2StringAllocator@_W@@@std@@QAEAAV12@ABV12@@Z 1909f790 f i c_blockertool.obj
 0002:000147d0       ??$fill@PAV?$basic_string@_WU?$char_traits@_W@std@@V?$K2StringAllocator@_W@@@std@@V12@@std@@YAXPAV?$basic_string@_WU?$char_traits@_W@std@@V?$K2StringAllocator@_W@@@0@0ABV10@@Z 1909f7d0 f i c_blockertool.obj
 0002:00014820       ??$_Fill@PAV?$basic_string@_WU?$char_traits@_W@std@@V?$K2StringAllocator@_W@@@std@@V12@@std@@YAXPAV?$basic_string@_WU?$char_traits@_W@std@@V?$K2StringAllocator@_W@@@0@0ABV10@@Z 1909f820 f i c_blockertool.obj
 0002:00014880       ??$_Unchecked_move_backward@PAV?$basic_string@_WU?$char_traits@_W@std@@V?$K2StringAllocator@_W@@@std@@PAV12@@stdext@@YAPAV?$basic_string@_WU?$char_traits@_W@std@@V?$K2StringAllocator@_W@@@std@@PAV12@00@Z 1909f880 f i c_blockertool.obj
 0002:00014910       ??$_Iter_random@PAV?$basic_string@_WU?$char_traits@_W@std@@V?$K2StringAllocator@_W@@@std@@PAV12@@std@@YA?AUrandom_access_iterator_tag@0@ABQAV?$basic_string@_WU?$char_traits@_W@std@@V?$K2StringAllocator@_W@@@0@0@Z 1909f910 f i c_blockertool.obj
 0002:00014930       ??$_Move_backward_opt@PAV?$basic_string@_WU?$char_traits@_W@std@@V?$K2StringAllocator@_W@@@std@@PAV12@@std@@YAPAV?$basic_string@_WU?$char_traits@_W@std@@V?$K2StringAllocator@_W@@@0@PAV10@00Urandom_access_iterator_tag@0@U_Swap_move_tag@0@U_Range_checked_iterator_tag@0@@Z 1909f930 f i c_blockertool.obj
 0002:000149a0       ??$_Move_backward_opt@PAV?$basic_string@_WU?$char_traits@_W@std@@V?$K2StringAllocator@_W@@@std@@PAV12@Uforward_iterator_tag@2@@std@@YAPAV?$basic_string@_WU?$char_traits@_W@std@@V?$K2StringAllocator@_W@@@0@PAV10@00Uforward_iterator_tag@0@U_Swap_move_tag@0@U_Range_checked_iterator_tag@0@@Z 1909f9a0 f i c_blockertool.obj
 0002:00014a10       ??$_Destroy@V?$basic_string@_WU?$char_traits@_W@std@@V?$K2StringAllocator@_W@@@std@@@std@@YAXPAV?$basic_string@_WU?$char_traits@_W@std@@V?$K2StringAllocator@_W@@@0@@Z 1909fa10 f i c_blockertool.obj
 0002:00014a30       ??_G?$basic_string@_WU?$char_traits@_W@std@@V?$K2StringAllocator@_W@@@std@@QAEPAXI@Z 1909fa30 f i c_blockertool.obj
 0002:00014a80       ??0?$CCvar@MM@@QAE@ABV?$basic_string@_WU?$char_traits@_W@std@@V?$K2StringAllocator@_W@@@std@@MHP6A_NPAVCConsoleElement@@ABV?$vector@V?$basic_string@_WU?$char_traits@_W@std@@V?$K2StringAllocator@_W@@@std@@V?$K2VectorAllocator@V?$basic_string@_WU?$char_traits@_W@std@@V?$K2StringAllocator@_W@@@std@@@@@@@Z@Z 1909fa80 f i c_blockertool.obj
 0002:00014ba0       ??_E?$CCvar@MM@@UAEPAXI@Z  1909fba0 f i c_blockertool.obj
 0002:00014ba0       ??_G?$CCvar@MM@@UAEPAXI@Z  1909fba0 f i c_blockertool.obj
 0002:00014bf0       ?Set@?$CCvar@MM@@UAEXABV?$basic_string@_WU?$char_traits@_W@std@@V?$K2StringAllocator@_W@@@std@@@Z 1909fbf0 f i c_blockertool.obj
 0002:00014df0       ?AtoF@@YAMABV?$basic_string@_WU?$char_traits@_W@std@@V?$K2StringAllocator@_W@@@std@@@Z 1909fdf0 f i c_blockertool.obj
 0002:00014e20       ??6CConsoleStream@@QAEAAV0@M@Z 1909fe20 f i c_blockertool.obj
 0002:00014ed0       ?XtoW@@YA?AV?$basic_string@_WU?$char_traits@_W@std@@V?$K2StringAllocator@_W@@@std@@MHHH@Z 1909fed0 f i c_blockertool.obj
 0002:00014fb0       ?Inc@?$CCvar@MM@@UAEXABV?$basic_string@_WU?$char_traits@_W@std@@V?$K2StringAllocator@_W@@@std@@@Z 1909ffb0 f i c_blockertool.obj
 0002:00015020       ?Toggle@?$CCvar@MM@@UAEXXZ 190a0020 f i c_blockertool.obj
 0002:000150a0       ??1?$CCvar@MM@@UAE@XZ      190a00a0 f i c_blockertool.obj
 0002:000150d0       ?Reset@?$CCvar@MM@@UAEXXZ  190a00d0 f i c_blockertool.obj
 0002:00015140       ?IsDefault@?$CCvar@MM@@UBE_NXZ 190a0140 f i c_blockertool.obj
 0002:000151a0       ?StoreValue@?$CCvar@MM@@UAEXXZ 190a01a0 f i c_blockertool.obj
 0002:000151d0       ?RestoreStored@?$CCvar@MM@@UAEXXZ 190a01d0 f i c_blockertool.obj
 0002:00015200       ?GetString@?$CCvar@MM@@UBE?AV?$basic_string@_WU?$char_traits@_W@std@@V?$K2StringAllocator@_W@@@std@@XZ 190a0200 f i c_blockertool.obj
 0002:00015260       ?SetIndex@?$CCvar@MM@@UAEXIABV?$basic_string@_WU?$char_traits@_W@std@@V?$K2StringAllocator@_W@@@std@@@Z 190a0260 f i c_blockertool.obj
 0002:00015280       ?SetValueIndex@?$CCvar@V?$CVec3@M@@M@@QAEXIM@Z 190a0280 f i c_blockertool.obj
 0002:000152d0       ?SetValueIndex@?$CCvar@V?$CVec4@M@@M@@QAEXIM@Z 190a02d0 f i c_blockertool.obj
 0002:00015320       ?GetRangeString@?$CCvar@MM@@UBE?AV?$basic_string@_WU?$char_traits@_W@std@@V?$K2StringAllocator@_W@@@std@@XZ 190a0320 f i c_blockertool.obj
 0002:00015590       ??0?$CCvar@HH@@QAE@ABV?$basic_string@_WU?$char_traits@_W@std@@V?$K2StringAllocator@_W@@@std@@HHP6A_NPAVCConsoleElement@@ABV?$vector@V?$basic_string@_WU?$char_traits@_W@std@@V?$K2StringAllocator@_W@@@std@@V?$K2VectorAllocator@V?$basic_string@_WU?$char_traits@_W@std@@V?$K2StringAllocator@_W@@@std@@@@@@@Z@Z 190a0590 f i c_blockertool.obj
 0002:000156a0       ??_G?$CCvar@HH@@UAEPAXI@Z  190a06a0 f i c_blockertool.obj
 0002:000156a0       ??_E?$CCvar@HH@@UAEPAXI@Z  190a06a0 f i c_blockertool.obj
 0002:000156f0       ?Set@?$CCvar@HH@@UAEXABV?$basic_string@_WU?$char_traits@_W@std@@V?$K2StringAllocator@_W@@@std@@@Z 190a06f0 f i c_blockertool.obj
 0002:00015840       ?AtoX@@YAAAHABV?$basic_string@_WU?$char_traits@_W@std@@V?$K2StringAllocator@_W@@@std@@AAH@Z 190a0840 f i c_blockertool.obj
 0002:00015880       ??6CConsoleStream@@QAEAAV0@H@Z 190a0880 f i c_blockertool.obj
 0002:00015930       ?XtoW@@YA?AV?$basic_string@_WU?$char_traits@_W@std@@V?$K2StringAllocator@_W@@@std@@HHHH@Z 190a0930 f i c_blockertool.obj
 0002:00015980       ?Inc@?$CCvar@HH@@UAEXABV?$basic_string@_WU?$char_traits@_W@std@@V?$K2StringAllocator@_W@@@std@@@Z 190a0980 f i c_blockertool.obj
 0002:000159f0       ?AtoI@@YAHABV?$basic_string@_WU?$char_traits@_W@std@@V?$K2StringAllocator@_W@@@std@@@Z 190a09f0 f i c_blockertool.obj
 0002:00015a20       ?Toggle@?$CCvar@HH@@UAEXXZ 190a0a20 f i c_blockertool.obj
 0002:00015a70       ??1?$CCvar@HH@@UAE@XZ      190a0a70 f i c_blockertool.obj
 0002:00015aa0       ?Reset@?$CCvar@HH@@UAEXXZ  190a0aa0 f i c_blockertool.obj
 0002:00015b00       ?IsDefault@?$CCvar@HH@@UBE_NXZ 190a0b00 f i c_blockertool.obj
 0002:00015b40       ?StoreValue@?$CCvar@HH@@UAEXXZ 190a0b40 f i c_blockertool.obj
 0002:00015b70       ?RestoreStored@?$CCvar@HH@@UAEXXZ 190a0b70 f i c_blockertool.obj
 0002:00015ba0       ?GetString@?$CCvar@HH@@UBE?AV?$basic_string@_WU?$char_traits@_W@std@@V?$K2StringAllocator@_W@@@std@@XZ 190a0ba0 f i c_blockertool.obj
 0002:00015c00       ?SetIndex@?$CCvar@HH@@UAEXIABV?$basic_string@_WU?$char_traits@_W@std@@V?$K2StringAllocator@_W@@@std@@@Z 190a0c00 f i c_blockertool.obj
 0002:00015c20       ??$_ItoW@H@@YA?AV?$basic_string@_WU?$char_traits@_W@std@@V?$K2StringAllocator@_W@@@std@@HHHH@Z 190a0c20 f i c_blockertool.obj
 0002:00015d20       ??$ABS@H@@YAHH@Z           190a0d20 f i c_blockertool.obj
 0002:00015d60       ?GetRangeString@?$CCvar@HH@@UBE?AV?$basic_string@_WU?$char_traits@_W@std@@V?$K2StringAllocator@_W@@@std@@XZ 190a0d60 f i c_blockertool.obj
 0002:00015fc0       ??0CCliffTool@@QAE@XZ      190a0fc0 f   c_clifftool.obj
 0002:00016280       ??_ECCliffTool@@UAEPAXI@Z  190a1280 f i c_clifftool.obj
 0002:00016280       ??_GCCliffTool@@UAEPAXI@Z  190a1280 f i c_clifftool.obj
 0002:000162d0       ??1CCliffTool@@UAE@XZ      190a12d0 f i c_clifftool.obj
 0002:00016380       ?PrimaryUp@CCliffTool@@UAEXXZ 190a1380 f   c_clifftool.obj
 0002:000163d0       ?PrimaryDown@CCliffTool@@UAEXXZ 190a13d0 f   c_clifftool.obj
 0002:00016640       ?SecondaryUp@CCliffTool@@UAEXXZ 190a1640 f   c_clifftool.obj
 0002:00016690       ?SecondaryDown@CCliffTool@@UAEXXZ 190a1690 f   c_clifftool.obj
 0002:000168b0       ?TertiaryUp@CCliffTool@@UAEXXZ 190a18b0 f   c_clifftool.obj
 0002:000168d0       ?TertiaryDown@CCliffTool@@UAEXXZ 190a18d0 f   c_clifftool.obj
 0002:000168f0       ?QuaternaryUp@CCliffTool@@UAEXXZ 190a18f0 f   c_clifftool.obj
 0002:00016910       ?QuaternaryDown@CCliffTool@@UAEXXZ 190a1910 f   c_clifftool.obj
 0002:00016930       ?Cancel@CCliffTool@@UAEXXZ 190a1930 f   c_clifftool.obj
 0002:00016950       ?Delete@CCliffTool@@UAEXXZ 190a1950 f   c_clifftool.obj
 0002:00016970       ?CalcToolProperties@CCliffTool@@QAEXXZ 190a1970 f   c_clifftool.obj
 0002:00016e20       ?Enter@CCliffTool@@UAEXXZ  190a1e20 f   c_clifftool.obj
 0002:00016e40       ?CliffModify@CCliffTool@@CAXPAEABV?$CRect@H@@ABVCBrush@@_N@Z 190a1e40 f   c_clifftool.obj
 0002:00016f10       ?PaintCliff@CCliffTool@@QAEXM@Z 190a1f10 f   c_clifftool.obj
 0002:00017650       ?Frame@CCliffTool@@UAEXM@Z 190a2650 f   c_clifftool.obj
 0002:00017930       ?Draw@CCliffTool@@UAEXXZ   190a2930 f   c_clifftool.obj
 0002:00017c10       ?Render@CCliffTool@@UAEXXZ 190a2c10 f   c_clifftool.obj
 0002:0001b6e0       ?uiSetCliffModeFn@@YA?AV?$basic_string@_WU?$char_traits@_W@std@@V?$K2StringAllocator@_W@@@std@@PAVIWidget@@ABV?$vector@PAVCUIScriptToken@@V?$K2VectorAllocator@PAVCUIScriptToken@@@@@@@Z 190a66e0 f   c_clifftool.obj
 0002:0001b740       ?uiSetCliffModeVoidFn@@YAXPAVIWidget@@ABV?$vector@PAVCUIScriptToken@@V?$K2VectorAllocator@PAVCUIScriptToken@@@@@@@Z 190a6740 f   c_clifftool.obj
 0002:0001bbf0       ?CliffClear@CCliffTool@@QAEXXZ 190a6bf0 f   c_clifftool.obj
 0002:0001bed0       ?CliffDraw@CCliffTool@@QAEXXZ 190a6ed0 f   c_clifftool.obj
 0002:0001c1c0       ?CanBlockVert@CCliffTool@@QAE_NHH@Z 190a71c0 f   c_clifftool.obj
 0002:0001c320       ?CheckForRampsToErase@CCliffTool@@QAEXHH@Z 190a7320 f   c_clifftool.obj
 0002:0001c4a0       ?RampErase@CCliffTool@@QAEXXZ 190a74a0 f   c_clifftool.obj
 0002:0001c4e0       ?RampErase@CCliffTool@@QAEXHH@Z 190a74e0 f   c_clifftool.obj
 0002:0001d210       ?ClampCliffRectToGrid@CCliffTool@@QAEXPAV?$CRect@H@@@Z 190a8210 f   c_clifftool.obj
 0002:0001d380       ?ClampRectToGrid@CCliffTool@@QAEXPAV?$CRect@H@@@Z 190a8380 f   c_clifftool.obj
 0002:0001d4b0       ?CliffVariation@CCliffTool@@QAEXXZ 190a84b0 f   c_clifftool.obj
 0002:0001da20       ?CliffMapSet@CCliffTool@@QAEXH@Z 190a8a20 f   c_clifftool.obj
 0002:0001dcc0       ?CliffMapAdd@CCliffTool@@QAEXH@Z 190a8cc0 f   c_clifftool.obj
 0002:0001e000       ?CliffMapGet@CCliffTool@@QAEHXZ 190a9000 f   c_clifftool.obj
 0002:0001e070       ?EnforceHeight@CCliffTool@@QAE_NHHAAV?$CRect@H@@@Z 190a9070 f   c_clifftool.obj
 0002:0001e650       ?CalculateHiddenTiles@CCliffTool@@QAEXV?$CRect@H@@_N@Z 190a9650 f   c_clifftool.obj
 0002:0001e8d0       ?CalculateTile@CCliffTool@@QAEXHH@Z 190a98d0 f   c_clifftool.obj
 0002:000259f0       ?GetPiecePath@CVariation@@QAE?AV?$basic_string@_WU?$char_traits@_W@std@@V?$K2StringAllocator@_W@@@std@@XZ 190b09f0 f i c_clifftool.obj
 0002:00025a40       ?GetDefaultRotation@CVariation@@QAEMXZ 190b0a40 f i c_clifftool.obj
 0002:00025a60       ?GetRotationVertex@CVariation@@QAEHXZ 190b0a60 f i c_clifftool.obj
 0002:00025a80       ??1CCliffPiece@@QAE@XZ     190b0a80 f i c_clifftool.obj
 0002:00025b00       ?RotationAdjustment@CCliffTool@@QAEXIH@Z 190b0b00 f   c_clifftool.obj
 0002:000268e0       ?RampPlace@CCliffTool@@QAEXXZ 190b18e0 f   c_clifftool.obj
 0002:00026bd0       ?RampPlaceModel@CCliffTool@@QAEXHHG@Z 190b1bd0 f   c_clifftool.obj
 0002:0002c000       ??1rRampPiece@@QAE@XZ      190b7000 f i c_clifftool.obj
 0002:0002c080       ?IsRampFlagFirstSet@CCliffTool@@QAE_NG@Z 190b7080 f i c_clifftool.obj
 0002:0002c0d0       ?IsRampFlagSecondSet@CCliffTool@@QAE_NG@Z 190b70d0 f i c_clifftool.obj
 0002:0002c120       ?K2_RAND@@YANNN@Z          190b7120 f i c_clifftool.obj
 0002:0002c1c0       ?genrand@MersenneTwister@@QAENNN@Z 190b71c0 f i c_clifftool.obj
 0002:0002c210       ?genrand_uint32@MersenneTwister@@QAEIXZ 190b7210 f i c_clifftool.obj
 0002:0002c420       ?CliffDelete@CCliffTool@@QAEXHH@Z 190b7420 f   c_clifftool.obj
 0002:0002c8a0       ?CliffDelete@CCliffTool@@QAEXV?$CRect@H@@@Z 190b78a0 f   c_clifftool.obj
 0002:0002cd60       ?CliffCreate@CCliffTool@@QAEXV?$CVec3@M@@MV?$basic_string@_WU?$char_traits@_W@std@@V?$K2StringAllocator@_W@@@std@@H@Z 190b7d60 f   c_clifftool.obj
 0002:0002d0d0       ?fabs@@YAMM@Z              190b80d0 f i c_clifftool.obj
 0002:0002d100       _fabsf                     190b8100 f i c_clifftool.obj
 0002:0002d130       ?fmod@@YAMMM@Z             190b8130 f i c_clifftool.obj
 0002:0002d160       _fmodf                     190b8160 f i c_clifftool.obj
 0002:0002d1a0       ?RampCreate@CCliffTool@@QAEXV?$CVec3@M@@MV?$basic_string@_WU?$char_traits@_W@std@@V?$K2StringAllocator@_W@@@std@@H@Z 190b81a0 f   c_clifftool.obj
 0002:0002d510       ?CalculateHeightVertex@CCliffTool@@QAEMHH@Z 190b8510 f   c_clifftool.obj
 0002:0002d830       ?CalculateCliffBlockers@CCliffTool@@QAEXV?$CRect@H@@@Z 190b8830 f   c_clifftool.obj
 0002:0002da60       ?GetCliffVertHeight@CCliffTool@@QAEHHH@Z 190b8a60 f   c_clifftool.obj
 0002:0002dac0       ?CanPlaceRamp@CCliffTool@@QAEGHH@Z 190b8ac0 f   c_clifftool.obj
 0002:0002fe60       ?CanPlaceDiagonalRamp@CCliffTool@@QAE_NHH@Z 190bae60 f   c_clifftool.obj
 0002:0002feb0       ??0?$CRect@H@@QAE@HHHH@Z   190baeb0 f i c_clifftool.obj
 0002:0002ff00       ?IsNormalized@?$CRect@H@@QBE_NXZ 190baf00 f i c_clifftool.obj
 0002:0002ff60       ?Crop@?$CRect@H@@QAEXHHHH@Z 190baf60 f i c_clifftool.obj
 0002:00030010       ?MoveTo@?$CRect@H@@QAEXHH@Z 190bb010 f i c_clifftool.obj
 0002:00030090       ?Stretch@?$CRect@H@@QAEXHH@Z 190bb090 f i c_clifftool.obj
 0002:000300d0       ??4?$CRect@H@@QAEAAV0@ABV0@@Z 190bb0d0 f i c_clifftool.obj
 0002:00030130       ?GetMid@?$CRect@H@@QBE?AV?$CVec2@H@@XZ 190bb130 f i c_clifftool.obj
 0002:00030190       ?AddPoint@?$CRect@H@@QAEXABV?$CVec2@H@@@Z 190bb190 f i c_clifftool.obj
 0002:00030240       ??1?$CRect@M@@QAE@XZ       190bb240 f i c_clifftool.obj
 0002:00030260       ??0?$CRect@M@@QAE@MMMM@Z   190bb260 f i c_clifftool.obj
 0002:000302c0       ??D?$_Vector_iterator@IV?$K2VectorAllocator@I@@@std@@QBEAAIXZ 190bb2c0 f i c_clifftool.obj
 0002:000302f0       ??E?$_Vector_iterator@IV?$K2VectorAllocator@I@@@std@@QAE?AV01@H@Z 190bb2f0 f i c_clifftool.obj
 0002:000303a0       ??1?$vector@VCVariation@@V?$allocator@VCVariation@@@std@@@std@@QAE@XZ 190bb3a0 f i c_clifftool.obj
 0002:00030420       ??0?$CVec4@E@@QAE@EEEE@Z   190bb420 f i c_clifftool.obj
 0002:00030470       ??0?$vector@V?$CVec2@H@@V?$allocator@V?$CVec2@H@@@std@@@std@@QAE@XZ 190bb470 f i c_clifftool.obj
 0002:00030500       ??1?$vector@V?$CVec2@H@@V?$allocator@V?$CVec2@H@@@std@@@std@@QAE@XZ 190bb500 f i c_clifftool.obj
 0002:00030580       ?size@?$vector@V?$CVec2@H@@V?$allocator@V?$CVec2@H@@@std@@@std@@QBEIXZ 190bb580 f i c_clifftool.obj
 0002:000305d0       ??A?$vector@V?$CVec2@H@@V?$allocator@V?$CVec2@H@@@std@@@std@@QAEAAV?$CVec2@H@@I@Z 190bb5d0 f i c_clifftool.obj
 0002:000306f0       ?push_back@?$vector@V?$CVec2@H@@V?$allocator@V?$CVec2@H@@@std@@@std@@QAEXABV?$CVec2@H@@@Z 190bb6f0 f i c_clifftool.obj
 0002:000307a0       ??0?$CVec2@H@@QAE@HH@Z     190bb7a0 f i c_clifftool.obj
 0002:000307e0       ??1?$_Vector_val@VCVariation@@V?$allocator@VCVariation@@@std@@@std@@QAE@XZ 190bb7e0 f i c_clifftool.obj
 0002:00030810       ??1?$_Vector_val@V?$CVec2@H@@V?$allocator@V?$CVec2@H@@@std@@@std@@QAE@XZ 190bb810 f i c_clifftool.obj
 0002:00030840       ??1?$_Vector_iterator@V?$CVec2@H@@V?$allocator@V?$CVec2@H@@@std@@@std@@QAE@XZ 190bb840 f i c_clifftool.obj
 0002:00030870       ??1?$_Vector_const_iterator@V?$CVec2@H@@V?$allocator@V?$CVec2@H@@@std@@@std@@QAE@XZ 190bb870 f i c_clifftool.obj
 0002:000308a0       ??1?$_Ranit@V?$CVec2@H@@HPBV1@ABV1@@std@@QAE@XZ 190bb8a0 f i c_clifftool.obj
 0002:000308d0       ?Crop@?$CRect@H@@QAEXABV1@@Z 190bb8d0 f i c_clifftool.obj
 0002:000309c0       ?lt@?$CRect@H@@QBEABV?$CVec2@H@@XZ 190bb9c0 f i c_clifftool.obj
 0002:000309e0       ?rb@?$CRect@H@@QBEABV?$CVec2@H@@XZ 190bb9e0 f i c_clifftool.obj
 0002:00030a00       ??E?$_Vector_iterator@IV?$K2VectorAllocator@I@@@std@@QAEAAV01@XZ 190bba00 f i c_clifftool.obj
 0002:00030a30       ??D?$_Vector_const_iterator@IV?$K2VectorAllocator@I@@@std@@QBEABIXZ 190bba30 f i c_clifftool.obj
 0002:00030af0       ?_Tidy@?$vector@VCVariation@@V?$allocator@VCVariation@@@std@@@std@@IAEXXZ 190bbaf0 f i c_clifftool.obj
 0002:00030b90       ?capacity@?$vector@V?$CVec2@H@@V?$allocator@V?$CVec2@H@@@std@@@std@@QBEIXZ 190bbb90 f i c_clifftool.obj
 0002:00030be0       ?end@?$vector@V?$CVec2@H@@V?$allocator@V?$CVec2@H@@@std@@@std@@QAE?AV?$_Vector_iterator@V?$CVec2@H@@V?$allocator@V?$CVec2@H@@@std@@@2@XZ 190bbbe0 f i c_clifftool.obj
 0002:00030c30       ?insert@?$vector@V?$CVec2@H@@V?$allocator@V?$CVec2@H@@@std@@@std@@QAE?AV?$_Vector_iterator@V?$CVec2@H@@V?$allocator@V?$CVec2@H@@@std@@@2@V32@ABV?$CVec2@H@@@Z 190bbc30 f i c_clifftool.obj
 0002:00030da0       ?_Buy@?$vector@V?$CVec2@H@@V?$allocator@V?$CVec2@H@@@std@@@std@@IAE_NI@Z 190bbda0 f i c_clifftool.obj
 0002:00030e50       ?_Tidy@?$vector@V?$CVec2@H@@V?$allocator@V?$CVec2@H@@@std@@@std@@IAEXXZ 190bbe50 f i c_clifftool.obj
 0002:00030ef0       ?_Ufill@?$vector@V?$CVec2@H@@V?$allocator@V?$CVec2@H@@@std@@@std@@IAEPAV?$CVec2@H@@PAV3@IABV3@@Z 190bbef0 f i c_clifftool.obj
 0002:00030f40       ?_Orphan_range@?$vector@V?$CVec2@H@@V?$allocator@V?$CVec2@H@@@std@@@std@@IBEXPAV?$CVec2@H@@0@Z 190bbf40 f i c_clifftool.obj
 0002:00030fe0       ??0?$_Vector_val@V?$CVec2@H@@V?$allocator@V?$CVec2@H@@@std@@@std@@IAE@V?$allocator@V?$CVec2@H@@@1@@Z 190bbfe0 f i c_clifftool.obj
 0002:00031020       ??0?$allocator@V?$CVec2@H@@@std@@QAE@XZ 190bc020 f i c_clifftool.obj
 0002:00031040       ??H?$CVec2@H@@QBE?AV0@ABV0@@Z 190bc040 f i c_clifftool.obj
 0002:00031090       ??K?$CVec2@H@@QBE?AV0@H@Z  190bc090 f i c_clifftool.obj
 0002:000310e0       ??0?$_Vector_iterator@V?$CVec2@H@@V?$allocator@V?$CVec2@H@@@std@@@std@@QAE@ABV01@@Z 190bc0e0 f i c_clifftool.obj
 0002:00031110       ??0?$_Vector_const_iterator@V?$CVec2@H@@V?$allocator@V?$CVec2@H@@@std@@@std@@QAE@ABV01@@Z 190bc110 f i c_clifftool.obj
 0002:00031150       ??0?$_Ranit@V?$CVec2@H@@HPBV1@ABV1@@std@@QAE@ABU01@@Z 190bc150 f i c_clifftool.obj
 0002:00031180       ??B?$CCvar@V?$basic_string@_WU?$char_traits@_W@std@@V?$K2StringAllocator@_W@@@std@@V12@@@QBE?AV?$basic_string@_WU?$char_traits@_W@std@@V?$K2StringAllocator@_W@@@std@@XZ 190bc180 f i c_clifftool.obj
 0002:000311d0       ??E?$_Vector_const_iterator@IV?$K2VectorAllocator@I@@@std@@QAEAAV01@XZ 190bc1d0 f i c_clifftool.obj
 0002:000312c0       ?_Destroy@?$vector@VCVariation@@V?$allocator@VCVariation@@@std@@@std@@IAEXPAVCVariation@@0@Z 190bc2c0 f i c_clifftool.obj
 0002:00031300       ?deallocate@?$allocator@VCVariation@@@std@@QAEXPAVCVariation@@I@Z 190bc300 f i c_clifftool.obj
 0002:00031330       ??9@YA_NABV?$CCvar@V?$basic_string@_WU?$char_traits@_W@std@@V?$K2StringAllocator@_W@@@std@@V12@@@ABV?$basic_string@_WU?$char_traits@_W@std@@V?$K2StringAllocator@_W@@@std@@@Z 190bc330 f i c_clifftool.obj
 0002:000313d0       ?begin@?$vector@V?$CVec2@H@@V?$allocator@V?$CVec2@H@@@std@@@std@@QAE?AV?$_Vector_iterator@V?$CVec2@H@@V?$allocator@V?$CVec2@H@@@std@@@2@XZ 190bc3d0 f i c_clifftool.obj
 0002:00031420       ?max_size@?$vector@V?$CVec2@H@@V?$allocator@V?$CVec2@H@@@std@@@std@@QBEIXZ 190bc420 f i c_clifftool.obj
 0002:00031450       ?_Destroy@?$vector@V?$CVec2@H@@V?$allocator@V?$CVec2@H@@@std@@@std@@IAEXPAV?$CVec2@H@@0@Z 190bc450 f i c_clifftool.obj
 0002:00031490       ?_Insert_n@?$vector@V?$CVec2@H@@V?$allocator@V?$CVec2@H@@@std@@@std@@IAEXV?$_Vector_iterator@V?$CVec2@H@@V?$allocator@V?$CVec2@H@@@std@@@2@IABV?$CVec2@H@@@Z 190bc490 f i c_clifftool.obj
 0002:00031950       ?_Xlen@?$vector@V?$CVec2@H@@V?$allocator@V?$CVec2@H@@@std@@@std@@KAXXZ 190bc950 f i c_clifftool.obj
 0002:00031a00       ??0?$allocator@V?$CVec2@H@@@std@@QAE@ABV01@@Z 190bca00 f i c_clifftool.obj
 0002:00031a20       ?deallocate@?$allocator@V?$CVec2@H@@@std@@QAEXPAV?$CVec2@H@@I@Z 190bca20 f i c_clifftool.obj
 0002:00031a50       ?allocate@?$allocator@V?$CVec2@H@@@std@@QAEPAV?$CVec2@H@@I@Z 190bca50 f i c_clifftool.obj
 0002:00031a80       ??0?$_Vector_iterator@V?$CVec2@H@@V?$allocator@V?$CVec2@H@@@std@@@std@@QAE@PAV?$CVec2@H@@PBV_Container_base@1@@Z 190bca80 f i c_clifftool.obj
 0002:00031ac0       ??H?$_Vector_iterator@V?$CVec2@H@@V?$allocator@V?$CVec2@H@@@std@@@std@@QBE?AV01@H@Z 190bcac0 f i c_clifftool.obj
 0002:00031b70       ??G?$_Vector_iterator@V?$CVec2@H@@V?$allocator@V?$CVec2@H@@@std@@@std@@QBEHABV?$_Vector_const_iterator@V?$CVec2@H@@V?$allocator@V?$CVec2@H@@@std@@@1@@Z 190bcb70 f i c_clifftool.obj
 0002:00031ba0       ?max_size@?$allocator@V?$CVec2@H@@@std@@QBEIXZ 190bcba0 f i c_clifftool.obj
 0002:00031be0       ??Y?$_Vector_iterator@V?$CVec2@H@@V?$allocator@V?$CVec2@H@@@std@@@std@@QAEAAV01@H@Z 190bcbe0 f i c_clifftool.obj
 0002:00031c10       ??0?$_Vector_const_iterator@V?$CVec2@H@@V?$allocator@V?$CVec2@H@@@std@@@std@@QAE@PAV?$CVec2@H@@PBV_Container_base@1@@Z 190bcc10 f i c_clifftool.obj
 0002:00031d10       ??G?$_Vector_const_iterator@V?$CVec2@H@@V?$allocator@V?$CVec2@H@@@std@@@std@@QBEHABV01@@Z 190bcd10 f i c_clifftool.obj
 0002:00031d50       ??0?$_Ranit@V?$CVec2@H@@HPBV1@ABV1@@std@@QAE@XZ 190bcd50 f i c_clifftool.obj
 0002:00031d80       ??Y?$_Vector_const_iterator@V?$CVec2@H@@V?$allocator@V?$CVec2@H@@@std@@@std@@QAEAAV01@H@Z 190bcd80 f i c_clifftool.obj
 0002:00031eb0       ?_Compat@?$_Vector_const_iterator@V?$CVec2@H@@V?$allocator@V?$CVec2@H@@@std@@@std@@QBEXABV12@@Z 190bceb0 f i c_clifftool.obj
 0002:00031f60       ??1?$vector@IV?$K2VectorAllocator@I@@@@QAE@XZ 190bcf60 f i c_clifftool.obj
 0002:00031f90       ?GetType@CWorldEntity@@QBE?AV?$basic_string@_WU?$char_traits@_W@std@@V?$K2StringAllocator@_W@@@std@@XZ 190bcf90 f i c_clifftool.obj
 0002:00031fe0       ?SetType@CWorldEntity@@QAEXABV?$basic_string@_WU?$char_traits@_W@std@@V?$K2StringAllocator@_W@@@std@@@Z 190bcfe0 f i c_clifftool.obj
 0002:00032010       ?GetPosition@CWorldEntity@@QBEABV?$CVec3@M@@XZ 190bd010 f i c_clifftool.obj
 0002:00032040       ?SetPosition@CWorldEntity@@QAEXABV?$CVec3@M@@@Z 190bd040 f i c_clifftool.obj
 0002:00032080       ?GetAngles@CWorldEntity@@QBEABV?$CVec3@M@@XZ 190bd080 f i c_clifftool.obj
 0002:000320b0       ?SetAngles@CWorldEntity@@QAEXABV?$CVec3@M@@@Z 190bd0b0 f i c_clifftool.obj
 0002:000320f0       ?SetScale@CWorldEntity@@QAEXM@Z 190bd0f0 f i c_clifftool.obj
 0002:00032120       ?GetModelHandle@CWorldEntity@@QBEIXZ 190bd120 f i c_clifftool.obj
 0002:00032150       ?SetModelHandle@CWorldEntity@@QAEXI@Z 190bd150 f i c_clifftool.obj
 0002:00032180       ?SetModelPath@CWorldEntity@@QAEXABV?$basic_string@_WU?$char_traits@_W@std@@V?$K2StringAllocator@_W@@@std@@@Z 190bd180 f i c_clifftool.obj
 0002:000321b0       ?SetSkin@CWorldEntity@@QAEXI@Z 190bd1b0 f i c_clifftool.obj
 0002:000321e0       ??$MIN@H@@YAABHABH0@Z      190bd1e0 f i c_clifftool.obj
 0002:00032220       ??$max@H@std@@YAABHABH0@Z  190bd220 f i c_clifftool.obj
 0002:00032280       ??$min@H@std@@YAABHABH0@Z  190bd280 f i c_clifftool.obj
 0002:000322e0       ??$unchecked_uninitialized_fill_n@PAV?$CVec2@H@@IV1@V?$allocator@V?$CVec2@H@@@std@@@stdext@@YAXPAV?$CVec2@H@@IABV1@AAV?$allocator@V?$CVec2@H@@@std@@@Z 190bd2e0 f i c_clifftool.obj
 0002:00032340       ??$_Destroy_range@VCVariation@@V?$allocator@VCVariation@@@std@@@std@@YAXPAVCVariation@@0AAV?$allocator@VCVariation@@@0@@Z 190bd340 f i c_clifftool.obj
 0002:00032390       ??$_Destroy_range@V?$CVec2@H@@V?$allocator@V?$CVec2@H@@@std@@@std@@YAXPAV?$CVec2@H@@0AAV?$allocator@V?$CVec2@H@@@0@@Z 190bd390 f i c_clifftool.obj
 0002:000323e0       ??$_Umove@PAV?$CVec2@H@@@?$vector@V?$CVec2@H@@V?$allocator@V?$CVec2@H@@@std@@@std@@IAEPAV?$CVec2@H@@PAV2@00@Z 190bd3e0 f i c_clifftool.obj
 0002:00032420       ??$fill@PAV?$CVec2@H@@V1@@std@@YAXPAV?$CVec2@H@@0ABV1@@Z 190bd420 f i c_clifftool.obj
 0002:00032470       ??$_Unchecked_move_backward@PAV?$CVec2@H@@PAV1@@stdext@@YAPAV?$CVec2@H@@PAV1@00@Z 190bd470 f i c_clifftool.obj
 0002:00032500       ??$_Allocate@V?$CVec2@H@@@std@@YAPAV?$CVec2@H@@IPAV1@@Z 190bd500 f i c_clifftool.obj
 0002:00032570       ??0bad_alloc@std@@QAE@PBD@Z 190bd570 f i c_clifftool.obj
 0002:000325b0       ??1bad_alloc@std@@UAE@XZ   190bd5b0 f i c_clifftool.obj
 0002:000325e0       ??_Ebad_alloc@std@@UAEPAXI@Z 190bd5e0 f i c_clifftool.obj
 0002:000325e0       ??_Gbad_alloc@std@@UAEPAXI@Z 190bd5e0 f i c_clifftool.obj
 0002:00032630       ?GetWorldWidth@CWorld@@QBEMXZ 190bd630 f i c_clifftool.obj
 0002:00032670       ?GetWorldHeight@CWorld@@QBEMXZ 190bd670 f i c_clifftool.obj
 0002:000326b0       ?GetCliffGridWidth@CWorld@@QBEHXZ 190bd6b0 f i c_clifftool.obj
 0002:000326f0       ?GetCliffTileWidth@CWorld@@QBEHXZ 190bd6f0 f i c_clifftool.obj
 0002:00032720       ?GetCliffGridHeight@CWorld@@QBEHXZ 190bd720 f i c_clifftool.obj
 0002:00032760       ?GetCliffTileHeight@CWorld@@QBEHXZ 190bd760 f i c_clifftool.obj
 0002:00032790       ?GetCliffSize@CWorld@@QBEHXZ 190bd790 f i c_clifftool.obj
 0002:000327c0       ?AddCliffDef@CWorld@@QBEII@Z 190bd7c0 f i c_clifftool.obj
 0002:00032800       ?GetRampTile@CWorld@@QBE?BEHH@Z 190bd800 f i c_clifftool.obj
 0002:00032840       ?SetRampTile@CWorld@@QBEXHHE@Z 190bd840 f i c_clifftool.obj
 0002:00032880       ?GetVertCliffMapWidth@CWorld@@QBEHXZ 190bd880 f i c_clifftool.obj
 0002:000328b0       ?GetVertCliffMapWidth@CVertexCliffMap@@QAEHXZ 190bd8b0 f i c_clifftool.obj
 0002:000328d0       ?GetVertCliffMapHeight@CWorld@@QBEHXZ 190bd8d0 f i c_clifftool.obj
 0002:00032900       ?GetVertCliffMapHeight@CVertexCliffMap@@QAEHXZ 190bd900 f i c_clifftool.obj
 0002:00032920       ?GetVertCliffMapArea@CWorld@@QBEHXZ 190bd920 f i c_clifftool.obj
 0002:00032970       ?GetVertCliffMap@CWorld@@QBEPAHXZ 190bd970 f i c_clifftool.obj
 0002:000329a0       ?GetVertexCliffMap@CVertexCliffMap@@QAEPAHXZ 190bd9a0 f i c_clifftool.obj
 0002:000329c0       ?GetVertCliff@CWorld@@QBEHHH@Z 190bd9c0 f i c_clifftool.obj
 0002:00032a00       ?GetTileCliff@CWorld@@QBEHHH@Z 190bda00 f i c_clifftool.obj
 0002:00032a40       ?GetTileCliffVariationMap@CWorld@@QBEPAIXZ 190bda40 f i c_clifftool.obj
 0002:00032a70       ?GetCliffVariationMap@CCliffVariationMap@@QAEPAIXZ 190bda70 f i c_clifftool.obj
 0002:00032a90       ?GetTileCliffDefinitionMap@CWorld@@QBEPAIXZ 190bda90 f i c_clifftool.obj
 0002:00032ac0       ?GetCliffDefinitionMap@CCliffVariationMap@@QAEPAIXZ 190bdac0 f i c_clifftool.obj
 0002:00032ae0       ?GetEntity@CWorld@@QBEPAVCWorldEntity@@I_N@Z 190bdae0 f i c_clifftool.obj
 0002:00032b20       ?AllocateNewEntity@CWorld@@QBEII@Z 190bdb20 f i c_clifftool.obj
 0002:00032b60       ?DeleteEntity@CWorld@@QBEXI@Z 190bdb60 f i c_clifftool.obj
 0002:00032ba0       ?LinkEntity@CWorld@@QBEXIII@Z 190bdba0 f i c_clifftool.obj
 0002:00032bf0       ?UnlinkEntity@CWorld@@QBEXI@Z 190bdbf0 f i c_clifftool.obj
 0002:00032c30       ?GetEntitiesInRegion@CWorld@@QAEXAAV?$vector@IV?$K2VectorAllocator@I@@@@ABV?$CBoundingBox@M@@I@Z 190bdc30 f i c_clifftool.obj
 0002:00032c70       ??$_Debug_lt@HH@std@@YA_NABH0PB_WI@Z 190bdc70 f i c_clifftool.obj
 0002:00032cd0       ??$_Ptr_cat@PAV?$CVec2@H@@PAV1@@std@@YA?AU_Nonscalar_ptr_iterator_tag@0@AAPAV?$CVec2@H@@0@Z 190bdcd0 f i c_clifftool.obj
 0002:00032cf0       ??$_Uninit_fill_n@PAV?$CVec2@H@@IV1@V?$allocator@V?$CVec2@H@@@std@@@std@@YAXPAV?$CVec2@H@@IABV1@AAV?$allocator@V?$CVec2@H@@@0@U_Nonscalar_ptr_iterator_tag@0@U_Range_checked_iterator_tag@0@@Z 190bdcf0 f i c_clifftool.obj
 0002:00032de0       ??$_Ptr_cat@PAVCVariation@@PAV1@@std@@YA?AU_Nonscalar_ptr_iterator_tag@0@AAPAVCVariation@@0@Z 190bdde0 f i c_clifftool.obj
 0002:00032e00       ??$_Destroy_range@VCVariation@@V?$allocator@VCVariation@@@std@@@std@@YAXPAVCVariation@@0AAV?$allocator@VCVariation@@@0@U_Nonscalar_ptr_iterator_tag@0@@Z 190bde00 f i c_clifftool.obj
 0002:00032e40       ??$_Destroy_range@V?$CVec2@H@@V?$allocator@V?$CVec2@H@@@std@@@std@@YAXPAV?$CVec2@H@@0AAV?$allocator@V?$CVec2@H@@@0@U_Nonscalar_ptr_iterator_tag@0@@Z 190bde40 f i c_clifftool.obj
 0002:00032e80       ??$_Unchecked_uninitialized_move@PAV?$CVec2@H@@PAV1@V?$allocator@V?$CVec2@H@@@std@@@stdext@@YAPAV?$CVec2@H@@PAV1@00AAV?$allocator@V?$CVec2@H@@@std@@@Z 190bde80 f i c_clifftool.obj
 0002:00032ef0       ??$_Checked_base@PAV?$CVec2@H@@@std@@YAPAV?$CVec2@H@@AAPAV1@@Z 190bdef0 f i c_clifftool.obj
 0002:00032f20       ??$_Fill@PAV?$CVec2@H@@V1@@std@@YAXPAV?$CVec2@H@@0ABV1@@Z 190bdf20 f i c_clifftool.obj
 0002:00032f90       ??$_Iter_random@PAV?$CVec2@H@@PAV1@@std@@YA?AUrandom_access_iterator_tag@0@ABQAV?$CVec2@H@@0@Z 190bdf90 f i c_clifftool.obj
 0002:00032fb0       ??$_Move_cat@PAV?$CVec2@H@@@std@@YA?AU_Undefined_move_tag@0@ABQAV?$CVec2@H@@@Z 190bdfb0 f i c_clifftool.obj
 0002:00032fd0       ??$_Move_backward_opt@PAV?$CVec2@H@@PAV1@Urandom_access_iterator_tag@std@@U_Undefined_move_tag@3@@std@@YAPAV?$CVec2@H@@PAV1@00Urandom_access_iterator_tag@0@U_Undefined_move_tag@0@U_Range_checked_iterator_tag@0@@Z 190bdfd0 f i c_clifftool.obj
 0002:00033030       ?destroy@?$allocator@VCVariation@@@std@@QAEXPAVCVariation@@@Z 190be030 f i c_clifftool.obj
 0002:00033060       ?construct@?$allocator@V?$CVec2@H@@@std@@QAEXPAV?$CVec2@H@@ABV3@@Z 190be060 f i c_clifftool.obj
 0002:00033090       ?destroy@?$allocator@V?$CVec2@H@@@std@@QAEXPAV?$CVec2@H@@@Z 190be090 f i c_clifftool.obj
 0002:000330c0       ??$_Uninit_move@PAV?$CVec2@H@@PAV1@V?$allocator@V?$CVec2@H@@@std@@U_Undefined_move_tag@3@@std@@YAPAV?$CVec2@H@@PAV1@00AAV?$allocator@V?$CVec2@H@@@0@U_Undefined_move_tag@0@U_Range_checked_iterator_tag@0@@Z 190be0c0 f i c_clifftool.obj
 0002:00033100       ??$_Checked_base@PAV?$CVec2@H@@@std@@YAPAV?$CVec2@H@@AAPAV1@U_Unchanged_checked_iterator_base_type_tag@0@@Z 190be100 f i c_clifftool.obj
 0002:00033120       ??$_Debug_range@PAV?$CVec2@H@@@std@@YAXPAV?$CVec2@H@@0PB_WI@Z 190be120 f i c_clifftool.obj
 0002:00033170       ??$_Copy_backward_opt@PAV?$CVec2@H@@PAV1@@std@@YAPAV?$CVec2@H@@PAV1@00Urandom_access_iterator_tag@0@U_Nonscalar_ptr_iterator_tag@0@U_Range_checked_iterator_tag@0@@Z 190be170 f i c_clifftool.obj
 0002:000331e0       ??$_Destroy@VCVariation@@@std@@YAXPAVCVariation@@@Z 190be1e0 f i c_clifftool.obj
 0002:00033200       ??$_Construct@V?$CVec2@H@@V1@@std@@YAXPAV?$CVec2@H@@ABV1@@Z 190be200 f i c_clifftool.obj
 0002:00033260       ??$_Destroy@V?$CVec2@H@@@std@@YAXPAV?$CVec2@H@@@Z 190be260 f i c_clifftool.obj
 0002:00033280       ??_GCVariation@@QAEPAXI@Z  190be280 f i c_clifftool.obj
 0002:000332d0       ??1CVariation@@QAE@XZ      190be2d0 f i c_clifftool.obj
 0002:00033300       ??$unchecked_uninitialized_copy@PAV?$CVec2@H@@PAV1@V?$allocator@V?$CVec2@H@@@std@@@stdext@@YAPAV?$CVec2@H@@PAV1@00AAV?$allocator@V?$CVec2@H@@@std@@@Z 190be300 f i c_clifftool.obj
 0002:00033370       ??$_Iter_cat@PAV?$CVec2@H@@@std@@YA?AUrandom_access_iterator_tag@0@ABQAV?$CVec2@H@@@Z 190be370 f i c_clifftool.obj
 0002:00033390       ??$_Debug_range2@PAV?$CVec2@H@@@std@@YAXPAV?$CVec2@H@@0PB_WIUrandom_access_iterator_tag@0@@Z 190be390 f i c_clifftool.obj
 0002:00033410       ??$_Copy_backward_opt@PAV?$CVec2@H@@PAV1@Uforward_iterator_tag@std@@@std@@YAPAV?$CVec2@H@@PAV1@00Uforward_iterator_tag@0@U_Nonscalar_ptr_iterator_tag@0@U_Range_checked_iterator_tag@0@@Z 190be410 f i c_clifftool.obj
 0002:00033480       ??$_Uninit_copy@PAV?$CVec2@H@@PAV1@V?$allocator@V?$CVec2@H@@@std@@@std@@YAPAV?$CVec2@H@@PAV1@00AAV?$allocator@V?$CVec2@H@@@0@U_Nonscalar_ptr_iterator_tag@0@U_Range_checked_iterator_tag@0@@Z 190be480 f i c_clifftool.obj
 0002:000335a0       ??$_Debug_pointer@V?$CVec2@H@@@std@@YAXPAV?$CVec2@H@@PB_WI@Z 190be5a0 f i c_clifftool.obj
 0002:000335e0       ??0?$vector@IV?$K2VectorAllocator@I@@@@QAE@XZ 190be5e0 f i c_clifftool.obj
 0002:00033610       ??1?$vector@IV?$K2VectorAllocator@I@@@std@@QAE@XZ 190be610 f i c_clifftool.obj
 0002:00033690       ?clear@?$vector@IV?$K2VectorAllocator@I@@@std@@QAEXXZ 190be690 f i c_clifftool.obj
 0002:00033750       ??B?$CCvar@II@@QBEIXZ      190be750 f i c_clifftool.obj
 0002:00033780       ??4?$CRect@M@@QAEAAV0@ABV0@@Z 190be780 f i c_clifftool.obj
 0002:000337e0       ??1?$_Vector_val@IV?$K2VectorAllocator@I@@@std@@QAE@XZ 190be7e0 f i c_clifftool.obj
 0002:00033860       ??1?$_Vector_iterator@IV?$K2VectorAllocator@I@@@std@@QAE@XZ 190be860 f i c_clifftool.obj
 0002:00033890       ??1?$_Vector_const_iterator@IV?$K2VectorAllocator@I@@@std@@QAE@XZ 190be890 f i c_clifftool.obj
 0002:000338c0       ??1?$_Ranit@IHPBIABI@std@@QAE@XZ 190be8c0 f i c_clifftool.obj
 0002:000338f0       ??0?$vector@IV?$K2VectorAllocator@I@@@std@@QAE@XZ 190be8f0 f i c_clifftool.obj
 0002:00033980       ?begin@?$vector@IV?$K2VectorAllocator@I@@@std@@QAE?AV?$_Vector_iterator@IV?$K2VectorAllocator@I@@@2@XZ 190be980 f i c_clifftool.obj
 0002:000339d0       ?end@?$vector@IV?$K2VectorAllocator@I@@@std@@QAE?AV?$_Vector_iterator@IV?$K2VectorAllocator@I@@@2@XZ 190be9d0 f i c_clifftool.obj
 0002:00033a20       ?erase@?$vector@IV?$K2VectorAllocator@I@@@std@@QAE?AV?$_Vector_iterator@IV?$K2VectorAllocator@I@@@2@V32@0@Z 190bea20 f i c_clifftool.obj
 0002:00033ba0       ?_Buy@?$vector@IV?$K2VectorAllocator@I@@@std@@IAE_NI@Z 190beba0 f i c_clifftool.obj
 0002:00033c50       ?max_size@?$vector@IV?$K2VectorAllocator@I@@@std@@QBEIXZ 190bec50 f i c_clifftool.obj
 0002:00033c80       ?_Destroy@?$vector@IV?$K2VectorAllocator@I@@@std@@IAEXPAI0@Z 190bec80 f i c_clifftool.obj
 0002:00033cc0       ?_Tidy@?$vector@IV?$K2VectorAllocator@I@@@std@@IAEXXZ 190becc0 f i c_clifftool.obj
 0002:00033d60       ?_Xlen@?$vector@IV?$K2VectorAllocator@I@@@std@@KAXXZ 190bed60 f i c_clifftool.obj
 0002:00033e10       ?_Orphan_range@?$vector@IV?$K2VectorAllocator@I@@@std@@IBEXPAI0@Z 190bee10 f i c_clifftool.obj
 0002:00033eb0       ??1?$K2VectorAllocator@I@@QAE@XZ 190beeb0 f i c_clifftool.obj
 0002:00033ed0       ?allocate@?$K2VectorAllocator@I@@QAEPAII@Z 190beed0 f i c_clifftool.obj
 0002:00033f20       ?deallocate@?$K2VectorAllocator@I@@QAEXPAII@Z 190bef20 f i c_clifftool.obj
 0002:00033f60       ??0?$_Vector_iterator@IV?$K2VectorAllocator@I@@@std@@QAE@ABV01@@Z 190bef60 f i c_clifftool.obj
 0002:00033f90       ??0?$_Vector_const_iterator@IV?$K2VectorAllocator@I@@@std@@QAE@ABV01@@Z 190bef90 f i c_clifftool.obj
 0002:00033fd0       ??0?$_Ranit@IHPBIABI@std@@QAE@ABU01@@Z 190befd0 f i c_clifftool.obj
 0002:00034000       ??0?$_Vector_val@IV?$K2VectorAllocator@I@@@std@@IAE@V?$K2VectorAllocator@I@@@Z 190bf000 f i c_clifftool.obj
 0002:000340a0       ??0?$K2VectorAllocator@I@@QAE@XZ 190bf0a0 f i c_clifftool.obj
 0002:000340d0       ?max_size@?$allocator@I@std@@QBEIXZ 190bf0d0 f i c_clifftool.obj
 0002:00034110       ??0?$_Vector_iterator@IV?$K2VectorAllocator@I@@@std@@QAE@PAIPBV_Container_base@1@@Z 190bf110 f i c_clifftool.obj
 0002:00034150       ??9?$_Vector_const_iterator@IV?$K2VectorAllocator@I@@@std@@QBE_NABV01@@Z 190bf150 f i c_clifftool.obj
 0002:00034190       ??M?$_Vector_const_iterator@IV?$K2VectorAllocator@I@@@std@@QBE_NABV01@@Z 190bf190 f i c_clifftool.obj
 0002:000341d0       ??0?$K2VectorAllocator@I@@QAE@ABV0@@Z 190bf1d0 f i c_clifftool.obj
 0002:00034200       ??0?$allocator@I@std@@QAE@XZ 190bf200 f i c_clifftool.obj
 0002:00034220       ??0?$_Vector_const_iterator@IV?$K2VectorAllocator@I@@@std@@QAE@PAIPBV_Container_base@1@@Z 190bf220 f i c_clifftool.obj
 0002:00034320       ??8?$_Vector_const_iterator@IV?$K2VectorAllocator@I@@@std@@QBE_NABV01@@Z 190bf320 f i c_clifftool.obj
 0002:00034360       ?_Compat@?$_Vector_const_iterator@IV?$K2VectorAllocator@I@@@std@@QBEXABV12@@Z 190bf360 f i c_clifftool.obj
 0002:00034410       ??0?$_Ranit@IHPBIABI@std@@QAE@XZ 190bf410 f i c_clifftool.obj
 0002:00034440       ??0?$allocator@I@std@@QAE@ABV01@@Z 190bf440 f i c_clifftool.obj
 0002:00034460       ??0bad_alloc@std@@QAE@ABV01@@Z 190bf460 f i c_clifftool.obj
 0002:000344a0       ??$CLAMP@H@@YAHHHH@Z       190bf4a0 f i c_clifftool.obj
 0002:000344f0       ??$?9_WU?$char_traits@_W@std@@V?$K2StringAllocator@_W@@@std@@YA_NABV?$basic_string@_WU?$char_traits@_W@std@@V?$K2StringAllocator@_W@@@0@0@Z 190bf4f0 f i c_clifftool.obj
 0002:00034530       ??$?8_WU?$char_traits@_W@std@@V?$K2StringAllocator@_W@@@std@@YA_NABV?$basic_string@_WU?$char_traits@_W@std@@V?$K2StringAllocator@_W@@@0@0@Z 190bf530 f i c_clifftool.obj
 0002:00034560       ?compare@?$basic_string@_WU?$char_traits@_W@std@@V?$K2StringAllocator@_W@@@std@@QBEHABV12@@Z 190bf560 f i c_clifftool.obj
 0002:000345b0       ??$MAX@H@@YAABHABH0@Z      190bf5b0 f i c_clifftool.obj
 0002:000345f0       ??$unchecked_copy@PAIPAI@stdext@@YAPAIPAI00@Z 190bf5f0 f i c_clifftool.obj
 0002:00034680       ??$_Checked_base@PAI@std@@YAPAIAAPAI@Z 190bf680 f i c_clifftool.obj
 0002:000346b0       ??$_Iter_random@PAIPAI@std@@YA?AUrandom_access_iterator_tag@0@ABQAI0@Z 190bf6b0 f i c_clifftool.obj
 0002:000346d0       ??$_Ptr_cat@PAIPAI@std@@YA?AU_Scalar_ptr_iterator_tag@0@AAPAI0@Z 190bf6d0 f i c_clifftool.obj
 0002:000346f0       ??$_Copy_opt@PAIPAIUrandom_access_iterator_tag@std@@@std@@YAPAIPAI00Urandom_access_iterator_tag@0@U_Scalar_ptr_iterator_tag@0@U_Range_checked_iterator_tag@0@@Z 190bf6f0 f i c_clifftool.obj
 0002:000347a0       ??$_Checked_base@PAI@std@@YAPAIAAPAIU_Unchanged_checked_iterator_base_type_tag@0@@Z 190bf7a0 f i c_clifftool.obj
 0002:000347c0       ??$_Debug_range@PAI@std@@YAXPAI0PB_WI@Z 190bf7c0 f i c_clifftool.obj
 0002:00034810       ??$_Debug_pointer@I@std@@YAXPAIPB_WI@Z 190bf810 f i c_clifftool.obj
 0002:00034850       ??$_Iter_cat@PAI@std@@YA?AUrandom_access_iterator_tag@0@ABQAI@Z 190bf850 f i c_clifftool.obj
 0002:00034870       ??$_Debug_range2@PAI@std@@YAXPAI0PB_WIUrandom_access_iterator_tag@0@@Z 190bf870 f i c_clifftool.obj
 0002:000348f0       ??$_Destroy_range@IV?$K2VectorAllocator@I@@@std@@YAXPAI0AAV?$K2VectorAllocator@I@@@Z 190bf8f0 f i c_clifftool.obj
 0002:00034940       ??$_Destroy_range@IV?$K2VectorAllocator@I@@@std@@YAXPAI0AAV?$K2VectorAllocator@I@@U_Scalar_ptr_iterator_tag@0@@Z 190bf940 f i c_clifftool.obj
 0002:00034960       ??0?$CCvar@II@@QAE@ABV?$basic_string@_WU?$char_traits@_W@std@@V?$K2StringAllocator@_W@@@std@@IHP6A_NPAVCConsoleElement@@ABV?$vector@V?$basic_string@_WU?$char_traits@_W@std@@V?$K2StringAllocator@_W@@@std@@V?$K2VectorAllocator@V?$basic_string@_WU?$char_traits@_W@std@@V?$K2StringAllocator@_W@@@std@@@@@@@Z@Z 190bf960 f i c_clifftool.obj
 0002:00034a70       ??_G?$CCvar@II@@UAEPAXI@Z  190bfa70 f i c_clifftool.obj
 0002:00034a70       ??_E?$CCvar@II@@UAEPAXI@Z  190bfa70 f i c_clifftool.obj
 0002:00034ac0       ??1?$CCvar@II@@UAE@XZ      190bfac0 f i c_clifftool.obj
 0002:00034af0       ?Reset@?$CCvar@II@@UAEXXZ  190bfaf0 f i c_clifftool.obj
 0002:00034b50       ?IsDefault@?$CCvar@II@@UBE_NXZ 190bfb50 f i c_clifftool.obj
 0002:00034b90       ?StoreValue@?$CCvar@II@@UAEXXZ 190bfb90 f i c_clifftool.obj
 0002:00034bc0       ?RestoreStored@?$CCvar@II@@UAEXXZ 190bfbc0 f i c_clifftool.obj
 0002:00034bf0       ?GetString@?$CCvar@II@@UBE?AV?$basic_string@_WU?$char_traits@_W@std@@V?$K2StringAllocator@_W@@@std@@XZ 190bfbf0 f i c_clifftool.obj
 0002:00034c50       ?XtoW@@YA?AV?$basic_string@_WU?$char_traits@_W@std@@V?$K2StringAllocator@_W@@@std@@IHHH@Z 190bfc50 f i c_clifftool.obj
 0002:00034ca0       ?SetIndex@?$CCvar@II@@UAEXIABV?$basic_string@_WU?$char_traits@_W@std@@V?$K2StringAllocator@_W@@@std@@@Z 190bfca0 f i c_clifftool.obj
 0002:00034cc0       ?Inc@?$CCvar@II@@UAEXABV?$basic_string@_WU?$char_traits@_W@std@@V?$K2StringAllocator@_W@@@std@@@Z 190bfcc0 f i c_clifftool.obj
 0002:00034ce0       ?Toggle@?$CCvar@II@@UAEXXZ 190bfce0 f i c_clifftool.obj
 0002:00034d00       ??$_UItoW@I@@YA?AV?$basic_string@_WU?$char_traits@_W@std@@V?$K2StringAllocator@_W@@@std@@IHHH@Z 190bfd00 f i c_clifftool.obj
 0002:00034de0       ?Set@?$CCvar@II@@UAEXABV?$basic_string@_WU?$char_traits@_W@std@@V?$K2StringAllocator@_W@@@std@@@Z 190bfde0 f i c_clifftool.obj
 0002:00034e40       ?AtoX@@YAAAIABV?$basic_string@_WU?$char_traits@_W@std@@V?$K2StringAllocator@_W@@@std@@AAI@Z 190bfe40 f i c_clifftool.obj
 0002:00034e80       ?GetRangeString@?$CCvar@II@@UBE?AV?$basic_string@_WU?$char_traits@_W@std@@V?$K2StringAllocator@_W@@@std@@XZ 190bfe80 f i c_clifftool.obj
 0002:000350e0       ??0?$CCvar@V?$basic_string@_WU?$char_traits@_W@std@@V?$K2StringAllocator@_W@@@std@@V12@@@QAE@ABV?$basic_string@_WU?$char_traits@_W@std@@V?$K2StringAllocator@_W@@@std@@0HP6A_NPAVCConsoleElement@@ABV?$vector@V?$basic_string@_WU?$char_traits@_W@std@@V?$K2StringAllocator@_W@@@std@@V?$K2VectorAllocator@V?$basic_string@_WU?$char_traits@_W@std@@V?$K2StringAllocator@_W@@@std@@@@@@@Z@Z 190c00e0 f i c_clifftool.obj
 0002:00035220       ?Reset@?$CCvar@V?$basic_string@_WU?$char_traits@_W@std@@V?$K2StringAllocator@_W@@@std@@V12@@@UAEXXZ 190c0220 f i c_clifftool.obj
 0002:00035290       ?IsDefault@?$CCvar@V?$basic_string@_WU?$char_traits@_W@std@@V?$K2StringAllocator@_W@@@std@@V12@@@UBE_NXZ 190c0290 f i c_clifftool.obj
 0002:000352d0       ?StoreValue@?$CCvar@V?$basic_string@_WU?$char_traits@_W@std@@V?$K2StringAllocator@_W@@@std@@V12@@@UAEXXZ 190c02d0 f i c_clifftool.obj
 0002:00035310       ?RestoreStored@?$CCvar@V?$basic_string@_WU?$char_traits@_W@std@@V?$K2StringAllocator@_W@@@std@@V12@@@UAEXXZ 190c0310 f i c_clifftool.obj
 0002:00035350       ?GetString@?$CCvar@V?$basic_string@_WU?$char_traits@_W@std@@V?$K2StringAllocator@_W@@@std@@V12@@@UBE?AV?$basic_string@_WU?$char_traits@_W@std@@V?$K2StringAllocator@_W@@@std@@XZ 190c0350 f i c_clifftool.obj
 0002:000353a0       ?SetIndex@?$CCvar@V?$basic_string@_WU?$char_traits@_W@std@@V?$K2StringAllocator@_W@@@std@@V12@@@UAEXIABV?$basic_string@_WU?$char_traits@_W@std@@V?$K2StringAllocator@_W@@@std@@@Z 190c03a0 f i c_clifftool.obj
 0002:000353c0       ?GetRangeString@?$CCvar@V?$basic_string@_WU?$char_traits@_W@std@@V?$K2StringAllocator@_W@@@std@@V12@@@UBE?AV?$basic_string@_WU?$char_traits@_W@std@@V?$K2StringAllocator@_W@@@std@@XZ 190c03c0 f i c_clifftool.obj
 0002:00035410       ??_G?$CCvar@V?$basic_string@_WU?$char_traits@_W@std@@V?$K2StringAllocator@_W@@@std@@V12@@@UAEPAXI@Z 190c0410 f i c_clifftool.obj
 0002:00035410       ??_E?$CCvar@V?$basic_string@_WU?$char_traits@_W@std@@V?$K2StringAllocator@_W@@@std@@V12@@@UAEPAXI@Z 190c0410 f i c_clifftool.obj
 0002:00035460       ??1?$CCvar@V?$basic_string@_WU?$char_traits@_W@std@@V?$K2StringAllocator@_W@@@std@@V12@@@UAE@XZ 190c0460 f i c_clifftool.obj
 0002:00035520       ?Set@?$CCvar@V?$basic_string@_WU?$char_traits@_W@std@@V?$K2StringAllocator@_W@@@std@@V12@@@UAEXABV?$basic_string@_WU?$char_traits@_W@std@@V?$K2StringAllocator@_W@@@std@@@Z 190c0520 f i c_clifftool.obj
 0002:00035610       ?Inc@?$CCvar@V?$basic_string@_WU?$char_traits@_W@std@@V?$K2StringAllocator@_W@@@std@@V12@@@UAEXABV?$basic_string@_WU?$char_traits@_W@std@@V?$K2StringAllocator@_W@@@std@@@Z 190c0610 f i c_clifftool.obj
 0002:000357d0       ??6CConsoleStream@@QAEAAV0@PBD@Z 190c07d0 f i c_clifftool.obj
 0002:00035860       ?AddOutputHistory@CConsoleStream@@AAEXABV?$basic_string@DU?$char_traits@D@std@@V?$K2StringAllocator@D@@@std@@@Z 190c0860 f i c_clifftool.obj
 0002:00035900       ?Toggle@?$CCvar@V?$basic_string@_WU?$char_traits@_W@std@@V?$K2StringAllocator@_W@@@std@@V12@@@UAEXXZ 190c0900 f i c_clifftool.obj
 0002:00035950       ??0?$basic_string@DU?$char_traits@D@std@@V?$K2StringAllocator@D@@@std@@QAE@PBD@Z 190c0950 f i c_clifftool.obj
 0002:00035a00       ??1?$basic_string@DU?$char_traits@D@std@@V?$K2StringAllocator@D@@@std@@QAE@XZ 190c0a00 f i c_clifftool.obj
 0002:00035a80       ??1?$_String_val@DV?$K2StringAllocator@D@@@std@@QAE@XZ 190c0a80 f i c_clifftool.obj
 0002:00035b00       ?assign@?$basic_string@DU?$char_traits@D@std@@V?$K2StringAllocator@D@@@std@@QAEAAV12@PBD@Z 190c0b00 f i c_clifftool.obj
 0002:00035b40       ?_Tidy@?$basic_string@DU?$char_traits@D@std@@V?$K2StringAllocator@D@@@std@@IAEX_NI@Z 190c0b40 f i c_clifftool.obj
 0002:00035be0       ??0?$_String_val@DV?$K2StringAllocator@D@@@std@@IAE@V?$K2StringAllocator@D@@@Z 190c0be0 f i c_clifftool.obj
 0002:00035c80       ??0?$K2StringAllocator@D@@QAE@XZ 190c0c80 f i c_clifftool.obj
 0002:00035cb0       ??1?$K2StringAllocator@D@@QAE@XZ 190c0cb0 f i c_clifftool.obj
 0002:00035cd0       ?assign@?$basic_string@DU?$char_traits@D@std@@V?$K2StringAllocator@D@@@std@@QAEAAV12@PBDI@Z 190c0cd0 f i c_clifftool.obj
 0002:00035d80       ?assign@?$basic_string@DU?$char_traits@D@std@@V?$K2StringAllocator@D@@@std@@QAEAAV12@ABV12@II@Z 190c0d80 f i c_clifftool.obj
 0002:00035e70       ?_Myptr@?$basic_string@DU?$char_traits@D@std@@V?$K2StringAllocator@D@@@std@@IBEPBDXZ 190c0e70 f i c_clifftool.obj
 0002:00035eb0       ?erase@?$basic_string@DU?$char_traits@D@std@@V?$K2StringAllocator@D@@@std@@QAEAAV12@II@Z 190c0eb0 f i c_clifftool.obj
 0002:00035f80       ?size@?$basic_string@DU?$char_traits@D@std@@V?$K2StringAllocator@D@@@std@@QBEIXZ 190c0f80 f i c_clifftool.obj
 0002:00035fa0       ?_Eos@?$basic_string@DU?$char_traits@D@std@@V?$K2StringAllocator@D@@@std@@IAEXI@Z 190c0fa0 f i c_clifftool.obj
 0002:00035ff0       ?_Grow@?$basic_string@DU?$char_traits@D@std@@V?$K2StringAllocator@D@@@std@@IAE_NI_N@Z 190c0ff0 f i c_clifftool.obj
 0002:000360c0       ?_Myptr@?$basic_string@DU?$char_traits@D@std@@V?$K2StringAllocator@D@@@std@@IAEPADXZ 190c10c0 f i c_clifftool.obj
 0002:00036100       ??0?$K2StringAllocator@D@@QAE@ABV0@@Z 190c1100 f i c_clifftool.obj
 0002:00036130       ?deallocate@?$K2StringAllocator@D@@QAEXPADI@Z 190c1130 f i c_clifftool.obj
 0002:00036170       ?max_size@?$basic_string@DU?$char_traits@D@std@@V?$K2StringAllocator@D@@@std@@QBEIXZ 190c1170 f i c_clifftool.obj
 0002:000361c0       ?_Copy@?$basic_string@DU?$char_traits@D@std@@V?$K2StringAllocator@D@@@std@@IAEXII@Z 190c11c0 f i c_clifftool.obj
 0002:000363b0       ?_Inside@?$basic_string@DU?$char_traits@D@std@@V?$K2StringAllocator@D@@@std@@IAE_NPBD@Z 190c13b0 f i c_clifftool.obj
 0002:00036420       ?allocate@?$K2StringAllocator@D@@QAEPADI@Z 190c1420 f i c_clifftool.obj
 0002:00036470       ??$_Debug_pointer@D@std@@YAXPBDPB_WI@Z 190c1470 f i c_clifftool.obj
 0002:000364b0       ??$copy_s@U?$char_traits@D@std@@@_Traits_helper@std@@YAPADPADIPBDI@Z 190c14b0 f i c_clifftool.obj
 0002:00036500       ??$_Char_traits_cat@U?$char_traits@D@std@@@std@@YA?AU_Secure_char_traits_tag@0@XZ 190c1500 f i c_clifftool.obj
 0002:00036520       ??$copy_s@U?$char_traits@D@std@@@_Traits_helper@std@@YAPADPADIPBDIU_Secure_char_traits_tag@1@@Z 190c1520 f i c_clifftool.obj
 0002:00036560       ??$move_s@U?$char_traits@D@std@@@_Traits_helper@std@@YAPADPADIPBDI@Z 190c1560 f i c_clifftool.obj
 0002:000365b0       ??$move_s@U?$char_traits@D@std@@@_Traits_helper@std@@YAPADPADIPBDIU_Secure_char_traits_tag@1@@Z 190c15b0 f i c_clifftool.obj
 0002:000365f0       ??0CDeformTool@@QAE@XZ     190c15f0 f   c_deformtool.obj
 0002:000367d0       ??_ECDeformTool@@UAEPAXI@Z 190c17d0 f i c_deformtool.obj
 0002:000367d0       ??_GCDeformTool@@UAEPAXI@Z 190c17d0 f i c_deformtool.obj
 0002:00036820       ??1CDeformTool@@UAE@XZ     190c1820 f i c_deformtool.obj
 0002:00036850       ?PrimaryUp@CDeformTool@@UAEXXZ 190c1850 f   c_deformtool.obj
 0002:00036880       ?PrimaryDown@CDeformTool@@UAEXXZ 190c1880 f   c_deformtool.obj
 0002:000369c0       ?SecondaryUp@CDeformTool@@UAEXXZ 190c19c0 f   c_deformtool.obj
 0002:000369f0       ?SecondaryDown@CDeformTool@@UAEXXZ 190c19f0 f   c_deformtool.obj
 0002:00036ac0       ?TertiaryUp@CDeformTool@@UAEXXZ 190c1ac0 f   c_deformtool.obj
 0002:00036ae0       ?TertiaryDown@CDeformTool@@UAEXXZ 190c1ae0 f   c_deformtool.obj
 0002:00036b00       ?QuaternaryUp@CDeformTool@@UAEXXZ 190c1b00 f   c_deformtool.obj
 0002:00036b20       ?QuaternaryDown@CDeformTool@@UAEXXZ 190c1b20 f   c_deformtool.obj
 0002:00036b40       ?Cancel@CDeformTool@@UAEXXZ 190c1b40 f   c_deformtool.obj
 0002:00036b60       ?Delete@CDeformTool@@UAEXXZ 190c1b60 f   c_deformtool.obj
 0002:00036b80       ?CalcToolProperties@CDeformTool@@QAEXXZ 190c1b80 f   c_deformtool.obj
 0002:00036e60       ?TerrainAdd@CDeformTool@@AAEXPAMAAV?$CRect@H@@AAVCBrush@@M@Z 190c1e60 f   c_deformtool.obj
 0002:00036f70       ?CanPantVert@CDeformTool@@AAE_NHH@Z 190c1f70 f   c_deformtool.obj
 0002:00037200       ?TerrainFlatten@CDeformTool@@AAEXPAMAAV?$CRect@H@@AAVCBrush@@MM@Z 190c2200 f   c_deformtool.obj
 0002:000373c0       ?TerrainSmooth@CDeformTool@@AAEXPAMAAV?$CRect@H@@AAVCBrush@@M@Z 190c23c0 f   c_deformtool.obj
 0002:00037750       ?TerrainCut@CDeformTool@@AAEXPAMAAV?$CRect@H@@AAVCBrush@@MM@Z 190c2750 f   c_deformtool.obj
 0002:000378b0       ?TerrainSlice@CDeformTool@@AAEXPAMAAV?$CRect@H@@AAVCBrush@@M@Z 190c28b0 f   c_deformtool.obj
 0002:000379d0       ?TerrainClear@CDeformTool@@AAEXPAMAAV?$CRect@H@@AAVCBrush@@@Z 190c29d0 f   c_deformtool.obj
 0002:00037ad0       ?TerrainReduce@CDeformTool@@AAEXPAMAAV?$CRect@H@@AAVCBrush@@M@Z 190c2ad0 f   c_deformtool.obj
 0002:00037cc0       ?TerrainNoise@CDeformTool@@AAEXPAMAAV?$CRect@H@@AAVCBrush@@MMMM@Z 190c2cc0 f   c_deformtool.obj
 0002:00037e10       ?TerrainHarmonic@CDeformTool@@AAEXPAMAAV?$CRect@H@@AAVCBrush@@MMMH@Z 190c2e10 f   c_deformtool.obj
 0002:00037fc0       ?TerrainClone@CDeformTool@@AAEXPAMAAV?$CRect@H@@AAVCBrush@@MHH@Z 190c2fc0 f   c_deformtool.obj
 0002:00038220       ?TerrainStamp@CDeformTool@@AAEXPAMAAV?$CRect@H@@@Z 190c3220 f   c_deformtool.obj
 0002:00038320       ?DeformTerrain@CDeformTool@@QAEXM@Z 190c3320 f   c_deformtool.obj
 0002:00039050       ?Frame@CDeformTool@@UAEXM@Z 190c4050 f   c_deformtool.obj
 0002:000390b0       ?Draw@CDeformTool@@UAEXXZ  190c40b0 f   c_deformtool.obj
 0002:000393d0       ?RenderBrush@CDeformTool@@AAEXXZ 190c43d0 f   c_deformtool.obj
 0002:00039ec0       ?RenderStamp@CDeformTool@@AAEXXZ 190c4ec0 f   c_deformtool.obj
 0002:0003a8b0       ?Render@CDeformTool@@UAEXXZ 190c58b0 f   c_deformtool.obj
 0002:0003a900       ?uiSetDeformModeFn@@YA?AV?$basic_string@_WU?$char_traits@_W@std@@V?$K2StringAllocator@_W@@@std@@PAVIWidget@@ABV?$vector@PAVCUIScriptToken@@V?$K2VectorAllocator@PAVCUIScriptToken@@@@@@@Z 190c5900 f   c_deformtool.obj
 0002:0003a960       ?uiSetDeformModeVoidFn@@YAXPAVIWidget@@ABV?$vector@PAVCUIScriptToken@@V?$K2VectorAllocator@PAVCUIScriptToken@@@@@@@Z 190c5960 f   c_deformtool.obj
 0002:0003b160       ?cmdImportHeightmapFn@@YA_NPAVCConsoleElement@@ABV?$vector@V?$basic_string@_WU?$char_traits@_W@std@@V?$K2StringAllocator@_W@@@std@@V?$K2VectorAllocator@V?$basic_string@_WU?$char_traits@_W@std@@V?$K2StringAllocator@_W@@@std@@@@@@@Z 190c6160 f   c_deformtool.obj
 0002:0003b660       ?cmdImportHeightmapSilverbackFn@@YA_NPAVCConsoleElement@@ABV?$vector@V?$basic_string@_WU?$char_traits@_W@std@@V?$K2StringAllocator@_W@@@std@@V?$K2VectorAllocator@V?$basic_string@_WU?$char_traits@_W@std@@V?$K2StringAllocator@_W@@@std@@@@@@@Z 190c6660 f   c_deformtool.obj
 0002:0003bce0       ?cmdExportHeightmapFn@@YA_NPAVCConsoleElement@@ABV?$vector@V?$basic_string@_WU?$char_traits@_W@std@@V?$K2StringAllocator@_W@@@std@@V?$K2VectorAllocator@V?$basic_string@_WU?$char_traits@_W@std@@V?$K2StringAllocator@_W@@@std@@@@@@@Z 190c6ce0 f   c_deformtool.obj
 0002:0003c0b0       ?Set@?$CRect@H@@QAEXHHHH@Z 190c70b0 f i c_deformtool.obj
 0002:0003c100       ??4?$CCvar@MM@@QAEMABM@Z   190c7100 f i c_deformtool.obj
 0002:0003c150       ?Copy@CMemManager@@SAPAXPAXPBXI@Z 190c7150 f i c_deformtool.obj
 0002:0003c180       ?pow@@YAMMH@Z              190c7180 f i c_deformtool.obj
 0002:0003c1b0       ?LittleFloat@@YAMM@Z       190c71b0 f i c_deformtool.obj
 0002:0003c1d0       ?FRAC@@YAMM@Z              190c71d0 f i c_deformtool.obj
 0002:0003c210       ?floor@@YAMM@Z             190c7210 f i c_deformtool.obj
 0002:0003c240       _floorf                    190c7240 f i c_deformtool.obj
 0002:0003c280       ??$LERP@M@@YAMMMM@Z        190c7280 f i c_deformtool.obj
 0002:0003c2b0       ??$MAX@E@@YAABEABE0@Z      190c72b0 f i c_deformtool.obj
 0002:0003c300       ??$PCF@M@@YAMPBM0@Z        190c7300 f i c_deformtool.obj
 0002:0003c390       ??$ILERP@M@@YAMMMM@Z       190c7390 f i c_deformtool.obj
 0002:0003c3d0       ?GetCliffMap@CWorld@@QBEPAEXZ 190c73d0 f i c_deformtool.obj
 0002:0003c400       ?GetCliffMap@CTileCliffMap@@QBEPAEXZ 190c7400 f i c_deformtool.obj
 0002:0003c420       ??A?$vector@V?$basic_string@_WU?$char_traits@_W@std@@V?$K2StringAllocator@_W@@@std@@V?$K2VectorAllocator@V?$basic_string@_WU?$char_traits@_W@std@@V?$K2StringAllocator@_W@@@std@@@@@std@@QBEABV?$basic_string@_WU?$char_traits@_W@std@@V?$K2StringAllocator@_W@@@1@I@Z 190c7420 f i c_deformtool.obj
 0002:0003c540       ??$_Pow_int@M@@YAMMH@Z     190c7540 f i c_deformtool.obj
 0002:0003c5e0       ??$CLAMP@M@@YAMMMM@Z       190c75e0 f i c_deformtool.obj
 0002:0003c650       ??1CEntityTool@@UAE@XZ     190c7650 f   c_entitytool.obj
 0002:0003c700       ?SecondaryUp@CEntityTool@@UAEXXZ 190c7700 f i c_entitytool.obj
 0002:0003c720       ?TertiaryUp@CEntityTool@@UAEXXZ 190c7720 f i c_entitytool.obj
 0002:0003c740       ?QuaternaryUp@CEntityTool@@UAEXXZ 190c7740 f i c_entitytool.obj
 0002:0003c760       ??_GCEntityTool@@UAEPAXI@Z 190c7760 f i c_entitytool.obj
 0002:0003c760       ??_ECEntityTool@@UAEPAXI@Z 190c7760 f i c_entitytool.obj
 0002:0003c7b0       ??1?$set@IU?$less@I@std@@V?$K2SetAllocator@I@@@@QAE@XZ 190c77b0 f i c_entitytool.obj
 0002:0003c7e0       ??1?$set@IU?$less@I@std@@V?$K2SetAllocator@I@@@std@@QAE@XZ 190c77e0 f i c_entitytool.obj
 0002:0003c810       ??0CEntityTool@@QAE@XZ     190c7810 f   c_entitytool.obj
 0002:0003ce10       ??1?$map@GV?$basic_string@_WU?$char_traits@_W@std@@V?$K2StringAllocator@_W@@@std@@U?$less@G@2@V?$K2MapAllocator@U?$pair@$$CBGV?$basic_string@_WU?$char_traits@_W@std@@V?$K2StringAllocator@_W@@@std@@@std@@@@@@QAE@XZ 190c7e10 f i c_entitytool.obj
 0002:0003ce40       ??1iterator@?$_Tree@V?$_Tmap_traits@GV?$basic_string@_WU?$char_traits@_W@std@@V?$K2StringAllocator@_W@@@std@@U?$less@G@2@V?$K2MapAllocator@U?$pair@$$CBGV?$basic_string@_WU?$char_traits@_W@std@@V?$K2StringAllocator@_W@@@std@@@std@@@@$0A@@std@@@std@@QAE@XZ 190c7e40 f i c_entitytool.obj
 0002:0003ce70       ??1?$map@GV?$basic_string@_WU?$char_traits@_W@std@@V?$K2StringAllocator@_W@@@std@@U?$less@G@2@V?$K2MapAllocator@U?$pair@$$CBGV?$basic_string@_WU?$char_traits@_W@std@@V?$K2StringAllocator@_W@@@std@@@std@@@@@std@@QAE@XZ 190c7e70 f i c_entitytool.obj
 0002:0003cea0       ??1const_iterator@?$_Tree@V?$_Tmap_traits@GV?$basic_string@_WU?$char_traits@_W@std@@V?$K2StringAllocator@_W@@@std@@U?$less@G@2@V?$K2MapAllocator@U?$pair@$$CBGV?$basic_string@_WU?$char_traits@_W@std@@V?$K2StringAllocator@_W@@@std@@@std@@@@$0A@@std@@@std@@QAE@XZ 190c7ea0 f i c_entitytool.obj
 0002:0003ced0       ??1?$_Bidit@U?$pair@$$CBGV?$basic_string@_WU?$char_traits@_W@std@@V?$K2StringAllocator@_W@@@std@@@std@@HPBU12@ABU12@@std@@QAE@XZ 190c7ed0 f i c_entitytool.obj
 0002:0003cf00       ?PrimaryUp@CEntityTool@@UAEXXZ 190c7f00 f   c_entitytool.obj
 0002:0003d390       ??4?$set@IU?$less@I@std@@V?$K2SetAllocator@I@@@@QAEAAV0@ABV0@@Z 190c8390 f i c_entitytool.obj
 0002:0003d3c0       ??4?$set@IU?$less@I@std@@V?$K2SetAllocator@I@@@std@@QAEAAV01@ABV01@@Z 190c83c0 f i c_entitytool.obj
 0002:0003d3f0       ?PrimaryDown@CEntityTool@@UAEXXZ 190c83f0 f   c_entitytool.obj
 0002:0003d5b0       ?SecondaryDown@CEntityTool@@UAEXXZ 190c85b0 f   c_entitytool.obj
 0002:0003d7e0       ?TertiaryDown@CEntityTool@@UAEXXZ 190c87e0 f   c_entitytool.obj
 0002:0003d9d0       ?QuaternaryDown@CEntityTool@@UAEXXZ 190c89d0 f   c_entitytool.obj
 0002:0003dbc0       ?Cancel@CEntityTool@@UAEXXZ 190c8bc0 f   c_entitytool.obj
 0002:0003dca0       ?Delete@CEntityTool@@UAEXXZ 190c8ca0 f   c_entitytool.obj
 0002:0003e3f0       ??0?$set@IU?$less@I@std@@V?$K2SetAllocator@I@@@@QAE@ABV0@@Z 190c93f0 f i c_entitytool.obj
 0002:0003e420       ??1iterator@?$_Tree@V?$_Tmap_traits@IVCWorldEntityEx@@U?$less@I@std@@V?$K2MapAllocator@U?$pair@$$CBIVCWorldEntityEx@@@std@@@@$0A@@std@@@std@@QAE@XZ 190c9420 f i c_entitytool.obj
 0002:0003e450       ??0iterator@?$_Tree@V?$_Tmap_traits@IVCWorldEntityEx@@U?$less@I@std@@V?$K2MapAllocator@U?$pair@$$CBIVCWorldEntityEx@@@std@@@@$0A@@std@@@std@@QAE@ABV012@@Z 190c9450 f i c_entitytool.obj
 0002:0003e480       ??0?$set@IU?$less@I@std@@V?$K2SetAllocator@I@@@std@@QAE@ABV01@@Z 190c9480 f i c_entitytool.obj
 0002:0003e4b0       ??1const_iterator@?$_Tree@V?$_Tmap_traits@IVCWorldEntityEx@@U?$less@I@std@@V?$K2MapAllocator@U?$pair@$$CBIVCWorldEntityEx@@@std@@@@$0A@@std@@@std@@QAE@XZ 190c94b0 f i c_entitytool.obj
 0002:0003e4e0       ??0const_iterator@?$_Tree@V?$_Tmap_traits@IVCWorldEntityEx@@U?$less@I@std@@V?$K2MapAllocator@U?$pair@$$CBIVCWorldEntityEx@@@std@@@@$0A@@std@@@std@@QAE@ABV012@@Z 190c94e0 f i c_entitytool.obj
 0002:0003e520       ??1?$_Bidit@U?$pair@$$CBIVCWorldEntityEx@@@std@@HPBU12@ABU12@@std@@QAE@XZ 190c9520 f i c_entitytool.obj
 0002:0003e550       ??0?$_Bidit@U?$pair@$$CBIVCWorldEntityEx@@@std@@HPBU12@ABU12@@std@@QAE@ABU01@@Z 190c9550 f i c_entitytool.obj
 0002:0003e580       ?CalcToolProperties@CEntityTool@@QAEXXZ 190c9580 f   c_entitytool.obj
 0002:0003e800       ?TranslateXY@CEntityTool@@AAEXXZ 190c9800 f   c_entitytool.obj
 0002:0003eb90       ?ROUND@@YAMM@Z             190c9b90 f i c_entitytool.obj
 0002:0003ebd0       ?TranslateZ@CEntityTool@@AAEXXZ 190c9bd0 f   c_entitytool.obj
 0002:0003ed30       ?RotateYaw@CEntityTool@@AAEXXZ 190c9d30 f   c_entitytool.obj
 0002:0003eee0       ?RotatePitch@CEntityTool@@AAEXXZ 190c9ee0 f   c_entitytool.obj
 0002:0003f090       ?RotateRoll@CEntityTool@@AAEXXZ 190ca090 f   c_entitytool.obj
 0002:0003f240       ?ScaleUniform@CEntityTool@@AAEXXZ 190ca240 f   c_entitytool.obj
 0002:0003f370       ?Create@CEntityTool@@AAEXXZ 190ca370 f   c_entitytool.obj
 0002:0003f840       ?StartSelect@CEntityTool@@AAEXXZ 190ca840 f   c_entitytool.obj
 0002:0003fc20       ?StartTranslateXY@CEntityTool@@AAEXXZ 190cac20 f   c_entitytool.obj
 0002:00040660       ?StartTransform@CEntityTool@@AAEXH@Z 190cb660 f   c_entitytool.obj
 0002:00040e80       ?ApplySelect@CEntityTool@@AAEXXZ 190cbe80 f   c_entitytool.obj
 0002:00041500       ?UpdateHoverSelection@CEntityTool@@AAEXXZ 190cc500 f   c_entitytool.obj
 0002:000419e0       ?ApplyTranslateXY@CEntityTool@@AAEXXZ 190cc9e0 f   c_entitytool.obj
 0002:000423c0       ?ApplyTranslateZ@CEntityTool@@AAEXXZ 190cd3c0 f   c_entitytool.obj
 0002:000425a0       ?ApplyRotation@CEntityTool@@AAEXW4EEulerComponent@@ABV?$CVec3@M@@_N@Z 190cd5a0 f   c_entitytool.obj
 0002:000427e0       ?ApplyRotation@CEntityTool@@AAEXW4EEulerComponent@@@Z 190cd7e0 f   c_entitytool.obj
 0002:000429e0       ?ApplyScaleUniform@CEntityTool@@AAEXABV?$CVec3@M@@_N@Z 190cd9e0 f   c_entitytool.obj
 0002:00042c00       ?ApplyScaleUniform@CEntityTool@@AAEXXZ 190cdc00 f   c_entitytool.obj
 0002:00042df0       ?Frame@CEntityTool@@UAEXM@Z 190cddf0 f   c_entitytool.obj
 0002:00042fd0       ?Hovering@CEntityTool@@AAEXXZ 190cdfd0 f i c_entitytool.obj
 0002:00042ff0       ?SnapCursor@CEntityTool@@AAEXABV?$CVec3@M@@@Z 190cdff0 f   c_entitytool.obj
 0002:000430b0       ?CreateEntity@CEntityTool@@AAEIMM@Z 190ce0b0 f   c_entitytool.obj
 0002:000436f0       ?GetModelPath@IUnitDefinition@@QBEABV?$basic_string@_WU?$char_traits@_W@std@@V?$K2StringAllocator@_W@@@std@@I@Z 190ce6f0 f i c_entitytool.obj
 0002:00043770       ?GetSkin@IUnitDefinition@@QBEABV?$basic_string@_WU?$char_traits@_W@std@@V?$K2StringAllocator@_W@@@std@@I@Z 190ce770 f i c_entitytool.obj
 0002:000437f0       ?GetPreGlobalScale@IUnitDefinition@@QBEMI@Z 190ce7f0 f i c_entitytool.obj
 0002:00043880       ?GetModelScale@IUnitDefinition@@QBEMI@Z 190ce880 f i c_entitytool.obj
 0002:00043910       ?SelectionCenter@CEntityTool@@AAE?AV?$CVec3@M@@XZ 190ce910 f   c_entitytool.obj
 0002:00043b00       ?GetScale@CEntityTool@@QAEMI@Z 190ceb00 f   c_entitytool.obj
 0002:00043d10       ?GetPosition@CEntityTool@@QAE?AV?$CVec3@M@@I@Z 190ced10 f   c_entitytool.obj
 0002:00044340       ?GetAngles@CEntityTool@@QAE?AV?$CVec3@M@@I@Z 190cf340 f   c_entitytool.obj
 0002:00044590       ?CloneSelection@CEntityTool@@AAEXXZ 190cf590 f   c_entitytool.obj
 0002:00044fa0       ??1?$pair@IVCWorldEntityEx@@@std@@QAE@XZ 190cffa0 f i c_entitytool.obj
 0002:00044fd0       ??1?$pair@$$CBIVCWorldEntityEx@@@std@@QAE@XZ 190cffd0 f i c_entitytool.obj
 0002:00045000       ??1?$pair@Viterator@?$_Tree@V?$_Tmap_traits@IVCWorldEntityEx@@U?$less@I@std@@V?$K2MapAllocator@U?$pair@$$CBIVCWorldEntityEx@@@std@@@@$0A@@std@@@std@@_N@std@@QAE@XZ 190d0000 f i c_entitytool.obj
 0002:00045030       ??4iterator@?$_Tree@V?$_Tmap_traits@IVCWorldEntityEx@@U?$less@I@std@@V?$K2MapAllocator@U?$pair@$$CBIVCWorldEntityEx@@@std@@@@$0A@@std@@@std@@QAEAAV012@ABV012@@Z 190d0030 f i c_entitytool.obj
 0002:00045060       ??4const_iterator@?$_Tree@V?$_Tmap_traits@IVCWorldEntityEx@@U?$less@I@std@@V?$K2MapAllocator@U?$pair@$$CBIVCWorldEntityEx@@@std@@@@$0A@@std@@@std@@QAEAAV012@ABV012@@Z 190d0060 f i c_entitytool.obj
 0002:000450a0       ??4?$_Bidit@U?$pair@$$CBIVCWorldEntityEx@@@std@@HPBU12@ABU12@@std@@QAEAAU01@ABU01@@Z 190d00a0 f i c_entitytool.obj
 0002:000450d0       ?GetSelectionRect@CEntityTool@@QAE?AV?$CRect@M@@XZ 190d00d0 f   c_entitytool.obj
 0002:00045210       ?Draw@CEntityTool@@UAEXXZ  190d0210 f   c_entitytool.obj
 0002:00045940       ?IsSelectionActive@CEntityTool@@QAE_NXZ 190d0940 f i c_entitytool.obj
 0002:00045970       ?GroundSelection@CEntityTool@@QAEXXZ 190d0970 f   c_entitytool.obj
 0002:00045b40       ?StraightenSelection@CEntityTool@@QAEXXZ 190d0b40 f   c_entitytool.obj
 0002:00045ce0       ?ResetScaleSelection@CEntityTool@@QAEXXZ 190d0ce0 f   c_entitytool.obj
 0002:00045e50       ?IsSelectionLock@CEntityTool@@QAE_NXZ 190d0e50 f   c_entitytool.obj
 0002:00045e80       ?GetSelectionName@CEntityTool@@QAE?AV?$basic_string@_WU?$char_traits@_W@std@@V?$K2StringAllocator@_W@@@std@@XZ 190d0e80 f   c_entitytool.obj
 0002:00046190       ?GetSelectionTeam@CEntityTool@@QAEHXZ 190d1190 f   c_entitytool.obj
 0002:000463a0       ?GetSelectionModel@CEntityTool@@QAE?AV?$basic_string@_WU?$char_traits@_W@std@@V?$K2StringAllocator@_W@@@std@@XZ 190d13a0 f   c_entitytool.obj
 0002:00046770       ??$GetDefaultEmptyValue@M@@YAMXZ 190d1770 f i c_entitytool.obj
 0002:00046790       ?GetSelectionSkin@CEntityTool@@QAE?AV?$basic_string@_WU?$char_traits@_W@std@@V?$K2StringAllocator@_W@@@std@@XZ 190d1790 f   c_entitytool.obj
 0002:00046bf0       ?GetModelFile@CModel@@QAEPAVIModel@@XZ 190d1bf0 f i c_entitytool.obj
 0002:00046c20       ?GetName@CSkin@@QBEABV?$basic_string@_WU?$char_traits@_W@std@@V?$K2StringAllocator@_W@@@std@@XZ 190d1c20 f i c_entitytool.obj
 0002:00046c40       ?GetSelectionType@CEntityTool@@QAE?AV?$basic_string@_WU?$char_traits@_W@std@@V?$K2StringAllocator@_W@@@std@@XZ 190d1c40 f   c_entitytool.obj
 0002:00046f80       ?IsSelectionType@CEntityTool@@QAE_NABV?$basic_string@_WU?$char_traits@_W@std@@V?$K2StringAllocator@_W@@@std@@@Z 190d1f80 f   c_entitytool.obj
 0002:000473d0       ?GetSelectionProperty@CEntityTool@@QAE?AV?$basic_string@_WU?$char_traits@_W@std@@V?$K2StringAllocator@_W@@@std@@ABV23@@Z 190d23d0 f   c_entitytool.obj
 0002:00047710       ?GetWorldIndexFromName@CEntityTool@@QAEHABV?$basic_string@_WU?$char_traits@_W@std@@V?$K2StringAllocator@_W@@@std@@@Z 190d2710 f   c_entitytool.obj
 0002:00047920       ?SetSelectionName@CEntityTool@@QAEXABV?$basic_string@_WU?$char_traits@_W@std@@V?$K2StringAllocator@_W@@@std@@@Z 190d2920 f   c_entitytool.obj
 0002:00047a40       ?SetSelectionTeam@CEntityTool@@QAEXH@Z 190d2a40 f   c_entitytool.obj
 0002:00047b60       ?SetSelectionModel@CEntityTool@@QAEXABV?$basic_string@_WU?$char_traits@_W@std@@V?$K2StringAllocator@_W@@@std@@@Z 190d2b60 f   c_entitytool.obj
 0002:00047e10       ?SetSelectionSkin@CEntityTool@@QAEXABV?$basic_string@_WU?$char_traits@_W@std@@V?$K2StringAllocator@_W@@@std@@@Z 190d2e10 f   c_entitytool.obj
 0002:00047f70       ?SetSelectionType@CEntityTool@@QAEXABV?$basic_string@_WU?$char_traits@_W@std@@V?$K2StringAllocator@_W@@@std@@@Z 190d2f70 f   c_entitytool.obj
 0002:000481e0       ?SetSelectionProperty@CEntityTool@@QAEXABV?$basic_string@_WU?$char_traits@_W@std@@V?$K2StringAllocator@_W@@@std@@0@Z 190d31e0 f   c_entitytool.obj
 0002:000483b0       ?NormalizeLineBreaks@@YA?AV?$basic_string@_WU?$char_traits@_W@std@@V?$K2StringAllocator@_W@@@std@@ABV12@0@Z 190d33b0 f i c_entitytool.obj
 0002:00048470       ?SelectByModel@CEntityTool@@QAEXABV?$basic_string@_WU?$char_traits@_W@std@@V?$K2StringAllocator@_W@@@std@@@Z 190d3470 f   c_entitytool.obj
 0002:00048600       ?SetEditMode@CEntityTool@@QAEXABV?$basic_string@_WU?$char_traits@_W@std@@V?$K2StringAllocator@_W@@@std@@@Z 190d3600 f   c_entitytool.obj
 0002:00048b10       ?uiSetEntityEditModeFn@@YA?AV?$basic_string@_WU?$char_traits@_W@std@@V?$K2StringAllocator@_W@@@std@@PAVIWidget@@ABV?$vector@PAVCUIScriptToken@@V?$K2VectorAllocator@PAVCUIScriptToken@@@@@@@Z 190d3b10 f   c_entitytool.obj
 0002:00048b70       ?uiSetEntityEditModeVoidFn@@YAXPAVIWidget@@ABV?$vector@PAVCUIScriptToken@@V?$K2VectorAllocator@PAVCUIScriptToken@@@@@@@Z 190d3b70 f   c_entitytool.obj
 0002:00048cd0       ?GetInstance@CToolBox@@SAPAV1@XZ 190d3cd0 f i c_entitytool.obj
 0002:00048de0       ?uiSetEntityCenterModeFn@@YA?AV?$basic_string@_WU?$char_traits@_W@std@@V?$K2StringAllocator@_W@@@std@@PAVIWidget@@ABV?$vector@PAVCUIScriptToken@@V?$K2VectorAllocator@PAVCUIScriptToken@@@@@@@Z 190d3de0 f   c_entitytool.obj
 0002:00048e40       ?uiSetEntityCenterModeVoidFn@@YAXPAVIWidget@@ABV?$vector@PAVCUIScriptToken@@V?$K2VectorAllocator@PAVCUIScriptToken@@@@@@@Z 190d3e40 f   c_entitytool.obj
 0002:00049010       ?uiEntityGroundFn@@YA?AV?$basic_string@_WU?$char_traits@_W@std@@V?$K2StringAllocator@_W@@@std@@PAVIWidget@@ABV?$vector@PAVCUIScriptToken@@V?$K2VectorAllocator@PAVCUIScriptToken@@@@@@@Z 190d4010 f   c_entitytool.obj
 0002:00049070       ?uiEntityGroundVoidFn@@YAXPAVIWidget@@ABV?$vector@PAVCUIScriptToken@@V?$K2VectorAllocator@PAVCUIScriptToken@@@@@@@Z 190d4070 f   c_entitytool.obj
 0002:00049140       ?uiEntityStraightenFn@@YA?AV?$basic_string@_WU?$char_traits@_W@std@@V?$K2StringAllocator@_W@@@std@@PAVIWidget@@ABV?$vector@PAVCUIScriptToken@@V?$K2VectorAllocator@PAVCUIScriptToken@@@@@@@Z 190d4140 f   c_entitytool.obj
 0002:000491a0       ?uiEntityStraightenVoidFn@@YAXPAVIWidget@@ABV?$vector@PAVCUIScriptToken@@V?$K2VectorAllocator@PAVCUIScriptToken@@@@@@@Z 190d41a0 f   c_entitytool.obj
 0002:00049270       ?uiEntityResetScaleFn@@YA?AV?$basic_string@_WU?$char_traits@_W@std@@V?$K2StringAllocator@_W@@@std@@PAVIWidget@@ABV?$vector@PAVCUIScriptToken@@V?$K2VectorAllocator@PAVCUIScriptToken@@@@@@@Z 190d4270 f   c_entitytool.obj
 0002:000492d0       ?uiEntityResetScaleVoidFn@@YAXPAVIWidget@@ABV?$vector@PAVCUIScriptToken@@V?$K2VectorAllocator@PAVCUIScriptToken@@@@@@@Z 190d42d0 f   c_entitytool.obj
 0002:000493a0       ?uiGetSelectionNameFn@@YA?AV?$basic_string@_WU?$char_traits@_W@std@@V?$K2StringAllocator@_W@@@std@@PAVIWidget@@ABV?$vector@PAVCUIScriptToken@@V?$K2VectorAllocator@PAVCUIScriptToken@@@@@@@Z 190d43a0 f   c_entitytool.obj
 0002:00049540       ?uiGetSelectionTeamFn@@YA?AV?$basic_string@_WU?$char_traits@_W@std@@V?$K2StringAllocator@_W@@@std@@PAVIWidget@@ABV?$vector@PAVCUIScriptToken@@V?$K2VectorAllocator@PAVCUIScriptToken@@@@@@@Z 190d4540 f   c_entitytool.obj
 0002:00049670       ?uiGetSelectionModelFn@@YA?AV?$basic_string@_WU?$char_traits@_W@std@@V?$K2StringAllocator@_W@@@std@@PAVIWidget@@ABV?$vector@PAVCUIScriptToken@@V?$K2VectorAllocator@PAVCUIScriptToken@@@@@@@Z 190d4670 f   c_entitytool.obj
 0002:00049810       ?uiGetTreePathFn@@YA?AV?$basic_string@_WU?$char_traits@_W@std@@V?$K2StringAllocator@_W@@@std@@PAVIWidget@@ABV?$vector@PAVCUIScriptToken@@V?$K2VectorAllocator@PAVCUIScriptToken@@@@@@@Z 190d4810 f   c_entitytool.obj
 0002:000498d0       ?uiGetSelectionSkinFn@@YA?AV?$basic_string@_WU?$char_traits@_W@std@@V?$K2StringAllocator@_W@@@std@@PAVIWidget@@ABV?$vector@PAVCUIScriptToken@@V?$K2VectorAllocator@PAVCUIScriptToken@@@@@@@Z 190d48d0 f   c_entitytool.obj
 0002:00049a70       ?uiGetSelectionTypeFn@@YA?AV?$basic_string@_WU?$char_traits@_W@std@@V?$K2StringAllocator@_W@@@std@@PAVIWidget@@ABV?$vector@PAVCUIScriptToken@@V?$K2VectorAllocator@PAVCUIScriptToken@@@@@@@Z 190d4a70 f   c_entitytool.obj
 0002:00049c10       ?uiIsSelectionTypeFn@@YA?AV?$basic_string@_WU?$char_traits@_W@std@@V?$K2StringAllocator@_W@@@std@@PAVIWidget@@ABV?$vector@PAVCUIScriptToken@@V?$K2VectorAllocator@PAVCUIScriptToken@@@@@@@Z 190d4c10 f   c_entitytool.obj
 0002:00049d70       ?uiGetSelectionPropertyFn@@YA?AV?$basic_string@_WU?$char_traits@_W@std@@V?$K2StringAllocator@_W@@@std@@PAVIWidget@@ABV?$vector@PAVCUIScriptToken@@V?$K2VectorAllocator@PAVCUIScriptToken@@@@@@@Z 190d4d70 f   c_entitytool.obj
 0002:00049fd0       ?uiGetWorldIndexFromNameFn@@YA?AV?$basic_string@_WU?$char_traits@_W@std@@V?$K2StringAllocator@_W@@@std@@PAVIWidget@@ABV?$vector@PAVCUIScriptToken@@V?$K2VectorAllocator@PAVCUIScriptToken@@@@@@@Z 190d4fd0 f   c_entitytool.obj
 0002:0004a240       ?uiSetSelectionNameFn@@YA?AV?$basic_string@_WU?$char_traits@_W@std@@V?$K2StringAllocator@_W@@@std@@PAVIWidget@@ABV?$vector@PAVCUIScriptToken@@V?$K2VectorAllocator@PAVCUIScriptToken@@@@@@@Z 190d5240 f   c_entitytool.obj
 0002:0004a2a0       ?uiSetSelectionNameVoidFn@@YAXPAVIWidget@@ABV?$vector@PAVCUIScriptToken@@V?$K2VectorAllocator@PAVCUIScriptToken@@@@@@@Z 190d52a0 f   c_entitytool.obj
 0002:0004a440       ?uiSetSelectionTeamFn@@YA?AV?$basic_string@_WU?$char_traits@_W@std@@V?$K2StringAllocator@_W@@@std@@PAVIWidget@@ABV?$vector@PAVCUIScriptToken@@V?$K2VectorAllocator@PAVCUIScriptToken@@@@@@@Z 190d5440 f   c_entitytool.obj
 0002:0004a4a0       ?uiSetSelectionTeamVoidFn@@YAXPAVIWidget@@ABV?$vector@PAVCUIScriptToken@@V?$K2VectorAllocator@PAVCUIScriptToken@@@@@@@Z 190d54a0 f   c_entitytool.obj
 0002:0004a660       ?uiSetSelectionModelFn@@YA?AV?$basic_string@_WU?$char_traits@_W@std@@V?$K2StringAllocator@_W@@@std@@PAVIWidget@@ABV?$vector@PAVCUIScriptToken@@V?$K2VectorAllocator@PAVCUIScriptToken@@@@@@@Z 190d5660 f   c_entitytool.obj
 0002:0004a6c0       ?uiSetSelectionModelVoidFn@@YAXPAVIWidget@@ABV?$vector@PAVCUIScriptToken@@V?$K2VectorAllocator@PAVCUIScriptToken@@@@@@@Z 190d56c0 f   c_entitytool.obj
 0002:0004a860       ?uiSetSelectionSkinFn@@YA?AV?$basic_string@_WU?$char_traits@_W@std@@V?$K2StringAllocator@_W@@@std@@PAVIWidget@@ABV?$vector@PAVCUIScriptToken@@V?$K2VectorAllocator@PAVCUIScriptToken@@@@@@@Z 190d5860 f   c_entitytool.obj
 0002:0004a8c0       ?uiSetSelectionSkinVoidFn@@YAXPAVIWidget@@ABV?$vector@PAVCUIScriptToken@@V?$K2VectorAllocator@PAVCUIScriptToken@@@@@@@Z 190d58c0 f   c_entitytool.obj
 0002:0004aa60       ?uiSetSelectionTypeFn@@YA?AV?$basic_string@_WU?$char_traits@_W@std@@V?$K2StringAllocator@_W@@@std@@PAVIWidget@@ABV?$vector@PAVCUIScriptToken@@V?$K2VectorAllocator@PAVCUIScriptToken@@@@@@@Z 190d5a60 f   c_entitytool.obj
 0002:0004aac0       ?uiSetSelectionTypeVoidFn@@YAXPAVIWidget@@ABV?$vector@PAVCUIScriptToken@@V?$K2VectorAllocator@PAVCUIScriptToken@@@@@@@Z 190d5ac0 f   c_entitytool.obj
 0002:0004ac60       ?uiSetSelectionPropertyFn@@YA?AV?$basic_string@_WU?$char_traits@_W@std@@V?$K2StringAllocator@_W@@@std@@PAVIWidget@@ABV?$vector@PAVCUIScriptToken@@V?$K2VectorAllocator@PAVCUIScriptToken@@@@@@@Z 190d5c60 f   c_entitytool.obj
 0002:0004acc0       ?uiSetSelectionPropertyVoidFn@@YAXPAVIWidget@@ABV?$vector@PAVCUIScriptToken@@V?$K2VectorAllocator@PAVCUIScriptToken@@@@@@@Z 190d5cc0 f   c_entitytool.obj
 0002:0004ae90       ?uiSelectByModelFn@@YA?AV?$basic_string@_WU?$char_traits@_W@std@@V?$K2StringAllocator@_W@@@std@@PAVIWidget@@ABV?$vector@PAVCUIScriptToken@@V?$K2VectorAllocator@PAVCUIScriptToken@@@@@@@Z 190d5e90 f   c_entitytool.obj
 0002:0004aef0       ?uiSelectByModelVoidFn@@YAXPAVIWidget@@ABV?$vector@PAVCUIScriptToken@@V?$K2VectorAllocator@PAVCUIScriptToken@@@@@@@Z 190d5ef0 f   c_entitytool.obj
 0002:0004b090       ?uiClearSelectionFn@@YA?AV?$basic_string@_WU?$char_traits@_W@std@@V?$K2StringAllocator@_W@@@std@@PAVIWidget@@ABV?$vector@PAVCUIScriptToken@@V?$K2VectorAllocator@PAVCUIScriptToken@@@@@@@Z 190d6090 f   c_entitytool.obj
 0002:0004b0f0       ?uiClearSelectionVoidFn@@YAXPAVIWidget@@ABV?$vector@PAVCUIScriptToken@@V?$K2VectorAllocator@PAVCUIScriptToken@@@@@@@Z 190d60f0 f   c_entitytool.obj
 0002:0004b120       ?ClearSelection@CEntityTool@@QAEXXZ 190d6120 f i c_entitytool.obj
 0002:0004b150       ?uiToggleEntityTreeModeFn@@YA?AV?$basic_string@_WU?$char_traits@_W@std@@V?$K2StringAllocator@_W@@@std@@PAVIWidget@@ABV?$vector@PAVCUIScriptToken@@V?$K2VectorAllocator@PAVCUIScriptToken@@@@@@@Z 190d6150 f   c_entitytool.obj
 0002:0004b1b0       ?uiToggleEntityTreeModeVoidFn@@YAXPAVIWidget@@ABV?$vector@PAVCUIScriptToken@@V?$K2VectorAllocator@PAVCUIScriptToken@@@@@@@Z 190d61b0 f   c_entitytool.obj
 0002:0004b1e0       ?uiEnableTreeModeFn@@YA?AV?$basic_string@_WU?$char_traits@_W@std@@V?$K2StringAllocator@_W@@@std@@PAVIWidget@@ABV?$vector@PAVCUIScriptToken@@V?$K2VectorAllocator@PAVCUIScriptToken@@@@@@@Z 190d61e0 f   c_entitytool.obj
 0002:0004b240       ?uiEnableTreeModeVoidFn@@YAXPAVIWidget@@ABV?$vector@PAVCUIScriptToken@@V?$K2VectorAllocator@PAVCUIScriptToken@@@@@@@Z 190d6240 f   c_entitytool.obj
 0002:0004b270       ?uiDisableTreeModeFn@@YA?AV?$basic_string@_WU?$char_traits@_W@std@@V?$K2StringAllocator@_W@@@std@@PAVIWidget@@ABV?$vector@PAVCUIScriptToken@@V?$K2VectorAllocator@PAVCUIScriptToken@@@@@@@Z 190d6270 f   c_entitytool.obj
 0002:0004b2d0       ?uiDisableTreeModeVoidFn@@YAXPAVIWidget@@ABV?$vector@PAVCUIScriptToken@@V?$K2VectorAllocator@PAVCUIScriptToken@@@@@@@Z 190d62d0 f   c_entitytool.obj
 0002:0004b300       ?TreeCreate@CEntityTool@@AAEXXZ 190d6300 f   c_entitytool.obj
 0002:0004be50       ?GetTreeScaleMin@CTreeDefinitionResource@@QAEMXZ 190d6e50 f i c_entitytool.obj
 0002:0004be80       ?GetTreeScaleMax@CTreeDefinitionResource@@QAEMXZ 190d6e80 f i c_entitytool.obj
 0002:0004beb0       ?GetTreeModelPath@CTreeDefinitionResource@@QAE?AV?$basic_string@_WU?$char_traits@_W@std@@V?$K2StringAllocator@_W@@@std@@XZ 190d6eb0 f i c_entitytool.obj
 0002:0004bf00       ??4?$CCvar@V?$basic_string@_WU?$char_traits@_W@std@@V?$K2StringAllocator@_W@@@std@@V12@@@QAEABV?$basic_string@_WU?$char_traits@_W@std@@V?$K2StringAllocator@_W@@@std@@ABV12@@Z 190d6f00 f i c_entitytool.obj
 0002:0004bf40       ?Render@CEntityTool@@EAEXXZ 190d6f40 f   c_entitytool.obj
 0002:0004bf60       ?ToggleTreeMode@CEntityTool@@QAEXXZ 190d6f60 f   c_entitytool.obj
 0002:0004c130       ?EnableTreeMode@CEntityTool@@QAEXXZ 190d7130 f   c_entitytool.obj
 0002:0004c240       ?Clone@CWorldEntity@@QAEXABV1@@Z 190d7240 f i c_entitytool.obj
 0002:0004c410       ?DisableTreeMode@CEntityTool@@QAEXXZ 190d7410 f   c_entitytool.obj
 0002:0004c4f0       ?StartTreeSelect@CEntityTool@@AAEXXZ 190d74f0 f   c_entitytool.obj
 0002:0004c970       ?GetIndex@CWorldEntity@@QBEIXZ 190d7970 f i c_entitytool.obj
 0002:0004c990       ?SetIndex@CWorldEntity@@QAEXI@Z 190d7990 f i c_entitytool.obj
 0002:0004c9c0       ?IncrementSeed@CWorldEntity@@QAEXXZ 190d79c0 f i c_entitytool.obj
 0002:0004c9f0       ?DecrementSeed@CWorldEntity@@QAEXXZ 190d79f0 f i c_entitytool.obj
 0002:0004ca20       ?GetName@CWorldEntity@@QBE?AV?$basic_string@_WU?$char_traits@_W@std@@V?$K2StringAllocator@_W@@@std@@XZ 190d7a20 f i c_entitytool.obj
 0002:0004ca70       ?SetName@CWorldEntity@@QAEXABV?$basic_string@_WU?$char_traits@_W@std@@V?$K2StringAllocator@_W@@@std@@@Z 190d7a70 f i c_entitytool.obj
 0002:0004caa0       ?ApplyTreeSelect@CEntityTool@@AAEXXZ 190d7aa0 f   c_entitytool.obj
 0002:0004cfa0       ?GetTeam@CWorldEntity@@QBEHXZ 190d7fa0 f i c_entitytool.obj
 0002:0004cfd0       ?SetTeam@CWorldEntity@@QAEXH@Z 190d7fd0 f i c_entitytool.obj
 0002:0004d000       ?SetPosition@CWorldEntity@@QAEXMMM@Z 190d8000 f i c_entitytool.obj
 0002:0004d050       ?AdjustAngle@CWorldEntity@@QAEXW4EEulerComponent@@M@Z 190d8050 f i c_entitytool.obj
 0002:0004d0a0       ?GetScale@CWorldEntity@@QBEMXZ 190d80a0 f i c_entitytool.obj
 0002:0004d0d0       ?AdjustScale@CWorldEntity@@QAEXM@Z 190d80d0 f i c_entitytool.obj
 0002:0004d110       ?StartTreeTranslateXY@CEntityTool@@AAEXXZ 190d8110 f   c_entitytool.obj
 0002:0004dc10       ?GetSkin@CWorldEntity@@QBEIXZ 190d8c10 f i c_entitytool.obj
 0002:0004dc40       ?SetTreeDefinition@CWorldEntity@@QAEXI@Z 190d8c40 f i c_entitytool.obj
 0002:0004dc70       ?SetProperty@CWorldEntity@@QAEXABV?$basic_string@_WU?$char_traits@_W@std@@V?$K2StringAllocator@_W@@@std@@0@Z 190d8c70 f i c_entitytool.obj
 0002:0004dcb0       ?ApplyTreeTranslateXY@CEntityTool@@AAEXXZ 190d8cb0 f   c_entitytool.obj
 0002:0004e690       ?GetProperty@CWorldEntity@@QBE?AV?$basic_string@_WU?$char_traits@_W@std@@V?$K2StringAllocator@_W@@@std@@ABV23@0@Z 190d9690 f i c_entitytool.obj
 0002:0004e7e0       ?GetWorldSurfsRef@CWorldEntity@@QAEAAV?$vector@VCConvexPolyhedron@@V?$K2VectorAllocator@VCConvexPolyhedron@@@@@@XZ 190d97e0 f i c_entitytool.obj
 0002:0004e810       ?ApplyTreeTranslateZ@CEntityTool@@AAEXXZ 190d9810 f   c_entitytool.obj
 0002:0004e830       ?TreeTranslateXY@CEntityTool@@AAEXXZ 190d9830 f   c_entitytool.obj
 0002:0004ebc0       ?GetSelectionTreeDef@CEntityTool@@QAE?AV?$basic_string@_WU?$char_traits@_W@std@@V?$K2StringAllocator@_W@@@std@@XZ 190d9bc0 f   c_entitytool.obj
 0002:0004ef80       ?GetTreeDefinition@CWorldEntity@@QBEIXZ 190d9f80 f i c_entitytool.obj
 0002:0004efb0       ??4?$map@V?$basic_string@_WU?$char_traits@_W@std@@V?$K2StringAllocator@_W@@@std@@V12@U?$less@V?$basic_string@_WU?$char_traits@_W@std@@V?$K2StringAllocator@_W@@@std@@@2@V?$K2MapAllocator@U?$pair@$$CBV?$basic_string@_WU?$char_traits@_W@std@@V?$K2StringAllocator@_W@@@std@@V12@@std@@@@@@QAEAAV0@ABV0@@Z 190d9fb0 f i c_entitytool.obj
 0002:0004efe0       ??1const_iterator@?$_Tree@V?$_Tmap_traits@V?$basic_string@_WU?$char_traits@_W@std@@V?$K2StringAllocator@_W@@@std@@V12@U?$less@V?$basic_string@_WU?$char_traits@_W@std@@V?$K2StringAllocator@_W@@@std@@@2@V?$K2MapAllocator@U?$pair@$$CBV?$basic_string@_WU?$char_traits@_W@std@@V?$K2StringAllocator@_W@@@std@@V12@@std@@@@$0A@@std@@@std@@QAE@XZ 190d9fe0 f i c_entitytool.obj
 0002:0004f010       ?SetSelectionTreeDef@CEntityTool@@QAEXABV?$basic_string@_WU?$char_traits@_W@std@@V?$K2StringAllocator@_W@@@std@@@Z 190da010 f   c_entitytool.obj
 0002:0004f3b0       ??4?$map@V?$basic_string@_WU?$char_traits@_W@std@@V?$K2StringAllocator@_W@@@std@@V12@U?$less@V?$basic_string@_WU?$char_traits@_W@std@@V?$K2StringAllocator@_W@@@std@@@2@V?$K2MapAllocator@U?$pair@$$CBV?$basic_string@_WU?$char_traits@_W@std@@V?$K2StringAllocator@_W@@@std@@V12@@std@@@@@std@@QAEAAV01@ABV01@@Z 190da3b0 f i c_entitytool.obj
 0002:0004f3e0       ??1?$_Bidit@U?$pair@$$CBV?$basic_string@_WU?$char_traits@_W@std@@V?$K2StringAllocator@_W@@@std@@V12@@std@@HPBU12@ABU12@@std@@QAE@XZ 190da3e0 f i c_entitytool.obj
 0002:0004f410       ?uiSetSelectionTreeDefFn@@YA?AV?$basic_string@_WU?$char_traits@_W@std@@V?$K2StringAllocator@_W@@@std@@PAVIWidget@@ABV?$vector@PAVCUIScriptToken@@V?$K2VectorAllocator@PAVCUIScriptToken@@@@@@@Z 190da410 f   c_entitytool.obj
 0002:0004f470       ?uiSetSelectionTreeDefVoidFn@@YAXPAVIWidget@@ABV?$vector@PAVCUIScriptToken@@V?$K2VectorAllocator@PAVCUIScriptToken@@@@@@@Z 190da470 f   c_entitytool.obj
 0002:0004f560       ??0?$set@IU?$less@I@std@@V?$K2SetAllocator@I@@@@QAE@XZ 190da560 f i c_entitytool.obj
 0002:0004f590       ??0?$_Tree@V?$_Tset_traits@IU?$less@I@std@@V?$K2SetAllocator@I@@$0A@@std@@@std@@QAE@ABV01@@Z 190da590 f i c_entitytool.obj
 0002:0004f6a0       ??1?$_Tree@V?$_Tset_traits@IU?$less@I@std@@V?$K2SetAllocator@I@@$0A@@std@@@std@@QAE@XZ 190da6a0 f i c_entitytool.obj
 0002:0004f720       ??4?$_Tree@V?$_Tset_traits@IU?$less@I@std@@V?$K2SetAllocator@I@@$0A@@std@@@std@@QAEAAV01@ABV01@@Z 190da720 f i c_entitytool.obj
 0002:0004f800       ?end@?$_Tree@V?$_Tset_traits@IU?$less@I@std@@V?$K2SetAllocator@I@@$0A@@std@@@std@@QAE?AViterator@12@XZ 190da800 f i c_entitytool.obj
 0002:0004f850       ?size@?$_Tree@V?$_Tset_traits@IU?$less@I@std@@V?$K2SetAllocator@I@@$0A@@std@@@std@@QBEIXZ 190da850 f i c_entitytool.obj
 0002:0004f870       ?empty@?$_Tree@V?$_Tset_traits@IU?$less@I@std@@V?$K2SetAllocator@I@@$0A@@std@@@std@@QBE_NXZ 190da870 f i c_entitytool.obj
 0002:0004f8a0       ?erase@?$_Tree@V?$_Tset_traits@IU?$less@I@std@@V?$K2SetAllocator@I@@$0A@@std@@@std@@QAEIABI@Z 190da8a0 f i c_entitytool.obj
 0002:0004fa20       ?find@?$_Tree@V?$_Tset_traits@IU?$less@I@std@@V?$K2SetAllocator@I@@$0A@@std@@@std@@QAE?AViterator@12@ABI@Z 190daa20 f i c_entitytool.obj
 0002:0004fc00       ??0?$map@GV?$basic_string@_WU?$char_traits@_W@std@@V?$K2StringAllocator@_W@@@std@@U?$less@G@2@V?$K2MapAllocator@U?$pair@$$CBGV?$basic_string@_WU?$char_traits@_W@std@@V?$K2StringAllocator@_W@@@std@@@std@@@@@@QAE@XZ 190dac00 f i c_entitytool.obj
 0002:0004fc30       ??1?$_Tree@V?$_Tmap_traits@GV?$basic_string@_WU?$char_traits@_W@std@@V?$K2StringAllocator@_W@@@std@@U?$less@G@2@V?$K2MapAllocator@U?$pair@$$CBGV?$basic_string@_WU?$char_traits@_W@std@@V?$K2StringAllocator@_W@@@std@@@std@@@@$0A@@std@@@std@@QAE@XZ 190dac30 f i c_entitytool.obj
 0002:0004fcb0       ?begin@?$_Tree@V?$_Tmap_traits@GV?$basic_string@_WU?$char_traits@_W@std@@V?$K2StringAllocator@_W@@@std@@U?$less@G@2@V?$K2MapAllocator@U?$pair@$$CBGV?$basic_string@_WU?$char_traits@_W@std@@V?$K2StringAllocator@_W@@@std@@@std@@@@$0A@@std@@@std@@QAE?AViterator@12@XZ 190dacb0 f i c_entitytool.obj
 0002:0004fd00       ?end@?$_Tree@V?$_Tmap_traits@GV?$basic_string@_WU?$char_traits@_W@std@@V?$K2StringAllocator@_W@@@std@@U?$less@G@2@V?$K2MapAllocator@U?$pair@$$CBGV?$basic_string@_WU?$char_traits@_W@std@@V?$K2StringAllocator@_W@@@std@@@std@@@@$0A@@std@@@std@@QAE?AViterator@12@XZ 190dad00 f i c_entitytool.obj
 0002:0004fd50       ??D?$_Vector_iterator@V?$basic_string@_WU?$char_traits@_W@std@@V?$K2StringAllocator@_W@@@std@@V?$K2VectorAllocator@V?$basic_string@_WU?$char_traits@_W@std@@V?$K2StringAllocator@_W@@@std@@@@@std@@QBEAAV?$basic_string@_WU?$char_traits@_W@std@@V?$K2StringAllocator@_W@@@1@XZ 190dad50 f i c_entitytool.obj
 0002:0004fd80       ??E?$_Vector_iterator@V?$basic_string@_WU?$char_traits@_W@std@@V?$K2StringAllocator@_W@@@std@@V?$K2VectorAllocator@V?$basic_string@_WU?$char_traits@_W@std@@V?$K2StringAllocator@_W@@@std@@@@@std@@QAEAAV01@XZ 190dad80 f i c_entitytool.obj
 0002:0004fdb0       ??E?$_Vector_const_iterator@V?$basic_string@_WU?$char_traits@_W@std@@V?$K2StringAllocator@_W@@@std@@V?$K2VectorAllocator@V?$basic_string@_WU?$char_traits@_W@std@@V?$K2StringAllocator@_W@@@std@@@@@std@@QAEAAV01@XZ 190dadb0 f i c_entitytool.obj
 0002:0004fea0       ??4?$CCvar@_N_N@@QAE_NAB_N@Z 190daea0 f i c_entitytool.obj
 0002:0004fef0       ?begin@?$vector@VCConvexPolyhedron@@V?$K2VectorAllocator@VCConvexPolyhedron@@@@@std@@QBE?AV?$_Vector_const_iterator@VCConvexPolyhedron@@V?$K2VectorAllocator@VCConvexPolyhedron@@@@@2@XZ 190daef0 f i c_entitytool.obj
 0002:0004ff40       ?end@?$vector@VCConvexPolyhedron@@V?$K2VectorAllocator@VCConvexPolyhedron@@@@@std@@QBE?AV?$_Vector_const_iterator@VCConvexPolyhedron@@V?$K2VectorAllocator@VCConvexPolyhedron@@@@@2@XZ 190daf40 f i c_entitytool.obj
 0002:0004ff90       ?GetWidth@?$CRect@M@@QBEMXZ 190daf90 f i c_entitytool.obj
 0002:0004ffc0       ?GetHeight@?$CRect@M@@QBEMXZ 190dafc0 f i c_entitytool.obj
 0002:0004fff0       ??Diterator@?$_Tree@V?$_Tset_traits@IU?$less@I@std@@V?$K2SetAllocator@I@@$0A@@std@@@std@@QBEAAIXZ 190daff0 f i c_entitytool.obj
 0002:00050020       ??Eiterator@?$_Tree@V?$_Tset_traits@IU?$less@I@std@@V?$K2SetAllocator@I@@$0A@@std@@@std@@QAEAAV012@XZ 190db020 f i c_entitytool.obj
 0002:00050050       ??9const_iterator@?$_Tree@V?$_Tset_traits@IU?$less@I@std@@V?$K2SetAllocator@I@@$0A@@std@@@std@@QBE_NABV012@@Z 190db050 f i c_entitytool.obj
 0002:00050090       ?end@?$_Tree@V?$_Tmap_traits@IVCWorldEntityEx@@U?$less@I@std@@V?$K2MapAllocator@U?$pair@$$CBIVCWorldEntityEx@@@std@@@@$0A@@std@@@std@@QAE?AViterator@12@XZ 190db090 f i c_entitytool.obj
 0002:000500e0       ?insert@?$_Tree@V?$_Tmap_traits@IVCWorldEntityEx@@U?$less@I@std@@V?$K2MapAllocator@U?$pair@$$CBIVCWorldEntityEx@@@std@@@@$0A@@std@@@std@@QAE?AU?$pair@Viterator@?$_Tree@V?$_Tmap_traits@IVCWorldEntityEx@@U?$less@I@std@@V?$K2MapAllocator@U?$pair@$$CBIVCWorldEntityEx@@@std@@@@$0A@@std@@@std@@_N@2@ABU?$pair@$$CBIVCWorldEntityEx@@@2@@Z 190db0e0 f i c_entitytool.obj
 0002:00050500       ?erase@?$_Tree@V?$_Tmap_traits@IVCWorldEntityEx@@U?$less@I@std@@V?$K2MapAllocator@U?$pair@$$CBIVCWorldEntityEx@@@std@@@@$0A@@std@@@std@@QAE?AViterator@12@V312@@Z 190db500 f i c_entitytool.obj
 0002:00050ee0       ?find@?$_Tree@V?$_Tmap_traits@IVCWorldEntityEx@@U?$less@I@std@@V?$K2MapAllocator@U?$pair@$$CBIVCWorldEntityEx@@@std@@@@$0A@@std@@@std@@QAE?AViterator@12@ABI@Z 190dbee0 f i c_entitytool.obj
 0002:000510c0       ??E?$_Vector_const_iterator@VCConvexPolyhedron@@V?$K2VectorAllocator@VCConvexPolyhedron@@@@@std@@QAEAAV01@XZ 190dc0c0 f i c_entitytool.obj
 0002:000511b0       ??9?$_Vector_const_iterator@VCConvexPolyhedron@@V?$K2VectorAllocator@VCConvexPolyhedron@@@@@std@@QBE_NABV01@@Z 190dc1b0 f i c_entitytool.obj
 0002:000511f0       ?GetEntityByHandle@CWorld@@QBEPAVCWorldEntity@@I@Z 190dc1f0 f i c_entitytool.obj
 0002:00051230       ?GetEntityList@CWorld@@QBEAAV?$vector@IV?$K2VectorAllocator@I@@@@XZ 190dc230 f i c_entitytool.obj
 0002:00051260       ??Citerator@?$_Tree@V?$_Tmap_traits@GV?$basic_string@_WU?$char_traits@_W@std@@V?$K2StringAllocator@_W@@@std@@U?$less@G@2@V?$K2MapAllocator@U?$pair@$$CBGV?$basic_string@_WU?$char_traits@_W@std@@V?$K2StringAllocator@_W@@@std@@@std@@@@$0A@@std@@@std@@QBEPAU?$pair@$$CBGV?$basic_string@_WU?$char_traits@_W@std@@V?$K2StringAllocator@_W@@@std@@@2@XZ 190dc260 f i c_entitytool.obj
 0002:00051290       ??Eiterator@?$_Tree@V?$_Tmap_traits@GV?$basic_string@_WU?$char_traits@_W@std@@V?$K2StringAllocator@_W@@@std@@U?$less@G@2@V?$K2MapAllocator@U?$pair@$$CBGV?$basic_string@_WU?$char_traits@_W@std@@V?$K2StringAllocator@_W@@@std@@@std@@@@$0A@@std@@@std@@QAEAAV012@XZ 190dc290 f i c_entitytool.obj
 0002:000512c0       ??9const_iterator@?$_Tree@V?$_Tmap_traits@GV?$basic_string@_WU?$char_traits@_W@std@@V?$K2StringAllocator@_W@@@std@@U?$less@G@2@V?$K2MapAllocator@U?$pair@$$CBGV?$basic_string@_WU?$char_traits@_W@std@@V?$K2StringAllocator@_W@@@std@@@std@@@@$0A@@std@@@std@@QBE_NABV012@@Z 190dc2c0 f i c_entitytool.obj
 0002:00051300       ??Citerator@?$_Tree@V?$_Tmap_traits@IVCWorldEntityEx@@U?$less@I@std@@V?$K2MapAllocator@U?$pair@$$CBIVCWorldEntityEx@@@std@@@@$0A@@std@@@std@@QBEPAU?$pair@$$CBIVCWorldEntityEx@@@2@XZ 190dc300 f i c_entitytool.obj
 0002:00051330       ??8const_iterator@?$_Tree@V?$_Tmap_traits@IVCWorldEntityEx@@U?$less@I@std@@V?$K2MapAllocator@U?$pair@$$CBIVCWorldEntityEx@@@std@@@@$0A@@std@@@std@@QBE_NABV012@@Z 190dc330 f i c_entitytool.obj
 0002:000513f0       ??9const_iterator@?$_Tree@V?$_Tmap_traits@IVCWorldEntityEx@@U?$less@I@std@@V?$K2MapAllocator@U?$pair@$$CBIVCWorldEntityEx@@@std@@@@$0A@@std@@@std@@QBE_NABV012@@Z 190dc3f0 f i c_entitytool.obj
 0002:00051430       ??0?$pair@IVCWorldEntityEx@@@std@@QAE@ABIABVCWorldEntityEx@@@Z 190dc430 f i c_entitytool.obj
 0002:00051470       ??1?$_Tree_val@V?$_Tset_traits@IU?$less@I@std@@V?$K2SetAllocator@I@@$0A@@std@@@std@@QAE@XZ 190dc470 f i c_entitytool.obj
 0002:000514f0       ??1?$pair@Viterator@?$_Tree@V?$_Tset_traits@IU?$less@I@std@@V?$K2SetAllocator@I@@$0A@@std@@@std@@V123@@std@@QAE@XZ 190dc4f0 f i c_entitytool.obj
 0002:00051570       ??1?$_Tree_val@V?$_Tmap_traits@GV?$basic_string@_WU?$char_traits@_W@std@@V?$K2StringAllocator@_W@@@std@@U?$less@G@2@V?$K2MapAllocator@U?$pair@$$CBGV?$basic_string@_WU?$char_traits@_W@std@@V?$K2StringAllocator@_W@@@std@@@std@@@@$0A@@std@@@std@@QAE@XZ 190dc570 f i c_entitytool.obj
 0002:000515f0       ??0CWorldEntityEx@@QAE@ABV0@@Z 190dc5f0 f i c_entitytool.obj
 0002:00051640       ??1?$_Tree_ptr@V?$_Tset_traits@IU?$less@I@std@@V?$K2SetAllocator@I@@$0A@@std@@@std@@QAE@XZ 190dc640 f i c_entitytool.obj
 0002:000516c0       ??1?$_Tree_ptr@V?$_Tmap_traits@GV?$basic_string@_WU?$char_traits@_W@std@@V?$K2StringAllocator@_W@@@std@@U?$less@G@2@V?$K2MapAllocator@U?$pair@$$CBGV?$basic_string@_WU?$char_traits@_W@std@@V?$K2StringAllocator@_W@@@std@@@std@@@@$0A@@std@@@std@@QAE@XZ 190dc6c0 f i c_entitytool.obj
 0002:00051740       ??1?$_Tree_nod@V?$_Tset_traits@IU?$less@I@std@@V?$K2SetAllocator@I@@$0A@@std@@@std@@QAE@XZ 190dc740 f i c_entitytool.obj
 0002:000517c0       ??1?$_Tree_nod@V?$_Tmap_traits@GV?$basic_string@_WU?$char_traits@_W@std@@V?$K2StringAllocator@_W@@@std@@U?$less@G@2@V?$K2MapAllocator@U?$pair@$$CBGV?$basic_string@_WU?$char_traits@_W@std@@V?$K2StringAllocator@_W@@@std@@@std@@@@$0A@@std@@@std@@QAE@XZ 190dc7c0 f i c_entitytool.obj
 0002:00051840       ??1?$_Tset_traits@IU?$less@I@std@@V?$K2SetAllocator@I@@$0A@@std@@QAE@XZ 190dc840 f i c_entitytool.obj
 0002:00051870       ??1?$_Tmap_traits@GV?$basic_string@_WU?$char_traits@_W@std@@V?$K2StringAllocator@_W@@@std@@U?$less@G@2@V?$K2MapAllocator@U?$pair@$$CBGV?$basic_string@_WU?$char_traits@_W@std@@V?$K2StringAllocator@_W@@@std@@@std@@@@$0A@@std@@QAE@XZ 190dc870 f i c_entitytool.obj
 0002:000518a0       ?GetPath@IResource@@QBEABV?$basic_string@_WU?$char_traits@_W@std@@V?$K2StringAllocator@_W@@@std@@XZ 190dc8a0 f i c_entitytool.obj
 0002:000518c0       ??0?$set@IU?$less@I@std@@V?$K2SetAllocator@I@@@std@@QAE@XZ 190dc8c0 f i c_entitytool.obj
 0002:00051960       ??1?$pair@Viterator@?$_Tree@V?$_Tset_traits@IU?$less@I@std@@V?$K2SetAllocator@I@@$0A@@std@@@std@@_N@std@@QAE@XZ 190dc960 f i c_entitytool.obj
 0002:00051990       ?get_allocator@?$_Tree@V?$_Tset_traits@IU?$less@I@std@@V?$K2SetAllocator@I@@$0A@@std@@@std@@QBE?AV?$K2SetAllocator@I@@XZ 190dc990 f i c_entitytool.obj
 0002:000519e0       ??1iterator@?$_Tree@V?$_Tset_traits@IU?$less@I@std@@V?$K2SetAllocator@I@@$0A@@std@@@std@@QAE@XZ 190dc9e0 f i c_entitytool.obj
 0002:00051a10       ?key_comp@?$_Tree@V?$_Tset_traits@IU?$less@I@std@@V?$K2SetAllocator@I@@$0A@@std@@@std@@QBE?AU?$less@I@2@XZ 190dca10 f i c_entitytool.obj
 0002:00051a30       ??1const_iterator@?$_Tree@V?$_Tset_traits@IU?$less@I@std@@V?$K2SetAllocator@I@@$0A@@std@@@std@@QAE@XZ 190dca30 f i c_entitytool.obj
 0002:00051a60       ?erase@?$_Tree@V?$_Tset_traits@IU?$less@I@std@@V?$K2SetAllocator@I@@$0A@@std@@@std@@QAE?AViterator@12@V312@0@Z 190dca60 f i c_entitytool.obj
 0002:00051cf0       ??1?$_Bidit@IHPBIABI@std@@QAE@XZ 190dccf0 f i c_entitytool.obj
 0002:00051d20       ?lower_bound@?$_Tree@V?$_Tset_traits@IU?$less@I@std@@V?$K2SetAllocator@I@@$0A@@std@@@std@@QAE?AViterator@12@ABI@Z 190dcd20 f i c_entitytool.obj
 0002:00051d80       ?equal_range@?$_Tree@V?$_Tset_traits@IU?$less@I@std@@V?$K2SetAllocator@I@@$0A@@std@@@std@@QAE?AU?$pair@Viterator@?$_Tree@V?$_Tset_traits@IU?$less@I@std@@V?$K2SetAllocator@I@@$0A@@std@@@std@@V123@@2@ABI@Z 190dcd80 f i c_entitytool.obj
 0002:00051e70       ?_Copy@?$_Tree@V?$_Tset_traits@IU?$less@I@std@@V?$K2SetAllocator@I@@$0A@@std@@@std@@IAEXABV12@@Z 190dce70 f i c_entitytool.obj
 0002:00051f70       ?_Init@?$_Tree@V?$_Tset_traits@IU?$less@I@std@@V?$K2SetAllocator@I@@$0A@@std@@@std@@IAEXXZ 190dcf70 f i c_entitytool.obj
 0002:00052000       ?_Tidy@?$_Tree@V?$_Tset_traits@IU?$less@I@std@@V?$K2SetAllocator@I@@$0A@@std@@@std@@IAEXXZ 190dd000 f i c_entitytool.obj
 0002:00052150       ??0?$_Tree_val@V?$_Tset_traits@IU?$less@I@std@@V?$K2SetAllocator@I@@$0A@@std@@@std@@IAE@ABU?$less@I@1@V?$K2SetAllocator@I@@@Z 190dd150 f i c_entitytool.obj
 0002:00052200       ??1?$K2SetAllocator@I@@QAE@XZ 190dd200 f i c_entitytool.obj
 0002:00052220       ??1?$K2SetAllocator@U_Node@?$_Tree_nod@V?$_Tset_traits@IU?$less@I@std@@V?$K2SetAllocator@I@@$0A@@std@@@std@@@@QAE@XZ 190dd220 f i c_entitytool.obj
 0002:00052240       ??1?$K2SetAllocator@PAU_Node@?$_Tree_nod@V?$_Tset_traits@IU?$less@I@std@@V?$K2SetAllocator@I@@$0A@@std@@@std@@@@QAE@XZ 190dd240 f i c_entitytool.obj
 0002:00052260       ??0?$map@GV?$basic_string@_WU?$char_traits@_W@std@@V?$K2StringAllocator@_W@@@std@@U?$less@G@2@V?$K2MapAllocator@U?$pair@$$CBGV?$basic_string@_WU?$char_traits@_W@std@@V?$K2StringAllocator@_W@@@std@@@std@@@@@std@@QAE@XZ 190dd260 f i c_entitytool.obj
 0002:00052300       ?_Lmost@?$_Tree@V?$_Tmap_traits@GV?$basic_string@_WU?$char_traits@_W@std@@V?$K2StringAllocator@_W@@@std@@U?$less@G@2@V?$K2MapAllocator@U?$pair@$$CBGV?$basic_string@_WU?$char_traits@_W@std@@V?$K2StringAllocator@_W@@@std@@@std@@@@$0A@@std@@@std@@IBEAAPAU_Node@?$_Tree_nod@V?$_Tmap_traits@GV?$basic_string@_WU?$char_traits@_W@std@@V?$K2StringAllocator@_W@@@std@@U?$less@G@2@V?$K2MapAllocator@U?$pair@$$CBGV?$basic_string@_WU?$char_traits@_W@std@@V?$K2StringAllocator@_W@@@std@@@std@@@@$0A@@std@@@2@XZ 190dd300 f i c_entitytool.obj
 0002:00052330       ?_Tidy@?$_Tree@V?$_Tmap_traits@GV?$basic_string@_WU?$char_traits@_W@std@@V?$K2StringAllocator@_W@@@std@@U?$less@G@2@V?$K2MapAllocator@U?$pair@$$CBGV?$basic_string@_WU?$char_traits@_W@std@@V?$K2StringAllocator@_W@@@std@@@std@@@@$0A@@std@@@std@@IAEXXZ 190dd330 f i c_entitytool.obj
 0002:00052480       ??1?$K2MapAllocator@U?$pair@$$CBGV?$basic_string@_WU?$char_traits@_W@std@@V?$K2StringAllocator@_W@@@std@@@std@@@@QAE@XZ 190dd480 f i c_entitytool.obj
 0002:000524a0       ??1?$K2MapAllocator@U_Node@?$_Tree_nod@V?$_Tmap_traits@GV?$basic_string@_WU?$char_traits@_W@std@@V?$K2StringAllocator@_W@@@std@@U?$less@G@2@V?$K2MapAllocator@U?$pair@$$CBGV?$basic_string@_WU?$char_traits@_W@std@@V?$K2StringAllocator@_W@@@std@@@std@@@@$0A@@std@@@std@@@@QAE@XZ 190dd4a0 f i c_entitytool.obj
 0002:000524c0       ??1?$K2MapAllocator@PAU_Node@?$_Tree_nod@V?$_Tmap_traits@GV?$basic_string@_WU?$char_traits@_W@std@@V?$K2StringAllocator@_W@@@std@@U?$less@G@2@V?$K2MapAllocator@U?$pair@$$CBGV?$basic_string@_WU?$char_traits@_W@std@@V?$K2StringAllocator@_W@@@std@@@std@@@@$0A@@std@@@std@@@@QAE@XZ 190dd4c0 f i c_entitytool.obj
 0002:000524e0       ??Dconst_iterator@?$_Tree@V?$_Tset_traits@IU?$less@I@std@@V?$K2SetAllocator@I@@$0A@@std@@@std@@QBEABIXZ 190dd4e0 f i c_entitytool.obj
 0002:000525a0       ??Econst_iterator@?$_Tree@V?$_Tset_traits@IU?$less@I@std@@V?$K2SetAllocator@I@@$0A@@std@@@std@@QAEAAV012@XZ 190dd5a0 f i c_entitytool.obj
 0002:000525d0       ?_Color@?$_Tree@V?$_Tmap_traits@IVCWorldEntityEx@@U?$less@I@std@@V?$K2MapAllocator@U?$pair@$$CBIVCWorldEntityEx@@@std@@@@$0A@@std@@@std@@KAAADPAU_Node@?$_Tree_nod@V?$_Tmap_traits@IVCWorldEntityEx@@U?$less@I@std@@V?$K2MapAllocator@U?$pair@$$CBIVCWorldEntityEx@@@std@@@@$0A@@std@@@2@@Z 190dd5d0 f i c_entitytool.obj
 0002:000525f0       ?_Isnil@?$_Tree@V?$_Tmap_traits@IVCWorldEntityEx@@U?$less@I@std@@V?$K2MapAllocator@U?$pair@$$CBIVCWorldEntityEx@@@std@@@@$0A@@std@@@std@@KAAADPAU_Node@?$_Tree_nod@V?$_Tmap_traits@IVCWorldEntityEx@@U?$less@I@std@@V?$K2MapAllocator@U?$pair@$$CBIVCWorldEntityEx@@@std@@@@$0A@@std@@@2@@Z 190dd5f0 f i c_entitytool.obj
 0002:00052610       ?_Key@?$_Tree@V?$_Tmap_traits@IVCWorldEntityEx@@U?$less@I@std@@V?$K2MapAllocator@U?$pair@$$CBIVCWorldEntityEx@@@std@@@@$0A@@std@@@std@@KAABIPAU_Node@?$_Tree_nod@V?$_Tmap_traits@IVCWorldEntityEx@@U?$less@I@std@@V?$K2MapAllocator@U?$pair@$$CBIVCWorldEntityEx@@@std@@@@$0A@@std@@@2@@Z 190dd610 f i c_entitytool.obj
 0002:00052640       ?_Left@?$_Tree@V?$_Tmap_traits@IVCWorldEntityEx@@U?$less@I@std@@V?$K2MapAllocator@U?$pair@$$CBIVCWorldEntityEx@@@std@@@@$0A@@std@@@std@@KAAAPAU_Node@?$_Tree_nod@V?$_Tmap_traits@IVCWorldEntityEx@@U?$less@I@std@@V?$K2MapAllocator@U?$pair@$$CBIVCWorldEntityEx@@@std@@@@$0A@@std@@@2@PAU342@@Z 190dd640 f i c_entitytool.obj
 0002:00052660       ?_Parent@?$_Tree@V?$_Tmap_traits@IVCWorldEntityEx@@U?$less@I@std@@V?$K2MapAllocator@U?$pair@$$CBIVCWorldEntityEx@@@std@@@@$0A@@std@@@std@@KAAAPAU_Node@?$_Tree_nod@V?$_Tmap_traits@IVCWorldEntityEx@@U?$less@I@std@@V?$K2MapAllocator@U?$pair@$$CBIVCWorldEntityEx@@@std@@@@$0A@@std@@@2@PAU342@@Z 190dd660 f i c_entitytool.obj
 0002:00052680       ?_Right@?$_Tree@V?$_Tmap_traits@IVCWorldEntityEx@@U?$less@I@std@@V?$K2MapAllocator@U?$pair@$$CBIVCWorldEntityEx@@@std@@@@$0A@@std@@@std@@KAAAPAU_Node@?$_Tree_nod@V?$_Tmap_traits@IVCWorldEntityEx@@U?$less@I@std@@V?$K2MapAllocator@U?$pair@$$CBIVCWorldEntityEx@@@std@@@@$0A@@std@@@2@PAU342@@Z 190dd680 f i c_entitytool.obj
 0002:000526a0       ?begin@?$_Tree@V?$_Tmap_traits@IVCWorldEntityEx@@U?$less@I@std@@V?$K2MapAllocator@U?$pair@$$CBIVCWorldEntityEx@@@std@@@@$0A@@std@@@std@@QAE?AViterator@12@XZ 190dd6a0 f i c_entitytool.obj
 0002:000526f0       ?lower_bound@?$_Tree@V?$_Tmap_traits@IVCWorldEntityEx@@U?$less@I@std@@V?$K2MapAllocator@U?$pair@$$CBIVCWorldEntityEx@@@std@@@@$0A@@std@@@std@@QAE?AViterator@12@ABI@Z 190dd6f0 f i c_entitytool.obj
 0002:00052750       ?_Insert@?$_Tree@V?$_Tmap_traits@IVCWorldEntityEx@@U?$less@I@std@@V?$K2MapAllocator@U?$pair@$$CBIVCWorldEntityEx@@@std@@@@$0A@@std@@@std@@IAE?AViterator@12@_NPAU_Node@?$_Tree_nod@V?$_Tmap_traits@IVCWorldEntityEx@@U?$less@I@std@@V?$K2MapAllocator@U?$pair@$$CBIVCWorldEntityEx@@@std@@@@$0A@@std@@@2@ABU?$pair@$$CBIVCWorldEntityEx@@@2@@Z 190dd750 f i c_entitytool.obj
 0002:00052d10       ?_Lmost@?$_Tree@V?$_Tmap_traits@IVCWorldEntityEx@@U?$less@I@std@@V?$K2MapAllocator@U?$pair@$$CBIVCWorldEntityEx@@@std@@@@$0A@@std@@@std@@IBEAAPAU_Node@?$_Tree_nod@V?$_Tmap_traits@IVCWorldEntityEx@@U?$less@I@std@@V?$K2MapAllocator@U?$pair@$$CBIVCWorldEntityEx@@@std@@@@$0A@@std@@@2@XZ 190ddd10 f i c_entitytool.obj
 0002:00052d40       ?_Lrotate@?$_Tree@V?$_Tmap_traits@IVCWorldEntityEx@@U?$less@I@std@@V?$K2MapAllocator@U?$pair@$$CBIVCWorldEntityEx@@@std@@@@$0A@@std@@@std@@IAEXPAU_Node@?$_Tree_nod@V?$_Tmap_traits@IVCWorldEntityEx@@U?$less@I@std@@V?$K2MapAllocator@U?$pair@$$CBIVCWorldEntityEx@@@std@@@@$0A@@std@@@2@@Z 190ddd40 f i c_entitytool.obj
 0002:00052ed0       ?_Max@?$_Tree@V?$_Tmap_traits@IVCWorldEntityEx@@U?$less@I@std@@V?$K2MapAllocator@U?$pair@$$CBIVCWorldEntityEx@@@std@@@@$0A@@std@@@std@@KAPAU_Node@?$_Tree_nod@V?$_Tmap_traits@IVCWorldEntityEx@@U?$less@I@std@@V?$K2MapAllocator@U?$pair@$$CBIVCWorldEntityEx@@@std@@@@$0A@@std@@@2@PAU342@@Z 190dded0 f i c_entitytool.obj
 0002:00052f30       ?_Min@?$_Tree@V?$_Tmap_traits@IVCWorldEntityEx@@U?$less@I@std@@V?$K2MapAllocator@U?$pair@$$CBIVCWorldEntityEx@@@std@@@@$0A@@std@@@std@@KAPAU_Node@?$_Tree_nod@V?$_Tmap_traits@IVCWorldEntityEx@@U?$less@I@std@@V?$K2MapAllocator@U?$pair@$$CBIVCWorldEntityEx@@@std@@@@$0A@@std@@@2@PAU342@@Z 190ddf30 f i c_entitytool.obj
 0002:00052f90       ?_Rmost@?$_Tree@V?$_Tmap_traits@IVCWorldEntityEx@@U?$less@I@std@@V?$K2MapAllocator@U?$pair@$$CBIVCWorldEntityEx@@@std@@@@$0A@@std@@@std@@IBEAAPAU_Node@?$_Tree_nod@V?$_Tmap_traits@IVCWorldEntityEx@@U?$less@I@std@@V?$K2MapAllocator@U?$pair@$$CBIVCWorldEntityEx@@@std@@@@$0A@@std@@@2@XZ 190ddf90 f i c_entitytool.obj
 0002:00052fc0       ?_Root@?$_Tree@V?$_Tmap_traits@IVCWorldEntityEx@@U?$less@I@std@@V?$K2MapAllocator@U?$pair@$$CBIVCWorldEntityEx@@@std@@@@$0A@@std@@@std@@IBEAAPAU_Node@?$_Tree_nod@V?$_Tmap_traits@IVCWorldEntityEx@@U?$less@I@std@@V?$K2MapAllocator@U?$pair@$$CBIVCWorldEntityEx@@@std@@@@$0A@@std@@@2@XZ 190ddfc0 f i c_entitytool.obj
 0002:00052ff0       ?_Rrotate@?$_Tree@V?$_Tmap_traits@IVCWorldEntityEx@@U?$less@I@std@@V?$K2MapAllocator@U?$pair@$$CBIVCWorldEntityEx@@@std@@@@$0A@@std@@@std@@IAEXPAU_Node@?$_Tree_nod@V?$_Tmap_traits@IVCWorldEntityEx@@U?$less@I@std@@V?$K2MapAllocator@U?$pair@$$CBIVCWorldEntityEx@@@std@@@@$0A@@std@@@2@@Z 190ddff0 f i c_entitytool.obj
 0002:00053180       ?_Orphan_ptr@?$_Tree@V?$_Tmap_traits@IVCWorldEntityEx@@U?$less@I@std@@V?$K2MapAllocator@U?$pair@$$CBIVCWorldEntityEx@@@std@@@@$0A@@std@@@std@@IBEXAAV12@PAU_Node@?$_Tree_nod@V?$_Tmap_traits@IVCWorldEntityEx@@U?$less@I@std@@V?$K2MapAllocator@U?$pair@$$CBIVCWorldEntityEx@@@std@@@@$0A@@std@@@2@@Z 190de180 f i c_entitytool.obj
 0002:00053230       ?_Kfn@?$_Tmap_traits@IVCWorldEntityEx@@U?$less@I@std@@V?$K2MapAllocator@U?$pair@$$CBIVCWorldEntityEx@@@std@@@@$0A@@std@@SAABIABU?$pair@$$CBIVCWorldEntityEx@@@2@@Z 190de230 f i c_entitytool.obj
 0002:00053250       ?deallocate@?$K2MapAllocator@U_Node@?$_Tree_nod@V?$_Tmap_traits@IVCWorldEntityEx@@U?$less@I@std@@V?$K2MapAllocator@U?$pair@$$CBIVCWorldEntityEx@@@std@@@@$0A@@std@@@std@@@@QAEXPAU_Node@?$_Tree_nod@V?$_Tmap_traits@IVCWorldEntityEx@@U?$less@I@std@@V?$K2MapAllocator@U?$pair@$$CBIVCWorldEntityEx@@@std@@@@$0A@@std@@@std@@I@Z 190de250 f i c_entitytool.obj
 0002:00053290       ?destroy@?$allocator@U_Node@?$_Tree_nod@V?$_Tmap_traits@IVCWorldEntityEx@@U?$less@I@std@@V?$K2MapAllocator@U?$pair@$$CBIVCWorldEntityEx@@@std@@@@$0A@@std@@@std@@@std@@QAEXPAU_Node@?$_Tree_nod@V?$_Tmap_traits@IVCWorldEntityEx@@U?$less@I@std@@V?$K2MapAllocator@U?$pair@$$CBIVCWorldEntityEx@@@std@@@@$0A@@std@@@2@@Z 190de290 f i c_entitytool.obj
 0002:000532c0       ??8?$_Vector_const_iterator@VCConvexPolyhedron@@V?$K2VectorAllocator@VCConvexPolyhedron@@@@@std@@QBE_NABV01@@Z 190de2c0 f i c_entitytool.obj
 0002:00053300       ??0iterator@?$_Tree@V?$_Tmap_traits@GV?$basic_string@_WU?$char_traits@_W@std@@V?$K2StringAllocator@_W@@@std@@U?$less@G@2@V?$K2MapAllocator@U?$pair@$$CBGV?$basic_string@_WU?$char_traits@_W@std@@V?$K2StringAllocator@_W@@@std@@@std@@@@$0A@@std@@@std@@QAE@PAU_Node@?$_Tree_nod@V?$_Tmap_traits@GV?$basic_string@_WU?$char_traits@_W@std@@V?$K2StringAllocator@_W@@@std@@U?$less@G@2@V?$K2MapAllocator@U?$pair@$$CBGV?$basic_string@_WU?$char_traits@_W@std@@V?$K2StringAllocator@_W@@@std@@@std@@@@$0A@@std@@@2@PBV12@@Z 190de300 f i c_entitytool.obj
 0002:00053340       ??Diterator@?$_Tree@V?$_Tmap_traits@GV?$basic_string@_WU?$char_traits@_W@std@@V?$K2StringAllocator@_W@@@std@@U?$less@G@2@V?$K2MapAllocator@U?$pair@$$CBGV?$basic_string@_WU?$char_traits@_W@std@@V?$K2StringAllocator@_W@@@std@@@std@@@@$0A@@std@@@std@@QBEAAU?$pair@$$CBGV?$basic_string@_WU?$char_traits@_W@std@@V?$K2StringAllocator@_W@@@std@@@2@XZ 190de340 f i c_entitytool.obj
 0002:00053370       ??Econst_iterator@?$_Tree@V?$_Tmap_traits@GV?$basic_string@_WU?$char_traits@_W@std@@V?$K2StringAllocator@_W@@@std@@U?$less@G@2@V?$K2MapAllocator@U?$pair@$$CBGV?$basic_string@_WU?$char_traits@_W@std@@V?$K2StringAllocator@_W@@@std@@@std@@@@$0A@@std@@@std@@QAEAAV012@XZ 190de370 f i c_entitytool.obj
 0002:000533a0       ??8const_iterator@?$_Tree@V?$_Tmap_traits@GV?$basic_string@_WU?$char_traits@_W@std@@V?$K2StringAllocator@_W@@@std@@U?$less@G@2@V?$K2MapAllocator@U?$pair@$$CBGV?$basic_string@_WU?$char_traits@_W@std@@V?$K2StringAllocator@_W@@@std@@@std@@@@$0A@@std@@@std@@QBE_NABV012@@Z 190de3a0 f i c_entitytool.obj
 0002:00053460       ??0iterator@?$_Tree@V?$_Tmap_traits@IVCWorldEntityEx@@U?$less@I@std@@V?$K2MapAllocator@U?$pair@$$CBIVCWorldEntityEx@@@std@@@@$0A@@std@@@std@@QAE@PAU_Node@?$_Tree_nod@V?$_Tmap_traits@IVCWorldEntityEx@@U?$less@I@std@@V?$K2MapAllocator@U?$pair@$$CBIVCWorldEntityEx@@@std@@@@$0A@@std@@@2@PBV12@@Z 190de460 f i c_entitytool.obj
 0002:000534a0       ??Diterator@?$_Tree@V?$_Tmap_traits@IVCWorldEntityEx@@U?$less@I@std@@V?$K2MapAllocator@U?$pair@$$CBIVCWorldEntityEx@@@std@@@@$0A@@std@@@std@@QBEAAU?$pair@$$CBIVCWorldEntityEx@@@2@XZ 190de4a0 f i c_entitytool.obj
 0002:000534d0       ??Eiterator@?$_Tree@V?$_Tmap_traits@IVCWorldEntityEx@@U?$less@I@std@@V?$K2MapAllocator@U?$pair@$$CBIVCWorldEntityEx@@@std@@@@$0A@@std@@@std@@QAEAAV012@XZ 190de4d0 f i c_entitytool.obj
 0002:00053500       ??Fiterator@?$_Tree@V?$_Tmap_traits@IVCWorldEntityEx@@U?$less@I@std@@V?$K2MapAllocator@U?$pair@$$CBIVCWorldEntityEx@@@std@@@@$0A@@std@@@std@@QAEAAV012@XZ 190de500 f i c_entitytool.obj
 0002:00053530       ?_Mynode@const_iterator@?$_Tree@V?$_Tmap_traits@IVCWorldEntityEx@@U?$less@I@std@@V?$K2MapAllocator@U?$pair@$$CBIVCWorldEntityEx@@@std@@@@$0A@@std@@@std@@QBEPAU_Node@?$_Tree_nod@V?$_Tmap_traits@IVCWorldEntityEx@@U?$less@I@std@@V?$K2MapAllocator@U?$pair@$$CBIVCWorldEntityEx@@@std@@@@$0A@@std@@@3@XZ 190de530 f i c_entitytool.obj
 0002:00053550       ??0?$pair@Viterator@?$_Tree@V?$_Tmap_traits@IVCWorldEntityEx@@U?$less@I@std@@V?$K2MapAllocator@U?$pair@$$CBIVCWorldEntityEx@@@std@@@@$0A@@std@@@std@@_N@std@@QAE@ABViterator@?$_Tree@V?$_Tmap_traits@IVCWorldEntityEx@@U?$less@I@std@@V?$K2MapAllocator@U?$pair@$$CBIVCWorldEntityEx@@@std@@@@$0A@@std@@@1@AB_N@Z 190de550 f i c_entitytool.obj
 0002:00053590       ??0?$_Tree@V?$_Tset_traits@IU?$less@I@std@@V?$K2SetAllocator@I@@$0A@@std@@@std@@QAE@ABU?$less@I@1@ABV?$K2SetAllocator@I@@@Z 190de590 f i c_entitytool.obj
 0002:00053630       ?erase@?$_Tree@V?$_Tset_traits@IU?$less@I@std@@V?$K2SetAllocator@I@@$0A@@std@@@std@@QAE?AViterator@12@V312@@Z 190de630 f i c_entitytool.obj
 0002:00054010       ?upper_bound@?$_Tree@V?$_Tset_traits@IU?$less@I@std@@V?$K2SetAllocator@I@@$0A@@std@@@std@@QAE?AViterator@12@ABI@Z 190df010 f i c_entitytool.obj
 0002:00054070       ?_Copy@?$_Tree@V?$_Tset_traits@IU?$less@I@std@@V?$K2SetAllocator@I@@$0A@@std@@@std@@IAEPAU_Node@?$_Tree_nod@V?$_Tset_traits@IU?$less@I@std@@V?$K2SetAllocator@I@@$0A@@std@@@2@PAU342@0@Z 190df070 f i c_entitytool.obj
 0002:00054230       ?_Lbound@?$_Tree@V?$_Tset_traits@IU?$less@I@std@@V?$K2SetAllocator@I@@$0A@@std@@@std@@IBEPAU_Node@?$_Tree_nod@V?$_Tset_traits@IU?$less@I@std@@V?$K2SetAllocator@I@@$0A@@std@@@2@ABI@Z 190df230 f i c_entitytool.obj
 0002:00054300       ?_Min@?$_Tree@V?$_Tset_traits@IU?$less@I@std@@V?$K2SetAllocator@I@@$0A@@std@@@std@@KAPAU_Node@?$_Tree_nod@V?$_Tset_traits@IU?$less@I@std@@V?$K2SetAllocator@I@@$0A@@std@@@2@PAU342@@Z 190df300 f i c_entitytool.obj
 0002:00054360       ?_Buynode@?$_Tree@V?$_Tset_traits@IU?$less@I@std@@V?$K2SetAllocator@I@@$0A@@std@@@std@@IAEPAU_Node@?$_Tree_nod@V?$_Tset_traits@IU?$less@I@std@@V?$K2SetAllocator@I@@$0A@@std@@@2@XZ 190df360 f i c_entitytool.obj
 0002:00054540       ??0?$_Tree_ptr@V?$_Tset_traits@IU?$less@I@std@@V?$K2SetAllocator@I@@$0A@@std@@@std@@QAE@ABU?$less@I@1@V?$K2SetAllocator@I@@@Z 190df540 f i c_entitytool.obj
 0002:000545f0       ??0?$K2SetAllocator@I@@QAE@XZ 190df5f0 f i c_entitytool.obj
 0002:00054620       ??0?$K2SetAllocator@I@@QAE@ABV0@@Z 190df620 f i c_entitytool.obj
 0002:00054650       ?destroy@?$allocator@PAU_Node@?$_Tree_nod@V?$_Tset_traits@IU?$less@I@std@@V?$K2SetAllocator@I@@$0A@@std@@@std@@@std@@QAEXPAPAU_Node@?$_Tree_nod@V?$_Tset_traits@IU?$less@I@std@@V?$K2SetAllocator@I@@$0A@@std@@@2@@Z 190df650 f i c_entitytool.obj
 0002:00054680       ?_Left@?$_Tree@V?$_Tmap_traits@GV?$basic_string@_WU?$char_traits@_W@std@@V?$K2StringAllocator@_W@@@std@@U?$less@G@2@V?$K2MapAllocator@U?$pair@$$CBGV?$basic_string@_WU?$char_traits@_W@std@@V?$K2StringAllocator@_W@@@std@@@std@@@@$0A@@std@@@std@@KAAAPAU_Node@?$_Tree_nod@V?$_Tmap_traits@GV?$basic_string@_WU?$char_traits@_W@std@@V?$K2StringAllocator@_W@@@std@@U?$less@G@2@V?$K2MapAllocator@U?$pair@$$CBGV?$basic_string@_WU?$char_traits@_W@std@@V?$K2StringAllocator@_W@@@std@@@std@@@@$0A@@std@@@2@PAU342@@Z 190df680 f i c_entitytool.obj
 0002:000546a0       ?_Parent@?$_Tree@V?$_Tmap_traits@GV?$basic_string@_WU?$char_traits@_W@std@@V?$K2StringAllocator@_W@@@std@@U?$less@G@2@V?$K2MapAllocator@U?$pair@$$CBGV?$basic_string@_WU?$char_traits@_W@std@@V?$K2StringAllocator@_W@@@std@@@std@@@@$0A@@std@@@std@@KAAAPAU_Node@?$_Tree_nod@V?$_Tmap_traits@GV?$basic_string@_WU?$char_traits@_W@std@@V?$K2StringAllocator@_W@@@std@@U?$less@G@2@V?$K2MapAllocator@U?$pair@$$CBGV?$basic_string@_WU?$char_traits@_W@std@@V?$K2StringAllocator@_W@@@std@@@std@@@@$0A@@std@@@2@PAU342@@Z 190df6a0 f i c_entitytool.obj
 0002:000546c0       ?_Right@?$_Tree@V?$_Tmap_traits@GV?$basic_string@_WU?$char_traits@_W@std@@V?$K2StringAllocator@_W@@@std@@U?$less@G@2@V?$K2MapAllocator@U?$pair@$$CBGV?$basic_string@_WU?$char_traits@_W@std@@V?$K2StringAllocator@_W@@@std@@@std@@@@$0A@@std@@@std@@KAAAPAU_Node@?$_Tree_nod@V?$_Tmap_traits@GV?$basic_string@_WU?$char_traits@_W@std@@V?$K2StringAllocator@_W@@@std@@U?$less@G@2@V?$K2MapAllocator@U?$pair@$$CBGV?$basic_string@_WU?$char_traits@_W@std@@V?$K2StringAllocator@_W@@@std@@@std@@@@$0A@@std@@@2@PAU342@@Z 190df6c0 f i c_entitytool.obj
 0002:000546e0       ??0?$_Tree@V?$_Tmap_traits@GV?$basic_string@_WU?$char_traits@_W@std@@V?$K2StringAllocator@_W@@@std@@U?$less@G@2@V?$K2MapAllocator@U?$pair@$$CBGV?$basic_string@_WU?$char_traits@_W@std@@V?$K2StringAllocator@_W@@@std@@@std@@@@$0A@@std@@@std@@QAE@ABU?$less@G@1@ABV?$K2MapAllocator@U?$pair@$$CBGV?$basic_string@_WU?$char_traits@_W@std@@V?$K2StringAllocator@_W@@@std@@@std@@@@@Z 190df6e0 f i c_entitytool.obj
 0002:00054780       ?erase@?$_Tree@V?$_Tmap_traits@GV?$basic_string@_WU?$char_traits@_W@std@@V?$K2StringAllocator@_W@@@std@@U?$less@G@2@V?$K2MapAllocator@U?$pair@$$CBGV?$basic_string@_WU?$char_traits@_W@std@@V?$K2StringAllocator@_W@@@std@@@std@@@@$0A@@std@@@std@@QAE?AViterator@12@V312@0@Z 190df780 f i c_entitytool.obj
 0002:00054a10       ??0?$K2MapAllocator@U?$pair@$$CBGV?$basic_string@_WU?$char_traits@_W@std@@V?$K2StringAllocator@_W@@@std@@@std@@@@QAE@XZ 190dfa10 f i c_entitytool.obj
 0002:00054a40       ?deallocate@?$K2MapAllocator@U_Node@?$_Tree_nod@V?$_Tmap_traits@GV?$basic_string@_WU?$char_traits@_W@std@@V?$K2StringAllocator@_W@@@std@@U?$less@G@2@V?$K2MapAllocator@U?$pair@$$CBGV?$basic_string@_WU?$char_traits@_W@std@@V?$K2StringAllocator@_W@@@std@@@std@@@@$0A@@std@@@std@@@@QAEXPAU_Node@?$_Tree_nod@V?$_Tmap_traits@GV?$basic_string@_WU?$char_traits@_W@std@@V?$K2StringAllocator@_W@@@std@@U?$less@G@2@V?$K2MapAllocator@U?$pair@$$CBGV?$basic_string@_WU?$char_traits@_W@std@@V?$K2StringAllocator@_W@@@std@@@std@@@@$0A@@std@@@std@@I@Z 190dfa40 f i c_entitytool.obj
 0002:00054a80       ?destroy@?$allocator@PAU_Node@?$_Tree_nod@V?$_Tmap_traits@GV?$basic_string@_WU?$char_traits@_W@std@@V?$K2StringAllocator@_W@@@std@@U?$less@G@2@V?$K2MapAllocator@U?$pair@$$CBGV?$basic_string@_WU?$char_traits@_W@std@@V?$K2StringAllocator@_W@@@std@@@std@@@@$0A@@std@@@std@@@std@@QAEXPAPAU_Node@?$_Tree_nod@V?$_Tmap_traits@GV?$basic_string@_WU?$char_traits@_W@std@@V?$K2StringAllocator@_W@@@std@@U?$less@G@2@V?$K2MapAllocator@U?$pair@$$CBGV?$basic_string@_WU?$char_traits@_W@std@@V?$K2StringAllocator@_W@@@std@@@std@@@@$0A@@std@@@2@@Z 190dfa80 f i c_entitytool.obj
 0002:00054ab0       ?GetBaseType@CDynamicEntityAllocator@@QBEIXZ 190dfab0 f i c_entitytool.obj
 0002:00054b00       ?GetBaseType@IBaseEntityAllocator@@QBEIXZ 190dfb00 f i c_entitytool.obj
 0002:00054b20       ?GetBaseType@CEntityRegistry@@QAEIABV?$basic_string@_WU?$char_traits@_W@std@@V?$K2StringAllocator@_W@@@std@@@Z 190dfb20 f i c_entitytool.obj
 0002:00054b60       ??Eiterator@?$_Tree@V?$_Tset_traits@IU?$less@I@std@@V?$K2SetAllocator@I@@$0A@@std@@@std@@QAE?AV012@H@Z 190dfb60 f i c_entitytool.obj
 0002:00054c10       ?_Inc@const_iterator@?$_Tree@V?$_Tset_traits@IU?$less@I@std@@V?$K2SetAllocator@I@@$0A@@std@@@std@@QAEXXZ 190dfc10 f i c_entitytool.obj
 0002:00054d80       ?_Myval@?$_Tree@V?$_Tmap_traits@IVCWorldEntityEx@@U?$less@I@std@@V?$K2MapAllocator@U?$pair@$$CBIVCWorldEntityEx@@@std@@@@$0A@@std@@@std@@KAAAU?$pair@$$CBIVCWorldEntityEx@@@2@PAU_Node@?$_Tree_nod@V?$_Tmap_traits@IVCWorldEntityEx@@U?$less@I@std@@V?$K2MapAllocator@U?$pair@$$CBIVCWorldEntityEx@@@std@@@@$0A@@std@@@2@@Z 190dfd80 f i c_entitytool.obj
 0002:00054da0       ?max_size@?$_Tree@V?$_Tmap_traits@IVCWorldEntityEx@@U?$less@I@std@@V?$K2MapAllocator@U?$pair@$$CBIVCWorldEntityEx@@@std@@@@$0A@@std@@@std@@QBEIXZ 190dfda0 f i c_entitytool.obj
 0002:00054dd0       ?_Lbound@?$_Tree@V?$_Tmap_traits@IVCWorldEntityEx@@U?$less@I@std@@V?$K2MapAllocator@U?$pair@$$CBIVCWorldEntityEx@@@std@@@@$0A@@std@@@std@@IBEPAU_Node@?$_Tree_nod@V?$_Tmap_traits@IVCWorldEntityEx@@U?$less@I@std@@V?$K2MapAllocator@U?$pair@$$CBIVCWorldEntityEx@@@std@@@@$0A@@std@@@2@ABI@Z 190dfdd0 f i c_entitytool.obj
 0002:00054ea0       ?_Buynode@?$_Tree@V?$_Tmap_traits@IVCWorldEntityEx@@U?$less@I@std@@V?$K2MapAllocator@U?$pair@$$CBIVCWorldEntityEx@@@std@@@@$0A@@std@@@std@@IAEPAU_Node@?$_Tree_nod@V?$_Tmap_traits@IVCWorldEntityEx@@U?$less@I@std@@V?$K2MapAllocator@U?$pair@$$CBIVCWorldEntityEx@@@std@@@@$0A@@std@@@2@PAU342@00ABU?$pair@$$CBIVCWorldEntityEx@@@2@D@Z 190dfea0 f i c_entitytool.obj
 0002:00054fc0       ??0const_iterator@?$_Tree@V?$_Tmap_traits@GV?$basic_string@_WU?$char_traits@_W@std@@V?$K2StringAllocator@_W@@@std@@U?$less@G@2@V?$K2MapAllocator@U?$pair@$$CBGV?$basic_string@_WU?$char_traits@_W@std@@V?$K2StringAllocator@_W@@@std@@@std@@@@$0A@@std@@@std@@QAE@PAU_Node@?$_Tree_nod@V?$_Tmap_traits@GV?$basic_string@_WU?$char_traits@_W@std@@V?$K2StringAllocator@_W@@@std@@U?$less@G@2@V?$K2MapAllocator@U?$pair@$$CBGV?$basic_string@_WU?$char_traits@_W@std@@V?$K2StringAllocator@_W@@@std@@@std@@@@$0A@@std@@@2@PBV12@@Z 190dffc0 f i c_entitytool.obj
 0002:00055050       ??Dconst_iterator@?$_Tree@V?$_Tmap_traits@GV?$basic_string@_WU?$char_traits@_W@std@@V?$K2StringAllocator@_W@@@std@@U?$less@G@2@V?$K2MapAllocator@U?$pair@$$CBGV?$basic_string@_WU?$char_traits@_W@std@@V?$K2StringAllocator@_W@@@std@@@std@@@@$0A@@std@@@std@@QBEABU?$pair@$$CBGV?$basic_string@_WU?$char_traits@_W@std@@V?$K2StringAllocator@_W@@@std@@@2@XZ 190e0050 f i c_entitytool.obj
 0002:00055110       ?_Inc@const_iterator@?$_Tree@V?$_Tmap_traits@GV?$basic_string@_WU?$char_traits@_W@std@@V?$K2StringAllocator@_W@@@std@@U?$less@G@2@V?$K2MapAllocator@U?$pair@$$CBGV?$basic_string@_WU?$char_traits@_W@std@@V?$K2StringAllocator@_W@@@std@@@std@@@@$0A@@std@@@std@@QAEXXZ 190e0110 f i c_entitytool.obj
 0002:00055280       ??0const_iterator@?$_Tree@V?$_Tmap_traits@IVCWorldEntityEx@@U?$less@I@std@@V?$K2MapAllocator@U?$pair@$$CBIVCWorldEntityEx@@@std@@@@$0A@@std@@@std@@QAE@PAU_Node@?$_Tree_nod@V?$_Tmap_traits@IVCWorldEntityEx@@U?$less@I@std@@V?$K2MapAllocator@U?$pair@$$CBIVCWorldEntityEx@@@std@@@@$0A@@std@@@2@PBV12@@Z 190e0280 f i c_entitytool.obj
 0002:00055310       ??Dconst_iterator@?$_Tree@V?$_Tmap_traits@IVCWorldEntityEx@@U?$less@I@std@@V?$K2MapAllocator@U?$pair@$$CBIVCWorldEntityEx@@@std@@@@$0A@@std@@@std@@QBEABU?$pair@$$CBIVCWorldEntityEx@@@2@XZ 190e0310 f i c_entitytool.obj
 0002:000553d0       ??Econst_iterator@?$_Tree@V?$_Tmap_traits@IVCWorldEntityEx@@U?$less@I@std@@V?$K2MapAllocator@U?$pair@$$CBIVCWorldEntityEx@@@std@@@@$0A@@std@@@std@@QAEAAV012@XZ 190e03d0 f i c_entitytool.obj
 0002:00055400       ??Fconst_iterator@?$_Tree@V?$_Tmap_traits@IVCWorldEntityEx@@U?$less@I@std@@V?$K2MapAllocator@U?$pair@$$CBIVCWorldEntityEx@@@std@@@@$0A@@std@@@std@@QAEAAV012@XZ 190e0400 f i c_entitytool.obj
 0002:00055430       ??0?$pair@Viterator@?$_Tree@V?$_Tset_traits@IU?$less@I@std@@V?$K2SetAllocator@I@@$0A@@std@@@std@@V123@@std@@QAE@ABViterator@?$_Tree@V?$_Tset_traits@IU?$less@I@std@@V?$K2SetAllocator@I@@$0A@@std@@@1@0@Z 190e0430 f i c_entitytool.obj
 0002:000554c0       ??0iterator@?$_Tree@V?$_Tmap_traits@GV?$basic_string@_WU?$char_traits@_W@std@@V?$K2StringAllocator@_W@@@std@@U?$less@G@2@V?$K2MapAllocator@U?$pair@$$CBGV?$basic_string@_WU?$char_traits@_W@std@@V?$K2StringAllocator@_W@@@std@@@std@@@@$0A@@std@@@std@@QAE@ABV012@@Z 190e04c0 f i c_entitytool.obj
 0002:000554f0       ??0?$_Bidit@U?$pair@$$CBGV?$basic_string@_WU?$char_traits@_W@std@@V?$K2StringAllocator@_W@@@std@@@std@@HPBU12@ABU12@@std@@QAE@XZ 190e04f0 f i c_entitytool.obj
 0002:00055520       ??0?$_Bidit@U?$pair@$$CBIVCWorldEntityEx@@@std@@HPBU12@ABU12@@std@@QAE@XZ 190e0520 f i c_entitytool.obj
 0002:00055550       ??0const_iterator@?$_Tree@V?$_Tmap_traits@GV?$basic_string@_WU?$char_traits@_W@std@@V?$K2StringAllocator@_W@@@std@@U?$less@G@2@V?$K2MapAllocator@U?$pair@$$CBGV?$basic_string@_WU?$char_traits@_W@std@@V?$K2StringAllocator@_W@@@std@@@std@@@@$0A@@std@@@std@@QAE@ABV012@@Z 190e0550 f i c_entitytool.obj
 0002:00055590       ??0?$_Bidit@U?$pair@$$CBGV?$basic_string@_WU?$char_traits@_W@std@@V?$K2StringAllocator@_W@@@std@@@std@@HPBU12@ABU12@@std@@QAE@ABU01@@Z 190e0590 f i c_entitytool.obj
 0002:000555c0       ?_Ubound@?$_Tree@V?$_Tset_traits@IU?$less@I@std@@V?$K2SetAllocator@I@@$0A@@std@@@std@@IBEPAU_Node@?$_Tree_nod@V?$_Tset_traits@IU?$less@I@std@@V?$K2SetAllocator@I@@$0A@@std@@@2@ABI@Z 190e05c0 f i c_entitytool.obj
 0002:00055690       ??0?$_Tree_nod@V?$_Tset_traits@IU?$less@I@std@@V?$K2SetAllocator@I@@$0A@@std@@@std@@IAE@ABU?$less@I@1@V?$K2SetAllocator@I@@@Z 190e0690 f i c_entitytool.obj
 0002:00055730       ?construct@?$allocator@PAU_Node@?$_Tree_nod@V?$_Tset_traits@IU?$less@I@std@@V?$K2SetAllocator@I@@$0A@@std@@@std@@@std@@QAEXPAPAU_Node@?$_Tree_nod@V?$_Tset_traits@IU?$less@I@std@@V?$K2SetAllocator@I@@$0A@@std@@@2@ABQAU342@@Z 190e0730 f i c_entitytool.obj
 0002:00055760       ?_Isnil@?$_Tree@V?$_Tmap_traits@GV?$basic_string@_WU?$char_traits@_W@std@@V?$K2StringAllocator@_W@@@std@@U?$less@G@2@V?$K2MapAllocator@U?$pair@$$CBGV?$basic_string@_WU?$char_traits@_W@std@@V?$K2StringAllocator@_W@@@std@@@std@@@@$0A@@std@@@std@@KAAADPAU_Node@?$_Tree_nod@V?$_Tmap_traits@GV?$basic_string@_WU?$char_traits@_W@std@@V?$K2StringAllocator@_W@@@std@@U?$less@G@2@V?$K2MapAllocator@U?$pair@$$CBGV?$basic_string@_WU?$char_traits@_W@std@@V?$K2StringAllocator@_W@@@std@@@std@@@@$0A@@std@@@2@@Z 190e0760 f i c_entitytool.obj
 0002:00055780       ?_Myval@?$_Tree@V?$_Tmap_traits@GV?$basic_string@_WU?$char_traits@_W@std@@V?$K2StringAllocator@_W@@@std@@U?$less@G@2@V?$K2MapAllocator@U?$pair@$$CBGV?$basic_string@_WU?$char_traits@_W@std@@V?$K2StringAllocator@_W@@@std@@@std@@@@$0A@@std@@@std@@KAAAU?$pair@$$CBGV?$basic_string@_WU?$char_traits@_W@std@@V?$K2StringAllocator@_W@@@std@@@2@PAU_Node@?$_Tree_nod@V?$_Tmap_traits@GV?$basic_string@_WU?$char_traits@_W@std@@V?$K2StringAllocator@_W@@@std@@U?$less@G@2@V?$K2MapAllocator@U?$pair@$$CBGV?$basic_string@_WU?$char_traits@_W@std@@V?$K2StringAllocator@_W@@@std@@@std@@@@$0A@@std@@@2@@Z 190e0780 f i c_entitytool.obj
 0002:000557a0       ?erase@?$_Tree@V?$_Tmap_traits@GV?$basic_string@_WU?$char_traits@_W@std@@V?$K2StringAllocator@_W@@@std@@U?$less@G@2@V?$K2MapAllocator@U?$pair@$$CBGV?$basic_string@_WU?$char_traits@_W@std@@V?$K2StringAllocator@_W@@@std@@@std@@@@$0A@@std@@@std@@QAE?AViterator@12@V312@@Z 190e07a0 f i c_entitytool.obj
 0002:00056180       ?clear@?$_Tree@V?$_Tmap_traits@GV?$basic_string@_WU?$char_traits@_W@std@@V?$K2StringAllocator@_W@@@std@@U?$less@G@2@V?$K2MapAllocator@U?$pair@$$CBGV?$basic_string@_WU?$char_traits@_W@std@@V?$K2StringAllocator@_W@@@std@@@std@@@@$0A@@std@@@std@@QAEXXZ 190e1180 f i c_entitytool.obj
 0002:00056210       ?_Init@?$_Tree@V?$_Tmap_traits@GV?$basic_string@_WU?$char_traits@_W@std@@V?$K2StringAllocator@_W@@@std@@U?$less@G@2@V?$K2MapAllocator@U?$pair@$$CBGV?$basic_string@_WU?$char_traits@_W@std@@V?$K2StringAllocator@_W@@@std@@@std@@@@$0A@@std@@@std@@IAEXXZ 190e1210 f i c_entitytool.obj
 0002:000562a0       ?_Min@?$_Tree@V?$_Tmap_traits@GV?$basic_string@_WU?$char_traits@_W@std@@V?$K2StringAllocator@_W@@@std@@U?$less@G@2@V?$K2MapAllocator@U?$pair@$$CBGV?$basic_string@_WU?$char_traits@_W@std@@V?$K2StringAllocator@_W@@@std@@@std@@@@$0A@@std@@@std@@KAPAU_Node@?$_Tree_nod@V?$_Tmap_traits@GV?$basic_string@_WU?$char_traits@_W@std@@V?$K2StringAllocator@_W@@@std@@U?$less@G@2@V?$K2MapAllocator@U?$pair@$$CBGV?$basic_string@_WU?$char_traits@_W@std@@V?$K2StringAllocator@_W@@@std@@@std@@@@$0A@@std@@@2@PAU342@@Z 190e12a0 f i c_entitytool.obj
 0002:00056300       ??0?$_Tree_val@V?$_Tmap_traits@GV?$basic_string@_WU?$char_traits@_W@std@@V?$K2StringAllocator@_W@@@std@@U?$less@G@2@V?$K2MapAllocator@U?$pair@$$CBGV?$basic_string@_WU?$char_traits@_W@std@@V?$K2StringAllocator@_W@@@std@@@std@@@@$0A@@std@@@std@@IAE@ABU?$less@G@1@V?$K2MapAllocator@U?$pair@$$CBGV?$basic_string@_WU?$char_traits@_W@std@@V?$K2StringAllocator@_W@@@std@@@std@@@@@Z 190e1300 f i c_entitytool.obj
 0002:000563b0       ??0?$K2MapAllocator@U?$pair@$$CBGV?$basic_string@_WU?$char_traits@_W@std@@V?$K2StringAllocator@_W@@@std@@@std@@@@QAE@ABV0@@Z 190e13b0 f i c_entitytool.obj
 0002:000563e0       ??0?$allocator@U?$pair@$$CBGV?$basic_string@_WU?$char_traits@_W@std@@V?$K2StringAllocator@_W@@@std@@@std@@@std@@QAE@XZ 190e13e0 f i c_entitytool.obj
 0002:00056400       ?max_size@?$allocator@U?$pair@$$CBIVCWorldEntityEx@@@std@@@std@@QBEIXZ 190e1400 f i c_entitytool.obj
 0002:00056440       ?allocate@?$K2MapAllocator@U_Node@?$_Tree_nod@V?$_Tmap_traits@IVCWorldEntityEx@@U?$less@I@std@@V?$K2MapAllocator@U?$pair@$$CBIVCWorldEntityEx@@@std@@@@$0A@@std@@@std@@@@QAEPAU_Node@?$_Tree_nod@V?$_Tmap_traits@IVCWorldEntityEx@@U?$less@I@std@@V?$K2MapAllocator@U?$pair@$$CBIVCWorldEntityEx@@@std@@@@$0A@@std@@@std@@I@Z 190e1440 f i c_entitytool.obj
 0002:00056490       ??Eiterator@?$_Tree@V?$_Tmap_traits@GV?$basic_string@_WU?$char_traits@_W@std@@V?$K2StringAllocator@_W@@@std@@U?$less@G@2@V?$K2MapAllocator@U?$pair@$$CBGV?$basic_string@_WU?$char_traits@_W@std@@V?$K2StringAllocator@_W@@@std@@@std@@@@$0A@@std@@@std@@QAE?AV012@H@Z 190e1490 f i c_entitytool.obj
 0002:00056540       ?_Dec@const_iterator@?$_Tree@V?$_Tmap_traits@IVCWorldEntityEx@@U?$less@I@std@@V?$K2MapAllocator@U?$pair@$$CBIVCWorldEntityEx@@@std@@@@$0A@@std@@@std@@QAEXXZ 190e1540 f i c_entitytool.obj
 0002:00056800       ?_Inc@const_iterator@?$_Tree@V?$_Tmap_traits@IVCWorldEntityEx@@U?$less@I@std@@V?$K2MapAllocator@U?$pair@$$CBIVCWorldEntityEx@@@std@@@@$0A@@std@@@std@@QAEXXZ 190e1800 f i c_entitytool.obj
 0002:00056970       ??0_Node@?$_Tree_nod@V?$_Tmap_traits@IVCWorldEntityEx@@U?$less@I@std@@V?$K2MapAllocator@U?$pair@$$CBIVCWorldEntityEx@@@std@@@@$0A@@std@@@std@@QAE@PAU012@00ABU?$pair@$$CBIVCWorldEntityEx@@@2@D@Z 190e1970 f i c_entitytool.obj
 0002:000569e0       ??0?$pair@$$CBIVCWorldEntityEx@@@std@@QAE@ABU01@@Z 190e19e0 f i c_entitytool.obj
 0002:00056a30       ??0?$_Tset_traits@IU?$less@I@std@@V?$K2SetAllocator@I@@$0A@@std@@QAE@U?$less@I@1@@Z 190e1a30 f i c_entitytool.obj
 0002:00056a60       ?_Color@?$_Tree@V?$_Tmap_traits@GV?$basic_string@_WU?$char_traits@_W@std@@V?$K2StringAllocator@_W@@@std@@U?$less@G@2@V?$K2MapAllocator@U?$pair@$$CBGV?$basic_string@_WU?$char_traits@_W@std@@V?$K2StringAllocator@_W@@@std@@@std@@@@$0A@@std@@@std@@KAAADPAU_Node@?$_Tree_nod@V?$_Tmap_traits@GV?$basic_string@_WU?$char_traits@_W@std@@V?$K2StringAllocator@_W@@@std@@U?$less@G@2@V?$K2MapAllocator@U?$pair@$$CBGV?$basic_string@_WU?$char_traits@_W@std@@V?$K2StringAllocator@_W@@@std@@@std@@@@$0A@@std@@@2@@Z 190e1a60 f i c_entitytool.obj
 0002:00056a80       ?_Erase@?$_Tree@V?$_Tmap_traits@GV?$basic_string@_WU?$char_traits@_W@std@@V?$K2StringAllocator@_W@@@std@@U?$less@G@2@V?$K2MapAllocator@U?$pair@$$CBGV?$basic_string@_WU?$char_traits@_W@std@@V?$K2StringAllocator@_W@@@std@@@std@@@@$0A@@std@@@std@@IAEXPAU_Node@?$_Tree_nod@V?$_Tmap_traits@GV?$basic_string@_WU?$char_traits@_W@std@@V?$K2StringAllocator@_W@@@std@@U?$less@G@2@V?$K2MapAllocator@U?$pair@$$CBGV?$basic_string@_WU?$char_traits@_W@std@@V?$K2StringAllocator@_W@@@std@@@std@@@@$0A@@std@@@2@@Z 190e1a80 f i c_entitytool.obj
 0002:00056b20       ?_Lrotate@?$_Tree@V?$_Tmap_traits@GV?$basic_string@_WU?$char_traits@_W@std@@V?$K2StringAllocator@_W@@@std@@U?$less@G@2@V?$K2MapAllocator@U?$pair@$$CBGV?$basic_string@_WU?$char_traits@_W@std@@V?$K2StringAllocator@_W@@@std@@@std@@@@$0A@@std@@@std@@IAEXPAU_Node@?$_Tree_nod@V?$_Tmap_traits@GV?$basic_string@_WU?$char_traits@_W@std@@V?$K2StringAllocator@_W@@@std@@U?$less@G@2@V?$K2MapAllocator@U?$pair@$$CBGV?$basic_string@_WU?$char_traits@_W@std@@V?$K2StringAllocator@_W@@@std@@@std@@@@$0A@@std@@@2@@Z 190e1b20 f i c_entitytool.obj
 0002:00056cb0       ?_Max@?$_Tree@V?$_Tmap_traits@GV?$basic_string@_WU?$char_traits@_W@std@@V?$K2StringAllocator@_W@@@std@@U?$less@G@2@V?$K2MapAllocator@U?$pair@$$CBGV?$basic_string@_WU?$char_traits@_W@std@@V?$K2StringAllocator@_W@@@std@@@std@@@@$0A@@std@@@std@@KAPAU_Node@?$_Tree_nod@V?$_Tmap_traits@GV?$basic_string@_WU?$char_traits@_W@std@@V?$K2StringAllocator@_W@@@std@@U?$less@G@2@V?$K2MapAllocator@U?$pair@$$CBGV?$basic_string@_WU?$char_traits@_W@std@@V?$K2StringAllocator@_W@@@std@@@std@@@@$0A@@std@@@2@PAU342@@Z 190e1cb0 f i c_entitytool.obj
 0002:00056d10       ?_Rmost@?$_Tree@V?$_Tmap_traits@GV?$basic_string@_WU?$char_traits@_W@std@@V?$K2StringAllocator@_W@@@std@@U?$less@G@2@V?$K2MapAllocator@U?$pair@$$CBGV?$basic_string@_WU?$char_traits@_W@std@@V?$K2StringAllocator@_W@@@std@@@std@@@@$0A@@std@@@std@@IBEAAPAU_Node@?$_Tree_nod@V?$_Tmap_traits@GV?$basic_string@_WU?$char_traits@_W@std@@V?$K2StringAllocator@_W@@@std@@U?$less@G@2@V?$K2MapAllocator@U?$pair@$$CBGV?$basic_string@_WU?$char_traits@_W@std@@V?$K2StringAllocator@_W@@@std@@@std@@@@$0A@@std@@@2@XZ 190e1d10 f i c_entitytool.obj
 0002:00056d40       ?_Root@?$_Tree@V?$_Tmap_traits@GV?$basic_string@_WU?$char_traits@_W@std@@V?$K2StringAllocator@_W@@@std@@U?$less@G@2@V?$K2MapAllocator@U?$pair@$$CBGV?$basic_string@_WU?$char_traits@_W@std@@V?$K2StringAllocator@_W@@@std@@@std@@@@$0A@@std@@@std@@IBEAAPAU_Node@?$_Tree_nod@V?$_Tmap_traits@GV?$basic_string@_WU?$char_traits@_W@std@@V?$K2StringAllocator@_W@@@std@@U?$less@G@2@V?$K2MapAllocator@U?$pair@$$CBGV?$basic_string@_WU?$char_traits@_W@std@@V?$K2StringAllocator@_W@@@std@@@std@@@@$0A@@std@@@2@XZ 190e1d40 f i c_entitytool.obj
 0002:00056d70       ?_Rrotate@?$_Tree@V?$_Tmap_traits@GV?$basic_string@_WU?$char_traits@_W@std@@V?$K2StringAllocator@_W@@@std@@U?$less@G@2@V?$K2MapAllocator@U?$pair@$$CBGV?$basic_string@_WU?$char_traits@_W@std@@V?$K2StringAllocator@_W@@@std@@@std@@@@$0A@@std@@@std@@IAEXPAU_Node@?$_Tree_nod@V?$_Tmap_traits@GV?$basic_string@_WU?$char_traits@_W@std@@V?$K2StringAllocator@_W@@@std@@U?$less@G@2@V?$K2MapAllocator@U?$pair@$$CBGV?$basic_string@_WU?$char_traits@_W@std@@V?$K2StringAllocator@_W@@@std@@@std@@@@$0A@@std@@@2@@Z 190e1d70 f i c_entitytool.obj
 0002:00056f00       ?_Orphan_ptr@?$_Tree@V?$_Tmap_traits@GV?$basic_string@_WU?$char_traits@_W@std@@V?$K2StringAllocator@_W@@@std@@U?$less@G@2@V?$K2MapAllocator@U?$pair@$$CBGV?$basic_string@_WU?$char_traits@_W@std@@V?$K2StringAllocator@_W@@@std@@@std@@@@$0A@@std@@@std@@IBEXAAV12@PAU_Node@?$_Tree_nod@V?$_Tmap_traits@GV?$basic_string@_WU?$char_traits@_W@std@@V?$K2StringAllocator@_W@@@std@@U?$less@G@2@V?$K2MapAllocator@U?$pair@$$CBGV?$basic_string@_WU?$char_traits@_W@std@@V?$K2StringAllocator@_W@@@std@@@std@@@@$0A@@std@@@2@@Z 190e1f00 f i c_entitytool.obj
 0002:00056fb0       ?_Buynode@?$_Tree@V?$_Tmap_traits@GV?$basic_string@_WU?$char_traits@_W@std@@V?$K2StringAllocator@_W@@@std@@U?$less@G@2@V?$K2MapAllocator@U?$pair@$$CBGV?$basic_string@_WU?$char_traits@_W@std@@V?$K2StringAllocator@_W@@@std@@@std@@@@$0A@@std@@@std@@IAEPAU_Node@?$_Tree_nod@V?$_Tmap_traits@GV?$basic_string@_WU?$char_traits@_W@std@@V?$K2StringAllocator@_W@@@std@@U?$less@G@2@V?$K2MapAllocator@U?$pair@$$CBGV?$basic_string@_WU?$char_traits@_W@std@@V?$K2StringAllocator@_W@@@std@@@std@@@@$0A@@std@@@2@XZ 190e1fb0 f i c_entitytool.obj
 0002:00057190       ??0?$_Tree_ptr@V?$_Tmap_traits@GV?$basic_string@_WU?$char_traits@_W@std@@V?$K2StringAllocator@_W@@@std@@U?$less@G@2@V?$K2MapAllocator@U?$pair@$$CBGV?$basic_string@_WU?$char_traits@_W@std@@V?$K2StringAllocator@_W@@@std@@@std@@@@$0A@@std@@@std@@QAE@ABU?$less@G@1@V?$K2MapAllocator@U?$pair@$$CBGV?$basic_string@_WU?$char_traits@_W@std@@V?$K2StringAllocator@_W@@@std@@@std@@@@@Z 190e2190 f i c_entitytool.obj
 0002:00057240       ??0?$allocator@U?$pair@$$CBGV?$basic_string@_WU?$char_traits@_W@std@@V?$K2StringAllocator@_W@@@std@@@std@@@std@@QAE@ABV01@@Z 190e2240 f i c_entitytool.obj
 0002:00057260       ?destroy@?$allocator@U_Node@?$_Tree_nod@V?$_Tmap_traits@GV?$basic_string@_WU?$char_traits@_W@std@@V?$K2StringAllocator@_W@@@std@@U?$less@G@2@V?$K2MapAllocator@U?$pair@$$CBGV?$basic_string@_WU?$char_traits@_W@std@@V?$K2StringAllocator@_W@@@std@@@std@@@@$0A@@std@@@std@@@std@@QAEXPAU_Node@?$_Tree_nod@V?$_Tmap_traits@GV?$basic_string@_WU?$char_traits@_W@std@@V?$K2StringAllocator@_W@@@std@@U?$less@G@2@V?$K2MapAllocator@U?$pair@$$CBGV?$basic_string@_WU?$char_traits@_W@std@@V?$K2StringAllocator@_W@@@std@@@std@@@@$0A@@std@@@2@@Z 190e2260 f i c_entitytool.obj
 0002:00057290       ?GetSkin@IModel@@QAEPAVCSkin@@I@Z 190e2290 f i c_entitytool.obj
 0002:000572c0       ??1CWorldEntityEx@@QAE@XZ  190e22c0 f i c_entitytool.obj
 0002:00057380       ??0CWorldEntityEx@@QAE@XZ  190e2380 f i c_entitytool.obj
 0002:000573c0       ?GetPathBlockers@CWorldEntityEx@@QAEAAV?$vector@IV?$K2VectorAllocator@I@@@@XZ 190e23c0 f i c_entitytool.obj
 0002:000573e0       ?GetCamera@CEditor@@QAEAAVCCamera@@XZ 190e23e0 f i c_entitytool.obj
 0002:00057410       ?_Mynode@const_iterator@?$_Tree@V?$_Tmap_traits@GV?$basic_string@_WU?$char_traits@_W@std@@V?$K2StringAllocator@_W@@@std@@U?$less@G@2@V?$K2MapAllocator@U?$pair@$$CBGV?$basic_string@_WU?$char_traits@_W@std@@V?$K2StringAllocator@_W@@@std@@@std@@@@$0A@@std@@@std@@QBEPAU_Node@?$_Tree_nod@V?$_Tmap_traits@GV?$basic_string@_WU?$char_traits@_W@std@@V?$K2StringAllocator@_W@@@std@@U?$less@G@2@V?$K2MapAllocator@U?$pair@$$CBGV?$basic_string@_WU?$char_traits@_W@std@@V?$K2StringAllocator@_W@@@std@@@std@@@@$0A@@std@@@3@XZ 190e2410 f i c_entitytool.obj
 0002:00057430       ??0?$_Tree_nod@V?$_Tmap_traits@GV?$basic_string@_WU?$char_traits@_W@std@@V?$K2StringAllocator@_W@@@std@@U?$less@G@2@V?$K2MapAllocator@U?$pair@$$CBGV?$basic_string@_WU?$char_traits@_W@std@@V?$K2StringAllocator@_W@@@std@@@std@@@@$0A@@std@@@std@@IAE@ABU?$less@G@1@V?$K2MapAllocator@U?$pair@$$CBGV?$basic_string@_WU?$char_traits@_W@std@@V?$K2StringAllocator@_W@@@std@@@std@@@@@Z 190e2430 f i c_entitytool.obj
 0002:000574d0       ?allocate@?$K2MapAllocator@U_Node@?$_Tree_nod@V?$_Tmap_traits@GV?$basic_string@_WU?$char_traits@_W@std@@V?$K2StringAllocator@_W@@@std@@U?$less@G@2@V?$K2MapAllocator@U?$pair@$$CBGV?$basic_string@_WU?$char_traits@_W@std@@V?$K2StringAllocator@_W@@@std@@@std@@@@$0A@@std@@@std@@@@QAEPAU_Node@?$_Tree_nod@V?$_Tmap_traits@GV?$basic_string@_WU?$char_traits@_W@std@@V?$K2StringAllocator@_W@@@std@@U?$less@G@2@V?$K2MapAllocator@U?$pair@$$CBGV?$basic_string@_WU?$char_traits@_W@std@@V?$K2StringAllocator@_W@@@std@@@std@@@@$0A@@std@@@std@@I@Z 190e24d0 f i c_entitytool.obj
 0002:00057520       ?construct@?$allocator@PAU_Node@?$_Tree_nod@V?$_Tmap_traits@GV?$basic_string@_WU?$char_traits@_W@std@@V?$K2StringAllocator@_W@@@std@@U?$less@G@2@V?$K2MapAllocator@U?$pair@$$CBGV?$basic_string@_WU?$char_traits@_W@std@@V?$K2StringAllocator@_W@@@std@@@std@@@@$0A@@std@@@std@@@std@@QAEXPAPAU_Node@?$_Tree_nod@V?$_Tmap_traits@GV?$basic_string@_WU?$char_traits@_W@std@@V?$K2StringAllocator@_W@@@std@@U?$less@G@2@V?$K2MapAllocator@U?$pair@$$CBGV?$basic_string@_WU?$char_traits@_W@std@@V?$K2StringAllocator@_W@@@std@@@std@@@@$0A@@std@@@2@ABQAU342@@Z 190e2520 f i c_entitytool.obj
 0002:00057550       ??0?$_Tmap_traits@GV?$basic_string@_WU?$char_traits@_W@std@@V?$K2StringAllocator@_W@@@std@@U?$less@G@2@V?$K2MapAllocator@U?$pair@$$CBGV?$basic_string@_WU?$char_traits@_W@std@@V?$K2StringAllocator@_W@@@std@@@std@@@@$0A@@std@@QAE@U?$less@G@1@@Z 190e2550 f i c_entitytool.obj
 0002:00057580       ??$sort@V?$_Vector_iterator@V?$basic_string@_WU?$char_traits@_W@std@@V?$K2StringAllocator@_W@@@std@@V?$K2VectorAllocator@V?$basic_string@_WU?$char_traits@_W@std@@V?$K2StringAllocator@_W@@@std@@@@@std@@@std@@YAXV?$_Vector_iterator@V?$basic_string@_WU?$char_traits@_W@std@@V?$K2StringAllocator@_W@@@std@@V?$K2VectorAllocator@V?$basic_string@_WU?$char_traits@_W@std@@V?$K2StringAllocator@_W@@@std@@@@@0@0@Z 190e2580 f i c_entitytool.obj
 0002:000576c0       ?push_back@?$vector@IV?$K2VectorAllocator@I@@@std@@QAEXABI@Z 190e26c0 f i c_entitytool.obj
 0002:00057770       ?size@?$vector@IV?$K2VectorAllocator@I@@@std@@QBEIXZ 190e2770 f i c_entitytool.obj
 0002:000577c0       ??$?9_WU?$char_traits@_W@std@@V?$K2StringAllocator@_W@@@std@@YA_NABV?$basic_string@_WU?$char_traits@_W@std@@V?$K2StringAllocator@_W@@@0@PB_W@Z 190e27c0 f i c_entitytool.obj
 0002:00057800       ??$MIN@M@@YAABMABM0@Z      190e2800 f i c_entitytool.obj
 0002:00057850       ??$MAX@M@@YAABMABM0@Z      190e2850 f i c_entitytool.obj
 0002:000578a0       ??$GetDefinition@VIUnitDefinition@@@CEntityRegistry@@QAEPAVIUnitDefinition@@ABV?$basic_string@_WU?$char_traits@_W@std@@V?$K2StringAllocator@_W@@@std@@@Z 190e28a0 f i c_entitytool.obj
 0002:000578e0       ??$?0IVCWorldEntityEx@@@?$pair@$$CBIVCWorldEntityEx@@@std@@QAE@ABU?$pair@IVCWorldEntityEx@@@1@@Z 190e28e0 f i c_entitytool.obj
 0002:00057930       ??$ParenStr@V?$basic_string@_WU?$char_traits@_W@std@@V?$K2StringAllocator@_W@@@std@@@@YA?AV?$basic_string@_WU?$char_traits@_W@std@@V?$K2StringAllocator@_W@@@std@@V01@@Z 190e2930 f i c_entitytool.obj
 0002:00057a10       ?XtoW@@YAABV?$basic_string@_WU?$char_traits@_W@std@@V?$K2StringAllocator@_W@@@std@@ABV12@@Z 190e2a10 f i c_entitytool.obj
 0002:00057a30       ??$LowerString@V?$basic_string@_WU?$char_traits@_W@std@@V?$K2StringAllocator@_W@@@std@@@@YA?AV?$basic_string@_WU?$char_traits@_W@std@@V?$K2StringAllocator@_W@@@std@@ABV01@@Z 190e2a30 f i c_entitytool.obj
 0002:00057af0       ??$_Distance@Viterator@?$_Tree@V?$_Tset_traits@IU?$less@I@std@@V?$K2SetAllocator@I@@$0A@@std@@@std@@I@std@@YAXViterator@?$_Tree@V?$_Tset_traits@IU?$less@I@std@@V?$K2SetAllocator@I@@$0A@@std@@@0@0AAI@Z 190e2af0 f i c_entitytool.obj
 0002:00057bd0       ?size@?$vector@MV?$K2VectorAllocator@M@@@std@@QBEIXZ 190e2bd0 f i c_entitytool.obj
 0002:00057c20       ?empty@?$vector@MV?$K2VectorAllocator@M@@@std@@QBE_NXZ 190e2c20 f i c_entitytool.obj
 0002:00057c50       ??A?$vector@MV?$K2VectorAllocator@M@@@std@@QBEABMI@Z 190e2c50 f i c_entitytool.obj
 0002:00057d70       ?empty@?$vector@V?$basic_string@_WU?$char_traits@_W@std@@V?$K2StringAllocator@_W@@@std@@V?$K2VectorAllocator@V?$basic_string@_WU?$char_traits@_W@std@@V?$K2StringAllocator@_W@@@std@@@@@std@@QBE_NXZ 190e2d70 f i c_entitytool.obj
 0002:00057da0       ??$_Destroy@U_Node@?$_Tree_nod@V?$_Tmap_traits@IVCWorldEntityEx@@U?$less@I@std@@V?$K2MapAllocator@U?$pair@$$CBIVCWorldEntityEx@@@std@@@@$0A@@std@@@std@@@std@@YAXPAU_Node@?$_Tree_nod@V?$_Tmap_traits@IVCWorldEntityEx@@U?$less@I@std@@V?$K2MapAllocator@U?$pair@$$CBIVCWorldEntityEx@@@std@@@@$0A@@std@@@0@@Z 190e2da0 f i c_entitytool.obj
 0002:00057dc0       ?insert@?$_Tree@V?$_Tset_traits@IU?$less@I@std@@V?$K2SetAllocator@I@@$0A@@std@@@std@@QAE?AU?$pair@Viterator@?$_Tree@V?$_Tset_traits@IU?$less@I@std@@V?$K2SetAllocator@I@@$0A@@std@@@std@@_N@2@ABI@Z 190e2dc0 f i c_entitytool.obj
 0002:000581e0       ??$?0I@?$K2SetAllocator@PAU_Node@?$_Tree_nod@V?$_Tset_traits@IU?$less@I@std@@V?$K2SetAllocator@I@@$0A@@std@@@std@@@@QAE@ABV?$K2SetAllocator@I@@@Z 190e31e0 f i c_entitytool.obj
 0002:00058210       ??$_Destroy@PAU_Node@?$_Tree_nod@V?$_Tset_traits@IU?$less@I@std@@V?$K2SetAllocator@I@@$0A@@std@@@std@@@std@@YAXPAPAU_Node@?$_Tree_nod@V?$_Tset_traits@IU?$less@I@std@@V?$K2SetAllocator@I@@$0A@@std@@@0@@Z 190e3210 f i c_entitytool.obj
 0002:00058230       ??$_Destroy@PAU_Node@?$_Tree_nod@V?$_Tmap_traits@GV?$basic_string@_WU?$char_traits@_W@std@@V?$K2StringAllocator@_W@@@std@@U?$less@G@2@V?$K2MapAllocator@U?$pair@$$CBGV?$basic_string@_WU?$char_traits@_W@std@@V?$K2StringAllocator@_W@@@std@@@std@@@@$0A@@std@@@std@@@std@@YAXPAPAU_Node@?$_Tree_nod@V?$_Tmap_traits@GV?$basic_string@_WU?$char_traits@_W@std@@V?$K2StringAllocator@_W@@@std@@U?$less@G@2@V?$K2MapAllocator@U?$pair@$$CBGV?$basic_string@_WU?$char_traits@_W@std@@V?$K2StringAllocator@_W@@@std@@@std@@@@$0A@@std@@@0@@Z 190e3230 f i c_entitytool.obj
 0002:00058250       ?clear@?$_Tree@V?$_Tset_traits@IU?$less@I@std@@V?$K2SetAllocator@I@@$0A@@std@@@std@@QAEXXZ 190e3250 f i c_entitytool.obj
 0002:000582e0       ?length@?$basic_string@_WU?$char_traits@_W@std@@V?$K2StringAllocator@_W@@@std@@QBEIXZ 190e32e0 f i c_entitytool.obj
 0002:00058300       ?empty@?$basic_string@_WU?$char_traits@_W@std@@V?$K2StringAllocator@_W@@@std@@QBE_NXZ 190e3300 f i c_entitytool.obj
 0002:00058330       ??$?0I@?$K2SetAllocator@U_Node@?$_Tree_nod@V?$_Tset_traits@IU?$less@I@std@@V?$K2SetAllocator@I@@$0A@@std@@@std@@@@QAE@ABV?$K2SetAllocator@I@@@Z 190e3330 f i c_entitytool.obj
 0002:00058360       ??$_Construct@PAU_Node@?$_Tree_nod@V?$_Tset_traits@IU?$less@I@std@@V?$K2SetAllocator@I@@$0A@@std@@@std@@PAU123@@std@@YAXPAPAU_Node@?$_Tree_nod@V?$_Tset_traits@IU?$less@I@std@@V?$K2SetAllocator@I@@$0A@@std@@@0@ABQAU120@@Z 190e3360 f i c_entitytool.obj
 0002:000583c0       ??$?0U?$pair@$$CBGV?$basic_string@_WU?$char_traits@_W@std@@V?$K2StringAllocator@_W@@@std@@@std@@@?$K2MapAllocator@PAU_Node@?$_Tree_nod@V?$_Tmap_traits@GV?$basic_string@_WU?$char_traits@_W@std@@V?$K2StringAllocator@_W@@@std@@U?$less@G@2@V?$K2MapAllocator@U?$pair@$$CBGV?$basic_string@_WU?$char_traits@_W@std@@V?$K2StringAllocator@_W@@@std@@@std@@@@$0A@@std@@@std@@@@QAE@ABV?$K2MapAllocator@U?$pair@$$CBGV?$basic_string@_WU?$char_traits@_W@std@@V?$K2StringAllocator@_W@@@std@@@std@@@@@Z 190e33c0 f i c_entitytool.obj
 0002:000583f0       ??$_Destroy@U_Node@?$_Tree_nod@V?$_Tmap_traits@GV?$basic_string@_WU?$char_traits@_W@std@@V?$K2StringAllocator@_W@@@std@@U?$less@G@2@V?$K2MapAllocator@U?$pair@$$CBGV?$basic_string@_WU?$char_traits@_W@std@@V?$K2StringAllocator@_W@@@std@@@std@@@@$0A@@std@@@std@@@std@@YAXPAU_Node@?$_Tree_nod@V?$_Tmap_traits@GV?$basic_string@_WU?$char_traits@_W@std@@V?$K2StringAllocator@_W@@@std@@U?$less@G@2@V?$K2MapAllocator@U?$pair@$$CBGV?$basic_string@_WU?$char_traits@_W@std@@V?$K2StringAllocator@_W@@@std@@@std@@@@$0A@@std@@@0@@Z 190e33f0 f i c_entitytool.obj
 0002:00058410       ??A?$map@V?$basic_string@_WU?$char_traits@_W@std@@V?$K2StringAllocator@_W@@@std@@V12@U?$less@V?$basic_string@_WU?$char_traits@_W@std@@V?$K2StringAllocator@_W@@@std@@@2@V?$K2MapAllocator@U?$pair@$$CBV?$basic_string@_WU?$char_traits@_W@std@@V?$K2StringAllocator@_W@@@std@@V12@@std@@@@@std@@QAEAAV?$basic_string@_WU?$char_traits@_W@std@@V?$K2StringAllocator@_W@@@1@ABV21@@Z 190e3410 f i c_entitytool.obj
 0002:000586b0       ??1iterator@?$_Tree@V?$_Tmap_traits@V?$basic_string@_WU?$char_traits@_W@std@@V?$K2StringAllocator@_W@@@std@@V12@U?$less@V?$basic_string@_WU?$char_traits@_W@std@@V?$K2StringAllocator@_W@@@std@@@2@V?$K2MapAllocator@U?$pair@$$CBV?$basic_string@_WU?$char_traits@_W@std@@V?$K2StringAllocator@_W@@@std@@V12@@std@@@@$0A@@std@@@std@@QAE@XZ 190e36b0 f i c_entitytool.obj
 0002:000586e0       ??4?$_Tree@V?$_Tmap_traits@V?$basic_string@_WU?$char_traits@_W@std@@V?$K2StringAllocator@_W@@@std@@V12@U?$less@V?$basic_string@_WU?$char_traits@_W@std@@V?$K2StringAllocator@_W@@@std@@@2@V?$K2MapAllocator@U?$pair@$$CBV?$basic_string@_WU?$char_traits@_W@std@@V?$K2StringAllocator@_W@@@std@@V12@@std@@@@$0A@@std@@@std@@QAEAAV01@ABV01@@Z 190e36e0 f i c_entitytool.obj
 0002:000587c0       ??$?0U?$pair@$$CBGV?$basic_string@_WU?$char_traits@_W@std@@V?$K2StringAllocator@_W@@@std@@@std@@@?$K2MapAllocator@U_Node@?$_Tree_nod@V?$_Tmap_traits@GV?$basic_string@_WU?$char_traits@_W@std@@V?$K2StringAllocator@_W@@@std@@U?$less@G@2@V?$K2MapAllocator@U?$pair@$$CBGV?$basic_string@_WU?$char_traits@_W@std@@V?$K2StringAllocator@_W@@@std@@@std@@@@$0A@@std@@@std@@@@QAE@ABV?$K2MapAllocator@U?$pair@$$CBGV?$basic_string@_WU?$char_traits@_W@std@@V?$K2StringAllocator@_W@@@std@@@std@@@@@Z 190e37c0 f i c_entitytool.obj
 0002:000587f0       ??$_Construct@PAU_Node@?$_Tree_nod@V?$_Tmap_traits@GV?$basic_string@_WU?$char_traits@_W@std@@V?$K2StringAllocator@_W@@@std@@U?$less@G@2@V?$K2MapAllocator@U?$pair@$$CBGV?$basic_string@_WU?$char_traits@_W@std@@V?$K2StringAllocator@_W@@@std@@@std@@@@$0A@@std@@@std@@PAU123@@std@@YAXPAPAU_Node@?$_Tree_nod@V?$_Tmap_traits@GV?$basic_string@_WU?$char_traits@_W@std@@V?$K2StringAllocator@_W@@@std@@U?$less@G@2@V?$K2MapAllocator@U?$pair@$$CBGV?$basic_string@_WU?$char_traits@_W@std@@V?$K2StringAllocator@_W@@@std@@@std@@@@$0A@@std@@@0@ABQAU120@@Z 190e37f0 f i c_entitytool.obj
 0002:00058850       ?end@?$_Tree@V?$_Tmap_traits@V?$basic_string@_WU?$char_traits@_W@std@@V?$K2StringAllocator@_W@@@std@@V12@U?$less@V?$basic_string@_WU?$char_traits@_W@std@@V?$K2StringAllocator@_W@@@std@@@2@V?$K2MapAllocator@U?$pair@$$CBV?$basic_string@_WU?$char_traits@_W@std@@V?$K2StringAllocator@_W@@@std@@V12@@std@@@@$0A@@std@@@std@@QAE?AViterator@12@XZ 190e3850 f i c_entitytool.obj
 0002:000588a0       ?end@?$_Tree@V?$_Tmap_traits@V?$basic_string@_WU?$char_traits@_W@std@@V?$K2StringAllocator@_W@@@std@@V12@U?$less@V?$basic_string@_WU?$char_traits@_W@std@@V?$K2StringAllocator@_W@@@std@@@2@V?$K2MapAllocator@U?$pair@$$CBV?$basic_string@_WU?$char_traits@_W@std@@V?$K2StringAllocator@_W@@@std@@V12@@std@@@@$0A@@std@@@std@@QBE?AVconst_iterator@12@XZ 190e38a0 f i c_entitytool.obj
 0002:000588f0       ?find@?$_Tree@V?$_Tmap_traits@V?$basic_string@_WU?$char_traits@_W@std@@V?$K2StringAllocator@_W@@@std@@V12@U?$less@V?$basic_string@_WU?$char_traits@_W@std@@V?$K2StringAllocator@_W@@@std@@@2@V?$K2MapAllocator@U?$pair@$$CBV?$basic_string@_WU?$char_traits@_W@std@@V?$K2StringAllocator@_W@@@std@@V12@@std@@@@$0A@@std@@@std@@QBE?AVconst_iterator@12@ABV?$basic_string@_WU?$char_traits@_W@std@@V?$K2StringAllocator@_W@@@2@@Z 190e38f0 f i c_entitytool.obj
 0002:00058ad0       ??_G_Node@?$_Tree_nod@V?$_Tmap_traits@IVCWorldEntityEx@@U?$less@I@std@@V?$K2MapAllocator@U?$pair@$$CBIVCWorldEntityEx@@@std@@@@$0A@@std@@@std@@QAEPAXI@Z 190e3ad0 f i c_entitytool.obj
 0002:00058b20       ??_G_Node@?$_Tree_nod@V?$_Tmap_traits@GV?$basic_string@_WU?$char_traits@_W@std@@V?$K2StringAllocator@_W@@@std@@U?$less@G@2@V?$K2MapAllocator@U?$pair@$$CBGV?$basic_string@_WU?$char_traits@_W@std@@V?$K2StringAllocator@_W@@@std@@@std@@@@$0A@@std@@@std@@QAEPAXI@Z 190e3b20 f i c_entitytool.obj
 0002:00058b70       ??1_Node@?$_Tree_nod@V?$_Tmap_traits@IVCWorldEntityEx@@U?$less@I@std@@V?$K2MapAllocator@U?$pair@$$CBIVCWorldEntityEx@@@std@@@@$0A@@std@@@std@@QAE@XZ 190e3b70 f i c_entitytool.obj
 0002:00058ba0       ??1_Node@?$_Tree_nod@V?$_Tmap_traits@GV?$basic_string@_WU?$char_traits@_W@std@@V?$K2StringAllocator@_W@@@std@@U?$less@G@2@V?$K2MapAllocator@U?$pair@$$CBGV?$basic_string@_WU?$char_traits@_W@std@@V?$K2StringAllocator@_W@@@std@@@std@@@@$0A@@std@@@std@@QAE@XZ 190e3ba0 f i c_entitytool.obj
 0002:00058bd0       ??1?$pair@$$CBGV?$basic_string@_WU?$char_traits@_W@std@@V?$K2StringAllocator@_W@@@std@@@std@@QAE@XZ 190e3bd0 f i c_entitytool.obj
 0002:00058c00       ??0?$allocator@U_Node@?$_Tree_nod@V?$_Tset_traits@IU?$less@I@std@@V?$K2SetAllocator@I@@$0A@@std@@@std@@@std@@QAE@XZ 190e3c00 f i c_entitytool.obj
 0002:00058c20       ??0?$allocator@PAU_Node@?$_Tree_nod@V?$_Tset_traits@IU?$less@I@std@@V?$K2SetAllocator@I@@$0A@@std@@@std@@@std@@QAE@XZ 190e3c20 f i c_entitytool.obj
 0002:00058c40       ??0?$allocator@U_Node@?$_Tree_nod@V?$_Tmap_traits@GV?$basic_string@_WU?$char_traits@_W@std@@V?$K2StringAllocator@_W@@@std@@U?$less@G@2@V?$K2MapAllocator@U?$pair@$$CBGV?$basic_string@_WU?$char_traits@_W@std@@V?$K2StringAllocator@_W@@@std@@@std@@@@$0A@@std@@@std@@@std@@QAE@XZ 190e3c40 f i c_entitytool.obj
 0002:00058c60       ??0?$allocator@PAU_Node@?$_Tree_nod@V?$_Tmap_traits@GV?$basic_string@_WU?$char_traits@_W@std@@V?$K2StringAllocator@_W@@@std@@U?$less@G@2@V?$K2MapAllocator@U?$pair@$$CBGV?$basic_string@_WU?$char_traits@_W@std@@V?$K2StringAllocator@_W@@@std@@@std@@@@$0A@@std@@@std@@@std@@QAE@XZ 190e3c60 f i c_entitytool.obj
 0002:00058c80       ??Cconst_iterator@?$_Tree@V?$_Tmap_traits@V?$basic_string@_WU?$char_traits@_W@std@@V?$K2StringAllocator@_W@@@std@@V12@U?$less@V?$basic_string@_WU?$char_traits@_W@std@@V?$K2StringAllocator@_W@@@std@@@2@V?$K2MapAllocator@U?$pair@$$CBV?$basic_string@_WU?$char_traits@_W@std@@V?$K2StringAllocator@_W@@@std@@V12@@std@@@@$0A@@std@@@std@@QBEPBU?$pair@$$CBV?$basic_string@_WU?$char_traits@_W@std@@V?$K2StringAllocator@_W@@@std@@V12@@2@XZ 190e3c80 f i c_entitytool.obj
 0002:00058cb0       ??9const_iterator@?$_Tree@V?$_Tmap_traits@V?$basic_string@_WU?$char_traits@_W@std@@V?$K2StringAllocator@_W@@@std@@V12@U?$less@V?$basic_string@_WU?$char_traits@_W@std@@V?$K2StringAllocator@_W@@@std@@@2@V?$K2MapAllocator@U?$pair@$$CBV?$basic_string@_WU?$char_traits@_W@std@@V?$K2StringAllocator@_W@@@std@@V12@@std@@@@$0A@@std@@@std@@QBE_NABV012@@Z 190e3cb0 f i c_entitytool.obj
 0002:00058cf0       ??$_Debug_range@V?$_Vector_iterator@V?$basic_string@_WU?$char_traits@_W@std@@V?$K2StringAllocator@_W@@@std@@V?$K2VectorAllocator@V?$basic_string@_WU?$char_traits@_W@std@@V?$K2StringAllocator@_W@@@std@@@@@std@@@std@@YAXV?$_Vector_iterator@V?$basic_string@_WU?$char_traits@_W@std@@V?$K2StringAllocator@_W@@@std@@V?$K2VectorAllocator@V?$basic_string@_WU?$char_traits@_W@std@@V?$K2StringAllocator@_W@@@std@@@@@0@0PB_WI@Z 190e3cf0 f i c_entitytool.obj
 0002:00058de0       ??$_Checked_base@V?$_Vector_iterator@V?$basic_string@_WU?$char_traits@_W@std@@V?$K2StringAllocator@_W@@@std@@V?$K2VectorAllocator@V?$basic_string@_WU?$char_traits@_W@std@@V?$K2StringAllocator@_W@@@std@@@@@std@@@std@@YA?AV?$_Vector_iterator@V?$basic_string@_WU?$char_traits@_W@std@@V?$K2StringAllocator@_W@@@std@@V?$K2VectorAllocator@V?$basic_string@_WU?$char_traits@_W@std@@V?$K2StringAllocator@_W@@@std@@@@@0@AAV10@@Z 190e3de0 f i c_entitytool.obj
 0002:00058e30       ??$_Sort@V?$_Vector_iterator@V?$basic_string@_WU?$char_traits@_W@std@@V?$K2StringAllocator@_W@@@std@@V?$K2VectorAllocator@V?$basic_string@_WU?$char_traits@_W@std@@V?$K2StringAllocator@_W@@@std@@@@@std@@H@std@@YAXV?$_Vector_iterator@V?$basic_string@_WU?$char_traits@_W@std@@V?$K2StringAllocator@_W@@@std@@V?$K2VectorAllocator@V?$basic_string@_WU?$char_traits@_W@std@@V?$K2StringAllocator@_W@@@std@@@@@0@0H@Z 190e3e30 f i c_entitytool.obj
 0002:000591c0       ??$GetDefinition@VIUnitDefinition@@@CEntityRegistry@@QAEPAVIUnitDefinition@@G@Z 190e41c0 f i c_entitytool.obj
 0002:00059510       ?GetBaseType@IUnitDefinition@@SAIXZ 190e4510 f i c_entitytool.obj
 0002:00059530       ?GetDefinitionHandle@CDynamicEntityAllocator@@QBEIXZ 190e4530 f i c_entitytool.obj
 0002:00059550       ??$LowerStringRef@V?$basic_string@_WU?$char_traits@_W@std@@V?$K2StringAllocator@_W@@@std@@@@YAAAV?$basic_string@_WU?$char_traits@_W@std@@V?$K2StringAllocator@_W@@@std@@AAV01@@Z 190e4550 f i c_entitytool.obj
 0002:00059650       ??$_Iter_cat@Viterator@?$_Tree@V?$_Tset_traits@IU?$less@I@std@@V?$K2SetAllocator@I@@$0A@@std@@@std@@@std@@YA?AUbidirectional_iterator_tag@0@ABViterator@?$_Tree@V?$_Tset_traits@IU?$less@I@std@@V?$K2SetAllocator@I@@$0A@@std@@@0@@Z 190e4650 f i c_entitytool.obj
 0002:00059670       ??$_Distance2@Viterator@?$_Tree@V?$_Tset_traits@IU?$less@I@std@@V?$K2SetAllocator@I@@$0A@@std@@@std@@I@std@@YAXViterator@?$_Tree@V?$_Tset_traits@IU?$less@I@std@@V?$K2SetAllocator@I@@$0A@@std@@@0@0AAIUbidirectional_iterator_tag@0@@Z 190e4670 f i c_entitytool.obj
 0002:00059720       ??A?$vector@PAVCSkin@@V?$K2VectorAllocator@PAVCSkin@@@@@std@@QAEAAPAVCSkin@@I@Z 190e4720 f i c_entitytool.obj
 0002:00059840       ?size@?$vector@PAVCSkin@@V?$K2VectorAllocator@PAVCSkin@@@@@std@@QBEIXZ 190e4840 f i c_entitytool.obj
 0002:00059890       ??1?$_String_iterator@_WU?$char_traits@_W@std@@V?$K2StringAllocator@_W@@@std@@QAE@XZ 190e4890 f i c_entitytool.obj
 0002:000598c0       ??1?$pair@$$CBV?$basic_string@_WU?$char_traits@_W@std@@V?$K2StringAllocator@_W@@@std@@V12@@std@@QAE@XZ 190e48c0 f i c_entitytool.obj
 0002:00059940       ??0iterator@?$_Tree@V?$_Tmap_traits@V?$basic_string@_WU?$char_traits@_W@std@@V?$K2StringAllocator@_W@@@std@@V12@U?$less@V?$basic_string@_WU?$char_traits@_W@std@@V?$K2StringAllocator@_W@@@std@@@2@V?$K2MapAllocator@U?$pair@$$CBV?$basic_string@_WU?$char_traits@_W@std@@V?$K2StringAllocator@_W@@@std@@V12@@std@@@@$0A@@std@@@std@@QAE@ABV012@@Z 190e4940 f i c_entitytool.obj
 0002:00059970       ??4iterator@?$_Tree@V?$_Tmap_traits@V?$basic_string@_WU?$char_traits@_W@std@@V?$K2StringAllocator@_W@@@std@@V12@U?$less@V?$basic_string@_WU?$char_traits@_W@std@@V?$K2StringAllocator@_W@@@std@@@2@V?$K2MapAllocator@U?$pair@$$CBV?$basic_string@_WU?$char_traits@_W@std@@V?$K2StringAllocator@_W@@@std@@V12@@std@@@@$0A@@std@@@std@@QAEAAV012@ABV012@@Z 190e4970 f i c_entitytool.obj
 0002:000599a0       ??0const_iterator@?$_Tree@V?$_Tmap_traits@V?$basic_string@_WU?$char_traits@_W@std@@V?$K2StringAllocator@_W@@@std@@V12@U?$less@V?$basic_string@_WU?$char_traits@_W@std@@V?$K2StringAllocator@_W@@@std@@@2@V?$K2MapAllocator@U?$pair@$$CBV?$basic_string@_WU?$char_traits@_W@std@@V?$K2StringAllocator@_W@@@std@@V12@@std@@@@$0A@@std@@@std@@QAE@ABV012@@Z 190e49a0 f i c_entitytool.obj
 0002:000599e0       ??1?$pair@V?$_Vector_iterator@V?$basic_string@_WU?$char_traits@_W@std@@V?$K2StringAllocator@_W@@@std@@V?$K2VectorAllocator@V?$basic_string@_WU?$char_traits@_W@std@@V?$K2StringAllocator@_W@@@std@@@@@std@@V12@@std@@QAE@XZ 190e49e0 f i c_entitytool.obj
 0002:00059a60       ??4?$_Vector_iterator@V?$basic_string@_WU?$char_traits@_W@std@@V?$K2StringAllocator@_W@@@std@@V?$K2VectorAllocator@V?$basic_string@_WU?$char_traits@_W@std@@V?$K2StringAllocator@_W@@@std@@@@@std@@QAEAAV01@ABV01@@Z 190e4a60 f i c_entitytool.obj
 0002:00059a90       ??1iterator@?$_Tree@V?$_Tmap_traits@GVCDynamicEntityAllocator@@U?$less@G@std@@V?$K2MapAllocator@U?$pair@$$CBGVCDynamicEntityAllocator@@@std@@@@$0A@@std@@@std@@QAE@XZ 190e4a90 f i c_entitytool.obj
 0002:00059ac0       ??4?$_Vector_const_iterator@V?$basic_string@_WU?$char_traits@_W@std@@V?$K2StringAllocator@_W@@@std@@V?$K2VectorAllocator@V?$basic_string@_WU?$char_traits@_W@std@@V?$K2StringAllocator@_W@@@std@@@@@std@@QAEAAV01@ABV01@@Z 190e4ac0 f i c_entitytool.obj
 0002:00059b00       ??1const_iterator@?$_Tree@V?$_Tmap_traits@GVCDynamicEntityAllocator@@U?$less@G@std@@V?$K2MapAllocator@U?$pair@$$CBGVCDynamicEntityAllocator@@@std@@@@$0A@@std@@@std@@QAE@XZ 190e4b00 f i c_entitytool.obj
 0002:00059b30       ??4?$_Ranit@V?$basic_string@_WU?$char_traits@_W@std@@V?$K2StringAllocator@_W@@@std@@HPBV12@ABV12@@std@@QAEAAU01@ABU01@@Z 190e4b30 f i c_entitytool.obj
 0002:00059b60       ??1?$_Bidit@U?$pair@$$CBGVCDynamicEntityAllocator@@@std@@HPBU12@ABU12@@std@@QAE@XZ 190e4b60 f i c_entitytool.obj
 0002:00059b90       ?end@?$_Tree@V?$_Tmap_traits@GVCDynamicEntityAllocator@@U?$less@G@std@@V?$K2MapAllocator@U?$pair@$$CBGVCDynamicEntityAllocator@@@std@@@@$0A@@std@@@std@@QAE?AViterator@12@XZ 190e4b90 f i c_entitytool.obj
 0002:00059be0       ?find@?$_Tree@V?$_Tmap_traits@GVCDynamicEntityAllocator@@U?$less@G@std@@V?$K2MapAllocator@U?$pair@$$CBGVCDynamicEntityAllocator@@@std@@@@$0A@@std@@@std@@QAE?AViterator@12@ABG@Z 190e4be0 f i c_entitytool.obj
 0002:00059dc0       ??4const_iterator@?$_Tree@V?$_Tmap_traits@V?$basic_string@_WU?$char_traits@_W@std@@V?$K2StringAllocator@_W@@@std@@V12@U?$less@V?$basic_string@_WU?$char_traits@_W@std@@V?$K2StringAllocator@_W@@@std@@@2@V?$K2MapAllocator@U?$pair@$$CBV?$basic_string@_WU?$char_traits@_W@std@@V?$K2StringAllocator@_W@@@std@@V12@@std@@@@$0A@@std@@@std@@QAEAAV012@ABV012@@Z 190e4dc0 f i c_entitytool.obj
 0002:00059e00       ??0?$_Bidit@U?$pair@$$CBV?$basic_string@_WU?$char_traits@_W@std@@V?$K2StringAllocator@_W@@@std@@V12@@std@@HPBU12@ABU12@@std@@QAE@ABU01@@Z 190e4e00 f i c_entitytool.obj
 0002:00059e30       ??1?$_Vector_const_iterator@VCConvexPolyhedron@@V?$K2VectorAllocator@VCConvexPolyhedron@@@@@std@@QAE@XZ 190e4e30 f i c_entitytool.obj
 0002:00059e60       ??Citerator@?$_Tree@V?$_Tmap_traits@GVCDynamicEntityAllocator@@U?$less@G@std@@V?$K2MapAllocator@U?$pair@$$CBGVCDynamicEntityAllocator@@@std@@@@$0A@@std@@@std@@QBEPAU?$pair@$$CBGVCDynamicEntityAllocator@@@2@XZ 190e4e60 f i c_entitytool.obj
 0002:00059e90       ??8const_iterator@?$_Tree@V?$_Tmap_traits@GVCDynamicEntityAllocator@@U?$less@G@std@@V?$K2MapAllocator@U?$pair@$$CBGVCDynamicEntityAllocator@@@std@@@@$0A@@std@@@std@@QBE_NABV012@@Z 190e4e90 f i c_entitytool.obj
 0002:00059f50       ??0iterator@?$_Tree@V?$_Tmap_traits@GVCDynamicEntityAllocator@@U?$less@G@std@@V?$K2MapAllocator@U?$pair@$$CBGVCDynamicEntityAllocator@@@std@@@@$0A@@std@@@std@@QAE@ABV012@@Z 190e4f50 f i c_entitytool.obj
 0002:00059f80       ??0const_iterator@?$_Tree@V?$_Tmap_traits@GVCDynamicEntityAllocator@@U?$less@G@std@@V?$K2MapAllocator@U?$pair@$$CBGVCDynamicEntityAllocator@@@std@@@@$0A@@std@@@std@@QAE@ABV012@@Z 190e4f80 f i c_entitytool.obj
 0002:00059fc0       ??0?$_Bidit@U?$pair@$$CBGVCDynamicEntityAllocator@@@std@@HPBU12@ABU12@@std@@QAE@ABU01@@Z 190e4fc0 f i c_entitytool.obj
 0002:00059ff0       ??4?$_Bidit@U?$pair@$$CBV?$basic_string@_WU?$char_traits@_W@std@@V?$K2StringAllocator@_W@@@std@@V12@@std@@HPBU12@ABU12@@std@@QAEAAU01@ABU01@@Z 190e4ff0 f i c_entitytool.obj
 0002:0005a020       ?_Key@?$_Tree@V?$_Tmap_traits@GVCDynamicEntityAllocator@@U?$less@G@std@@V?$K2MapAllocator@U?$pair@$$CBGVCDynamicEntityAllocator@@@std@@@@$0A@@std@@@std@@KAABGPAU_Node@?$_Tree_nod@V?$_Tmap_traits@GVCDynamicEntityAllocator@@U?$less@G@std@@V?$K2MapAllocator@U?$pair@$$CBGVCDynamicEntityAllocator@@@std@@@@$0A@@std@@@2@@Z 190e5020 f i c_entitytool.obj
 0002:0005a050       ?lower_bound@?$_Tree@V?$_Tmap_traits@GVCDynamicEntityAllocator@@U?$less@G@std@@V?$K2MapAllocator@U?$pair@$$CBGVCDynamicEntityAllocator@@@std@@@@$0A@@std@@@std@@QAE?AViterator@12@ABG@Z 190e5050 f i c_entitytool.obj
 0002:0005a0b0       ??1?$_Ranit@VCConvexPolyhedron@@HPBV1@ABV1@@std@@QAE@XZ 190e50b0 f i c_entitytool.obj
 0002:0005a0e0       ??0iterator@?$_Tree@V?$_Tmap_traits@GVCDynamicEntityAllocator@@U?$less@G@std@@V?$K2MapAllocator@U?$pair@$$CBGVCDynamicEntityAllocator@@@std@@@@$0A@@std@@@std@@QAE@PAU_Node@?$_Tree_nod@V?$_Tmap_traits@GVCDynamicEntityAllocator@@U?$less@G@std@@V?$K2MapAllocator@U?$pair@$$CBGVCDynamicEntityAllocator@@@std@@@@$0A@@std@@@2@PBV12@@Z 190e50e0 f i c_entitytool.obj
 0002:0005a120       ??Diterator@?$_Tree@V?$_Tmap_traits@GVCDynamicEntityAllocator@@U?$less@G@std@@V?$K2MapAllocator@U?$pair@$$CBGVCDynamicEntityAllocator@@@std@@@@$0A@@std@@@std@@QBEAAU?$pair@$$CBGVCDynamicEntityAllocator@@@2@XZ 190e5120 f i c_entitytool.obj
 0002:0005a150       ?_Mynode@const_iterator@?$_Tree@V?$_Tmap_traits@GVCDynamicEntityAllocator@@U?$less@G@std@@V?$K2MapAllocator@U?$pair@$$CBGVCDynamicEntityAllocator@@@std@@@@$0A@@std@@@std@@QBEPAU_Node@?$_Tree_nod@V?$_Tmap_traits@GVCDynamicEntityAllocator@@U?$less@G@std@@V?$K2MapAllocator@U?$pair@$$CBGVCDynamicEntityAllocator@@@std@@@@$0A@@std@@@3@XZ 190e5150 f i c_entitytool.obj
 0002:0005a170       ?_Myval@?$_Tree@V?$_Tmap_traits@GVCDynamicEntityAllocator@@U?$less@G@std@@V?$K2MapAllocator@U?$pair@$$CBGVCDynamicEntityAllocator@@@std@@@@$0A@@std@@@std@@KAAAU?$pair@$$CBGVCDynamicEntityAllocator@@@2@PAU_Node@?$_Tree_nod@V?$_Tmap_traits@GVCDynamicEntityAllocator@@U?$less@G@std@@V?$K2MapAllocator@U?$pair@$$CBGVCDynamicEntityAllocator@@@std@@@@$0A@@std@@@2@@Z 190e5170 f i c_entitytool.obj
 0002:0005a190       ?_Lbound@?$_Tree@V?$_Tmap_traits@GVCDynamicEntityAllocator@@U?$less@G@std@@V?$K2MapAllocator@U?$pair@$$CBGVCDynamicEntityAllocator@@@std@@@@$0A@@std@@@std@@IBEPAU_Node@?$_Tree_nod@V?$_Tmap_traits@GVCDynamicEntityAllocator@@U?$less@G@std@@V?$K2MapAllocator@U?$pair@$$CBGVCDynamicEntityAllocator@@@std@@@@$0A@@std@@@2@ABG@Z 190e5190 f i c_entitytool.obj
 0002:0005a260       ?_Kfn@?$_Tmap_traits@GVCDynamicEntityAllocator@@U?$less@G@std@@V?$K2MapAllocator@U?$pair@$$CBGVCDynamicEntityAllocator@@@std@@@@$0A@@std@@SAABGABU?$pair@$$CBGVCDynamicEntityAllocator@@@2@@Z 190e5260 f i c_entitytool.obj
 0002:0005a280       ??0const_iterator@?$_Tree@V?$_Tmap_traits@GVCDynamicEntityAllocator@@U?$less@G@std@@V?$K2MapAllocator@U?$pair@$$CBGVCDynamicEntityAllocator@@@std@@@@$0A@@std@@@std@@QAE@PAU_Node@?$_Tree_nod@V?$_Tmap_traits@GVCDynamicEntityAllocator@@U?$less@G@std@@V?$K2MapAllocator@U?$pair@$$CBGVCDynamicEntityAllocator@@@std@@@@$0A@@std@@@2@PBV12@@Z 190e5280 f i c_entitytool.obj
 0002:0005a310       ??Dconst_iterator@?$_Tree@V?$_Tmap_traits@GVCDynamicEntityAllocator@@U?$less@G@std@@V?$K2MapAllocator@U?$pair@$$CBGVCDynamicEntityAllocator@@@std@@@@$0A@@std@@@std@@QBEABU?$pair@$$CBGVCDynamicEntityAllocator@@@2@XZ 190e5310 f i c_entitytool.obj
 0002:0005a3d0       ??0?$_Bidit@U?$pair@$$CBGVCDynamicEntityAllocator@@@std@@HPBU12@ABU12@@std@@QAE@XZ 190e53d0 f i c_entitytool.obj
 0002:0005a400       ?_Isnil@?$_Tree@V?$_Tmap_traits@GVCDynamicEntityAllocator@@U?$less@G@std@@V?$K2MapAllocator@U?$pair@$$CBGVCDynamicEntityAllocator@@@std@@@@$0A@@std@@@std@@KAAADPAU_Node@?$_Tree_nod@V?$_Tmap_traits@GVCDynamicEntityAllocator@@U?$less@G@std@@V?$K2MapAllocator@U?$pair@$$CBGVCDynamicEntityAllocator@@@std@@@@$0A@@std@@@2@@Z 190e5400 f i c_entitytool.obj
 0002:0005a420       ?_Left@?$_Tree@V?$_Tmap_traits@GVCDynamicEntityAllocator@@U?$less@G@std@@V?$K2MapAllocator@U?$pair@$$CBGVCDynamicEntityAllocator@@@std@@@@$0A@@std@@@std@@KAAAPAU_Node@?$_Tree_nod@V?$_Tmap_traits@GVCDynamicEntityAllocator@@U?$less@G@std@@V?$K2MapAllocator@U?$pair@$$CBGVCDynamicEntityAllocator@@@std@@@@$0A@@std@@@2@PAU342@@Z 190e5420 f i c_entitytool.obj
 0002:0005a440       ?_Right@?$_Tree@V?$_Tmap_traits@GVCDynamicEntityAllocator@@U?$less@G@std@@V?$K2MapAllocator@U?$pair@$$CBGVCDynamicEntityAllocator@@@std@@@@$0A@@std@@@std@@KAAAPAU_Node@?$_Tree_nod@V?$_Tmap_traits@GVCDynamicEntityAllocator@@U?$less@G@std@@V?$K2MapAllocator@U?$pair@$$CBGVCDynamicEntityAllocator@@@std@@@@$0A@@std@@@2@PAU342@@Z 190e5440 f i c_entitytool.obj
 0002:0005a460       ?_Root@?$_Tree@V?$_Tmap_traits@GVCDynamicEntityAllocator@@U?$less@G@std@@V?$K2MapAllocator@U?$pair@$$CBGVCDynamicEntityAllocator@@@std@@@@$0A@@std@@@std@@IBEAAPAU_Node@?$_Tree_nod@V?$_Tmap_traits@GVCDynamicEntityAllocator@@U?$less@G@std@@V?$K2MapAllocator@U?$pair@$$CBGVCDynamicEntityAllocator@@@std@@@@$0A@@std@@@2@XZ 190e5460 f i c_entitytool.obj
 0002:0005a490       ?_Parent@?$_Tree@V?$_Tmap_traits@GVCDynamicEntityAllocator@@U?$less@G@std@@V?$K2MapAllocator@U?$pair@$$CBGVCDynamicEntityAllocator@@@std@@@@$0A@@std@@@std@@KAAAPAU_Node@?$_Tree_nod@V?$_Tmap_traits@GVCDynamicEntityAllocator@@U?$less@G@std@@V?$K2MapAllocator@U?$pair@$$CBGVCDynamicEntityAllocator@@@std@@@@$0A@@std@@@2@PAU342@@Z 190e5490 f i c_entitytool.obj
 0002:0005a4b0       ??$_Iter_cat@V?$_Vector_iterator@V?$basic_string@_WU?$char_traits@_W@std@@V?$K2StringAllocator@_W@@@std@@V?$K2VectorAllocator@V?$basic_string@_WU?$char_traits@_W@std@@V?$K2StringAllocator@_W@@@std@@@@@std@@@std@@YA?AUrandom_access_iterator_tag@0@ABV?$_Vector_iterator@V?$basic_string@_WU?$char_traits@_W@std@@V?$K2StringAllocator@_W@@@std@@V?$K2VectorAllocator@V?$basic_string@_WU?$char_traits@_W@std@@V?$K2StringAllocator@_W@@@std@@@@@0@@Z 190e54b0 f i c_entitytool.obj
 0002:0005a4d0       ??$_Debug_range2@V?$_Vector_iterator@V?$basic_string@_WU?$char_traits@_W@std@@V?$K2StringAllocator@_W@@@std@@V?$K2VectorAllocator@V?$basic_string@_WU?$char_traits@_W@std@@V?$K2StringAllocator@_W@@@std@@@@@std@@@std@@YAXV?$_Vector_iterator@V?$basic_string@_WU?$char_traits@_W@std@@V?$K2StringAllocator@_W@@@std@@V?$K2VectorAllocator@V?$basic_string@_WU?$char_traits@_W@std@@V?$K2StringAllocator@_W@@@std@@@@@0@0PB_WIUrandom_access_iterator_tag@0@@Z 190e54d0 f i c_entitytool.obj
 0002:0005a5c0       ??$_Checked_base@V?$_Vector_iterator@V?$basic_string@_WU?$char_traits@_W@std@@V?$K2StringAllocator@_W@@@std@@V?$K2VectorAllocator@V?$basic_string@_WU?$char_traits@_W@std@@V?$K2StringAllocator@_W@@@std@@@@@std@@@std@@YA?AV?$_Vector_iterator@V?$basic_string@_WU?$char_traits@_W@std@@V?$K2StringAllocator@_W@@@std@@V?$K2VectorAllocator@V?$basic_string@_WU?$char_traits@_W@std@@V?$K2StringAllocator@_W@@@std@@@@@0@AAV10@U_Unchanged_checked_iterator_base_type_tag@0@@Z 190e55c0 f i c_entitytool.obj
 0002:0005a600       ??$_Unguarded_partition@V?$_Vector_iterator@V?$basic_string@_WU?$char_traits@_W@std@@V?$K2StringAllocator@_W@@@std@@V?$K2VectorAllocator@V?$basic_string@_WU?$char_traits@_W@std@@V?$K2StringAllocator@_W@@@std@@@@@std@@@std@@YA?AU?$pair@V?$_Vector_iterator@V?$basic_string@_WU?$char_traits@_W@std@@V?$K2StringAllocator@_W@@@std@@V?$K2VectorAllocator@V?$basic_string@_WU?$char_traits@_W@std@@V?$K2StringAllocator@_W@@@std@@@@@std@@V12@@0@V?$_Vector_iterator@V?$basic_string@_WU?$char_traits@_W@std@@V?$K2StringAllocator@_W@@@std@@V?$K2VectorAllocator@V?$basic_string@_WU?$char_traits@_W@std@@V?$K2StringAllocator@_W@@@std@@@@@0@0@Z 190e5600 f i c_entitytool.obj
 0002:0005b030       ??G?$_Vector_iterator@V?$basic_string@_WU?$char_traits@_W@std@@V?$K2StringAllocator@_W@@@std@@V?$K2VectorAllocator@V?$basic_string@_WU?$char_traits@_W@std@@V?$K2StringAllocator@_W@@@std@@@@@std@@QBE?AV01@H@Z 190e6030 f i c_entitytool.obj
 0002:0005b0e0       ??$make_heap@V?$_Vector_iterator@V?$basic_string@_WU?$char_traits@_W@std@@V?$K2StringAllocator@_W@@@std@@V?$K2VectorAllocator@V?$basic_string@_WU?$char_traits@_W@std@@V?$K2StringAllocator@_W@@@std@@@@@std@@@std@@YAXV?$_Vector_iterator@V?$basic_string@_WU?$char_traits@_W@std@@V?$K2StringAllocator@_W@@@std@@V?$K2VectorAllocator@V?$basic_string@_WU?$char_traits@_W@std@@V?$K2StringAllocator@_W@@@std@@@@@0@0@Z 190e60e0 f i c_entitytool.obj
 0002:0005b220       ??$sort_heap@V?$_Vector_iterator@V?$basic_string@_WU?$char_traits@_W@std@@V?$K2StringAllocator@_W@@@std@@V?$K2VectorAllocator@V?$basic_string@_WU?$char_traits@_W@std@@V?$K2StringAllocator@_W@@@std@@@@@std@@@std@@YAXV?$_Vector_iterator@V?$basic_string@_WU?$char_traits@_W@std@@V?$K2StringAllocator@_W@@@std@@V?$K2VectorAllocator@V?$basic_string@_WU?$char_traits@_W@std@@V?$K2StringAllocator@_W@@@std@@@@@0@0@Z 190e6220 f i c_entitytool.obj
 0002:0005b340       ??$_Insertion_sort@V?$_Vector_iterator@V?$basic_string@_WU?$char_traits@_W@std@@V?$K2StringAllocator@_W@@@std@@V?$K2VectorAllocator@V?$basic_string@_WU?$char_traits@_W@std@@V?$K2StringAllocator@_W@@@std@@@@@std@@@std@@YAXV?$_Vector_iterator@V?$basic_string@_WU?$char_traits@_W@std@@V?$K2StringAllocator@_W@@@std@@V?$K2VectorAllocator@V?$basic_string@_WU?$char_traits@_W@std@@V?$K2StringAllocator@_W@@@std@@@@@0@0@Z 190e6340 f i c_entitytool.obj
 0002:0005b430       ??$GetDefinition@VIUnitDefinition@@@CEntityDefinitionResource@@QBEPAVIUnitDefinition@@XZ 190e6430 f i c_entitytool.obj
 0002:0005b470       ??$transform@V?$_String_iterator@_WU?$char_traits@_W@std@@V?$K2StringAllocator@_W@@@std@@V12@P6AHH@Z@std@@YA?AV?$_String_iterator@_WU?$char_traits@_W@std@@V?$K2StringAllocator@_W@@@0@V10@00P6AHH@Z@Z 190e6470 f i c_entitytool.obj
 0002:0005b5c0       ?capacity@?$vector@IV?$K2VectorAllocator@I@@@std@@QBEIXZ 190e65c0 f i c_entitytool.obj
 0002:0005b610       ?insert@?$vector@IV?$K2VectorAllocator@I@@@std@@QAE?AV?$_Vector_iterator@IV?$K2VectorAllocator@I@@@2@V32@ABI@Z 190e6610 f i c_entitytool.obj
 0002:0005b780       ?_Ufill@?$vector@IV?$K2VectorAllocator@I@@@std@@IAEPAIPAIIABI@Z 190e6780 f i c_entitytool.obj
 0002:0005b7d0       ??$_Debug_lt_pred@U?$less@G@std@@GG@std@@YA_NU?$less@G@0@ABG1PB_WI@Z 190e67d0 f i c_entitytool.obj
 0002:0005b850       ??0?$_String_iterator@_WU?$char_traits@_W@std@@V?$K2StringAllocator@_W@@@std@@QAE@ABV01@@Z 190e6850 f i c_entitytool.obj
 0002:0005b880       ??R?$less@G@std@@QBE_NABG0@Z 190e6880 f i c_entitytool.obj
 0002:0005b8c0       ?_Isnil@?$_Tree@V?$_Tset_traits@IU?$less@I@std@@V?$K2SetAllocator@I@@$0A@@std@@@std@@KAAADPAU_Node@?$_Tree_nod@V?$_Tset_traits@IU?$less@I@std@@V?$K2SetAllocator@I@@$0A@@std@@@2@@Z 190e68c0 f i c_entitytool.obj
 0002:0005b8e0       ??E?$_Vector_iterator@V?$basic_string@_WU?$char_traits@_W@std@@V?$K2StringAllocator@_W@@@std@@V?$K2VectorAllocator@V?$basic_string@_WU?$char_traits@_W@std@@V?$K2StringAllocator@_W@@@std@@@@@std@@QAE?AV01@H@Z 190e68e0 f i c_entitytool.obj
 0002:0005b990       ?_Key@?$_Tree@V?$_Tset_traits@IU?$less@I@std@@V?$K2SetAllocator@I@@$0A@@std@@@std@@KAABIPAU_Node@?$_Tree_nod@V?$_Tset_traits@IU?$less@I@std@@V?$K2SetAllocator@I@@$0A@@std@@@2@@Z 190e6990 f i c_entitytool.obj
 0002:0005b9c0       ?_Left@?$_Tree@V?$_Tset_traits@IU?$less@I@std@@V?$K2SetAllocator@I@@$0A@@std@@@std@@KAAAPAU_Node@?$_Tree_nod@V?$_Tset_traits@IU?$less@I@std@@V?$K2SetAllocator@I@@$0A@@std@@@2@PAU342@@Z 190e69c0 f i c_entitytool.obj
 0002:0005b9e0       ?_Right@?$_Tree@V?$_Tset_traits@IU?$less@I@std@@V?$K2SetAllocator@I@@$0A@@std@@@std@@KAAAPAU_Node@?$_Tree_nod@V?$_Tset_traits@IU?$less@I@std@@V?$K2SetAllocator@I@@$0A@@std@@@2@PAU342@@Z 190e69e0 f i c_entitytool.obj
 0002:0005ba00       ??F?$_Vector_iterator@V?$basic_string@_WU?$char_traits@_W@std@@V?$K2StringAllocator@_W@@@std@@V?$K2VectorAllocator@V?$basic_string@_WU?$char_traits@_W@std@@V?$K2StringAllocator@_W@@@std@@@@@std@@QAEAAV01@XZ 190e6a00 f i c_entitytool.obj
 0002:0005ba30       ?begin@?$_Tree@V?$_Tset_traits@IU?$less@I@std@@V?$K2SetAllocator@I@@$0A@@std@@@std@@QAE?AViterator@12@XZ 190e6a30 f i c_entitytool.obj
 0002:0005ba80       ?_Erase@?$_Tree@V?$_Tset_traits@IU?$less@I@std@@V?$K2SetAllocator@I@@$0A@@std@@@std@@IAEXPAU_Node@?$_Tree_nod@V?$_Tset_traits@IU?$less@I@std@@V?$K2SetAllocator@I@@$0A@@std@@@2@@Z 190e6a80 f i c_entitytool.obj
 0002:0005bb20       ??0?$pair@V?$_Vector_iterator@V?$basic_string@_WU?$char_traits@_W@std@@V?$K2StringAllocator@_W@@@std@@V?$K2VectorAllocator@V?$basic_string@_WU?$char_traits@_W@std@@V?$K2StringAllocator@_W@@@std@@@@@std@@V12@@std@@QAE@ABV?$_Vector_iterator@V?$basic_string@_WU?$char_traits@_W@std@@V?$K2StringAllocator@_W@@@std@@V?$K2VectorAllocator@V?$basic_string@_WU?$char_traits@_W@std@@V?$K2StringAllocator@_W@@@std@@@@@1@0@Z 190e6b20 f i c_entitytool.obj
 0002:0005bbb0       ?_Insert@?$_Tree@V?$_Tset_traits@IU?$less@I@std@@V?$K2SetAllocator@I@@$0A@@std@@@std@@IAE?AViterator@12@_NPAU_Node@?$_Tree_nod@V?$_Tset_traits@IU?$less@I@std@@V?$K2SetAllocator@I@@$0A@@std@@@2@ABI@Z 190e6bb0 f i c_entitytool.obj
 0002:0005c170       ??F?$_Vector_const_iterator@V?$basic_string@_WU?$char_traits@_W@std@@V?$K2StringAllocator@_W@@@std@@V?$K2VectorAllocator@V?$basic_string@_WU?$char_traits@_W@std@@V?$K2StringAllocator@_W@@@std@@@@@std@@QAEAAV01@XZ 190e7170 f i c_entitytool.obj
 0002:0005c270       ?_Lmost@?$_Tree@V?$_Tset_traits@IU?$less@I@std@@V?$K2SetAllocator@I@@$0A@@std@@@std@@IBEAAPAU_Node@?$_Tree_nod@V?$_Tset_traits@IU?$less@I@std@@V?$K2SetAllocator@I@@$0A@@std@@@2@XZ 190e7270 f i c_entitytool.obj
 0002:0005c2a0       ?_Rmost@?$_Tree@V?$_Tset_traits@IU?$less@I@std@@V?$K2SetAllocator@I@@$0A@@std@@@std@@IBEAAPAU_Node@?$_Tree_nod@V?$_Tset_traits@IU?$less@I@std@@V?$K2SetAllocator@I@@$0A@@std@@@2@XZ 190e72a0 f i c_entitytool.obj
 0002:0005c2d0       ?_Root@?$_Tree@V?$_Tset_traits@IU?$less@I@std@@V?$K2SetAllocator@I@@$0A@@std@@@std@@IBEAAPAU_Node@?$_Tree_nod@V?$_Tset_traits@IU?$less@I@std@@V?$K2SetAllocator@I@@$0A@@std@@@2@XZ 190e72d0 f i c_entitytool.obj
 0002:0005c300       ?_Orphan_ptr@?$_Tree@V?$_Tset_traits@IU?$less@I@std@@V?$K2SetAllocator@I@@$0A@@std@@@std@@IBEXAAV12@PAU_Node@?$_Tree_nod@V?$_Tset_traits@IU?$less@I@std@@V?$K2SetAllocator@I@@$0A@@std@@@2@@Z 190e7300 f i c_entitytool.obj
 0002:0005c3b0       ?_Kfn@?$_Tset_traits@IU?$less@I@std@@V?$K2SetAllocator@I@@$0A@@std@@SAABIABI@Z 190e73b0 f i c_entitytool.obj
 0002:0005c3d0       ??R?$less@V?$basic_string@_WU?$char_traits@_W@std@@V?$K2StringAllocator@_W@@@std@@@std@@QBE_NABV?$basic_string@_WU?$char_traits@_W@std@@V?$K2StringAllocator@_W@@@1@0@Z 190e73d0 f i c_entitytool.obj
 0002:0005c400       ?begin@?$basic_string@_WU?$char_traits@_W@std@@V?$K2StringAllocator@_W@@@std@@QAE?AV?$_String_iterator@_WU?$char_traits@_W@std@@V?$K2StringAllocator@_W@@@2@XZ 190e7400 f i c_entitytool.obj
 0002:0005c450       ?end@?$basic_string@_WU?$char_traits@_W@std@@V?$K2StringAllocator@_W@@@std@@QAE?AV?$_String_iterator@_WU?$char_traits@_W@std@@V?$K2StringAllocator@_W@@@2@XZ 190e7450 f i c_entitytool.obj
 0002:0005c4b0       ?_Key@?$_Tree@V?$_Tmap_traits@V?$basic_string@_WU?$char_traits@_W@std@@V?$K2StringAllocator@_W@@@std@@V12@U?$less@V?$basic_string@_WU?$char_traits@_W@std@@V?$K2StringAllocator@_W@@@std@@@2@V?$K2MapAllocator@U?$pair@$$CBV?$basic_string@_WU?$char_traits@_W@std@@V?$K2StringAllocator@_W@@@std@@V12@@std@@@@$0A@@std@@@std@@KAABV?$basic_string@_WU?$char_traits@_W@std@@V?$K2StringAllocator@_W@@@2@PAU_Node@?$_Tree_nod@V?$_Tmap_traits@V?$basic_string@_WU?$char_traits@_W@std@@V?$K2StringAllocator@_W@@@std@@V12@U?$less@V?$basic_string@_WU?$char_traits@_W@std@@V?$K2StringAllocator@_W@@@std@@@2@V?$K2MapAllocator@U?$pair@$$CBV?$basic_string@_WU?$char_traits@_W@std@@V?$K2StringAllocator@_W@@@std@@V12@@std@@@@$0A@@std@@@2@@Z 190e74b0 f i c_entitytool.obj
 0002:0005c4e0       ?begin@?$_Tree@V?$_Tmap_traits@V?$basic_string@_WU?$char_traits@_W@std@@V?$K2StringAllocator@_W@@@std@@V12@U?$less@V?$basic_string@_WU?$char_traits@_W@std@@V?$K2StringAllocator@_W@@@std@@@2@V?$K2MapAllocator@U?$pair@$$CBV?$basic_string@_WU?$char_traits@_W@std@@V?$K2StringAllocator@_W@@@std@@V12@@std@@@@$0A@@std@@@std@@QAE?AViterator@12@XZ 190e74e0 f i c_entitytool.obj
 0002:0005c530       ?insert@?$_Tree@V?$_Tmap_traits@V?$basic_string@_WU?$char_traits@_W@std@@V?$K2StringAllocator@_W@@@std@@V12@U?$less@V?$basic_string@_WU?$char_traits@_W@std@@V?$K2StringAllocator@_W@@@std@@@2@V?$K2MapAllocator@U?$pair@$$CBV?$basic_string@_WU?$char_traits@_W@std@@V?$K2StringAllocator@_W@@@std@@V12@@std@@@@$0A@@std@@@std@@QAE?AViterator@12@V312@ABU?$pair@$$CBV?$basic_string@_WU?$char_traits@_W@std@@V?$K2StringAllocator@_W@@@std@@V12@@2@@Z 190e7530 f i c_entitytool.obj
 0002:0005d2f0       ?erase@?$_Tree@V?$_Tmap_traits@V?$basic_string@_WU?$char_traits@_W@std@@V?$K2StringAllocator@_W@@@std@@V12@U?$less@V?$basic_string@_WU?$char_traits@_W@std@@V?$K2StringAllocator@_W@@@std@@@2@V?$K2MapAllocator@U?$pair@$$CBV?$basic_string@_WU?$char_traits@_W@std@@V?$K2StringAllocator@_W@@@std@@V12@@std@@@@$0A@@std@@@std@@QAE?AViterator@12@V312@0@Z 190e82f0 f i c_entitytool.obj
 0002:0005d580       ?lower_bound@?$_Tree@V?$_Tmap_traits@V?$basic_string@_WU?$char_traits@_W@std@@V?$K2StringAllocator@_W@@@std@@V12@U?$less@V?$basic_string@_WU?$char_traits@_W@std@@V?$K2StringAllocator@_W@@@std@@@2@V?$K2MapAllocator@U?$pair@$$CBV?$basic_string@_WU?$char_traits@_W@std@@V?$K2StringAllocator@_W@@@std@@V12@@std@@@@$0A@@std@@@std@@QAE?AViterator@12@ABV?$basic_string@_WU?$char_traits@_W@std@@V?$K2StringAllocator@_W@@@2@@Z 190e8580 f i c_entitytool.obj
 0002:0005d5e0       ?lower_bound@?$_Tree@V?$_Tmap_traits@V?$basic_string@_WU?$char_traits@_W@std@@V?$K2StringAllocator@_W@@@std@@V12@U?$less@V?$basic_string@_WU?$char_traits@_W@std@@V?$K2StringAllocator@_W@@@std@@@2@V?$K2MapAllocator@U?$pair@$$CBV?$basic_string@_WU?$char_traits@_W@std@@V?$K2StringAllocator@_W@@@std@@V12@@std@@@@$0A@@std@@@std@@QBE?AVconst_iterator@12@ABV?$basic_string@_WU?$char_traits@_W@std@@V?$K2StringAllocator@_W@@@2@@Z 190e85e0 f i c_entitytool.obj
 0002:0005d640       ?_Copy@?$_Tree@V?$_Tmap_traits@V?$basic_string@_WU?$char_traits@_W@std@@V?$K2StringAllocator@_W@@@std@@V12@U?$less@V?$basic_string@_WU?$char_traits@_W@std@@V?$K2StringAllocator@_W@@@std@@@2@V?$K2MapAllocator@U?$pair@$$CBV?$basic_string@_WU?$char_traits@_W@std@@V?$K2StringAllocator@_W@@@std@@V12@@std@@@@$0A@@std@@@std@@IAEXABV12@@Z 190e8640 f i c_entitytool.obj
 0002:0005d740       ??$_Debug_pointer@V?$_Vector_iterator@V?$basic_string@_WU?$char_traits@_W@std@@V?$K2StringAllocator@_W@@@std@@V?$K2VectorAllocator@V?$basic_string@_WU?$char_traits@_W@std@@V?$K2StringAllocator@_W@@@std@@@@@std@@@std@@YAXAAV?$_Vector_iterator@V?$basic_string@_WU?$char_traits@_W@std@@V?$K2StringAllocator@_W@@@std@@V?$K2VectorAllocator@V?$basic_string@_WU?$char_traits@_W@std@@V?$K2StringAllocator@_W@@@std@@@@@0@PB_WI@Z 190e8740 f i c_entitytool.obj
 0002:0005d760       ??$_Median@V?$_Vector_iterator@V?$basic_string@_WU?$char_traits@_W@std@@V?$K2StringAllocator@_W@@@std@@V?$K2VectorAllocator@V?$basic_string@_WU?$char_traits@_W@std@@V?$K2StringAllocator@_W@@@std@@@@@std@@@std@@YAXV?$_Vector_iterator@V?$basic_string@_WU?$char_traits@_W@std@@V?$K2StringAllocator@_W@@@std@@V?$K2VectorAllocator@V?$basic_string@_WU?$char_traits@_W@std@@V?$K2StringAllocator@_W@@@std@@@@@0@00@Z 190e8760 f i c_entitytool.obj
 0002:0005db20       ??$_Debug_lt@V?$basic_string@_WU?$char_traits@_W@std@@V?$K2StringAllocator@_W@@@std@@V12@@std@@YA_NAAV?$basic_string@_WU?$char_traits@_W@std@@V?$K2StringAllocator@_W@@@0@0PB_WI@Z 190e8b20 f i c_entitytool.obj
 0002:0005dba0       ??$iter_swap@V?$_Vector_iterator@V?$basic_string@_WU?$char_traits@_W@std@@V?$K2StringAllocator@_W@@@std@@V?$K2VectorAllocator@V?$basic_string@_WU?$char_traits@_W@std@@V?$K2StringAllocator@_W@@@std@@@@@std@@V12@@std@@YAXV?$_Vector_iterator@V?$basic_string@_WU?$char_traits@_W@std@@V?$K2StringAllocator@_W@@@std@@V?$K2VectorAllocator@V?$basic_string@_WU?$char_traits@_W@std@@V?$K2StringAllocator@_W@@@std@@@@@0@0@Z 190e8ba0 f i c_entitytool.obj
 0002:0005dc40       ??$_Dist_type@V?$_Vector_iterator@V?$basic_string@_WU?$char_traits@_W@std@@V?$K2StringAllocator@_W@@@std@@V?$K2VectorAllocator@V?$basic_string@_WU?$char_traits@_W@std@@V?$K2StringAllocator@_W@@@std@@@@@std@@@std@@YAPAHV?$_Vector_iterator@V?$basic_string@_WU?$char_traits@_W@std@@V?$K2StringAllocator@_W@@@std@@V?$K2VectorAllocator@V?$basic_string@_WU?$char_traits@_W@std@@V?$K2StringAllocator@_W@@@std@@@@@0@@Z 190e8c40 f i c_entitytool.obj
 0002:0005dc70       ??$_Val_type@V?$_Vector_iterator@V?$basic_string@_WU?$char_traits@_W@std@@V?$K2StringAllocator@_W@@@std@@V?$K2VectorAllocator@V?$basic_string@_WU?$char_traits@_W@std@@V?$K2StringAllocator@_W@@@std@@@@@std@@@std@@YAPAV?$basic_string@_WU?$char_traits@_W@std@@V?$K2StringAllocator@_W@@@0@V?$_Vector_iterator@V?$basic_string@_WU?$char_traits@_W@std@@V?$K2StringAllocator@_W@@@std@@V?$K2VectorAllocator@V?$basic_string@_WU?$char_traits@_W@std@@V?$K2StringAllocator@_W@@@std@@@@@0@@Z 190e8c70 f i c_entitytool.obj
 0002:0005dca0       ??$_Make_heap@V?$_Vector_iterator@V?$basic_string@_WU?$char_traits@_W@std@@V?$K2StringAllocator@_W@@@std@@V?$K2VectorAllocator@V?$basic_string@_WU?$char_traits@_W@std@@V?$K2StringAllocator@_W@@@std@@@@@std@@HV?$basic_string@_WU?$char_traits@_W@std@@V?$K2StringAllocator@_W@@@2@@std@@YAXV?$_Vector_iterator@V?$basic_string@_WU?$char_traits@_W@std@@V?$K2StringAllocator@_W@@@std@@V?$K2VectorAllocator@V?$basic_string@_WU?$char_traits@_W@std@@V?$K2StringAllocator@_W@@@std@@@@@0@0PAHPAV?$basic_string@_WU?$char_traits@_W@std@@V?$K2StringAllocator@_W@@@0@@Z 190e8ca0 f i c_entitytool.obj
 0002:0005ddf0       ??$_Debug_heap@V?$_Vector_iterator@V?$basic_string@_WU?$char_traits@_W@std@@V?$K2StringAllocator@_W@@@std@@V?$K2VectorAllocator@V?$basic_string@_WU?$char_traits@_W@std@@V?$K2StringAllocator@_W@@@std@@@@@std@@@std@@YAXV?$_Vector_iterator@V?$basic_string@_WU?$char_traits@_W@std@@V?$K2StringAllocator@_W@@@std@@V?$K2VectorAllocator@V?$basic_string@_WU?$char_traits@_W@std@@V?$K2StringAllocator@_W@@@std@@@@@0@0@Z 190e8df0 f i c_entitytool.obj
 0002:0005e010       ??$_Sort_heap@V?$_Vector_iterator@V?$basic_string@_WU?$char_traits@_W@std@@V?$K2StringAllocator@_W@@@std@@V?$K2VectorAllocator@V?$basic_string@_WU?$char_traits@_W@std@@V?$K2StringAllocator@_W@@@std@@@@@std@@@std@@YAXV?$_Vector_iterator@V?$basic_string@_WU?$char_traits@_W@std@@V?$K2StringAllocator@_W@@@std@@V?$K2VectorAllocator@V?$basic_string@_WU?$char_traits@_W@std@@V?$K2StringAllocator@_W@@@std@@@@@0@0@Z 190e9010 f i c_entitytool.obj
 0002:0005e150       ??$_Insertion_sort1@V?$_Vector_iterator@V?$basic_string@_WU?$char_traits@_W@std@@V?$K2StringAllocator@_W@@@std@@V?$K2VectorAllocator@V?$basic_string@_WU?$char_traits@_W@std@@V?$K2StringAllocator@_W@@@std@@@@@std@@V?$basic_string@_WU?$char_traits@_W@std@@V?$K2StringAllocator@_W@@@2@@std@@YAXV?$_Vector_iterator@V?$basic_string@_WU?$char_traits@_W@std@@V?$K2StringAllocator@_W@@@std@@V?$K2VectorAllocator@V?$basic_string@_WU?$char_traits@_W@std@@V?$K2StringAllocator@_W@@@std@@@@@0@0PAV?$basic_string@_WU?$char_traits@_W@std@@V?$K2StringAllocator@_W@@@0@@Z 190e9150 f i c_entitytool.obj
 0002:0005e450       ??$_Checked_base@V?$_String_iterator@_WU?$char_traits@_W@std@@V?$K2StringAllocator@_W@@@std@@@std@@YA?AV?$_String_iterator@_WU?$char_traits@_W@std@@V?$K2StringAllocator@_W@@@0@AAV10@@Z 190e9450 f i c_entitytool.obj
 0002:0005e4a0       ??$_Iter_random@V?$_String_iterator@_WU?$char_traits@_W@std@@V?$K2StringAllocator@_W@@@std@@V12@@std@@YA?AUrandom_access_iterator_tag@0@ABV?$_String_iterator@_WU?$char_traits@_W@std@@V?$K2StringAllocator@_W@@@0@0@Z 190e94a0 f i c_entitytool.obj
 0002:0005e4c0       ??0?$pair@$$CBV?$basic_string@_WU?$char_traits@_W@std@@V?$K2StringAllocator@_W@@@std@@V12@@std@@QAE@ABV?$basic_string@_WU?$char_traits@_W@std@@V?$K2StringAllocator@_W@@@1@0@Z 190e94c0 f i c_entitytool.obj
 0002:0005e550       ??$_Transform@V?$_String_iterator@_WU?$char_traits@_W@std@@V?$K2StringAllocator@_W@@@std@@V12@P6AHH@Z@std@@YA?AV?$_String_iterator@_WU?$char_traits@_W@std@@V?$K2StringAllocator@_W@@@0@V10@00P6AHH@ZUrandom_access_iterator_tag@0@U_Range_checked_iterator_tag@0@@Z 190e9550 f i c_entitytool.obj
 0002:0005e6e0       ??Z?$_Vector_iterator@V?$basic_string@_WU?$char_traits@_W@std@@V?$K2StringAllocator@_W@@@std@@V?$K2VectorAllocator@V?$basic_string@_WU?$char_traits@_W@std@@V?$K2StringAllocator@_W@@@std@@@@@std@@QAEAAV01@H@Z 190e96e0 f i c_entitytool.obj
 0002:0005e710       ??D?$_Vector_const_iterator@V?$basic_string@_WU?$char_traits@_W@std@@V?$K2StringAllocator@_W@@@std@@V?$K2VectorAllocator@V?$basic_string@_WU?$char_traits@_W@std@@V?$K2StringAllocator@_W@@@std@@@@@std@@QBEABV?$basic_string@_WU?$char_traits@_W@std@@V?$K2StringAllocator@_W@@@1@XZ 190e9710 f i c_entitytool.obj
 0002:0005e7d0       ??H?$_String_iterator@_WU?$char_traits@_W@std@@V?$K2StringAllocator@_W@@@std@@QBE?AV01@H@Z 190e97d0 f i c_entitytool.obj
 0002:0005e880       ??G?$_String_iterator@_WU?$char_traits@_W@std@@V?$K2StringAllocator@_W@@@std@@QBEHABV?$_String_const_iterator@_WU?$char_traits@_W@std@@V?$K2StringAllocator@_W@@@1@@Z 190e9880 f i c_entitytool.obj
 0002:0005e920       ??G?$_String_const_iterator@_WU?$char_traits@_W@std@@V?$K2StringAllocator@_W@@@std@@QBEHABV01@@Z 190e9920 f i c_entitytool.obj
 0002:0005e960       ??Y?$_String_iterator@_WU?$char_traits@_W@std@@V?$K2StringAllocator@_W@@@std@@QAEAAV01@H@Z 190e9960 f i c_entitytool.obj
 0002:0005e990       ??Y?$_String_const_iterator@_WU?$char_traits@_W@std@@V?$K2StringAllocator@_W@@@std@@QAEAAV01@H@Z 190e9990 f i c_entitytool.obj
 0002:0005eae0       ??$_Med3@V?$_Vector_iterator@V?$basic_string@_WU?$char_traits@_W@std@@V?$K2StringAllocator@_W@@@std@@V?$K2VectorAllocator@V?$basic_string@_WU?$char_traits@_W@std@@V?$K2StringAllocator@_W@@@std@@@@@std@@@std@@YAXV?$_Vector_iterator@V?$basic_string@_WU?$char_traits@_W@std@@V?$K2StringAllocator@_W@@@std@@V?$K2VectorAllocator@V?$basic_string@_WU?$char_traits@_W@std@@V?$K2StringAllocator@_W@@@std@@@@@0@00@Z 190e9ae0 f i c_entitytool.obj
 0002:0005ecf0       ??$_Adjust_heap@V?$_Vector_iterator@V?$basic_string@_WU?$char_traits@_W@std@@V?$K2StringAllocator@_W@@@std@@V?$K2VectorAllocator@V?$basic_string@_WU?$char_traits@_W@std@@V?$K2StringAllocator@_W@@@std@@@@@std@@HV?$basic_string@_WU?$char_traits@_W@std@@V?$K2StringAllocator@_W@@@2@@std@@YAXV?$_Vector_iterator@V?$basic_string@_WU?$char_traits@_W@std@@V?$K2StringAllocator@_W@@@std@@V?$K2VectorAllocator@V?$basic_string@_WU?$char_traits@_W@std@@V?$K2StringAllocator@_W@@@std@@@@@0@HHV?$basic_string@_WU?$char_traits@_W@std@@V?$K2StringAllocator@_W@@@0@@Z 190e9cf0 f i c_entitytool.obj
 0002:0005f070       ??$pop_heap@V?$_Vector_iterator@V?$basic_string@_WU?$char_traits@_W@std@@V?$K2StringAllocator@_W@@@std@@V?$K2VectorAllocator@V?$basic_string@_WU?$char_traits@_W@std@@V?$K2StringAllocator@_W@@@std@@@@@std@@@std@@YAXV?$_Vector_iterator@V?$basic_string@_WU?$char_traits@_W@std@@V?$K2StringAllocator@_W@@@std@@V?$K2VectorAllocator@V?$basic_string@_WU?$char_traits@_W@std@@V?$K2StringAllocator@_W@@@std@@@@@0@0@Z 190ea070 f i c_entitytool.obj
 0002:0005f1d0       ??$unchecked_copy_backward@V?$_Vector_iterator@V?$basic_string@_WU?$char_traits@_W@std@@V?$K2StringAllocator@_W@@@std@@V?$K2VectorAllocator@V?$basic_string@_WU?$char_traits@_W@std@@V?$K2StringAllocator@_W@@@std@@@@@std@@V12@@stdext@@YA?AV?$_Vector_iterator@V?$basic_string@_WU?$char_traits@_W@std@@V?$K2StringAllocator@_W@@@std@@V?$K2VectorAllocator@V?$basic_string@_WU?$char_traits@_W@std@@V?$K2StringAllocator@_W@@@std@@@@@std@@V12@00@Z 190ea1d0 f i c_entitytool.obj
 0002:0005f330       ??$_Checked_base@V?$_String_iterator@_WU?$char_traits@_W@std@@V?$K2StringAllocator@_W@@@std@@@std@@YA?AV?$_String_iterator@_WU?$char_traits@_W@std@@V?$K2StringAllocator@_W@@@0@AAV10@U_Unchanged_checked_iterator_base_type_tag@0@@Z 190ea330 f i c_entitytool.obj
 0002:0005f370       ??$_Transform@V?$_String_iterator@_WU?$char_traits@_W@std@@V?$K2StringAllocator@_W@@@std@@V12@P6AHH@ZUforward_iterator_tag@2@@std@@YA?AV?$_String_iterator@_WU?$char_traits@_W@std@@V?$K2StringAllocator@_W@@@0@V10@00P6AHH@ZUforward_iterator_tag@0@U_Range_checked_iterator_tag@0@@Z 190ea370 f i c_entitytool.obj
 0002:0005f500       ??0const_iterator@?$_Tree@V?$_Tmap_traits@V?$basic_string@_WU?$char_traits@_W@std@@V?$K2StringAllocator@_W@@@std@@V12@U?$less@V?$basic_string@_WU?$char_traits@_W@std@@V?$K2StringAllocator@_W@@@std@@@2@V?$K2MapAllocator@U?$pair@$$CBV?$basic_string@_WU?$char_traits@_W@std@@V?$K2StringAllocator@_W@@@std@@V12@@std@@@@$0A@@std@@@std@@QAE@PAU_Node@?$_Tree_nod@V?$_Tmap_traits@V?$basic_string@_WU?$char_traits@_W@std@@V?$K2StringAllocator@_W@@@std@@V12@U?$less@V?$basic_string@_WU?$char_traits@_W@std@@V?$K2StringAllocator@_W@@@std@@@2@V?$K2MapAllocator@U?$pair@$$CBV?$basic_string@_WU?$char_traits@_W@std@@V?$K2StringAllocator@_W@@@std@@V12@@std@@@@$0A@@std@@@2@PBV12@@Z 190ea500 f i c_entitytool.obj
 0002:0005f590       ??Dconst_iterator@?$_Tree@V?$_Tmap_traits@V?$basic_string@_WU?$char_traits@_W@std@@V?$K2StringAllocator@_W@@@std@@V12@U?$less@V?$basic_string@_WU?$char_traits@_W@std@@V?$K2StringAllocator@_W@@@std@@@2@V?$K2MapAllocator@U?$pair@$$CBV?$basic_string@_WU?$char_traits@_W@std@@V?$K2StringAllocator@_W@@@std@@V12@@std@@@@$0A@@std@@@std@@QBEABU?$pair@$$CBV?$basic_string@_WU?$char_traits@_W@std@@V?$K2StringAllocator@_W@@@std@@V12@@2@XZ 190ea590 f i c_entitytool.obj
 0002:0005f650       ??8const_iterator@?$_Tree@V?$_Tmap_traits@V?$basic_string@_WU?$char_traits@_W@std@@V?$K2StringAllocator@_W@@@std@@V12@U?$less@V?$basic_string@_WU?$char_traits@_W@std@@V?$K2StringAllocator@_W@@@std@@@2@V?$K2MapAllocator@U?$pair@$$CBV?$basic_string@_WU?$char_traits@_W@std@@V?$K2StringAllocator@_W@@@std@@V12@@std@@@@$0A@@std@@@std@@QBE_NABV012@@Z 190ea650 f i c_entitytool.obj
 0002:0005f710       ?_Mynode@const_iterator@?$_Tree@V?$_Tmap_traits@V?$basic_string@_WU?$char_traits@_W@std@@V?$K2StringAllocator@_W@@@std@@V12@U?$less@V?$basic_string@_WU?$char_traits@_W@std@@V?$K2StringAllocator@_W@@@std@@@2@V?$K2MapAllocator@U?$pair@$$CBV?$basic_string@_WU?$char_traits@_W@std@@V?$K2StringAllocator@_W@@@std@@V12@@std@@@@$0A@@std@@@std@@QBEPAU_Node@?$_Tree_nod@V?$_Tmap_traits@V?$basic_string@_WU?$char_traits@_W@std@@V?$K2StringAllocator@_W@@@std@@V12@U?$less@V?$basic_string@_WU?$char_traits@_W@std@@V?$K2StringAllocator@_W@@@std@@@2@V?$K2MapAllocator@U?$pair@$$CBV?$basic_string@_WU?$char_traits@_W@std@@V?$K2StringAllocator@_W@@@std@@V12@@std@@@@$0A@@std@@@3@XZ 190ea710 f i c_entitytool.obj
 0002:0005f730       ??0iterator@?$_Tree@V?$_Tmap_traits@V?$basic_string@_WU?$char_traits@_W@std@@V?$K2StringAllocator@_W@@@std@@V12@U?$less@V?$basic_string@_WU?$char_traits@_W@std@@V?$K2StringAllocator@_W@@@std@@@2@V?$K2MapAllocator@U?$pair@$$CBV?$basic_string@_WU?$char_traits@_W@std@@V?$K2StringAllocator@_W@@@std@@V12@@std@@@@$0A@@std@@@std@@QAE@PAU_Node@?$_Tree_nod@V?$_Tmap_traits@V?$basic_string@_WU?$char_traits@_W@std@@V?$K2StringAllocator@_W@@@std@@V12@U?$less@V?$basic_string@_WU?$char_traits@_W@std@@V?$K2StringAllocator@_W@@@std@@@2@V?$K2MapAllocator@U?$pair@$$CBV?$basic_string@_WU?$char_traits@_W@std@@V?$K2StringAllocator@_W@@@std@@V12@@std@@@@$0A@@std@@@2@PBV12@@Z 190ea730 f i c_entitytool.obj
 0002:0005f770       ??Diterator@?$_Tree@V?$_Tmap_traits@V?$basic_string@_WU?$char_traits@_W@std@@V?$K2StringAllocator@_W@@@std@@V12@U?$less@V?$basic_string@_WU?$char_traits@_W@std@@V?$K2StringAllocator@_W@@@std@@@2@V?$K2MapAllocator@U?$pair@$$CBV?$basic_string@_WU?$char_traits@_W@std@@V?$K2StringAllocator@_W@@@std@@V12@@std@@@@$0A@@std@@@std@@QBEAAU?$pair@$$CBV?$basic_string@_WU?$char_traits@_W@std@@V?$K2StringAllocator@_W@@@std@@V12@@2@XZ 190ea770 f i c_entitytool.obj
 0002:0005f7a0       ??D?$_String_iterator@_WU?$char_traits@_W@std@@V?$K2StringAllocator@_W@@@std@@QBEAA_WXZ 190ea7a0 f i c_entitytool.obj
 0002:0005f7d0       ??E?$_String_iterator@_WU?$char_traits@_W@std@@V?$K2StringAllocator@_W@@@std@@QAEAAV01@XZ 190ea7d0 f i c_entitytool.obj
 0002:0005f800       ??$_Push_heap@V?$_Vector_iterator@V?$basic_string@_WU?$char_traits@_W@std@@V?$K2StringAllocator@_W@@@std@@V?$K2VectorAllocator@V?$basic_string@_WU?$char_traits@_W@std@@V?$K2StringAllocator@_W@@@std@@@@@std@@HV?$basic_string@_WU?$char_traits@_W@std@@V?$K2StringAllocator@_W@@@2@@std@@YAXV?$_Vector_iterator@V?$basic_string@_WU?$char_traits@_W@std@@V?$K2StringAllocator@_W@@@std@@V?$K2VectorAllocator@V?$basic_string@_WU?$char_traits@_W@std@@V?$K2StringAllocator@_W@@@std@@@@@0@HHV?$basic_string@_WU?$char_traits@_W@std@@V?$K2StringAllocator@_W@@@0@@Z 190ea800 f i c_entitytool.obj
 0002:0005fa90       ??0?$pair@Viterator@?$_Tree@V?$_Tset_traits@IU?$less@I@std@@V?$K2SetAllocator@I@@$0A@@std@@@std@@_N@std@@QAE@ABViterator@?$_Tree@V?$_Tset_traits@IU?$less@I@std@@V?$K2SetAllocator@I@@$0A@@std@@@1@AB_N@Z 190eaa90 f i c_entitytool.obj
 0002:0005fad0       ??0iterator@?$_Tree@V?$_Tset_traits@IU?$less@I@std@@V?$K2SetAllocator@I@@$0A@@std@@@std@@QAE@PAU_Node@?$_Tree_nod@V?$_Tset_traits@IU?$less@I@std@@V?$K2SetAllocator@I@@$0A@@std@@@2@PBV12@@Z 190eaad0 f i c_entitytool.obj
 0002:0005fb10       ??Fiterator@?$_Tree@V?$_Tset_traits@IU?$less@I@std@@V?$K2SetAllocator@I@@$0A@@std@@@std@@QAEAAV012@XZ 190eab10 f i c_entitytool.obj
 0002:0005fb40       ??$_Pop_heap_0@V?$_Vector_iterator@V?$basic_string@_WU?$char_traits@_W@std@@V?$K2StringAllocator@_W@@@std@@V?$K2VectorAllocator@V?$basic_string@_WU?$char_traits@_W@std@@V?$K2StringAllocator@_W@@@std@@@@@std@@V?$basic_string@_WU?$char_traits@_W@std@@V?$K2StringAllocator@_W@@@2@@std@@YAXV?$_Vector_iterator@V?$basic_string@_WU?$char_traits@_W@std@@V?$K2StringAllocator@_W@@@std@@V?$K2VectorAllocator@V?$basic_string@_WU?$char_traits@_W@std@@V?$K2StringAllocator@_W@@@std@@@@@0@0PAV?$basic_string@_WU?$char_traits@_W@std@@V?$K2StringAllocator@_W@@@0@@Z 190eab40 f i c_entitytool.obj
 0002:0005fce0       ??8const_iterator@?$_Tree@V?$_Tset_traits@IU?$less@I@std@@V?$K2SetAllocator@I@@$0A@@std@@@std@@QBE_NABV012@@Z 190eace0 f i c_entitytool.obj
 0002:0005fda0       ?_Mynode@const_iterator@?$_Tree@V?$_Tset_traits@IU?$less@I@std@@V?$K2SetAllocator@I@@$0A@@std@@@std@@QBEPAU_Node@?$_Tree_nod@V?$_Tset_traits@IU?$less@I@std@@V?$K2SetAllocator@I@@$0A@@std@@@3@XZ 190eada0 f i c_entitytool.obj
 0002:0005fdc0       ??$_Iter_random@V?$_Vector_iterator@V?$basic_string@_WU?$char_traits@_W@std@@V?$K2StringAllocator@_W@@@std@@V?$K2VectorAllocator@V?$basic_string@_WU?$char_traits@_W@std@@V?$K2StringAllocator@_W@@@std@@@@@std@@V12@@std@@YA?AUrandom_access_iterator_tag@0@ABV?$_Vector_iterator@V?$basic_string@_WU?$char_traits@_W@std@@V?$K2StringAllocator@_W@@@std@@V?$K2VectorAllocator@V?$basic_string@_WU?$char_traits@_W@std@@V?$K2StringAllocator@_W@@@std@@@@@0@0@Z 190eadc0 f i c_entitytool.obj
 0002:0005fde0       ??$_Ptr_cat@V?$_Vector_iterator@V?$basic_string@_WU?$char_traits@_W@std@@V?$K2StringAllocator@_W@@@std@@V?$K2VectorAllocator@V?$basic_string@_WU?$char_traits@_W@std@@V?$K2StringAllocator@_W@@@std@@@@@std@@V12@@std@@YA?AU_Nonscalar_ptr_iterator_tag@0@AAV?$_Vector_iterator@V?$basic_string@_WU?$char_traits@_W@std@@V?$K2StringAllocator@_W@@@std@@V?$K2VectorAllocator@V?$basic_string@_WU?$char_traits@_W@std@@V?$K2StringAllocator@_W@@@std@@@@@0@0@Z 190eade0 f i c_entitytool.obj
 0002:0005fe00       ??$_Copy_backward_opt@V?$_Vector_iterator@V?$basic_string@_WU?$char_traits@_W@std@@V?$K2StringAllocator@_W@@@std@@V?$K2VectorAllocator@V?$basic_string@_WU?$char_traits@_W@std@@V?$K2StringAllocator@_W@@@std@@@@@std@@V12@@std@@YA?AV?$_Vector_iterator@V?$basic_string@_WU?$char_traits@_W@std@@V?$K2StringAllocator@_W@@@std@@V?$K2VectorAllocator@V?$basic_string@_WU?$char_traits@_W@std@@V?$K2StringAllocator@_W@@@std@@@@@0@V10@00Urandom_access_iterator_tag@0@U_Nonscalar_ptr_iterator_tag@0@U_Range_checked_iterator_tag@0@@Z 190eae00 f i c_entitytool.obj
 0002:0005ffa0       ??$_Debug_range@V?$_String_iterator@_WU?$char_traits@_W@std@@V?$K2StringAllocator@_W@@@std@@@std@@YAXV?$_String_iterator@_WU?$char_traits@_W@std@@V?$K2StringAllocator@_W@@@0@0PB_WI@Z 190eafa0 f i c_entitytool.obj
 0002:00060090       ??$_Debug_pointer@V?$_String_iterator@_WU?$char_traits@_W@std@@V?$K2StringAllocator@_W@@@std@@@std@@YAXAAV?$_String_iterator@_WU?$char_traits@_W@std@@V?$K2StringAllocator@_W@@@0@PB_WI@Z 190eb090 f i c_entitytool.obj
 0002:000600b0       ??$_Debug_pointer@$$A6AHH@Z@std@@YAXP6AHH@ZPB_WI@Z 190eb0b0 f i c_entitytool.obj
 0002:000600f0       ??$_Pop_heap@V?$_Vector_iterator@V?$basic_string@_WU?$char_traits@_W@std@@V?$K2StringAllocator@_W@@@std@@V?$K2VectorAllocator@V?$basic_string@_WU?$char_traits@_W@std@@V?$K2StringAllocator@_W@@@std@@@@@std@@HV?$basic_string@_WU?$char_traits@_W@std@@V?$K2StringAllocator@_W@@@2@@std@@YAXV?$_Vector_iterator@V?$basic_string@_WU?$char_traits@_W@std@@V?$K2StringAllocator@_W@@@std@@V?$K2VectorAllocator@V?$basic_string@_WU?$char_traits@_W@std@@V?$K2StringAllocator@_W@@@std@@@@@0@00V?$basic_string@_WU?$char_traits@_W@std@@V?$K2StringAllocator@_W@@@0@PAH@Z 190eb0f0 f i c_entitytool.obj
 0002:00060200       ??$_Copy_backward_opt@V?$_Vector_iterator@V?$basic_string@_WU?$char_traits@_W@std@@V?$K2StringAllocator@_W@@@std@@V?$K2VectorAllocator@V?$basic_string@_WU?$char_traits@_W@std@@V?$K2StringAllocator@_W@@@std@@@@@std@@V12@Uforward_iterator_tag@2@@std@@YA?AV?$_Vector_iterator@V?$basic_string@_WU?$char_traits@_W@std@@V?$K2StringAllocator@_W@@@std@@V?$K2VectorAllocator@V?$basic_string@_WU?$char_traits@_W@std@@V?$K2StringAllocator@_W@@@std@@@@@0@V10@00Uforward_iterator_tag@0@U_Nonscalar_ptr_iterator_tag@0@U_Range_checked_iterator_tag@0@@Z 190eb200 f i c_entitytool.obj
 0002:00060350       ??$_Iter_cat@V?$_String_iterator@_WU?$char_traits@_W@std@@V?$K2StringAllocator@_W@@@std@@@std@@YA?AUrandom_access_iterator_tag@0@ABV?$_String_iterator@_WU?$char_traits@_W@std@@V?$K2StringAllocator@_W@@@0@@Z 190eb350 f i c_entitytool.obj
 0002:00060370       ??$_Debug_range2@V?$_String_iterator@_WU?$char_traits@_W@std@@V?$K2StringAllocator@_W@@@std@@@std@@YAXV?$_String_iterator@_WU?$char_traits@_W@std@@V?$K2StringAllocator@_W@@@0@0PB_WIUrandom_access_iterator_tag@0@@Z 190eb370 f i c_entitytool.obj
 0002:00060460       ??M?$_String_const_iterator@_WU?$char_traits@_W@std@@V?$K2StringAllocator@_W@@@std@@QBE_NABV01@@Z 190eb460 f i c_entitytool.obj
 0002:000604a0       ??0?$_String_const_iterator@_WU?$char_traits@_W@std@@V?$K2StringAllocator@_W@@@std@@QAE@ABV01@@Z 190eb4a0 f i c_entitytool.obj
 0002:000604e0       ??1?$pair@Viterator@?$_Tree@V?$_Tmap_traits@V?$basic_string@_WU?$char_traits@_W@std@@V?$K2StringAllocator@_W@@@std@@V12@U?$less@V?$basic_string@_WU?$char_traits@_W@std@@V?$K2StringAllocator@_W@@@std@@@2@V?$K2MapAllocator@U?$pair@$$CBV?$basic_string@_WU?$char_traits@_W@std@@V?$K2StringAllocator@_W@@@std@@V12@@std@@@@$0A@@std@@@std@@_N@std@@QAE@XZ 190eb4e0 f i c_entitytool.obj
 0002:00060510       ??0?$_Bidit@U?$pair@$$CBV?$basic_string@_WU?$char_traits@_W@std@@V?$K2StringAllocator@_W@@@std@@V12@@std@@HPBU12@ABU12@@std@@QAE@XZ 190eb510 f i c_entitytool.obj
 0002:00060540       ??0iterator@?$_Tree@V?$_Tset_traits@IU?$less@I@std@@V?$K2SetAllocator@I@@$0A@@std@@@std@@QAE@ABV012@@Z 190eb540 f i c_entitytool.obj
 0002:00060570       ??0?$_Ranit_base@_WHPB_WAB_WV_Iterator_base@std@@@std@@QAE@ABU01@@Z 190eb570 f i c_entitytool.obj
 0002:000605a0       ??0const_iterator@?$_Tree@V?$_Tset_traits@IU?$less@I@std@@V?$K2SetAllocator@I@@$0A@@std@@@std@@QAE@ABV012@@Z 190eb5a0 f i c_entitytool.obj
 0002:000605e0       ??0?$_Bidit@IHPBIABI@std@@QAE@ABU01@@Z 190eb5e0 f i c_entitytool.obj
 0002:00060610       ?_Insert_n@?$vector@IV?$K2VectorAllocator@I@@@std@@IAEXV?$_Vector_iterator@IV?$K2VectorAllocator@I@@@2@IABI@Z 190eb610 f i c_entitytool.obj
 0002:00060ac0       ?_Color@?$_Tree@V?$_Tset_traits@IU?$less@I@std@@V?$K2SetAllocator@I@@$0A@@std@@@std@@KAAADPAU_Node@?$_Tree_nod@V?$_Tset_traits@IU?$less@I@std@@V?$K2SetAllocator@I@@$0A@@std@@@2@@Z 190ebac0 f i c_entitytool.obj
 0002:00060ae0       ?_Parent@?$_Tree@V?$_Tset_traits@IU?$less@I@std@@V?$K2SetAllocator@I@@$0A@@std@@@std@@KAAAPAU_Node@?$_Tree_nod@V?$_Tset_traits@IU?$less@I@std@@V?$K2SetAllocator@I@@$0A@@std@@@2@PAU342@@Z 190ebae0 f i c_entitytool.obj
 0002:00060b00       ?_Myval@?$_Tree@V?$_Tset_traits@IU?$less@I@std@@V?$K2SetAllocator@I@@$0A@@std@@@std@@KAAAIPAU_Node@?$_Tree_nod@V?$_Tset_traits@IU?$less@I@std@@V?$K2SetAllocator@I@@$0A@@std@@@2@@Z 190ebb00 f i c_entitytool.obj
 0002:00060b20       ?max_size@?$_Tree@V?$_Tset_traits@IU?$less@I@std@@V?$K2SetAllocator@I@@$0A@@std@@@std@@QBEIXZ 190ebb20 f i c_entitytool.obj
 0002:00060b50       ?_Lrotate@?$_Tree@V?$_Tset_traits@IU?$less@I@std@@V?$K2SetAllocator@I@@$0A@@std@@@std@@IAEXPAU_Node@?$_Tree_nod@V?$_Tset_traits@IU?$less@I@std@@V?$K2SetAllocator@I@@$0A@@std@@@2@@Z 190ebb50 f i c_entitytool.obj
 0002:00060ce0       ?_Rrotate@?$_Tree@V?$_Tset_traits@IU?$less@I@std@@V?$K2SetAllocator@I@@$0A@@std@@@std@@IAEXPAU_Node@?$_Tree_nod@V?$_Tset_traits@IU?$less@I@std@@V?$K2SetAllocator@I@@$0A@@std@@@2@@Z 190ebce0 f i c_entitytool.obj
 0002:00060e70       ?_Buynode@?$_Tree@V?$_Tset_traits@IU?$less@I@std@@V?$K2SetAllocator@I@@$0A@@std@@@std@@IAEPAU_Node@?$_Tree_nod@V?$_Tset_traits@IU?$less@I@std@@V?$K2SetAllocator@I@@$0A@@std@@@2@PAU342@00ABID@Z 190ebe70 f i c_entitytool.obj
 0002:00060f90       ?deallocate@?$K2SetAllocator@U_Node@?$_Tree_nod@V?$_Tset_traits@IU?$less@I@std@@V?$K2SetAllocator@I@@$0A@@std@@@std@@@@QAEXPAU_Node@?$_Tree_nod@V?$_Tset_traits@IU?$less@I@std@@V?$K2SetAllocator@I@@$0A@@std@@@std@@I@Z 190ebf90 f i c_entitytool.obj
 0002:00060fd0       ?destroy@?$allocator@U_Node@?$_Tree_nod@V?$_Tset_traits@IU?$less@I@std@@V?$K2SetAllocator@I@@$0A@@std@@@std@@@std@@QAEXPAU_Node@?$_Tree_nod@V?$_Tset_traits@IU?$less@I@std@@V?$K2SetAllocator@I@@$0A@@std@@@2@@Z 190ebfd0 f i c_entitytool.obj
 0002:00061000       ?_Isnil@?$_Tree@V?$_Tmap_traits@V?$basic_string@_WU?$char_traits@_W@std@@V?$K2StringAllocator@_W@@@std@@V12@U?$less@V?$basic_string@_WU?$char_traits@_W@std@@V?$K2StringAllocator@_W@@@std@@@2@V?$K2MapAllocator@U?$pair@$$CBV?$basic_string@_WU?$char_traits@_W@std@@V?$K2StringAllocator@_W@@@std@@V12@@std@@@@$0A@@std@@@std@@KAAADPAU_Node@?$_Tree_nod@V?$_Tmap_traits@V?$basic_string@_WU?$char_traits@_W@std@@V?$K2StringAllocator@_W@@@std@@V12@U?$less@V?$basic_string@_WU?$char_traits@_W@std@@V?$K2StringAllocator@_W@@@std@@@2@V?$K2MapAllocator@U?$pair@$$CBV?$basic_string@_WU?$char_traits@_W@std@@V?$K2StringAllocator@_W@@@std@@V12@@std@@@@$0A@@std@@@2@@Z 190ec000 f i c_entitytool.obj
 0002:00061020       ?_Right@?$_Tree@V?$_Tmap_traits@V?$basic_string@_WU?$char_traits@_W@std@@V?$K2StringAllocator@_W@@@std@@V12@U?$less@V?$basic_string@_WU?$char_traits@_W@std@@V?$K2StringAllocator@_W@@@std@@@2@V?$K2MapAllocator@U?$pair@$$CBV?$basic_string@_WU?$char_traits@_W@std@@V?$K2StringAllocator@_W@@@std@@V12@@std@@@@$0A@@std@@@std@@KAAAPAU_Node@?$_Tree_nod@V?$_Tmap_traits@V?$basic_string@_WU?$char_traits@_W@std@@V?$K2StringAllocator@_W@@@std@@V12@U?$less@V?$basic_string@_WU?$char_traits@_W@std@@V?$K2StringAllocator@_W@@@std@@@2@V?$K2MapAllocator@U?$pair@$$CBV?$basic_string@_WU?$char_traits@_W@std@@V?$K2StringAllocator@_W@@@std@@V12@@std@@@@$0A@@std@@@2@PAU342@@Z 190ec020 f i c_entitytool.obj
 0002:00061040       ?_Myval@?$_Tree@V?$_Tmap_traits@V?$basic_string@_WU?$char_traits@_W@std@@V?$K2StringAllocator@_W@@@std@@V12@U?$less@V?$basic_string@_WU?$char_traits@_W@std@@V?$K2StringAllocator@_W@@@std@@@2@V?$K2MapAllocator@U?$pair@$$CBV?$basic_string@_WU?$char_traits@_W@std@@V?$K2StringAllocator@_W@@@std@@V12@@std@@@@$0A@@std@@@std@@KAAAU?$pair@$$CBV?$basic_string@_WU?$char_traits@_W@std@@V?$K2StringAllocator@_W@@@std@@V12@@2@PAU_Node@?$_Tree_nod@V?$_Tmap_traits@V?$basic_string@_WU?$char_traits@_W@std@@V?$K2StringAllocator@_W@@@std@@V12@U?$less@V?$basic_string@_WU?$char_traits@_W@std@@V?$K2StringAllocator@_W@@@std@@@2@V?$K2MapAllocator@U?$pair@$$CBV?$basic_string@_WU?$char_traits@_W@std@@V?$K2StringAllocator@_W@@@std@@V12@@std@@@@$0A@@std@@@2@@Z 190ec040 f i c_entitytool.obj
 0002:00061060       ?size@?$_Tree@V?$_Tmap_traits@V?$basic_string@_WU?$char_traits@_W@std@@V?$K2StringAllocator@_W@@@std@@V12@U?$less@V?$basic_string@_WU?$char_traits@_W@std@@V?$K2StringAllocator@_W@@@std@@@2@V?$K2MapAllocator@U?$pair@$$CBV?$basic_string@_WU?$char_traits@_W@std@@V?$K2StringAllocator@_W@@@std@@V12@@std@@@@$0A@@std@@@std@@QBEIXZ 190ec060 f i c_entitytool.obj
 0002:00061080       ?insert@?$_Tree@V?$_Tmap_traits@V?$basic_string@_WU?$char_traits@_W@std@@V?$K2StringAllocator@_W@@@std@@V12@U?$less@V?$basic_string@_WU?$char_traits@_W@std@@V?$K2StringAllocator@_W@@@std@@@2@V?$K2MapAllocator@U?$pair@$$CBV?$basic_string@_WU?$char_traits@_W@std@@V?$K2StringAllocator@_W@@@std@@V12@@std@@@@$0A@@std@@@std@@QAE?AU?$pair@Viterator@?$_Tree@V?$_Tmap_traits@V?$basic_string@_WU?$char_traits@_W@std@@V?$K2StringAllocator@_W@@@std@@V12@U?$less@V?$basic_string@_WU?$char_traits@_W@std@@V?$K2StringAllocator@_W@@@std@@@2@V?$K2MapAllocator@U?$pair@$$CBV?$basic_string@_WU?$char_traits@_W@std@@V?$K2StringAllocator@_W@@@std@@V12@@std@@@@$0A@@std@@@std@@_N@2@ABU?$pair@$$CBV?$basic_string@_WU?$char_traits@_W@std@@V?$K2StringAllocator@_W@@@std@@V12@@2@@Z 190ec080 f i c_entitytool.obj
 0002:000614a0       ?_Left@?$_Tree@V?$_Tmap_traits@V?$basic_string@_WU?$char_traits@_W@std@@V?$K2StringAllocator@_W@@@std@@V12@U?$less@V?$basic_string@_WU?$char_traits@_W@std@@V?$K2StringAllocator@_W@@@std@@@2@V?$K2MapAllocator@U?$pair@$$CBV?$basic_string@_WU?$char_traits@_W@std@@V?$K2StringAllocator@_W@@@std@@V12@@std@@@@$0A@@std@@@std@@KAAAPAU_Node@?$_Tree_nod@V?$_Tmap_traits@V?$basic_string@_WU?$char_traits@_W@std@@V?$K2StringAllocator@_W@@@std@@V12@U?$less@V?$basic_string@_WU?$char_traits@_W@std@@V?$K2StringAllocator@_W@@@std@@@2@V?$K2MapAllocator@U?$pair@$$CBV?$basic_string@_WU?$char_traits@_W@std@@V?$K2StringAllocator@_W@@@std@@V12@@std@@@@$0A@@std@@@2@PAU342@@Z 190ec4a0 f i c_entitytool.obj
 0002:000614c0       ?erase@?$_Tree@V?$_Tmap_traits@V?$basic_string@_WU?$char_traits@_W@std@@V?$K2StringAllocator@_W@@@std@@V12@U?$less@V?$basic_string@_WU?$char_traits@_W@std@@V?$K2StringAllocator@_W@@@std@@@2@V?$K2MapAllocator@U?$pair@$$CBV?$basic_string@_WU?$char_traits@_W@std@@V?$K2StringAllocator@_W@@@std@@V12@@std@@@@$0A@@std@@@std@@QAE?AViterator@12@V312@@Z 190ec4c0 f i c_entitytool.obj
 0002:00061ea0       ?_Parent@?$_Tree@V?$_Tmap_traits@V?$basic_string@_WU?$char_traits@_W@std@@V?$K2StringAllocator@_W@@@std@@V12@U?$less@V?$basic_string@_WU?$char_traits@_W@std@@V?$K2StringAllocator@_W@@@std@@@2@V?$K2MapAllocator@U?$pair@$$CBV?$basic_string@_WU?$char_traits@_W@std@@V?$K2StringAllocator@_W@@@std@@V12@@std@@@@$0A@@std@@@std@@KAAAPAU_Node@?$_Tree_nod@V?$_Tmap_traits@V?$basic_string@_WU?$char_traits@_W@std@@V?$K2StringAllocator@_W@@@std@@V12@U?$less@V?$basic_string@_WU?$char_traits@_W@std@@V?$K2StringAllocator@_W@@@std@@@2@V?$K2MapAllocator@U?$pair@$$CBV?$basic_string@_WU?$char_traits@_W@std@@V?$K2StringAllocator@_W@@@std@@V12@@std@@@@$0A@@std@@@2@PAU342@@Z 190ecea0 f i c_entitytool.obj
 0002:00061ec0       ?clear@?$_Tree@V?$_Tmap_traits@V?$basic_string@_WU?$char_traits@_W@std@@V?$K2StringAllocator@_W@@@std@@V12@U?$less@V?$basic_string@_WU?$char_traits@_W@std@@V?$K2StringAllocator@_W@@@std@@@2@V?$K2MapAllocator@U?$pair@$$CBV?$basic_string@_WU?$char_traits@_W@std@@V?$K2StringAllocator@_W@@@std@@V12@@std@@@@$0A@@std@@@std@@QAEXXZ 190ecec0 f i c_entitytool.obj
 0002:00061f50       ?_Copy@?$_Tree@V?$_Tmap_traits@V?$basic_string@_WU?$char_traits@_W@std@@V?$K2StringAllocator@_W@@@std@@V12@U?$less@V?$basic_string@_WU?$char_traits@_W@std@@V?$K2StringAllocator@_W@@@std@@@2@V?$K2MapAllocator@U?$pair@$$CBV?$basic_string@_WU?$char_traits@_W@std@@V?$K2StringAllocator@_W@@@std@@V12@@std@@@@$0A@@std@@@std@@IAEPAU_Node@?$_Tree_nod@V?$_Tmap_traits@V?$basic_string@_WU?$char_traits@_W@std@@V?$K2StringAllocator@_W@@@std@@V12@U?$less@V?$basic_string@_WU?$char_traits@_W@std@@V?$K2StringAllocator@_W@@@std@@@2@V?$K2MapAllocator@U?$pair@$$CBV?$basic_string@_WU?$char_traits@_W@std@@V?$K2StringAllocator@_W@@@std@@V12@@std@@@@$0A@@std@@@2@PAU342@0@Z 190ecf50 f i c_entitytool.obj
 0002:00062110       ?_Insert@?$_Tree@V?$_Tmap_traits@V?$basic_string@_WU?$char_traits@_W@std@@V?$K2StringAllocator@_W@@@std@@V12@U?$less@V?$basic_string@_WU?$char_traits@_W@std@@V?$K2StringAllocator@_W@@@std@@@2@V?$K2MapAllocator@U?$pair@$$CBV?$basic_string@_WU?$char_traits@_W@std@@V?$K2StringAllocator@_W@@@std@@V12@@std@@@@$0A@@std@@@std@@IAE?AViterator@12@_NPAU_Node@?$_Tree_nod@V?$_Tmap_traits@V?$basic_string@_WU?$char_traits@_W@std@@V?$K2StringAllocator@_W@@@std@@V12@U?$less@V?$basic_string@_WU?$char_traits@_W@std@@V?$K2StringAllocator@_W@@@std@@@2@V?$K2MapAllocator@U?$pair@$$CBV?$basic_string@_WU?$char_traits@_W@std@@V?$K2StringAllocator@_W@@@std@@V12@@std@@@@$0A@@std@@@2@ABU?$pair@$$CBV?$basic_string@_WU?$char_traits@_W@std@@V?$K2StringAllocator@_W@@@std@@V12@@2@@Z 190ed110 f i c_entitytool.obj
 0002:000626d0       ?_Lbound@?$_Tree@V?$_Tmap_traits@V?$basic_string@_WU?$char_traits@_W@std@@V?$K2StringAllocator@_W@@@std@@V12@U?$less@V?$basic_string@_WU?$char_traits@_W@std@@V?$K2StringAllocator@_W@@@std@@@2@V?$K2MapAllocator@U?$pair@$$CBV?$basic_string@_WU?$char_traits@_W@std@@V?$K2StringAllocator@_W@@@std@@V12@@std@@@@$0A@@std@@@std@@IBEPAU_Node@?$_Tree_nod@V?$_Tmap_traits@V?$basic_string@_WU?$char_traits@_W@std@@V?$K2StringAllocator@_W@@@std@@V12@U?$less@V?$basic_string@_WU?$char_traits@_W@std@@V?$K2StringAllocator@_W@@@std@@@2@V?$K2MapAllocator@U?$pair@$$CBV?$basic_string@_WU?$char_traits@_W@std@@V?$K2StringAllocator@_W@@@std@@V12@@std@@@@$0A@@std@@@2@ABV?$basic_string@_WU?$char_traits@_W@std@@V?$K2StringAllocator@_W@@@2@@Z 190ed6d0 f i c_entitytool.obj
 0002:000627a0       ?_Lmost@?$_Tree@V?$_Tmap_traits@V?$basic_string@_WU?$char_traits@_W@std@@V?$K2StringAllocator@_W@@@std@@V12@U?$less@V?$basic_string@_WU?$char_traits@_W@std@@V?$K2StringAllocator@_W@@@std@@@2@V?$K2MapAllocator@U?$pair@$$CBV?$basic_string@_WU?$char_traits@_W@std@@V?$K2StringAllocator@_W@@@std@@V12@@std@@@@$0A@@std@@@std@@IBEAAPAU_Node@?$_Tree_nod@V?$_Tmap_traits@V?$basic_string@_WU?$char_traits@_W@std@@V?$K2StringAllocator@_W@@@std@@V12@U?$less@V?$basic_string@_WU?$char_traits@_W@std@@V?$K2StringAllocator@_W@@@std@@@2@V?$K2MapAllocator@U?$pair@$$CBV?$basic_string@_WU?$char_traits@_W@std@@V?$K2StringAllocator@_W@@@std@@V12@@std@@@@$0A@@std@@@2@XZ 190ed7a0 f i c_entitytool.obj
 0002:000627d0       ?_Max@?$_Tree@V?$_Tmap_traits@V?$basic_string@_WU?$char_traits@_W@std@@V?$K2StringAllocator@_W@@@std@@V12@U?$less@V?$basic_string@_WU?$char_traits@_W@std@@V?$K2StringAllocator@_W@@@std@@@2@V?$K2MapAllocator@U?$pair@$$CBV?$basic_string@_WU?$char_traits@_W@std@@V?$K2StringAllocator@_W@@@std@@V12@@std@@@@$0A@@std@@@std@@KAPAU_Node@?$_Tree_nod@V?$_Tmap_traits@V?$basic_string@_WU?$char_traits@_W@std@@V?$K2StringAllocator@_W@@@std@@V12@U?$less@V?$basic_string@_WU?$char_traits@_W@std@@V?$K2StringAllocator@_W@@@std@@@2@V?$K2MapAllocator@U?$pair@$$CBV?$basic_string@_WU?$char_traits@_W@std@@V?$K2StringAllocator@_W@@@std@@V12@@std@@@@$0A@@std@@@2@PAU342@@Z 190ed7d0 f i c_entitytool.obj
 0002:00062830       ?_Min@?$_Tree@V?$_Tmap_traits@V?$basic_string@_WU?$char_traits@_W@std@@V?$K2StringAllocator@_W@@@std@@V12@U?$less@V?$basic_string@_WU?$char_traits@_W@std@@V?$K2StringAllocator@_W@@@std@@@2@V?$K2MapAllocator@U?$pair@$$CBV?$basic_string@_WU?$char_traits@_W@std@@V?$K2StringAllocator@_W@@@std@@V12@@std@@@@$0A@@std@@@std@@KAPAU_Node@?$_Tree_nod@V?$_Tmap_traits@V?$basic_string@_WU?$char_traits@_W@std@@V?$K2StringAllocator@_W@@@std@@V12@U?$less@V?$basic_string@_WU?$char_traits@_W@std@@V?$K2StringAllocator@_W@@@std@@@2@V?$K2MapAllocator@U?$pair@$$CBV?$basic_string@_WU?$char_traits@_W@std@@V?$K2StringAllocator@_W@@@std@@V12@@std@@@@$0A@@std@@@2@PAU342@@Z 190ed830 f i c_entitytool.obj
 0002:00062890       ?_Rmost@?$_Tree@V?$_Tmap_traits@V?$basic_string@_WU?$char_traits@_W@std@@V?$K2StringAllocator@_W@@@std@@V12@U?$less@V?$basic_string@_WU?$char_traits@_W@std@@V?$K2StringAllocator@_W@@@std@@@2@V?$K2MapAllocator@U?$pair@$$CBV?$basic_string@_WU?$char_traits@_W@std@@V?$K2StringAllocator@_W@@@std@@V12@@std@@@@$0A@@std@@@std@@IBEAAPAU_Node@?$_Tree_nod@V?$_Tmap_traits@V?$basic_string@_WU?$char_traits@_W@std@@V?$K2StringAllocator@_W@@@std@@V12@U?$less@V?$basic_string@_WU?$char_traits@_W@std@@V?$K2StringAllocator@_W@@@std@@@2@V?$K2MapAllocator@U?$pair@$$CBV?$basic_string@_WU?$char_traits@_W@std@@V?$K2StringAllocator@_W@@@std@@V12@@std@@@@$0A@@std@@@2@XZ 190ed890 f i c_entitytool.obj
 0002:000628c0       ?_Root@?$_Tree@V?$_Tmap_traits@V?$basic_string@_WU?$char_traits@_W@std@@V?$K2StringAllocator@_W@@@std@@V12@U?$less@V?$basic_string@_WU?$char_traits@_W@std@@V?$K2StringAllocator@_W@@@std@@@2@V?$K2MapAllocator@U?$pair@$$CBV?$basic_string@_WU?$char_traits@_W@std@@V?$K2StringAllocator@_W@@@std@@V12@@std@@@@$0A@@std@@@std@@IBEAAPAU_Node@?$_Tree_nod@V?$_Tmap_traits@V?$basic_string@_WU?$char_traits@_W@std@@V?$K2StringAllocator@_W@@@std@@V12@U?$less@V?$basic_string@_WU?$char_traits@_W@std@@V?$K2StringAllocator@_W@@@std@@@2@V?$K2MapAllocator@U?$pair@$$CBV?$basic_string@_WU?$char_traits@_W@std@@V?$K2StringAllocator@_W@@@std@@V12@@std@@@@$0A@@std@@@2@XZ 190ed8c0 f i c_entitytool.obj
 0002:000628f0       ?_Kfn@?$_Tmap_traits@V?$basic_string@_WU?$char_traits@_W@std@@V?$K2StringAllocator@_W@@@std@@V12@U?$less@V?$basic_string@_WU?$char_traits@_W@std@@V?$K2StringAllocator@_W@@@std@@@2@V?$K2MapAllocator@U?$pair@$$CBV?$basic_string@_WU?$char_traits@_W@std@@V?$K2StringAllocator@_W@@@std@@V12@@std@@@@$0A@@std@@SAABV?$basic_string@_WU?$char_traits@_W@std@@V?$K2StringAllocator@_W@@@2@ABU?$pair@$$CBV?$basic_string@_WU?$char_traits@_W@std@@V?$K2StringAllocator@_W@@@std@@V12@@2@@Z 190ed8f0 f i c_entitytool.obj
 0002:00062910       ?deallocate@?$K2MapAllocator@U_Node@?$_Tree_nod@V?$_Tmap_traits@V?$basic_string@_WU?$char_traits@_W@std@@V?$K2StringAllocator@_W@@@std@@V12@U?$less@V?$basic_string@_WU?$char_traits@_W@std@@V?$K2StringAllocator@_W@@@std@@@2@V?$K2MapAllocator@U?$pair@$$CBV?$basic_string@_WU?$char_traits@_W@std@@V?$K2StringAllocator@_W@@@std@@V12@@std@@@@$0A@@std@@@std@@@@QAEXPAU_Node@?$_Tree_nod@V?$_Tmap_traits@V?$basic_string@_WU?$char_traits@_W@std@@V?$K2StringAllocator@_W@@@std@@V12@U?$less@V?$basic_string@_WU?$char_traits@_W@std@@V?$K2StringAllocator@_W@@@std@@@2@V?$K2MapAllocator@U?$pair@$$CBV?$basic_string@_WU?$char_traits@_W@std@@V?$K2StringAllocator@_W@@@std@@V12@@std@@@@$0A@@std@@@std@@I@Z 190ed910 f i c_entitytool.obj
 0002:00062950       ??9?$_Vector_const_iterator@V?$basic_string@_WU?$char_traits@_W@std@@V?$K2StringAllocator@_W@@@std@@V?$K2VectorAllocator@V?$basic_string@_WU?$char_traits@_W@std@@V?$K2StringAllocator@_W@@@std@@@@@std@@QBE_NABV01@@Z 190ed950 f i c_entitytool.obj
 0002:00062990       ??M?$_Vector_const_iterator@V?$basic_string@_WU?$char_traits@_W@std@@V?$K2StringAllocator@_W@@@std@@V?$K2VectorAllocator@V?$basic_string@_WU?$char_traits@_W@std@@V?$K2StringAllocator@_W@@@std@@@@@std@@QBE_NABV01@@Z 190ed990 f i c_entitytool.obj
 0002:000629d0       ??0iterator@?$_Tree@V?$_Tmap_traits@V?$basic_string@_WU?$char_traits@_W@std@@V?$K2StringAllocator@_W@@@std@@V12@U?$less@V?$basic_string@_WU?$char_traits@_W@std@@V?$K2StringAllocator@_W@@@std@@@2@V?$K2MapAllocator@U?$pair@$$CBV?$basic_string@_WU?$char_traits@_W@std@@V?$K2StringAllocator@_W@@@std@@V12@@std@@@@$0A@@std@@@std@@QAE@XZ 190ed9d0 f i c_entitytool.obj
 0002:00062a00       ??Eiterator@?$_Tree@V?$_Tmap_traits@V?$basic_string@_WU?$char_traits@_W@std@@V?$K2StringAllocator@_W@@@std@@V12@U?$less@V?$basic_string@_WU?$char_traits@_W@std@@V?$K2StringAllocator@_W@@@std@@@2@V?$K2MapAllocator@U?$pair@$$CBV?$basic_string@_WU?$char_traits@_W@std@@V?$K2StringAllocator@_W@@@std@@V12@@std@@@@$0A@@std@@@std@@QAEAAV012@XZ 190eda00 f i c_entitytool.obj
 0002:00062a30       ??Eiterator@?$_Tree@V?$_Tmap_traits@V?$basic_string@_WU?$char_traits@_W@std@@V?$K2StringAllocator@_W@@@std@@V12@U?$less@V?$basic_string@_WU?$char_traits@_W@std@@V?$K2StringAllocator@_W@@@std@@@2@V?$K2MapAllocator@U?$pair@$$CBV?$basic_string@_WU?$char_traits@_W@std@@V?$K2StringAllocator@_W@@@std@@V12@@std@@@@$0A@@std@@@std@@QAE?AV012@H@Z 190eda30 f i c_entitytool.obj
 0002:00062ae0       ??Fiterator@?$_Tree@V?$_Tmap_traits@V?$basic_string@_WU?$char_traits@_W@std@@V?$K2StringAllocator@_W@@@std@@V12@U?$less@V?$basic_string@_WU?$char_traits@_W@std@@V?$K2StringAllocator@_W@@@std@@@2@V?$K2MapAllocator@U?$pair@$$CBV?$basic_string@_WU?$char_traits@_W@std@@V?$K2StringAllocator@_W@@@std@@V12@@std@@@@$0A@@std@@@std@@QAEAAV012@XZ 190edae0 f i c_entitytool.obj
 0002:00062b10       ??0const_iterator@?$_Tree@V?$_Tset_traits@IU?$less@I@std@@V?$K2SetAllocator@I@@$0A@@std@@@std@@QAE@PAU_Node@?$_Tree_nod@V?$_Tset_traits@IU?$less@I@std@@V?$K2SetAllocator@I@@$0A@@std@@@2@PBV12@@Z 190edb10 f i c_entitytool.obj
 0002:00062ba0       ??Fconst_iterator@?$_Tree@V?$_Tset_traits@IU?$less@I@std@@V?$K2SetAllocator@I@@$0A@@std@@@std@@QAEAAV012@XZ 190edba0 f i c_entitytool.obj
 0002:00062bd0       ??H?$_Vector_iterator@IV?$K2VectorAllocator@I@@@std@@QBE?AV01@H@Z 190edbd0 f i c_entitytool.obj
 0002:00062c80       ??G?$_Vector_iterator@IV?$K2VectorAllocator@I@@@std@@QBEHABV?$_Vector_const_iterator@IV?$K2VectorAllocator@I@@@1@@Z 190edc80 f i c_entitytool.obj
 0002:00062cb0       ??0?$_String_iterator@_WU?$char_traits@_W@std@@V?$K2StringAllocator@_W@@@std@@QAE@PA_WPBV_Container_base@1@@Z 190edcb0 f i c_entitytool.obj
 0002:00062cf0       ??D?$_Vector_const_iterator@VCConvexPolyhedron@@V?$K2VectorAllocator@VCConvexPolyhedron@@@@@std@@QBEABVCConvexPolyhedron@@XZ 190edcf0 f i c_entitytool.obj
 0002:00062db0       ??0?$_Bidit@IHPBIABI@std@@QAE@XZ 190eddb0 f i c_entitytool.obj
 0002:00062de0       ??0?$vector@IV?$K2VectorAllocator@I@@@@QAE@ABV0@@Z 190edde0 f i c_entitytool.obj
 0002:00062e10       ?allocate@?$K2SetAllocator@U_Node@?$_Tree_nod@V?$_Tset_traits@IU?$less@I@std@@V?$K2SetAllocator@I@@$0A@@std@@@std@@@@QAEPAU_Node@?$_Tree_nod@V?$_Tset_traits@IU?$less@I@std@@V?$K2SetAllocator@I@@$0A@@std@@@std@@I@Z 190ede10 f i c_entitytool.obj
 0002:00062e60       ?_Color@?$_Tree@V?$_Tmap_traits@V?$basic_string@_WU?$char_traits@_W@std@@V?$K2StringAllocator@_W@@@std@@V12@U?$less@V?$basic_string@_WU?$char_traits@_W@std@@V?$K2StringAllocator@_W@@@std@@@2@V?$K2MapAllocator@U?$pair@$$CBV?$basic_string@_WU?$char_traits@_W@std@@V?$K2StringAllocator@_W@@@std@@V12@@std@@@@$0A@@std@@@std@@KAAADPAU_Node@?$_Tree_nod@V?$_Tmap_traits@V?$basic_string@_WU?$char_traits@_W@std@@V?$K2StringAllocator@_W@@@std@@V12@U?$less@V?$basic_string@_WU?$char_traits@_W@std@@V?$K2StringAllocator@_W@@@std@@@2@V?$K2MapAllocator@U?$pair@$$CBV?$basic_string@_WU?$char_traits@_W@std@@V?$K2StringAllocator@_W@@@std@@V12@@std@@@@$0A@@std@@@2@@Z 190ede60 f i c_entitytool.obj
 0002:00062e80       ?max_size@?$_Tree@V?$_Tmap_traits@V?$basic_string@_WU?$char_traits@_W@std@@V?$K2StringAllocator@_W@@@std@@V12@U?$less@V?$basic_string@_WU?$char_traits@_W@std@@V?$K2StringAllocator@_W@@@std@@@2@V?$K2MapAllocator@U?$pair@$$CBV?$basic_string@_WU?$char_traits@_W@std@@V?$K2StringAllocator@_W@@@std@@V12@@std@@@@$0A@@std@@@std@@QBEIXZ 190ede80 f i c_entitytool.obj
 0002:00062eb0       ?_Erase@?$_Tree@V?$_Tmap_traits@V?$basic_string@_WU?$char_traits@_W@std@@V?$K2StringAllocator@_W@@@std@@V12@U?$less@V?$basic_string@_WU?$char_traits@_W@std@@V?$K2StringAllocator@_W@@@std@@@2@V?$K2MapAllocator@U?$pair@$$CBV?$basic_string@_WU?$char_traits@_W@std@@V?$K2StringAllocator@_W@@@std@@V12@@std@@@@$0A@@std@@@std@@IAEXPAU_Node@?$_Tree_nod@V?$_Tmap_traits@V?$basic_string@_WU?$char_traits@_W@std@@V?$K2StringAllocator@_W@@@std@@V12@U?$less@V?$basic_string@_WU?$char_traits@_W@std@@V?$K2StringAllocator@_W@@@std@@@2@V?$K2MapAllocator@U?$pair@$$CBV?$basic_string@_WU?$char_traits@_W@std@@V?$K2StringAllocator@_W@@@std@@V12@@std@@@@$0A@@std@@@2@@Z 190edeb0 f i c_entitytool.obj
 0002:00062f50       ?_Lrotate@?$_Tree@V?$_Tmap_traits@V?$basic_string@_WU?$char_traits@_W@std@@V?$K2StringAllocator@_W@@@std@@V12@U?$less@V?$basic_string@_WU?$char_traits@_W@std@@V?$K2StringAllocator@_W@@@std@@@2@V?$K2MapAllocator@U?$pair@$$CBV?$basic_string@_WU?$char_traits@_W@std@@V?$K2StringAllocator@_W@@@std@@V12@@std@@@@$0A@@std@@@std@@IAEXPAU_Node@?$_Tree_nod@V?$_Tmap_traits@V?$basic_string@_WU?$char_traits@_W@std@@V?$K2StringAllocator@_W@@@std@@V12@U?$less@V?$basic_string@_WU?$char_traits@_W@std@@V?$K2StringAllocator@_W@@@std@@@2@V?$K2MapAllocator@U?$pair@$$CBV?$basic_string@_WU?$char_traits@_W@std@@V?$K2StringAllocator@_W@@@std@@V12@@std@@@@$0A@@std@@@2@@Z 190edf50 f i c_entitytool.obj
 0002:000630e0       ?_Rrotate@?$_Tree@V?$_Tmap_traits@V?$basic_string@_WU?$char_traits@_W@std@@V?$K2StringAllocator@_W@@@std@@V12@U?$less@V?$basic_string@_WU?$char_traits@_W@std@@V?$K2StringAllocator@_W@@@std@@@2@V?$K2MapAllocator@U?$pair@$$CBV?$basic_string@_WU?$char_traits@_W@std@@V?$K2StringAllocator@_W@@@std@@V12@@std@@@@$0A@@std@@@std@@IAEXPAU_Node@?$_Tree_nod@V?$_Tmap_traits@V?$basic_string@_WU?$char_traits@_W@std@@V?$K2StringAllocator@_W@@@std@@V12@U?$less@V?$basic_string@_WU?$char_traits@_W@std@@V?$K2StringAllocator@_W@@@std@@@2@V?$K2MapAllocator@U?$pair@$$CBV?$basic_string@_WU?$char_traits@_W@std@@V?$K2StringAllocator@_W@@@std@@V12@@std@@@@$0A@@std@@@2@@Z 190ee0e0 f i c_entitytool.obj
 0002:00063270       ?_Orphan_ptr@?$_Tree@V?$_Tmap_traits@V?$basic_string@_WU?$char_traits@_W@std@@V?$K2StringAllocator@_W@@@std@@V12@U?$less@V?$basic_string@_WU?$char_traits@_W@std@@V?$K2StringAllocator@_W@@@std@@@2@V?$K2MapAllocator@U?$pair@$$CBV?$basic_string@_WU?$char_traits@_W@std@@V?$K2StringAllocator@_W@@@std@@V12@@std@@@@$0A@@std@@@std@@IBEXAAV12@PAU_Node@?$_Tree_nod@V?$_Tmap_traits@V?$basic_string@_WU?$char_traits@_W@std@@V?$K2StringAllocator@_W@@@std@@V12@U?$less@V?$basic_string@_WU?$char_traits@_W@std@@V?$K2StringAllocator@_W@@@std@@@2@V?$K2MapAllocator@U?$pair@$$CBV?$basic_string@_WU?$char_traits@_W@std@@V?$K2StringAllocator@_W@@@std@@V12@@std@@@@$0A@@std@@@2@@Z 190ee270 f i c_entitytool.obj
 0002:00063320       ?_Buynode@?$_Tree@V?$_Tmap_traits@V?$basic_string@_WU?$char_traits@_W@std@@V?$K2StringAllocator@_W@@@std@@V12@U?$less@V?$basic_string@_WU?$char_traits@_W@std@@V?$K2StringAllocator@_W@@@std@@@2@V?$K2MapAllocator@U?$pair@$$CBV?$basic_string@_WU?$char_traits@_W@std@@V?$K2StringAllocator@_W@@@std@@V12@@std@@@@$0A@@std@@@std@@IAEPAU_Node@?$_Tree_nod@V?$_Tmap_traits@V?$basic_string@_WU?$char_traits@_W@std@@V?$K2StringAllocator@_W@@@std@@V12@U?$less@V?$basic_string@_WU?$char_traits@_W@std@@V?$K2StringAllocator@_W@@@std@@@2@V?$K2MapAllocator@U?$pair@$$CBV?$basic_string@_WU?$char_traits@_W@std@@V?$K2StringAllocator@_W@@@std@@V12@@std@@@@$0A@@std@@@2@PAU342@00ABU?$pair@$$CBV?$basic_string@_WU?$char_traits@_W@std@@V?$K2StringAllocator@_W@@@std@@V12@@2@D@Z 190ee320 f i c_entitytool.obj
 0002:00063440       ?destroy@?$allocator@U_Node@?$_Tree_nod@V?$_Tmap_traits@V?$basic_string@_WU?$char_traits@_W@std@@V?$K2StringAllocator@_W@@@std@@V12@U?$less@V?$basic_string@_WU?$char_traits@_W@std@@V?$K2StringAllocator@_W@@@std@@@2@V?$K2MapAllocator@U?$pair@$$CBV?$basic_string@_WU?$char_traits@_W@std@@V?$K2StringAllocator@_W@@@std@@V12@@std@@@@$0A@@std@@@std@@@std@@QAEXPAU_Node@?$_Tree_nod@V?$_Tmap_traits@V?$basic_string@_WU?$char_traits@_W@std@@V?$K2StringAllocator@_W@@@std@@V12@U?$less@V?$basic_string@_WU?$char_traits@_W@std@@V?$K2StringAllocator@_W@@@std@@@2@V?$K2MapAllocator@U?$pair@$$CBV?$basic_string@_WU?$char_traits@_W@std@@V?$K2StringAllocator@_W@@@std@@V12@@std@@@@$0A@@std@@@2@@Z 190ee440 f i c_entitytool.obj
 0002:00063470       ??8?$_Vector_const_iterator@V?$basic_string@_WU?$char_traits@_W@std@@V?$K2StringAllocator@_W@@@std@@V?$K2VectorAllocator@V?$basic_string@_WU?$char_traits@_W@std@@V?$K2StringAllocator@_W@@@std@@@@@std@@QBE_NABV01@@Z 190ee470 f i c_entitytool.obj
 0002:000634b0       ??0const_iterator@?$_Tree@V?$_Tmap_traits@V?$basic_string@_WU?$char_traits@_W@std@@V?$K2StringAllocator@_W@@@std@@V12@U?$less@V?$basic_string@_WU?$char_traits@_W@std@@V?$K2StringAllocator@_W@@@std@@@2@V?$K2MapAllocator@U?$pair@$$CBV?$basic_string@_WU?$char_traits@_W@std@@V?$K2StringAllocator@_W@@@std@@V12@@std@@@@$0A@@std@@@std@@QAE@XZ 190ee4b0 f i c_entitytool.obj
 0002:000634f0       ??Econst_iterator@?$_Tree@V?$_Tmap_traits@V?$basic_string@_WU?$char_traits@_W@std@@V?$K2StringAllocator@_W@@@std@@V12@U?$less@V?$basic_string@_WU?$char_traits@_W@std@@V?$K2StringAllocator@_W@@@std@@@2@V?$K2MapAllocator@U?$pair@$$CBV?$basic_string@_WU?$char_traits@_W@std@@V?$K2StringAllocator@_W@@@std@@V12@@std@@@@$0A@@std@@@std@@QAEAAV012@XZ 190ee4f0 f i c_entitytool.obj
 0002:00063520       ??Fconst_iterator@?$_Tree@V?$_Tmap_traits@V?$basic_string@_WU?$char_traits@_W@std@@V?$K2StringAllocator@_W@@@std@@V12@U?$less@V?$basic_string@_WU?$char_traits@_W@std@@V?$K2StringAllocator@_W@@@std@@@2@V?$K2MapAllocator@U?$pair@$$CBV?$basic_string@_WU?$char_traits@_W@std@@V?$K2StringAllocator@_W@@@std@@V12@@std@@@@$0A@@std@@@std@@QAEAAV012@XZ 190ee520 f i c_entitytool.obj
 0002:00063550       ?_Dec@const_iterator@?$_Tree@V?$_Tset_traits@IU?$less@I@std@@V?$K2SetAllocator@I@@$0A@@std@@@std@@QAEXXZ 190ee550 f i c_entitytool.obj
 0002:00063810       ??Y?$_Vector_iterator@IV?$K2VectorAllocator@I@@@std@@QAEAAV01@H@Z 190ee810 f i c_entitytool.obj
 0002:00063840       ??G?$_Vector_const_iterator@IV?$K2VectorAllocator@I@@@std@@QBEHABV01@@Z 190ee840 f i c_entitytool.obj
 0002:00063880       ??0?$_Vector_const_iterator@VCConvexPolyhedron@@V?$K2VectorAllocator@VCConvexPolyhedron@@@@@std@@QAE@PAVCConvexPolyhedron@@PBV_Container_base@1@@Z 190ee880 f i c_entitytool.obj
 0002:00063980       ??0_Node@?$_Tree_nod@V?$_Tset_traits@IU?$less@I@std@@V?$K2SetAllocator@I@@$0A@@std@@@std@@QAE@PAU012@00ABID@Z 190ee980 f i c_entitytool.obj
 0002:000639e0       ??0?$pair@Viterator@?$_Tree@V?$_Tmap_traits@V?$basic_string@_WU?$char_traits@_W@std@@V?$K2StringAllocator@_W@@@std@@V12@U?$less@V?$basic_string@_WU?$char_traits@_W@std@@V?$K2StringAllocator@_W@@@std@@@2@V?$K2MapAllocator@U?$pair@$$CBV?$basic_string@_WU?$char_traits@_W@std@@V?$K2StringAllocator@_W@@@std@@V12@@std@@@@$0A@@std@@@std@@_N@std@@QAE@ABViterator@?$_Tree@V?$_Tmap_traits@V?$basic_string@_WU?$char_traits@_W@std@@V?$K2StringAllocator@_W@@@std@@V12@U?$less@V?$basic_string@_WU?$char_traits@_W@std@@V?$K2StringAllocator@_W@@@std@@@2@V?$K2MapAllocator@U?$pair@$$CBV?$basic_string@_WU?$char_traits@_W@std@@V?$K2StringAllocator@_W@@@std@@V12@@std@@@@$0A@@std@@@1@AB_N@Z 190ee9e0 f i c_entitytool.obj
 0002:00063a20       ??0?$_Ranit@VCConvexPolyhedron@@HPBV1@ABV1@@std@@QAE@XZ 190eea20 f i c_entitytool.obj
 0002:00063a50       ??0?$vector@IV?$K2VectorAllocator@I@@@std@@QAE@ABV01@@Z 190eea50 f i c_entitytool.obj
 0002:00063ba0       ?begin@?$vector@IV?$K2VectorAllocator@I@@@std@@QBE?AV?$_Vector_const_iterator@IV?$K2VectorAllocator@I@@@2@XZ 190eeba0 f i c_entitytool.obj
 0002:00063bf0       ?_Max@?$_Tree@V?$_Tset_traits@IU?$less@I@std@@V?$K2SetAllocator@I@@$0A@@std@@@std@@KAPAU_Node@?$_Tree_nod@V?$_Tset_traits@IU?$less@I@std@@V?$K2SetAllocator@I@@$0A@@std@@@2@PAU342@@Z 190eebf0 f i c_entitytool.obj
 0002:00063c50       ?max_size@?$allocator@U?$pair@$$CBV?$basic_string@_WU?$char_traits@_W@std@@V?$K2StringAllocator@_W@@@std@@V12@@std@@@std@@QBEIXZ 190eec50 f i c_entitytool.obj
 0002:00063c90       ?allocate@?$K2MapAllocator@U_Node@?$_Tree_nod@V?$_Tmap_traits@V?$basic_string@_WU?$char_traits@_W@std@@V?$K2StringAllocator@_W@@@std@@V12@U?$less@V?$basic_string@_WU?$char_traits@_W@std@@V?$K2StringAllocator@_W@@@std@@@2@V?$K2MapAllocator@U?$pair@$$CBV?$basic_string@_WU?$char_traits@_W@std@@V?$K2StringAllocator@_W@@@std@@V12@@std@@@@$0A@@std@@@std@@@@QAEPAU_Node@?$_Tree_nod@V?$_Tmap_traits@V?$basic_string@_WU?$char_traits@_W@std@@V?$K2StringAllocator@_W@@@std@@V12@U?$less@V?$basic_string@_WU?$char_traits@_W@std@@V?$K2StringAllocator@_W@@@std@@@2@V?$K2MapAllocator@U?$pair@$$CBV?$basic_string@_WU?$char_traits@_W@std@@V?$K2StringAllocator@_W@@@std@@V12@@std@@@@$0A@@std@@@std@@I@Z 190eec90 f i c_entitytool.obj
 0002:00063ce0       ?_Dec@const_iterator@?$_Tree@V?$_Tmap_traits@V?$basic_string@_WU?$char_traits@_W@std@@V?$K2StringAllocator@_W@@@std@@V12@U?$less@V?$basic_string@_WU?$char_traits@_W@std@@V?$K2StringAllocator@_W@@@std@@@2@V?$K2MapAllocator@U?$pair@$$CBV?$basic_string@_WU?$char_traits@_W@std@@V?$K2StringAllocator@_W@@@std@@V12@@std@@@@$0A@@std@@@std@@QAEXXZ 190eece0 f i c_entitytool.obj
 0002:00063fa0       ?_Inc@const_iterator@?$_Tree@V?$_Tmap_traits@V?$basic_string@_WU?$char_traits@_W@std@@V?$K2StringAllocator@_W@@@std@@V12@U?$less@V?$basic_string@_WU?$char_traits@_W@std@@V?$K2StringAllocator@_W@@@std@@@2@V?$K2MapAllocator@U?$pair@$$CBV?$basic_string@_WU?$char_traits@_W@std@@V?$K2StringAllocator@_W@@@std@@V12@@std@@@@$0A@@std@@@std@@QAEXXZ 190eefa0 f i c_entitytool.obj
 0002:00064110       ??Y?$_Vector_const_iterator@IV?$K2VectorAllocator@I@@@std@@QAEAAV01@H@Z 190ef110 f i c_entitytool.obj
 0002:00064240       ?_Compat@?$_Vector_const_iterator@VCConvexPolyhedron@@V?$K2VectorAllocator@VCConvexPolyhedron@@@@@std@@QBEXABV12@@Z 190ef240 f i c_entitytool.obj
 0002:000642f0       ??0_Node@?$_Tree_nod@V?$_Tmap_traits@V?$basic_string@_WU?$char_traits@_W@std@@V?$K2StringAllocator@_W@@@std@@V12@U?$less@V?$basic_string@_WU?$char_traits@_W@std@@V?$K2StringAllocator@_W@@@std@@@2@V?$K2MapAllocator@U?$pair@$$CBV?$basic_string@_WU?$char_traits@_W@std@@V?$K2StringAllocator@_W@@@std@@V12@@std@@@@$0A@@std@@@std@@QAE@PAU012@00ABU?$pair@$$CBV?$basic_string@_WU?$char_traits@_W@std@@V?$K2StringAllocator@_W@@@std@@V12@@2@D@Z 190ef2f0 f i c_entitytool.obj
 0002:00064360       ??0?$pair@$$CBV?$basic_string@_WU?$char_traits@_W@std@@V?$K2StringAllocator@_W@@@std@@V12@@std@@QAE@ABU01@@Z 190ef360 f i c_entitytool.obj
 0002:000643f0       ?end@?$vector@IV?$K2VectorAllocator@I@@@std@@QBE?AV?$_Vector_const_iterator@IV?$K2VectorAllocator@I@@@2@XZ 190ef3f0 f i c_entitytool.obj
 0002:00064440       ??$?M_WU?$char_traits@_W@std@@V?$K2StringAllocator@_W@@@std@@YA_NABV?$basic_string@_WU?$char_traits@_W@std@@V?$K2StringAllocator@_W@@@0@0@Z 190ef440 f i c_entitytool.obj
 0002:00064470       ??$MIN@I@@YAABIABI0@Z      190ef470 f i c_entitytool.obj
 0002:000644b0       ??$_Debug_lt_pred@U?$less@I@std@@II@std@@YA_NU?$less@I@0@ABI1PB_WI@Z 190ef4b0 f i c_entitytool.obj
 0002:00064530       ??R?$less@I@std@@QBE_NABI0@Z 190ef530 f i c_entitytool.obj
 0002:00064560       ??$_Debug_lt_pred@U?$less@V?$basic_string@_WU?$char_traits@_W@std@@V?$K2StringAllocator@_W@@@std@@@std@@V?$basic_string@_WU?$char_traits@_W@std@@V?$K2StringAllocator@_W@@@2@V32@@std@@YA_NU?$less@V?$basic_string@_WU?$char_traits@_W@std@@V?$K2StringAllocator@_W@@@std@@@0@ABV?$basic_string@_WU?$char_traits@_W@std@@V?$K2StringAllocator@_W@@@0@1PB_WI@Z 190ef560 f i c_entitytool.obj
 0002:000645e0       ??$swap@D@std@@YAXAAD0@Z   190ef5e0 f i c_entitytool.obj
 0002:00064620       ??$unchecked_uninitialized_fill_n@PAIIIV?$K2VectorAllocator@I@@@stdext@@YAXPAIIABIAAV?$K2VectorAllocator@I@@@Z 190ef620 f i c_entitytool.obj
 0002:00064680       ??$_Uninit_fill_n@PAIIIV?$K2VectorAllocator@I@@@std@@YAXPAIIABIAAV?$K2VectorAllocator@I@@U_Scalar_ptr_iterator_tag@0@U_Range_checked_iterator_tag@0@@Z 190ef680 f i c_entitytool.obj
 0002:000646b0       ??$unchecked_fill_n@PAIII@stdext@@YAXPAIIABI@Z 190ef6b0 f i c_entitytool.obj
 0002:00064700       ??$_Fill_n@PAIII@std@@YAXPAIIABIUrandom_access_iterator_tag@0@U_Range_checked_iterator_tag@0@@Z 190ef700 f i c_entitytool.obj
 0002:00064760       ??$_Fill_n@PAIII@std@@YAXPAIIABIU_Range_checked_iterator_tag@0@@Z 190ef760 f i c_entitytool.obj
 0002:000647b0       ??$_Umove@PAI@?$vector@IV?$K2VectorAllocator@I@@@std@@IAEPAIPAI00@Z 190ef7b0 f i c_entitytool.obj
 0002:000647f0       ??$_Unchecked_uninitialized_move@PAIPAIV?$K2VectorAllocator@I@@@stdext@@YAPAIPAI00AAV?$K2VectorAllocator@I@@@Z 190ef7f0 f i c_entitytool.obj
 0002:00064860       ??$_Move_cat@PAI@std@@YA?AU_Undefined_move_tag@0@ABQAI@Z 190ef860 f i c_entitytool.obj
 0002:00064880       ??$_Uninit_move@PAIPAIV?$K2VectorAllocator@I@@U_Undefined_move_tag@std@@@std@@YAPAIPAI00AAV?$K2VectorAllocator@I@@U_Undefined_move_tag@0@U_Range_checked_iterator_tag@0@@Z 190ef880 f i c_entitytool.obj
 0002:000648c0       ??$unchecked_uninitialized_copy@PAIPAIV?$K2VectorAllocator@I@@@stdext@@YAPAIPAI00AAV?$K2VectorAllocator@I@@@Z 190ef8c0 f i c_entitytool.obj
 0002:00064930       ??$_Uninit_copy@PAIPAIV?$K2VectorAllocator@I@@@std@@YAPAIPAI00AAV?$K2VectorAllocator@I@@U_Scalar_ptr_iterator_tag@0@U_Range_checked_iterator_tag@0@@Z 190ef930 f i c_entitytool.obj
 0002:000649d0       ??$fill@PAII@std@@YAXPAI0ABI@Z 190ef9d0 f i c_entitytool.obj
 0002:00064a20       ??$_Fill@PAII@std@@YAXPAI0ABI@Z 190efa20 f i c_entitytool.obj
 0002:00064a80       ??$_Unchecked_move_backward@PAIPAI@stdext@@YAPAIPAI00@Z 190efa80 f i c_entitytool.obj
 0002:00064b10       ??$_Move_backward_opt@PAIPAIUrandom_access_iterator_tag@std@@U_Undefined_move_tag@2@@std@@YAPAIPAI00Urandom_access_iterator_tag@0@U_Undefined_move_tag@0@U_Range_checked_iterator_tag@0@@Z 190efb10 f i c_entitytool.obj
 0002:00064b70       ??$_Copy_backward_opt@PAIPAIUrandom_access_iterator_tag@std@@@std@@YAPAIPAI00Urandom_access_iterator_tag@0@U_Scalar_ptr_iterator_tag@0@U_Range_checked_iterator_tag@0@@Z 190efb70 f i c_entitytool.obj
 0002:00064c20       ??$_Destroy@U_Node@?$_Tree_nod@V?$_Tset_traits@IU?$less@I@std@@V?$K2SetAllocator@I@@$0A@@std@@@std@@@std@@YAXPAU_Node@?$_Tree_nod@V?$_Tset_traits@IU?$less@I@std@@V?$K2SetAllocator@I@@$0A@@std@@@0@@Z 190efc20 f i c_entitytool.obj
 0002:00064c40       ??$_Destroy@U_Node@?$_Tree_nod@V?$_Tmap_traits@V?$basic_string@_WU?$char_traits@_W@std@@V?$K2StringAllocator@_W@@@std@@V12@U?$less@V?$basic_string@_WU?$char_traits@_W@std@@V?$K2StringAllocator@_W@@@std@@@2@V?$K2MapAllocator@U?$pair@$$CBV?$basic_string@_WU?$char_traits@_W@std@@V?$K2StringAllocator@_W@@@std@@V12@@std@@@@$0A@@std@@@std@@@std@@YAXPAU_Node@?$_Tree_nod@V?$_Tmap_traits@V?$basic_string@_WU?$char_traits@_W@std@@V?$K2StringAllocator@_W@@@std@@V12@U?$less@V?$basic_string@_WU?$char_traits@_W@std@@V?$K2StringAllocator@_W@@@std@@@2@V?$K2MapAllocator@U?$pair@$$CBV?$basic_string@_WU?$char_traits@_W@std@@V?$K2StringAllocator@_W@@@std@@V12@@std@@@@$0A@@std@@@0@@Z 190efc40 f i c_entitytool.obj
 0002:00064c60       ??$_Ucopy@V?$_Vector_const_iterator@IV?$K2VectorAllocator@I@@@std@@@?$vector@IV?$K2VectorAllocator@I@@@std@@IAEPAIV?$_Vector_const_iterator@IV?$K2VectorAllocator@I@@@1@0PAI@Z 190efc60 f i c_entitytool.obj
 0002:00064d50       ??$unchecked_uninitialized_copy@V?$_Vector_const_iterator@IV?$K2VectorAllocator@I@@@std@@PAIV?$K2VectorAllocator@I@@@stdext@@YAPAIV?$_Vector_const_iterator@IV?$K2VectorAllocator@I@@@std@@0PAIAAV?$K2VectorAllocator@I@@@Z 190efd50 f i c_entitytool.obj
 0002:00064e60       ??$_Checked_base@V?$_Vector_const_iterator@IV?$K2VectorAllocator@I@@@std@@@std@@YA?AV?$_Vector_const_iterator@IV?$K2VectorAllocator@I@@@0@AAV10@@Z 190efe60 f i c_entitytool.obj
 0002:00064eb0       ??$_Ptr_cat@V?$_Vector_const_iterator@IV?$K2VectorAllocator@I@@@std@@PAI@std@@YA?AU_Scalar_ptr_iterator_tag@0@AAV?$_Vector_const_iterator@IV?$K2VectorAllocator@I@@@0@AAPAI@Z 190efeb0 f i c_entitytool.obj
 0002:00064ed0       ??$_Uninit_copy@V?$_Vector_const_iterator@IV?$K2VectorAllocator@I@@@std@@PAIV?$K2VectorAllocator@I@@@std@@YAPAIV?$_Vector_const_iterator@IV?$K2VectorAllocator@I@@@0@0PAIAAV?$K2VectorAllocator@I@@U_Scalar_ptr_iterator_tag@0@U_Range_checked_iterator_tag@0@@Z 190efed0 f i c_entitytool.obj
 0002:00065020       ??$_Checked_base@V?$_Vector_const_iterator@IV?$K2VectorAllocator@I@@@std@@@std@@YA?AV?$_Vector_const_iterator@IV?$K2VectorAllocator@I@@@0@AAV10@U_Unchanged_checked_iterator_base_type_tag@0@@Z 190f0020 f i c_entitytool.obj
 0002:00065060       ??$_Debug_range@V?$_Vector_const_iterator@IV?$K2VectorAllocator@I@@@std@@@std@@YAXV?$_Vector_const_iterator@IV?$K2VectorAllocator@I@@@0@0PB_WI@Z 190f0060 f i c_entitytool.obj
 0002:00065150       ??$_Iter_cat@V?$_Vector_const_iterator@IV?$K2VectorAllocator@I@@@std@@@std@@YA?AUrandom_access_iterator_tag@0@ABV?$_Vector_const_iterator@IV?$K2VectorAllocator@I@@@0@@Z 190f0150 f i c_entitytool.obj
 0002:00065170       ??$_Debug_range2@V?$_Vector_const_iterator@IV?$K2VectorAllocator@I@@@std@@@std@@YAXV?$_Vector_const_iterator@IV?$K2VectorAllocator@I@@@0@0PB_WIUrandom_access_iterator_tag@0@@Z 190f0170 f i c_entitytool.obj
 0002:00065260       ??$_Debug_pointer@V?$_Vector_const_iterator@IV?$K2VectorAllocator@I@@@std@@@std@@YAXAAV?$_Vector_const_iterator@IV?$K2VectorAllocator@I@@@0@PB_WI@Z 190f0260 f i c_entitytool.obj
 0002:00065280       ??_G_Node@?$_Tree_nod@V?$_Tmap_traits@V?$basic_string@_WU?$char_traits@_W@std@@V?$K2StringAllocator@_W@@@std@@V12@U?$less@V?$basic_string@_WU?$char_traits@_W@std@@V?$K2StringAllocator@_W@@@std@@@2@V?$K2MapAllocator@U?$pair@$$CBV?$basic_string@_WU?$char_traits@_W@std@@V?$K2StringAllocator@_W@@@std@@V12@@std@@@@$0A@@std@@@std@@QAEPAXI@Z 190f0280 f i c_entitytool.obj
 0002:000652d0       ??1_Node@?$_Tree_nod@V?$_Tmap_traits@V?$basic_string@_WU?$char_traits@_W@std@@V?$K2StringAllocator@_W@@@std@@V12@U?$less@V?$basic_string@_WU?$char_traits@_W@std@@V?$K2StringAllocator@_W@@@std@@@2@V?$K2MapAllocator@U?$pair@$$CBV?$basic_string@_WU?$char_traits@_W@std@@V?$K2StringAllocator@_W@@@std@@V12@@std@@@@$0A@@std@@@std@@QAE@XZ 190f02d0 f i c_entitytool.obj
 0002:00065300       ??0CFoliageTool@@QAE@XZ    190f0300 f   c_foliagetool.obj
 0002:000654f0       ??_GCFoliageTool@@UAEPAXI@Z 190f04f0 f i c_foliagetool.obj
 0002:000654f0       ??_ECFoliageTool@@UAEPAXI@Z 190f04f0 f i c_foliagetool.obj
 0002:00065540       ??1CFoliageTool@@UAE@XZ    190f0540 f i c_foliagetool.obj
 0002:00065570       ?PrimaryUp@CFoliageTool@@UAEXXZ 190f0570 f   c_foliagetool.obj
 0002:000655a0       ?PrimaryDown@CFoliageTool@@UAEXXZ 190f05a0 f   c_foliagetool.obj
 0002:000655e0       ?SecondaryUp@CFoliageTool@@UAEXXZ 190f05e0 f   c_foliagetool.obj
 0002:00065610       ?SecondaryDown@CFoliageTool@@UAEXXZ 190f0610 f   c_foliagetool.obj
 0002:00065650       ?TertiaryUp@CFoliageTool@@UAEXXZ 190f0650 f   c_foliagetool.obj
 0002:00065670       ?TertiaryDown@CFoliageTool@@UAEXXZ 190f0670 f   c_foliagetool.obj
 0002:00065690       ?QuaternaryUp@CFoliageTool@@UAEXXZ 190f0690 f   c_foliagetool.obj
 0002:000656b0       ?QuaternaryDown@CFoliageTool@@UAEXXZ 190f06b0 f   c_foliagetool.obj
 0002:000656d0       ?Cancel@CFoliageTool@@UAEXXZ 190f06d0 f   c_foliagetool.obj
 0002:000656f0       ?Delete@CFoliageTool@@UAEXXZ 190f06f0 f   c_foliagetool.obj
 0002:00065710       ?CalcToolProperties@CFoliageTool@@QAEXXZ 190f0710 f   c_foliagetool.obj
 0002:00065b10       ?AddFoliageDensity@CFoliageTool@@CAXPAUSFoliageVertexEntry@@ABV?$CRect@H@@ABVCBrush@@MM@Z 190f0b10 f   c_foliagetool.obj
 0002:00065cd0       ?AddFoliageSize@CFoliageTool@@CAXPAUSFoliageVertexEntry@@ABV?$CRect@H@@ABVCBrush@@MMMMM@Z 190f0cd0 f   c_foliagetool.obj
 0002:00066150       ?AddFoliageScale@CFoliageTool@@CAXPAUSFoliageVertexEntry@@ABV?$CRect@H@@ABVCBrush@@MM@Z 190f1150 f   c_foliagetool.obj
 0002:00066310       ?FoliageSmooth@CFoliageTool@@CAXPAUSFoliageVertexEntry@@ABV?$CRect@H@@ABVCBrush@@M@Z 190f1310 f   c_foliagetool.obj
 0002:00066cf0       ??0SFoliageVertexEntry@@QAE@XZ 190f1cf0 f i c_foliagetool.obj
 0002:00066d40       ?FoliageAuto@CFoliageTool@@CAXPAUSFoliageVertexEntry@@ABV?$CRect@H@@ABVCBrush@@MMMMMMM@Z 190f1d40 f   c_foliagetool.obj
 0002:000673a0       ?PaintFoliageVertex@CFoliageTool@@QAEXM@Z 190f23a0 f   c_foliagetool.obj
 0002:00068540       ?ApplyFoliageTexture@CFoliageTool@@CAXPAUSFoliageTile@@ABV?$CRect@H@@ABVCBrush@@IHE@Z 190f3540 f   c_foliagetool.obj
 0002:00068640       ?ApplyFoliageTextureStroked@CFoliageTool@@CAXPAUSFoliageTile@@ABV?$CRect@H@@ABVCBrush@@IHE@Z 190f3640 f   c_foliagetool.obj
 0002:00068860       ?PaintFoliageTile@CFoliageTool@@QAEXM@Z 190f3860 f   c_foliagetool.obj
 0002:00068fa0       ?Frame@CFoliageTool@@UAEXM@Z 190f3fa0 f   c_foliagetool.obj
 0002:00069080       ?Draw@CFoliageTool@@UAEXXZ 190f4080 f   c_foliagetool.obj
 0002:0006a420       ?Render@CFoliageTool@@UAEXXZ 190f5420 f   c_foliagetool.obj
 0002:0006c1f0       ?uiFoliageModeFn@@YA?AV?$basic_string@_WU?$char_traits@_W@std@@V?$K2StringAllocator@_W@@@std@@PAVIWidget@@ABV?$vector@PAVCUIScriptToken@@V?$K2VectorAllocator@PAVCUIScriptToken@@@@@@@Z 190f71f0 f   c_foliagetool.obj
 0002:0006c250       ?uiFoliageModeVoidFn@@YAXPAVIWidget@@ABV?$vector@PAVCUIScriptToken@@V?$K2VectorAllocator@PAVCUIScriptToken@@@@@@@Z 190f7250 f   c_foliagetool.obj
 0002:0006c700       ?ShiftX@?$CRect@H@@QAEXH@Z 190f7700 f i c_foliagetool.obj
 0002:0006c740       ?ShiftY@?$CRect@H@@QAEXH@Z 190f7740 f i c_foliagetool.obj
 0002:0006c780       ?StretchX@?$CRect@H@@QAEXH@Z 190f7780 f i c_foliagetool.obj
 0002:0006c7b0       ?StretchY@?$CRect@H@@QAEXH@Z 190f77b0 f i c_foliagetool.obj
 0002:0006c7e0       ??$LERP@V?$CVec3@M@@@@YA?AV?$CVec3@M@@MV0@0@Z 190f77e0 f i c_foliagetool.obj
 0002:0006c850       ?XtoW@@YA?AV?$basic_string@_WU?$char_traits@_W@std@@V?$K2StringAllocator@_W@@@std@@EHHH@Z 190f7850 f i c_foliagetool.obj
 0002:0006c8a0       ?GetTileFromCoord@CWorld@@QBEHM@Z 190f78a0 f i c_foliagetool.obj
 0002:0006c8e0       ?GetFoliageMaterial@CWorld@@QBEIHHH@Z 190f78e0 f i c_foliagetool.obj
 0002:0006c930       ?GetMaterialHandle@CWorld@@QBEIH@Z 190f7930 f i c_foliagetool.obj
 0002:0006c970       ?GetFoliageTexture@CWorld@@QBEIHHH@Z 190f7970 f i c_foliagetool.obj
 0002:0006c9c0       ?GetTextureHandle@CWorld@@QBEIH@Z 190f79c0 f i c_foliagetool.obj
 0002:0006ca00       ?GetFoliageDensity@CWorld@@QBEMHHH@Z 190f7a00 f i c_foliagetool.obj
 0002:0006ca40       ?GetFoliageSize@CWorld@@QBEABV?$CVec3@M@@HHH@Z 190f7a40 f i c_foliagetool.obj
 0002:0006ca80       ?GetFoliageVariance@CWorld@@QBEABV?$CVec3@M@@HHH@Z 190f7a80 f i c_foliagetool.obj
 0002:0006cac0       ?GetFoliageCrossQuads@CWorld@@QBEEHHH@Z 190f7ac0 f i c_foliagetool.obj
 0002:0006cb00       ??$_UItoW@E@@YA?AV?$basic_string@_WU?$char_traits@_W@std@@V?$K2StringAllocator@_W@@@std@@EHHH@Z 190f7b00 f i c_foliagetool.obj
 0002:0006cbe0       ??0CLightmapTool@@QAE@XZ   190f7be0 f   c_lightmaptool.obj
 0002:0006ccb0       ?TertiaryUp@CLightmapTool@@UAEXXZ 190f7cb0 f i c_lightmaptool.obj
 0002:0006ccd0       ?TertiaryDown@CLightmapTool@@UAEXXZ 190f7cd0 f i c_lightmaptool.obj
 0002:0006ccf0       ?QuaternaryUp@CLightmapTool@@UAEXXZ 190f7cf0 f i c_lightmaptool.obj
 0002:0006cd10       ?QuaternaryDown@CLightmapTool@@UAEXXZ 190f7d10 f i c_lightmaptool.obj
 0002:0006cd30       ?Cancel@CLightmapTool@@UAEXXZ 190f7d30 f i c_lightmaptool.obj
 0002:0006cd50       ?Delete@CLightmapTool@@UAEXXZ 190f7d50 f i c_lightmaptool.obj
 0002:0006cd70       ??_ECLightmapTool@@UAEPAXI@Z 190f7d70 f i c_lightmaptool.obj
 0002:0006cd70       ??_GCLightmapTool@@UAEPAXI@Z 190f7d70 f i c_lightmaptool.obj
 0002:0006cdc0       ??1CLightmapTool@@UAE@XZ   190f7dc0 f i c_lightmaptool.obj
 0002:0006cdf0       ?PrimaryUp@CLightmapTool@@UAEXXZ 190f7df0 f   c_lightmaptool.obj
 0002:0006ce20       ?PrimaryDown@CLightmapTool@@UAEXXZ 190f7e20 f   c_lightmaptool.obj
 0002:0006ce60       ?SecondaryUp@CLightmapTool@@UAEXXZ 190f7e60 f   c_lightmaptool.obj
 0002:0006ce90       ?SecondaryDown@CLightmapTool@@UAEXXZ 190f7e90 f   c_lightmaptool.obj
 0002:0006ced0       ?CalcToolProperties@CLightmapTool@@QAEXXZ 190f7ed0 f   c_lightmaptool.obj
 0002:0006d2e0       ?LerpColor@CLightmapTool@@CAXPAV?$CVec4@E@@ABV?$CRect@H@@ABVCBrush@@ABV?$CVec4@M@@M@Z 190f82e0 f   c_lightmaptool.obj
 0002:0006d690       ?PaintVertex@CLightmapTool@@QAEXM@Z 190f8690 f   c_lightmaptool.obj
 0002:0006dd90       ?Frame@CLightmapTool@@UAEXM@Z 190f8d90 f   c_lightmaptool.obj
 0002:0006dde0       ??0CLightTool@@QAE@XZ      190f8de0 f   c_lighttool.obj
 0002:0006e100       ??0CLightTraceResult@@QAE@XZ 190f9100 f i c_lighttool.obj
 0002:0006e170       ?SecondaryUp@CLightTool@@UAEXXZ 190f9170 f i c_lighttool.obj
 0002:0006e190       ?TertiaryUp@CLightTool@@UAEXXZ 190f9190 f i c_lighttool.obj
 0002:0006e1b0       ?TertiaryDown@CLightTool@@UAEXXZ 190f91b0 f i c_lighttool.obj
 0002:0006e1d0       ?QuaternaryUp@CLightTool@@UAEXXZ 190f91d0 f i c_lighttool.obj
 0002:0006e1f0       ?QuaternaryDown@CLightTool@@UAEXXZ 190f91f0 f i c_lighttool.obj
 0002:0006e210       ??_GCLightTool@@UAEPAXI@Z  190f9210 f i c_lighttool.obj
 0002:0006e210       ??_ECLightTool@@UAEPAXI@Z  190f9210 f i c_lighttool.obj
 0002:0006e260       ??1CLightTool@@UAE@XZ      190f9260 f i c_lighttool.obj
 0002:0006e310       ?PrimaryUp@CLightTool@@UAEXXZ 190f9310 f   c_lighttool.obj
 0002:0006e540       ?PrimaryDown@CLightTool@@UAEXXZ 190f9540 f   c_lighttool.obj
 0002:0006e5e0       ?SecondaryDown@CLightTool@@UAEXXZ 190f95e0 f   c_lighttool.obj
 0002:0006e750       ?Cancel@CLightTool@@UAEXXZ 190f9750 f   c_lighttool.obj
 0002:0006e810       ?GetLightPosition@CLightTool@@AAE?AV?$CVec3@M@@I@Z 190f9810 f   c_lighttool.obj
 0002:0006ea40       ?GetPosition@CWorldLight@@QBEABV?$CVec3@M@@XZ 190f9a40 f i c_lighttool.obj
 0002:0006ea60       ?Delete@CLightTool@@UAEXXZ 190f9a60 f   c_lighttool.obj
 0002:0006ecf0       ?CursorLightTrace@CLightTool@@AAE_NAAVCLightTraceResult@@@Z 190f9cf0 f   c_lighttool.obj
 0002:0006f0c0       ?GetOrigin@CCamera@@QBEABV?$CVec3@M@@XZ 190fa0c0 f i c_lighttool.obj
 0002:0006f0e0       ?ConstructRay@CCamera@@QBE?AV?$CVec3@M@@ABV?$CVec2@M@@@Z 190fa0e0 f i c_lighttool.obj
 0002:0006f130       ?Clear@CLightTraceResult@@QAEXXZ 190fa130 f i c_lighttool.obj
 0002:0006f190       ?GetIndex@CWorldLight@@QBEIXZ 190fa190 f i c_lighttool.obj
 0002:0006f1b0       ??1iterator@?$_Tree@V?$_Tmap_traits@IPAVCWorldLight@@U?$less@I@std@@V?$K2MapAllocator@U?$pair@$$CBIPAVCWorldLight@@@std@@@@$0A@@std@@@std@@QAE@XZ 190fa1b0 f i c_lighttool.obj
 0002:0006f1e0       ??1const_iterator@?$_Tree@V?$_Tmap_traits@IPAVCWorldLight@@U?$less@I@std@@V?$K2MapAllocator@U?$pair@$$CBIPAVCWorldLight@@@std@@@@$0A@@std@@@std@@QAE@XZ 190fa1e0 f i c_lighttool.obj
 0002:0006f210       ??1?$_Bidit@U?$pair@$$CBIPAVCWorldLight@@@std@@HPBU12@ABU12@@std@@QAE@XZ 190fa210 f i c_lighttool.obj
 0002:0006f240       ?CalcToolProperties@CLightTool@@QAEXXZ 190fa240 f   c_lighttool.obj
 0002:0006f7e0       ?CreateLight@CLightTool@@QAEIABV?$CVec3@M@@@Z 190fa7e0 f   c_lighttool.obj
 0002:0006f9a0       ?SetPosition@CWorldLight@@QAEXABV?$CVec3@M@@@Z 190fa9a0 f i c_lighttool.obj
 0002:0006f9e0       ?SetColor@CWorldLight@@QAEXABV?$CVec3@M@@@Z 190fa9e0 f i c_lighttool.obj
 0002:0006fa20       ?SetFalloffStart@CWorldLight@@QAEXM@Z 190faa20 f i c_lighttool.obj
 0002:0006fa50       ?SetFalloffEnd@CWorldLight@@QAEXM@Z 190faa50 f i c_lighttool.obj
 0002:0006fa80       ?Hovering@CLightTool@@AAEXXZ 190faa80 f   c_lighttool.obj
 0002:0006faa0       ?TranslateXY@CLightTool@@AAEXXZ 190faaa0 f   c_lighttool.obj
 0002:0006fd20       ?TranslateZ@CLightTool@@AAEXXZ 190fad20 f   c_lighttool.obj
 0002:0006fe10       ?Scale@CLightTool@@AAEXXZ  190fae10 f   c_lighttool.obj
 0002:0006ff40       ?Create@CLightTool@@AAEXXZ 190faf40 f   c_lighttool.obj
 0002:00070450       ?StartSelect@CLightTool@@AAEXXZ 190fb450 f   c_lighttool.obj
 0002:00070910       ?StartTranslateXY@CLightTool@@AAEXXZ 190fb910 f   c_lighttool.obj
 0002:00070f50       ?StartTransform@CLightTool@@AAEXH@Z 190fbf50 f   c_lighttool.obj
 0002:00071580       ?ApplySelect@CLightTool@@AAEXXZ 190fc580 f   c_lighttool.obj
 0002:000719a0       ?ApplyTransform@CLightTool@@AAEXXZ 190fc9a0 f   c_lighttool.obj
 0002:00071fd0       ?ScaleFalloff@CWorldLight@@QAEXM@Z 190fcfd0 f i c_lighttool.obj
 0002:00072010       ?UpdateHoverSelection@CLightTool@@AAEXXZ 190fd010 f   c_lighttool.obj
 0002:00072320       ?Frame@CLightTool@@UAEXM@Z 190fd320 f   c_lighttool.obj
 0002:000723f0       ?GetCurrentLightPosition@CLightTool@@QAE?AV?$CVec3@M@@I@Z 190fd3f0 f   c_lighttool.obj
 0002:00072970       ?GetStartFalloff@CLightTool@@QAEMI@Z 190fd970 f   c_lighttool.obj
 0002:00072ab0       ?GetFalloffStart@CWorldLight@@QBEMXZ 190fdab0 f i c_lighttool.obj
 0002:00072ad0       ?GetEndFalloff@CLightTool@@QAEMI@Z 190fdad0 f   c_lighttool.obj
 0002:00072c10       ?GetFalloffEnd@CWorldLight@@QBEMXZ 190fdc10 f i c_lighttool.obj
 0002:00072c30       ?GetSelectionRect@CLightTool@@QAE?AV?$CRect@M@@XZ 190fdc30 f   c_lighttool.obj
 0002:00072d80       ?IsSelected@CLightTool@@QAEHI@Z 190fdd80 f   c_lighttool.obj
 0002:00072e60       ?IsHoverSelected@CLightTool@@QAEHI@Z 190fde60 f   c_lighttool.obj
 0002:00072f50       ?Draw@CLightTool@@UAEXXZ   190fdf50 f   c_lighttool.obj
 0002:000730e0       ?DrawLightRings@CLightTool@@AAEXI@Z 190fe0e0 f   c_lighttool.obj
 0002:00077010       ?Render@CLightTool@@UAEXXZ 19102010 f   c_lighttool.obj
 0002:00077120       ?SelectionCenter@CLightTool@@AAE?AV?$CVec3@M@@XZ 19102120 f   c_lighttool.obj
 0002:000772c0       ?IsSelectionActive@CLightTool@@QAE_NXZ 191022c0 f   c_lighttool.obj
 0002:000772f0       ?SnapCursor@CLightTool@@AAEXABV?$CVec3@M@@@Z 191022f0 f   c_lighttool.obj
 0002:000773c0       ?CloneSelection@CLightTool@@AAEXXZ 191023c0 f   c_lighttool.obj
 0002:000777a0       ??4CWorldLight@@QAEAAV0@ABV0@@Z 191027a0 f i c_lighttool.obj
 0002:00077830       ?SetSelectionColor@CLightTool@@QAEXW4EColorComponent@@M@Z 19102830 f   c_lighttool.obj
 0002:00077a20       ?SetColor@CWorldLight@@QAEXW4EColorComponent@@M@Z 19102a20 f i c_lighttool.obj
 0002:00077a60       ?SetSelectionStartFalloff@CLightTool@@QAEXM@Z 19102a60 f   c_lighttool.obj
 0002:00077c50       ?SetSelectionEndFalloff@CLightTool@@QAEXM@Z 19102c50 f   c_lighttool.obj
 0002:00077e40       ?uiGetSelectionColorRFn@@YA?AV?$basic_string@_WU?$char_traits@_W@std@@V?$K2StringAllocator@_W@@@std@@PAVIWidget@@ABV?$vector@PAVCUIScriptToken@@V?$K2VectorAllocator@PAVCUIScriptToken@@@@@@@Z 19102e40 f   c_lighttool.obj
 0002:000780f0       ?GetSelectionSet@CLightTool@@QAEABV?$set@IU?$less@I@std@@V?$K2SetAllocator@I@@@@XZ 191030f0 f i c_lighttool.obj
 0002:00078110       ?GetColor@CWorldLight@@QAEMW4EColorComponent@@@Z 19103110 f i c_lighttool.obj
 0002:00078140       ?uiGetSelectionColorGFn@@YA?AV?$basic_string@_WU?$char_traits@_W@std@@V?$K2StringAllocator@_W@@@std@@PAVIWidget@@ABV?$vector@PAVCUIScriptToken@@V?$K2VectorAllocator@PAVCUIScriptToken@@@@@@@Z 19103140 f   c_lighttool.obj
 0002:00078420       ?uiGetSelectionColorBFn@@YA?AV?$basic_string@_WU?$char_traits@_W@std@@V?$K2StringAllocator@_W@@@std@@PAVIWidget@@ABV?$vector@PAVCUIScriptToken@@V?$K2VectorAllocator@PAVCUIScriptToken@@@@@@@Z 19103420 f   c_lighttool.obj
 0002:00078700       ?uiGetSelectionStartFalloffFn@@YA?AV?$basic_string@_WU?$char_traits@_W@std@@V?$K2StringAllocator@_W@@@std@@PAVIWidget@@ABV?$vector@PAVCUIScriptToken@@V?$K2VectorAllocator@PAVCUIScriptToken@@@@@@@Z 19103700 f   c_lighttool.obj
 0002:000789b0       ?uiGetSelectionEndFalloffFn@@YA?AV?$basic_string@_WU?$char_traits@_W@std@@V?$K2StringAllocator@_W@@@std@@PAVIWidget@@ABV?$vector@PAVCUIScriptToken@@V?$K2VectorAllocator@PAVCUIScriptToken@@@@@@@Z 191039b0 f   c_lighttool.obj
 0002:00078c60       ?uiSetSelectionColorRFn@@YA?AV?$basic_string@_WU?$char_traits@_W@std@@V?$K2StringAllocator@_W@@@std@@PAVIWidget@@ABV?$vector@PAVCUIScriptToken@@V?$K2VectorAllocator@PAVCUIScriptToken@@@@@@@Z 19103c60 f   c_lighttool.obj
 0002:00078cc0       ?uiSetSelectionColorRVoidFn@@YAXPAVIWidget@@ABV?$vector@PAVCUIScriptToken@@V?$K2VectorAllocator@PAVCUIScriptToken@@@@@@@Z 19103cc0 f   c_lighttool.obj
 0002:00078e80       ?uiSetSelectionColorGFn@@YA?AV?$basic_string@_WU?$char_traits@_W@std@@V?$K2StringAllocator@_W@@@std@@PAVIWidget@@ABV?$vector@PAVCUIScriptToken@@V?$K2VectorAllocator@PAVCUIScriptToken@@@@@@@Z 19103e80 f   c_lighttool.obj
 0002:00078ee0       ?uiSetSelectionColorGVoidFn@@YAXPAVIWidget@@ABV?$vector@PAVCUIScriptToken@@V?$K2VectorAllocator@PAVCUIScriptToken@@@@@@@Z 19103ee0 f   c_lighttool.obj
 0002:000790a0       ?uiSetSelectionColorBFn@@YA?AV?$basic_string@_WU?$char_traits@_W@std@@V?$K2StringAllocator@_W@@@std@@PAVIWidget@@ABV?$vector@PAVCUIScriptToken@@V?$K2VectorAllocator@PAVCUIScriptToken@@@@@@@Z 191040a0 f   c_lighttool.obj
 0002:00079100       ?uiSetSelectionColorBVoidFn@@YAXPAVIWidget@@ABV?$vector@PAVCUIScriptToken@@V?$K2VectorAllocator@PAVCUIScriptToken@@@@@@@Z 19104100 f   c_lighttool.obj
 0002:000792c0       ?uiSetSelectionStartFalloffFn@@YA?AV?$basic_string@_WU?$char_traits@_W@std@@V?$K2StringAllocator@_W@@@std@@PAVIWidget@@ABV?$vector@PAVCUIScriptToken@@V?$K2VectorAllocator@PAVCUIScriptToken@@@@@@@Z 191042c0 f   c_lighttool.obj
 0002:00079320       ?uiSetSelectionStartFalloffVoidFn@@YAXPAVIWidget@@ABV?$vector@PAVCUIScriptToken@@V?$K2VectorAllocator@PAVCUIScriptToken@@@@@@@Z 19104320 f   c_lighttool.obj
 0002:000794e0       ?uiSetSelectionEndFalloffFn@@YA?AV?$basic_string@_WU?$char_traits@_W@std@@V?$K2StringAllocator@_W@@@std@@PAVIWidget@@ABV?$vector@PAVCUIScriptToken@@V?$K2VectorAllocator@PAVCUIScriptToken@@@@@@@Z 191044e0 f   c_lighttool.obj
 0002:00079540       ?uiSetSelectionEndFalloffVoidFn@@YAXPAVIWidget@@ABV?$vector@PAVCUIScriptToken@@V?$K2VectorAllocator@PAVCUIScriptToken@@@@@@@Z 19104540 f   c_lighttool.obj
 0002:00079700       ?uiLightEditModeFn@@YA?AV?$basic_string@_WU?$char_traits@_W@std@@V?$K2StringAllocator@_W@@@std@@PAVIWidget@@ABV?$vector@PAVCUIScriptToken@@V?$K2VectorAllocator@PAVCUIScriptToken@@@@@@@Z 19104700 f   c_lighttool.obj
 0002:00079760       ?uiLightEditModeVoidFn@@YAXPAVIWidget@@ABV?$vector@PAVCUIScriptToken@@V?$K2VectorAllocator@PAVCUIScriptToken@@@@@@@Z 19104760 f   c_lighttool.obj
 0002:00079b90       ?uiLightCenterModeFn@@YA?AV?$basic_string@_WU?$char_traits@_W@std@@V?$K2StringAllocator@_W@@@std@@PAVIWidget@@ABV?$vector@PAVCUIScriptToken@@V?$K2VectorAllocator@PAVCUIScriptToken@@@@@@@Z 19104b90 f   c_lighttool.obj
 0002:00079bf0       ?uiLightCenterModeVoidFn@@YAXPAVIWidget@@ABV?$vector@PAVCUIScriptToken@@V?$K2VectorAllocator@PAVCUIScriptToken@@@@@@@Z 19104bf0 f   c_lighttool.obj
 0002:00079dc0       ?begin@?$_Tree@V?$_Tset_traits@IU?$less@I@std@@V?$K2SetAllocator@I@@$0A@@std@@@std@@QBE?AVconst_iterator@12@XZ 19104dc0 f i c_lighttool.obj
 0002:00079e10       ?end@?$_Tree@V?$_Tset_traits@IU?$less@I@std@@V?$K2SetAllocator@I@@$0A@@std@@@std@@QBE?AVconst_iterator@12@XZ 19104e10 f i c_lighttool.obj
 0002:00079e60       ?cos@@YAMM@Z               19104e60 f i c_lighttool.obj
 0002:00079e90       _cosf                      19104e90 f i c_lighttool.obj
 0002:00079ec0       ?sin@@YAMM@Z               19104ec0 f i c_lighttool.obj
 0002:00079ef0       _sinf                      19104ef0 f i c_lighttool.obj
 0002:00079f20       ?begin@?$_Tree@V?$_Tmap_traits@IPAVCWorldLight@@U?$less@I@std@@V?$K2MapAllocator@U?$pair@$$CBIPAVCWorldLight@@@std@@@@$0A@@std@@@std@@QAE?AViterator@12@XZ 19104f20 f i c_lighttool.obj
 0002:00079f70       ?end@?$_Tree@V?$_Tmap_traits@IPAVCWorldLight@@U?$less@I@std@@V?$K2MapAllocator@U?$pair@$$CBIPAVCWorldLight@@@std@@@@$0A@@std@@@std@@QAE?AViterator@12@XZ 19104f70 f i c_lighttool.obj
 0002:00079fc0       ??Citerator@?$_Tree@V?$_Tmap_traits@IPAVCWorldLight@@U?$less@I@std@@V?$K2MapAllocator@U?$pair@$$CBIPAVCWorldLight@@@std@@@@$0A@@std@@@std@@QBEPAU?$pair@$$CBIPAVCWorldLight@@@2@XZ 19104fc0 f i c_lighttool.obj
 0002:00079ff0       ??Eiterator@?$_Tree@V?$_Tmap_traits@IPAVCWorldLight@@U?$less@I@std@@V?$K2MapAllocator@U?$pair@$$CBIPAVCWorldLight@@@std@@@@$0A@@std@@@std@@QAEAAV012@XZ 19104ff0 f i c_lighttool.obj
 0002:0007a020       ??9const_iterator@?$_Tree@V?$_Tmap_traits@IPAVCWorldLight@@U?$less@I@std@@V?$K2MapAllocator@U?$pair@$$CBIPAVCWorldLight@@@std@@@@$0A@@std@@@std@@QBE_NABV012@@Z 19105020 f i c_lighttool.obj
 0002:0007a060       ?_Lmost@?$_Tree@V?$_Tmap_traits@IPAVCWorldLight@@U?$less@I@std@@V?$K2MapAllocator@U?$pair@$$CBIPAVCWorldLight@@@std@@@@$0A@@std@@@std@@IBEAAPAU_Node@?$_Tree_nod@V?$_Tmap_traits@IPAVCWorldLight@@U?$less@I@std@@V?$K2MapAllocator@U?$pair@$$CBIPAVCWorldLight@@@std@@@@$0A@@std@@@2@XZ 19105060 f i c_lighttool.obj
 0002:0007a090       ??1CAxis@@QAE@XZ           19105090 f i c_lighttool.obj
 0002:0007a0b0       ??0CAxis@@QAE@ABV?$CVec3@M@@@Z 191050b0 f i c_lighttool.obj
 0002:0007a100       ?Set@CAxis@@QAEXABV?$CVec3@M@@@Z 19105100 f i c_lighttool.obj
 0002:0007a170       ?Set@CAxis@@QAEXMMM@Z      19105170 f i c_lighttool.obj
 0002:0007a3e0       ?TransformPoint@@YA?AV?$CVec3@M@@ABV1@ABVCAxis@@@Z 191053e0 f i c_lighttool.obj
 0002:0007a540       ?Right@CAxis@@QBEABV?$CVec3@M@@XZ 19105540 f i c_lighttool.obj
 0002:0007a560       ?Forward@CAxis@@QBEABV?$CVec3@M@@XZ 19105560 f i c_lighttool.obj
 0002:0007a580       ?Up@CAxis@@QBEABV?$CVec3@M@@XZ 19105580 f i c_lighttool.obj
 0002:0007a5a0       ??0iterator@?$_Tree@V?$_Tmap_traits@IPAVCWorldLight@@U?$less@I@std@@V?$K2MapAllocator@U?$pair@$$CBIPAVCWorldLight@@@std@@@@$0A@@std@@@std@@QAE@PAU_Node@?$_Tree_nod@V?$_Tmap_traits@IPAVCWorldLight@@U?$less@I@std@@V?$K2MapAllocator@U?$pair@$$CBIPAVCWorldLight@@@std@@@@$0A@@std@@@2@PBV12@@Z 191055a0 f i c_lighttool.obj
 0002:0007a5e0       ??Diterator@?$_Tree@V?$_Tmap_traits@IPAVCWorldLight@@U?$less@I@std@@V?$K2MapAllocator@U?$pair@$$CBIPAVCWorldLight@@@std@@@@$0A@@std@@@std@@QBEAAU?$pair@$$CBIPAVCWorldLight@@@2@XZ 191055e0 f i c_lighttool.obj
 0002:0007a610       ??Econst_iterator@?$_Tree@V?$_Tmap_traits@IPAVCWorldLight@@U?$less@I@std@@V?$K2MapAllocator@U?$pair@$$CBIPAVCWorldLight@@@std@@@@$0A@@std@@@std@@QAEAAV012@XZ 19105610 f i c_lighttool.obj
 0002:0007a640       ??8const_iterator@?$_Tree@V?$_Tmap_traits@IPAVCWorldLight@@U?$less@I@std@@V?$K2MapAllocator@U?$pair@$$CBIPAVCWorldLight@@@std@@@@$0A@@std@@@std@@QBE_NABV012@@Z 19105640 f i c_lighttool.obj
 0002:0007a700       ?_Left@?$_Tree@V?$_Tmap_traits@IPAVCWorldLight@@U?$less@I@std@@V?$K2MapAllocator@U?$pair@$$CBIPAVCWorldLight@@@std@@@@$0A@@std@@@std@@KAAAPAU_Node@?$_Tree_nod@V?$_Tmap_traits@IPAVCWorldLight@@U?$less@I@std@@V?$K2MapAllocator@U?$pair@$$CBIPAVCWorldLight@@@std@@@@$0A@@std@@@2@PAU342@@Z 19105700 f i c_lighttool.obj
 0002:0007a720       ?M_PointOnLine@@YA?AV?$CVec3@M@@ABV1@0M@Z 19105720 f i c_lighttool.obj
 0002:0007a770       ?M_SinCos@@YAXMAAM0@Z      19105770 f i c_lighttool.obj
 0002:0007a7a0       ??0const_iterator@?$_Tree@V?$_Tmap_traits@IPAVCWorldLight@@U?$less@I@std@@V?$K2MapAllocator@U?$pair@$$CBIPAVCWorldLight@@@std@@@@$0A@@std@@@std@@QAE@PAU_Node@?$_Tree_nod@V?$_Tmap_traits@IPAVCWorldLight@@U?$less@I@std@@V?$K2MapAllocator@U?$pair@$$CBIPAVCWorldLight@@@std@@@@$0A@@std@@@2@PBV12@@Z 191057a0 f i c_lighttool.obj
 0002:0007a830       ??Dconst_iterator@?$_Tree@V?$_Tmap_traits@IPAVCWorldLight@@U?$less@I@std@@V?$K2MapAllocator@U?$pair@$$CBIPAVCWorldLight@@@std@@@@$0A@@std@@@std@@QBEABU?$pair@$$CBIPAVCWorldLight@@@2@XZ 19105830 f i c_lighttool.obj
 0002:0007a8f0       ?_Inc@const_iterator@?$_Tree@V?$_Tmap_traits@IPAVCWorldLight@@U?$less@I@std@@V?$K2MapAllocator@U?$pair@$$CBIPAVCWorldLight@@@std@@@@$0A@@std@@@std@@QAEXXZ 191058f0 f i c_lighttool.obj
 0002:0007aa60       ??0?$_Bidit@U?$pair@$$CBIPAVCWorldLight@@@std@@HPBU12@ABU12@@std@@QAE@XZ 19105a60 f i c_lighttool.obj
 0002:0007aa90       ?_Isnil@?$_Tree@V?$_Tmap_traits@IPAVCWorldLight@@U?$less@I@std@@V?$K2MapAllocator@U?$pair@$$CBIPAVCWorldLight@@@std@@@@$0A@@std@@@std@@KAAADPAU_Node@?$_Tree_nod@V?$_Tmap_traits@IPAVCWorldLight@@U?$less@I@std@@V?$K2MapAllocator@U?$pair@$$CBIPAVCWorldLight@@@std@@@@$0A@@std@@@2@@Z 19105a90 f i c_lighttool.obj
 0002:0007aab0       ?_Parent@?$_Tree@V?$_Tmap_traits@IPAVCWorldLight@@U?$less@I@std@@V?$K2MapAllocator@U?$pair@$$CBIPAVCWorldLight@@@std@@@@$0A@@std@@@std@@KAAAPAU_Node@?$_Tree_nod@V?$_Tmap_traits@IPAVCWorldLight@@U?$less@I@std@@V?$K2MapAllocator@U?$pair@$$CBIPAVCWorldLight@@@std@@@@$0A@@std@@@2@PAU342@@Z 19105ab0 f i c_lighttool.obj
 0002:0007aad0       ?_Right@?$_Tree@V?$_Tmap_traits@IPAVCWorldLight@@U?$less@I@std@@V?$K2MapAllocator@U?$pair@$$CBIPAVCWorldLight@@@std@@@@$0A@@std@@@std@@KAAAPAU_Node@?$_Tree_nod@V?$_Tmap_traits@IPAVCWorldLight@@U?$less@I@std@@V?$K2MapAllocator@U?$pair@$$CBIPAVCWorldLight@@@std@@@@$0A@@std@@@2@PAU342@@Z 19105ad0 f i c_lighttool.obj
 0002:0007aaf0       ?_Myval@?$_Tree@V?$_Tmap_traits@IPAVCWorldLight@@U?$less@I@std@@V?$K2MapAllocator@U?$pair@$$CBIPAVCWorldLight@@@std@@@@$0A@@std@@@std@@KAAAU?$pair@$$CBIPAVCWorldLight@@@2@PAU_Node@?$_Tree_nod@V?$_Tmap_traits@IPAVCWorldLight@@U?$less@I@std@@V?$K2MapAllocator@U?$pair@$$CBIPAVCWorldLight@@@std@@@@$0A@@std@@@2@@Z 19105af0 f i c_lighttool.obj
 0002:0007ab10       ?_Min@?$_Tree@V?$_Tmap_traits@IPAVCWorldLight@@U?$less@I@std@@V?$K2MapAllocator@U?$pair@$$CBIPAVCWorldLight@@@std@@@@$0A@@std@@@std@@KAPAU_Node@?$_Tree_nod@V?$_Tmap_traits@IPAVCWorldLight@@U?$less@I@std@@V?$K2MapAllocator@U?$pair@$$CBIPAVCWorldLight@@@std@@@@$0A@@std@@@2@PAU342@@Z 19105b10 f i c_lighttool.obj
 0002:0007ab70       ??$Distance@M@@YAMABV?$CVec2@M@@0@Z 19105b70 f i c_lighttool.obj
 0002:0007abd0       ?sqrt@@YAMM@Z              19105bd0 f i c_lighttool.obj
 0002:0007ac00       _sqrtf                     19105c00 f i c_lighttool.obj
 0002:0007ac30       ?GetLight@CWorld@@QAEPAVCWorldLight@@I_N@Z 19105c30 f i c_lighttool.obj
 0002:0007ac70       ?AllocateNewLight@CWorld@@QBEIXZ 19105c70 f i c_lighttool.obj
 0002:0007aca0       ?DeleteLight@CWorld@@QBEXI@Z 19105ca0 f i c_lighttool.obj
 0002:0007ace0       ?GetLightsMap@CWorld@@QBEAAV?$map@IPAVCWorldLight@@U?$less@I@std@@V?$K2MapAllocator@U?$pair@$$CBIPAVCWorldLight@@@std@@@@@@XZ 19105ce0 f i c_lighttool.obj
 0002:0007ad10       ??$ABS@M@@YAMM@Z           19105d10 f i c_lighttool.obj
 0002:0007ad60       ??0COccluderTool@@QAE@XZ   19105d60 f   c_occludertool.obj
 0002:0007b0b0       ?SecondaryUp@COccluderTool@@UAEXXZ 191060b0 f i c_occludertool.obj
 0002:0007b0d0       ?TertiaryUp@COccluderTool@@UAEXXZ 191060d0 f i c_occludertool.obj
 0002:0007b0f0       ?TertiaryDown@COccluderTool@@UAEXXZ 191060f0 f i c_occludertool.obj
 0002:0007b110       ?QuaternaryUp@COccluderTool@@UAEXXZ 19106110 f i c_occludertool.obj
 0002:0007b130       ?QuaternaryDown@COccluderTool@@UAEXXZ 19106130 f i c_occludertool.obj
 0002:0007b150       ??_GCOccluderTool@@UAEPAXI@Z 19106150 f i c_occludertool.obj
 0002:0007b150       ??_ECOccluderTool@@UAEPAXI@Z 19106150 f i c_occludertool.obj
 0002:0007b1a0       ??1COccluderTool@@UAE@XZ   191061a0 f i c_occludertool.obj
 0002:0007b250       ??0SOccluderTrace@@QAE@XZ  19106250 f i c_occludertool.obj
 0002:0007b2a0       ?PrimaryUp@COccluderTool@@UAEXXZ 191062a0 f   c_occludertool.obj
 0002:0007b500       ?PrimaryDown@COccluderTool@@UAEXXZ 19106500 f   c_occludertool.obj
 0002:0007b5e0       ?SecondaryDown@COccluderTool@@UAEXXZ 191065e0 f   c_occludertool.obj
 0002:0007b750       ?Cancel@COccluderTool@@UAEXXZ 19106750 f   c_occludertool.obj
 0002:0007b790       ?GetOccluder@COccluderTool@@AAEPAVCOccluder@@I@Z 19106790 f   c_occludertool.obj
 0002:0007b7d0       ?DeleteOccluder@COccluderTool@@AAEXI@Z 191067d0 f   c_occludertool.obj
 0002:0007b810       ?DeleteVertex@COccluderTool@@AAEXXZ 19106810 f   c_occludertool.obj
 0002:0007bad0       ?GetNumPoints@COccluder@@QBEIXZ 19106ad0 f i c_occludertool.obj
 0002:0007baf0       ?Delete@COccluderTool@@UAEXXZ 19106af0 f   c_occludertool.obj
 0002:0007bce0       ?CursorOccluderTraceFace@COccluderTool@@AAE_NXZ 19106ce0 f   c_occludertool.obj
 0002:0007c390       ?GetPoint@COccluder@@QBEABV?$CVec3@M@@I@Z 19107390 f i c_occludertool.obj
 0002:0007c3c0       ??1const_iterator@?$_Tree@V?$_Tmap_traits@IPAVCOccluder@@U?$less@I@std@@V?$K2MapAllocator@U?$pair@$$CBIPAVCOccluder@@@std@@@@$0A@@std@@@std@@QAE@XZ 191073c0 f i c_occludertool.obj
 0002:0007c3f0       ??1?$_Bidit@U?$pair@$$CBIPAVCOccluder@@@std@@HPBU12@ABU12@@std@@QAE@XZ 191073f0 f i c_occludertool.obj
 0002:0007c420       ?CursorOccluderTraceVertex@COccluderTool@@AAE_NI@Z 19107420 f   c_occludertool.obj
 0002:0007c7e0       ?CalcToolProperties@COccluderTool@@QAEXXZ 191077e0 f   c_occludertool.obj
 0002:0007ceb0       ?GetPlane@COccluder@@QBE?AVCPlane@@XZ 19107eb0 f i c_occludertool.obj
 0002:0007d000       ?CreateOccluder@COccluderTool@@QAEIABV?$CVec3@M@@@Z 19108000 f   c_occludertool.obj
 0002:0007d1b0       ?GetViewAxis@CCamera@@QBEABV?$CVec3@M@@W4EAxisComponent@@@Z 191081b0 f i c_occludertool.obj
 0002:0007d1e0       ?SetPoint@COccluder@@QAEXIABV?$CVec3@M@@@Z 191081e0 f i c_occludertool.obj
 0002:0007d230       ?SetNumPoints@COccluder@@QAEXI@Z 19108230 f i c_occludertool.obj
 0002:0007d260       ?Hovering@COccluderTool@@AAEXXZ 19108260 f   c_occludertool.obj
 0002:0007d280       ?TranslateXY@COccluderTool@@AAEXXZ 19108280 f   c_occludertool.obj
 0002:0007d600       ?TranslateZ@COccluderTool@@AAEXXZ 19108600 f   c_occludertool.obj
 0002:0007d6f0       ?RotateYaw@COccluderTool@@AAEXXZ 191086f0 f   c_occludertool.obj
 0002:0007d890       ?RotatePitch@COccluderTool@@AAEXXZ 19108890 f   c_occludertool.obj
 0002:0007da30       ?RotateRoll@COccluderTool@@AAEXXZ 19108a30 f   c_occludertool.obj
 0002:0007dbd0       ?Scale@COccluderTool@@AAEXXZ 19108bd0 f   c_occludertool.obj
 0002:0007dd00       ?Create@COccluderTool@@AAEXXZ 19108d00 f   c_occludertool.obj
 0002:0007e3f0       ?Split@COccluderTool@@QAEXXZ 191093f0 f   c_occludertool.obj
 0002:0007e920       ?StartSelect@COccluderTool@@AAEXXZ 19109920 f   c_occludertool.obj
 0002:0007efe0       ?StartTranslateXY@COccluderTool@@AAEXXZ 19109fe0 f   c_occludertool.obj
 0002:0007f970       ?StartTransform@COccluderTool@@AAEXH@Z 1910a970 f   c_occludertool.obj
 0002:000801a0       ?ApplySelect@COccluderTool@@AAEXXZ 1910b1a0 f   c_occludertool.obj
 0002:00080840       ?ApplyTransform@COccluderTool@@AAEXXZ 1910b840 f   c_occludertool.obj
 0002:00081720       ??1COccluder@@QAE@XZ       1910c720 f i c_occludertool.obj
 0002:00081740       ?UpdateHoverSelection@COccluderTool@@AAEXXZ 1910c740 f   c_occludertool.obj
 0002:00081cf0       ?Frame@COccluderTool@@UAEXM@Z 1910ccf0 f   c_occludertool.obj
 0002:00081e00       ?GetVertexPosition@COccluderTool@@QAE?AV?$CVec3@M@@II@Z 1910ce00 f   c_occludertool.obj
 0002:00082720       ?GetSelectionRect@COccluderTool@@QAE?AV?$CRect@M@@XZ 1910d720 f   c_occludertool.obj
 0002:00082870       ?IsSelected@COccluderTool@@QAEHI@Z 1910d870 f   c_occludertool.obj
 0002:00082950       ?IsHoverSelected@COccluderTool@@QAEHI@Z 1910d950 f   c_occludertool.obj
 0002:00082a40       ?Draw@COccluderTool@@UAEXXZ 1910da40 f   c_occludertool.obj
 0002:00082e70       ?IsSelectionActive@COccluderTool@@QAE_NXZ 1910de70 f i c_occludertool.obj
 0002:00082ea0       ?DrawOccluderPoly@COccluderTool@@AAEXI@Z 1910dea0 f   c_occludertool.obj
 0002:00084040       ?Render@COccluderTool@@UAEXXZ 1910f040 f   c_occludertool.obj
 0002:00084150       ?SelectionCenter@COccluderTool@@AAE?AV?$CVec3@M@@XZ 1910f150 f   c_occludertool.obj
 0002:000842f0       ?GetOccluderOrigin@COccluderTool@@AAE?AV?$CVec3@M@@I@Z 1910f2f0 f   c_occludertool.obj
 0002:00084580       ?UpdateOccluderSelectionSetDeletion@COccluderTool@@AAEXAAV?$set@IU?$less@I@std@@V?$K2SetAllocator@I@@@@I@Z 1910f580 f   c_occludertool.obj
 0002:00084750       ?UpdateOccluderSelectionSetAddition@COccluderTool@@AAEXAAV?$set@IU?$less@I@std@@V?$K2SetAllocator@I@@@@I@Z 1910f750 f   c_occludertool.obj
 0002:00084920       ?SnapCursor@COccluderTool@@AAEXABV?$CVec3@M@@@Z 1910f920 f   c_occludertool.obj
 0002:000849f0       ?RemoveOccluderVertex@COccluderTool@@AAEXIAAVCOccluder@@@Z 1910f9f0 f   c_occludertool.obj
 0002:00084a80       ?GetPoints@COccluder@@QAEPAV?$CVec3@M@@XZ 1910fa80 f i c_occludertool.obj
 0002:00084aa0       ?SplitOccluderVertices@COccluderTool@@AAEXIIAAVCOccluder@@@Z 1910faa0 f   c_occludertool.obj
 0002:00084bd0       ?CloneSelection@COccluderTool@@AAEXXZ 1910fbd0 f   c_occludertool.obj
 0002:00084ec0       ?SetOccluderSelectMode@COccluderTool@@QAEXW4EOccluderSelectMode@@@Z 1910fec0 f   c_occludertool.obj
 0002:000851a0       ?uiOccluderEditModeFn@@YA?AV?$basic_string@_WU?$char_traits@_W@std@@V?$K2StringAllocator@_W@@@std@@PAVIWidget@@ABV?$vector@PAVCUIScriptToken@@V?$K2VectorAllocator@PAVCUIScriptToken@@@@@@@Z 191101a0 f   c_occludertool.obj
 0002:00085200       ?uiOccluderEditModeVoidFn@@YAXPAVIWidget@@ABV?$vector@PAVCUIScriptToken@@V?$K2VectorAllocator@PAVCUIScriptToken@@@@@@@Z 19110200 f   c_occludertool.obj
 0002:00085830       ?uiOccluderCenterModeFn@@YA?AV?$basic_string@_WU?$char_traits@_W@std@@V?$K2StringAllocator@_W@@@std@@PAVIWidget@@ABV?$vector@PAVCUIScriptToken@@V?$K2VectorAllocator@PAVCUIScriptToken@@@@@@@Z 19110830 f   c_occludertool.obj
 0002:00085890       ?Move@CMemManager@@SAPAXPAXPBXI@Z 19110890 f i c_occludertool.obj
 0002:000858c0       ?uiOccluderCenterModeVoidFn@@YAXPAVIWidget@@ABV?$vector@PAVCUIScriptToken@@V?$K2VectorAllocator@PAVCUIScriptToken@@@@@@@Z 191108c0 f   c_occludertool.obj
 0002:00085a90       ?uiOccluderSelectModeFn@@YA?AV?$basic_string@_WU?$char_traits@_W@std@@V?$K2StringAllocator@_W@@@std@@PAVIWidget@@ABV?$vector@PAVCUIScriptToken@@V?$K2VectorAllocator@PAVCUIScriptToken@@@@@@@Z 19110a90 f   c_occludertool.obj
 0002:00085af0       ?uiOccluderSelectModeVoidFn@@YAXPAVIWidget@@ABV?$vector@PAVCUIScriptToken@@V?$K2VectorAllocator@PAVCUIScriptToken@@@@@@@Z 19110af0 f   c_occludertool.obj
 0002:00085e10       ?uiOccluderSplitFn@@YA?AV?$basic_string@_WU?$char_traits@_W@std@@V?$K2StringAllocator@_W@@@std@@PAVIWidget@@ABV?$vector@PAVCUIScriptToken@@V?$K2VectorAllocator@PAVCUIScriptToken@@@@@@@Z 19110e10 f   c_occludertool.obj
 0002:00085e70       ?uiOccluderSplitVoidFn@@YAXPAVIWidget@@ABV?$vector@PAVCUIScriptToken@@V?$K2VectorAllocator@PAVCUIScriptToken@@@@@@@Z 19110e70 f   c_occludertool.obj
 0002:00085f40       ?begin@?$_Tree@V?$_Tmap_traits@IPAVCOccluder@@U?$less@I@std@@V?$K2MapAllocator@U?$pair@$$CBIPAVCOccluder@@@std@@@@$0A@@std@@@std@@QBE?AVconst_iterator@12@XZ 19110f40 f i c_occludertool.obj
 0002:00085f90       ?end@?$_Tree@V?$_Tmap_traits@IPAVCOccluder@@U?$less@I@std@@V?$K2MapAllocator@U?$pair@$$CBIPAVCOccluder@@@std@@@@$0A@@std@@@std@@QBE?AVconst_iterator@12@XZ 19110f90 f i c_occludertool.obj
 0002:00085fe0       ??Cconst_iterator@?$_Tree@V?$_Tmap_traits@IPAVCOccluder@@U?$less@I@std@@V?$K2MapAllocator@U?$pair@$$CBIPAVCOccluder@@@std@@@@$0A@@std@@@std@@QBEPBU?$pair@$$CBIPAVCOccluder@@@2@XZ 19110fe0 f i c_occludertool.obj
 0002:00086010       ??Econst_iterator@?$_Tree@V?$_Tmap_traits@IPAVCOccluder@@U?$less@I@std@@V?$K2MapAllocator@U?$pair@$$CBIPAVCOccluder@@@std@@@@$0A@@std@@@std@@QAEAAV012@XZ 19111010 f i c_occludertool.obj
 0002:00086040       ??9const_iterator@?$_Tree@V?$_Tmap_traits@IPAVCOccluder@@U?$less@I@std@@V?$K2MapAllocator@U?$pair@$$CBIPAVCOccluder@@@std@@@@$0A@@std@@@std@@QBE_NABV012@@Z 19111040 f i c_occludertool.obj
 0002:00086080       ?_Lmost@?$_Tree@V?$_Tmap_traits@IPAVCOccluder@@U?$less@I@std@@V?$K2MapAllocator@U?$pair@$$CBIPAVCOccluder@@@std@@@@$0A@@std@@@std@@IBEAAPAU_Node@?$_Tree_nod@V?$_Tmap_traits@IPAVCOccluder@@U?$less@I@std@@V?$K2MapAllocator@U?$pair@$$CBIPAVCOccluder@@@std@@@@$0A@@std@@@2@XZ 19111080 f i c_occludertool.obj
 0002:000860b0       ??0CAxis@@QAE@MMM@Z        191110b0 f i c_occludertool.obj
 0002:00086110       ??ACAxis@@QBEABV?$CVec3@M@@H@Z 19111110 f i c_occludertool.obj
 0002:00086140       ??0const_iterator@?$_Tree@V?$_Tmap_traits@IPAVCOccluder@@U?$less@I@std@@V?$K2MapAllocator@U?$pair@$$CBIPAVCOccluder@@@std@@@@$0A@@std@@@std@@QAE@PAU_Node@?$_Tree_nod@V?$_Tmap_traits@IPAVCOccluder@@U?$less@I@std@@V?$K2MapAllocator@U?$pair@$$CBIPAVCOccluder@@@std@@@@$0A@@std@@@2@PBV12@@Z 19111140 f i c_occludertool.obj
 0002:000861d0       ??Dconst_iterator@?$_Tree@V?$_Tmap_traits@IPAVCOccluder@@U?$less@I@std@@V?$K2MapAllocator@U?$pair@$$CBIPAVCOccluder@@@std@@@@$0A@@std@@@std@@QBEABU?$pair@$$CBIPAVCOccluder@@@2@XZ 191111d0 f i c_occludertool.obj
 0002:00086290       ??8const_iterator@?$_Tree@V?$_Tmap_traits@IPAVCOccluder@@U?$less@I@std@@V?$K2MapAllocator@U?$pair@$$CBIPAVCOccluder@@@std@@@@$0A@@std@@@std@@QBE_NABV012@@Z 19111290 f i c_occludertool.obj
 0002:00086350       ??0CPlane@@QAE@MMMM@Z      19111350 f i c_occludertool.obj
 0002:000863b0       ?_Inc@const_iterator@?$_Tree@V?$_Tmap_traits@IPAVCOccluder@@U?$less@I@std@@V?$K2MapAllocator@U?$pair@$$CBIPAVCOccluder@@@std@@@@$0A@@std@@@std@@QAEXXZ 191113b0 f i c_occludertool.obj
 0002:00086520       ??0CPlane@@QAE@ABV?$CVec3@M@@00_N@Z 19111520 f i c_occludertool.obj
 0002:00086590       ??0?$_Bidit@U?$pair@$$CBIPAVCOccluder@@@std@@HPBU12@ABU12@@std@@QAE@XZ 19111590 f i c_occludertool.obj
 0002:000865c0       ?CalcPlane@CPlane@@QAEXABV?$CVec3@M@@00@Z 191115c0 f i c_occludertool.obj
 0002:00086740       ?CalcPlaneNormalized@CPlane@@QAEXABV?$CVec3@M@@00@Z 19111740 f i c_occludertool.obj
 0002:000867e0       ?IsValid@CPlane@@QBE_NXZ   191117e0 f i c_occludertool.obj
 0002:00086890       ?_Isnil@?$_Tree@V?$_Tmap_traits@IPAVCOccluder@@U?$less@I@std@@V?$K2MapAllocator@U?$pair@$$CBIPAVCOccluder@@@std@@@@$0A@@std@@@std@@KAAADPAU_Node@?$_Tree_nod@V?$_Tmap_traits@IPAVCOccluder@@U?$less@I@std@@V?$K2MapAllocator@U?$pair@$$CBIPAVCOccluder@@@std@@@@$0A@@std@@@2@@Z 19111890 f i c_occludertool.obj
 0002:000868b0       ?_Left@?$_Tree@V?$_Tmap_traits@IPAVCOccluder@@U?$less@I@std@@V?$K2MapAllocator@U?$pair@$$CBIPAVCOccluder@@@std@@@@$0A@@std@@@std@@KAAAPAU_Node@?$_Tree_nod@V?$_Tmap_traits@IPAVCOccluder@@U?$less@I@std@@V?$K2MapAllocator@U?$pair@$$CBIPAVCOccluder@@@std@@@@$0A@@std@@@2@PAU342@@Z 191118b0 f i c_occludertool.obj
 0002:000868d0       ?_Parent@?$_Tree@V?$_Tmap_traits@IPAVCOccluder@@U?$less@I@std@@V?$K2MapAllocator@U?$pair@$$CBIPAVCOccluder@@@std@@@@$0A@@std@@@std@@KAAAPAU_Node@?$_Tree_nod@V?$_Tmap_traits@IPAVCOccluder@@U?$less@I@std@@V?$K2MapAllocator@U?$pair@$$CBIPAVCOccluder@@@std@@@@$0A@@std@@@2@PAU342@@Z 191118d0 f i c_occludertool.obj
 0002:000868f0       ?_Right@?$_Tree@V?$_Tmap_traits@IPAVCOccluder@@U?$less@I@std@@V?$K2MapAllocator@U?$pair@$$CBIPAVCOccluder@@@std@@@@$0A@@std@@@std@@KAAAPAU_Node@?$_Tree_nod@V?$_Tmap_traits@IPAVCOccluder@@U?$less@I@std@@V?$K2MapAllocator@U?$pair@$$CBIPAVCOccluder@@@std@@@@$0A@@std@@@2@PAU342@@Z 191118f0 f i c_occludertool.obj
 0002:00086910       ?_Myval@?$_Tree@V?$_Tmap_traits@IPAVCOccluder@@U?$less@I@std@@V?$K2MapAllocator@U?$pair@$$CBIPAVCOccluder@@@std@@@@$0A@@std@@@std@@KAAAU?$pair@$$CBIPAVCOccluder@@@2@PAU_Node@?$_Tree_nod@V?$_Tmap_traits@IPAVCOccluder@@U?$less@I@std@@V?$K2MapAllocator@U?$pair@$$CBIPAVCOccluder@@@std@@@@$0A@@std@@@2@@Z 19111910 f i c_occludertool.obj
 0002:00086930       ?_Min@?$_Tree@V?$_Tmap_traits@IPAVCOccluder@@U?$less@I@std@@V?$K2MapAllocator@U?$pair@$$CBIPAVCOccluder@@@std@@@@$0A@@std@@@std@@KAPAU_Node@?$_Tree_nod@V?$_Tmap_traits@IPAVCOccluder@@U?$less@I@std@@V?$K2MapAllocator@U?$pair@$$CBIPAVCOccluder@@@std@@@@$0A@@std@@@2@PAU342@@Z 19111930 f i c_occludertool.obj
 0002:00086990       ?GetOccluder@CWorld@@QAEPAVCOccluder@@I_N@Z 19111990 f i c_occludertool.obj
 0002:000869d0       ?AllocateNewOccluder@CWorld@@QBEIXZ 191119d0 f i c_occludertool.obj
 0002:00086a00       ?DeleteOccluder@CWorld@@QBEXI@Z 19111a00 f i c_occludertool.obj
 0002:00086a40       ?GetOccluderMap@CWorld@@QBEAAV?$map@IPAVCOccluder@@U?$less@I@std@@V?$K2MapAllocator@U?$pair@$$CBIPAVCOccluder@@@std@@@@@@XZ 19111a40 f i c_occludertool.obj
 0002:00086a70       ??$CrossProduct@M@@YA?AV?$CVec3@M@@ABV0@0@Z 19111a70 f i c_occludertool.obj
 0002:00086b20       ??$DotProduct@M@@YAMABV?$CVec3@M@@0@Z 19111b20 f i c_occludertool.obj
 0002:00086b70       ??0CPaintTool@@QAE@XZ      19111b70 f   c_painttool.obj
 0002:00086e20       ??_GCPaintTool@@UAEPAXI@Z  19111e20 f i c_painttool.obj
 0002:00086e20       ??_ECPaintTool@@UAEPAXI@Z  19111e20 f i c_painttool.obj
 0002:00086e70       ??1CPaintTool@@UAE@XZ      19111e70 f i c_painttool.obj
 0002:00086ed0       ?PrimaryUp@CPaintTool@@UAEXXZ 19111ed0 f   c_painttool.obj
 0002:00086f10       ?PrimaryDown@CPaintTool@@UAEXXZ 19111f10 f   c_painttool.obj
 0002:00087390       ?SecondaryUp@CPaintTool@@UAEXXZ 19112390 f   c_painttool.obj
 0002:000873e0       ?SecondaryDown@CPaintTool@@UAEXXZ 191123e0 f   c_painttool.obj
 0002:00087470       ?TertiaryUp@CPaintTool@@UAEXXZ 19112470 f   c_painttool.obj
 0002:00087490       ?TertiaryDown@CPaintTool@@UAEXXZ 19112490 f   c_painttool.obj
 0002:000874b0       ?QuaternaryUp@CPaintTool@@UAEXXZ 191124b0 f   c_painttool.obj
 0002:000874d0       ?QuaternaryDown@CPaintTool@@UAEXXZ 191124d0 f   c_painttool.obj
 0002:000874f0       ?Cancel@CPaintTool@@UAEXXZ 191124f0 f   c_painttool.obj
 0002:00087510       ?Delete@CPaintTool@@UAEXXZ 19112510 f   c_painttool.obj
 0002:00087530       ?CalcToolProperties@CPaintTool@@QAEXXZ 19112530 f   c_painttool.obj
 0002:000881c0       ?LerpColor@CPaintTool@@CAXPAV?$CVec4@E@@ABV?$CRect@H@@ABVCBrush@@ABV?$CVec4@M@@M@Z 191131c0 f   c_painttool.obj
 0002:00088590       ?LerpAlpha@CPaintTool@@CAXPAV?$CVec4@E@@ABV?$CRect@H@@ABVCBrush@@MM@Z 19113590 f   c_painttool.obj
 0002:00088770       ?PaintVertex@CPaintTool@@AAEXM@Z 19113770 f   c_painttool.obj
 0002:00088e60       ?ApplyTextureTile@CPaintTool@@AAEXPAUSTile@@ABV?$CRect@H@@ABVCBrush@@III@Z 19113e60 f   c_painttool.obj
 0002:00088fc0       ?ApplyTextureTileStroked@CPaintTool@@CAXPAUSTile@@ABV?$CRect@H@@ABVCBrush@@III@Z 19113fc0 f   c_painttool.obj
 0002:000891e0       ?PaintTile@CPaintTool@@AAEXM@Z 191141e0 f   c_painttool.obj
 0002:000899b0       ?GetScale@CMaterialBrush@@QBEHXZ 191149b0 f i c_painttool.obj
 0002:000899d0       ?LerpTexelAlpha@CPaintTool@@CAXPAEABV?$CRect@H@@ABVCBrush@@MM@Z 191149d0 f   c_painttool.obj
 0002:00089b90       ?PaintTexel@CPaintTool@@AAEXM@Z 19114b90 f   c_painttool.obj
 0002:0008a1b0       ?Frame@CPaintTool@@UAEXM@Z 191151b0 f   c_painttool.obj
 0002:0008a600       ?Draw@CPaintTool@@UAEXXZ   19115600 f   c_painttool.obj
 0002:0008b450       ?Render@CPaintTool@@UAEXXZ 19116450 f   c_painttool.obj
 0002:0008edd0       ?uiSetPaintModeFn@@YA?AV?$basic_string@_WU?$char_traits@_W@std@@V?$K2StringAllocator@_W@@@std@@PAVIWidget@@ABV?$vector@PAVCUIScriptToken@@V?$K2VectorAllocator@PAVCUIScriptToken@@@@@@@Z 19119dd0 f   c_painttool.obj
 0002:0008ee30       ?uiSetPaintModeVoidFn@@YAXPAVIWidget@@ABV?$vector@PAVCUIScriptToken@@V?$K2VectorAllocator@PAVCUIScriptToken@@@@@@@Z 19119e30 f   c_painttool.obj
 0002:0008f1a0       ?substr@?$basic_string@_WU?$char_traits@_W@std@@V?$K2StringAllocator@_W@@@std@@QBE?AV12@II@Z 1911a1a0 f i c_painttool.obj
 0002:0008f1f0       ??0?$basic_string@_WU?$char_traits@_W@std@@V?$K2StringAllocator@_W@@@std@@QAE@ABV01@II@Z 1911a1f0 f i c_painttool.obj
 0002:0008f2b0       ??$PCF@E@@YAEPBMPBE@Z      1911a2b0 f i c_painttool.obj
 0002:0008f330       ??$LERP@E@@YAEMEE@Z        1911a330 f i c_painttool.obj
 0002:0008f390       ?GetGridColor@CWorld@@QBEABV?$CVec4@E@@HH@Z 1911a390 f i c_painttool.obj
 0002:0008f3d0       ?GetTileMaterial@CWorld@@QBEIHHH@Z 1911a3d0 f i c_painttool.obj
 0002:0008f420       ?GetTileDiffuseTexture@CWorld@@QBEIHHH@Z 1911a420 f i c_painttool.obj
 0002:0008f470       ?GetTileNormalmapTexture@CWorld@@QBEIHHH@Z 1911a470 f i c_painttool.obj
 0002:0008f4c0       ??0CSoundTool@@QAE@XZ      1911a4c0 f   c_soundtool.obj
 0002:0008f770       ??0CSoundTraceResult@@QAE@XZ 1911a770 f i c_soundtool.obj
 0002:0008f7e0       ?SecondaryUp@CSoundTool@@UAEXXZ 1911a7e0 f i c_soundtool.obj
 0002:0008f800       ?TertiaryUp@CSoundTool@@UAEXXZ 1911a800 f i c_soundtool.obj
 0002:0008f820       ?TertiaryDown@CSoundTool@@UAEXXZ 1911a820 f i c_soundtool.obj
 0002:0008f840       ?QuaternaryUp@CSoundTool@@UAEXXZ 1911a840 f i c_soundtool.obj
 0002:0008f860       ?QuaternaryDown@CSoundTool@@UAEXXZ 1911a860 f i c_soundtool.obj
 0002:0008f880       ??_ECSoundTool@@UAEPAXI@Z  1911a880 f i c_soundtool.obj
 0002:0008f880       ??_GCSoundTool@@UAEPAXI@Z  1911a880 f i c_soundtool.obj
 0002:0008f8d0       ??1CSoundTool@@UAE@XZ      1911a8d0 f i c_soundtool.obj
 0002:0008f990       ??1?$map@HUSSoundInfo@CSoundTool@@U?$less@H@std@@V?$K2MapAllocator@U?$pair@$$CBHUSSoundInfo@CSoundTool@@@std@@@@@@QAE@XZ 1911a990 f i c_soundtool.obj
 0002:0008f9c0       ??1?$map@HUSSoundInfo@CSoundTool@@U?$less@H@std@@V?$K2MapAllocator@U?$pair@$$CBHUSSoundInfo@CSoundTool@@@std@@@@@std@@QAE@XZ 1911a9c0 f i c_soundtool.obj
 0002:0008f9f0       ?PrimaryUp@CSoundTool@@UAEXXZ 1911a9f0 f   c_soundtool.obj
 0002:0008fb80       ?PrimaryDown@CSoundTool@@UAEXXZ 1911ab80 f   c_soundtool.obj
 0002:0008fc10       ?SecondaryDown@CSoundTool@@UAEXXZ 1911ac10 f   c_soundtool.obj
 0002:0008fce0       ?Cancel@CSoundTool@@UAEXXZ 1911ace0 f   c_soundtool.obj
 0002:0008fda0       ?GetSoundPosition@CSoundTool@@AAE?AV?$CVec3@M@@I@Z 1911ada0 f   c_soundtool.obj
 0002:0008ffd0       ?GetPosition@CWorldSound@@QBEABV?$CVec3@M@@XZ 1911afd0 f i c_soundtool.obj
 0002:0008fff0       ?Delete@CSoundTool@@UAEXXZ 1911aff0 f   c_soundtool.obj
 0002:000902a0       ?CursorSoundTrace@CSoundTool@@AAE_NAAVCSoundTraceResult@@@Z 1911b2a0 f   c_soundtool.obj
 0002:00090670       ?Clear@CSoundTraceResult@@QAEXXZ 1911b670 f i c_soundtool.obj
 0002:000906d0       ?GetIndex@CWorldSound@@QBEIXZ 1911b6d0 f i c_soundtool.obj
 0002:000906f0       ??1iterator@?$_Tree@V?$_Tmap_traits@IPAVCWorldSound@@U?$less@I@std@@V?$K2MapAllocator@U?$pair@$$CBIPAVCWorldSound@@@std@@@@$0A@@std@@@std@@QAE@XZ 1911b6f0 f i c_soundtool.obj
 0002:00090720       ??1const_iterator@?$_Tree@V?$_Tmap_traits@IPAVCWorldSound@@U?$less@I@std@@V?$K2MapAllocator@U?$pair@$$CBIPAVCWorldSound@@@std@@@@$0A@@std@@@std@@QAE@XZ 1911b720 f i c_soundtool.obj
 0002:00090750       ??1?$_Bidit@U?$pair@$$CBIPAVCWorldSound@@@std@@HPBU12@ABU12@@std@@QAE@XZ 1911b750 f i c_soundtool.obj
 0002:00090780       ?CalcToolProperties@CSoundTool@@QAEXXZ 1911b780 f   c_soundtool.obj
 0002:000908d0       ?CreateSound@CSoundTool@@QAEIABV?$CVec3@M@@@Z 1911b8d0 f   c_soundtool.obj
 0002:00090ac0       ?SetPosition@CWorldSound@@QAEXABV?$CVec3@M@@@Z 1911bac0 f i c_soundtool.obj
 0002:00090b00       ?SetSound@CWorldSound@@QAEXABV?$basic_string@_WU?$char_traits@_W@std@@V?$K2StringAllocator@_W@@@std@@@Z 1911bb00 f i c_soundtool.obj
 0002:00090b30       ?SetVolume@CWorldSound@@QAEXM@Z 1911bb30 f i c_soundtool.obj
 0002:00090b60       ?SetFalloff@CWorldSound@@QAEXM@Z 1911bb60 f i c_soundtool.obj
 0002:00090b90       ?SetLoopDelay@CWorldSound@@QAEXHH@Z 1911bb90 f i c_soundtool.obj
 0002:00090bd0       ?Hovering@CSoundTool@@AAEXXZ 1911bbd0 f   c_soundtool.obj
 0002:00090bf0       ?TranslateXY@CSoundTool@@AAEXXZ 1911bbf0 f   c_soundtool.obj
 0002:00090e70       ?TranslateZ@CSoundTool@@AAEXXZ 1911be70 f   c_soundtool.obj
 0002:00090f60       ?Create@CSoundTool@@AAEXXZ 1911bf60 f   c_soundtool.obj
 0002:00091470       ?StartSelect@CSoundTool@@AAEXXZ 1911c470 f   c_soundtool.obj
 0002:00091930       ?StartTranslateXY@CSoundTool@@AAEXXZ 1911c930 f   c_soundtool.obj
 0002:00091f70       ?StartTransform@CSoundTool@@AAEXH@Z 1911cf70 f   c_soundtool.obj
 0002:00092500       ?ApplySelect@CSoundTool@@AAEXXZ 1911d500 f   c_soundtool.obj
 0002:00092920       ?ApplyTransform@CSoundTool@@AAEXXZ 1911d920 f   c_soundtool.obj
 0002:00092e70       ?UpdateHoverSelection@CSoundTool@@AAEXXZ 1911de70 f   c_soundtool.obj
 0002:00093180       ?StartSound@CSoundTool@@AAEXI@Z 1911e180 f   c_soundtool.obj
 0002:00093540       ?GetSound@CWorldSound@@QBEABV?$basic_string@_WU?$char_traits@_W@std@@V?$K2StringAllocator@_W@@@std@@XZ 1911e540 f i c_soundtool.obj
 0002:00093560       ?StopSound@CSoundTool@@AAEXI@Z 1911e560 f   c_soundtool.obj
 0002:000936d0       ??1iterator@?$_Tree@V?$_Tmap_traits@HUSSoundInfo@CSoundTool@@U?$less@H@std@@V?$K2MapAllocator@U?$pair@$$CBHUSSoundInfo@CSoundTool@@@std@@@@$0A@@std@@@std@@QAE@XZ 1911e6d0 f i c_soundtool.obj
 0002:00093700       ??0iterator@?$_Tree@V?$_Tmap_traits@HUSSoundInfo@CSoundTool@@U?$less@H@std@@V?$K2MapAllocator@U?$pair@$$CBHUSSoundInfo@CSoundTool@@@std@@@@$0A@@std@@@std@@QAE@ABV012@@Z 1911e700 f i c_soundtool.obj
 0002:00093730       ??1const_iterator@?$_Tree@V?$_Tmap_traits@HUSSoundInfo@CSoundTool@@U?$less@H@std@@V?$K2MapAllocator@U?$pair@$$CBHUSSoundInfo@CSoundTool@@@std@@@@$0A@@std@@@std@@QAE@XZ 1911e730 f i c_soundtool.obj
 0002:00093760       ??0const_iterator@?$_Tree@V?$_Tmap_traits@HUSSoundInfo@CSoundTool@@U?$less@H@std@@V?$K2MapAllocator@U?$pair@$$CBHUSSoundInfo@CSoundTool@@@std@@@@$0A@@std@@@std@@QAE@ABV012@@Z 1911e760 f i c_soundtool.obj
 0002:000937a0       ??1?$_Bidit@U?$pair@$$CBHUSSoundInfo@CSoundTool@@@std@@HPBU12@ABU12@@std@@QAE@XZ 1911e7a0 f i c_soundtool.obj
 0002:000937d0       ??0?$_Bidit@U?$pair@$$CBHUSSoundInfo@CSoundTool@@@std@@HPBU12@ABU12@@std@@QAE@ABU01@@Z 1911e7d0 f i c_soundtool.obj
 0002:00093800       ?SetVolume@CSoundTool@@AAEXIM@Z 1911e800 f   c_soundtool.obj
 0002:00093950       ?UpdateSounds@CSoundTool@@AAEXXZ 1911e950 f   c_soundtool.obj
 0002:00093c80       ?GetVolume@CWorldSound@@QBEMXZ 1911ec80 f i c_soundtool.obj
 0002:00093ca0       ?GetFalloff@CWorldSound@@QBEMXZ 1911eca0 f i c_soundtool.obj
 0002:00093cc0       ?GetLoopDelay@CWorldSound@@QBEABV?$CRange@H@@XZ 1911ecc0 f i c_soundtool.obj
 0002:00093ce0       ?Enter@CSoundTool@@UAEXXZ  1911ece0 f   c_soundtool.obj
 0002:00093e90       ?Leave@CSoundTool@@UAEXXZ  1911ee90 f   c_soundtool.obj
 0002:00094010       ??4iterator@?$_Tree@V?$_Tmap_traits@HUSSoundInfo@CSoundTool@@U?$less@H@std@@V?$K2MapAllocator@U?$pair@$$CBHUSSoundInfo@CSoundTool@@@std@@@@$0A@@std@@@std@@QAEAAV012@ABV012@@Z 1911f010 f i c_soundtool.obj
 0002:00094040       ??4const_iterator@?$_Tree@V?$_Tmap_traits@HUSSoundInfo@CSoundTool@@U?$less@H@std@@V?$K2MapAllocator@U?$pair@$$CBHUSSoundInfo@CSoundTool@@@std@@@@$0A@@std@@@std@@QAEAAV012@ABV012@@Z 1911f040 f i c_soundtool.obj
 0002:00094080       ??4?$_Bidit@U?$pair@$$CBHUSSoundInfo@CSoundTool@@@std@@HPBU12@ABU12@@std@@QAEAAU01@ABU01@@Z 1911f080 f i c_soundtool.obj
 0002:000940b0       ?Frame@CSoundTool@@UAEXM@Z 1911f0b0 f   c_soundtool.obj
 0002:00094220       ?GetCurrentSoundPosition@CSoundTool@@QAE?AV?$CVec3@M@@I@Z 1911f220 f   c_soundtool.obj
 0002:000946f0       ?GetVolume@CSoundTool@@QAEMI@Z 1911f6f0 f   c_soundtool.obj
 0002:00094820       ?GetFalloff@CSoundTool@@QAEMI@Z 1911f820 f   c_soundtool.obj
 0002:00094950       ?GetLoopDelayMin@CSoundTool@@QAEHI@Z 1911f950 f   c_soundtool.obj
 0002:00094a80       ?GetLoopDelayMax@CSoundTool@@QAEHI@Z 1911fa80 f   c_soundtool.obj
 0002:00094bb0       ?GetSelectionRect@CSoundTool@@QAE?AV?$CRect@M@@XZ 1911fbb0 f   c_soundtool.obj
 0002:00094d00       ?IsSelected@CSoundTool@@QAEHI@Z 1911fd00 f   c_soundtool.obj
 0002:00094de0       ?IsHoverSelected@CSoundTool@@QAEHI@Z 1911fde0 f   c_soundtool.obj
 0002:00094ed0       ?SelectNextSound@CSoundTool@@QAEXXZ 1911fed0 f   c_soundtool.obj
 0002:00095300       ?SelectPreviousSound@CSoundTool@@QAEXXZ 19120300 f   c_soundtool.obj
 0002:00095730       ??1?$reverse_iterator@Viterator@?$_Tree@V?$_Tmap_traits@IPAVCWorldSound@@U?$less@I@std@@V?$K2MapAllocator@U?$pair@$$CBIPAVCWorldSound@@@std@@@@$0A@@std@@@std@@@std@@QAE@XZ 19120730 f i c_soundtool.obj
 0002:000957b0       ?Draw@CSoundTool@@UAEXXZ   191207b0 f   c_soundtool.obj
 0002:00095940       ?DrawSound@CSoundTool@@AAEXI@Z 19120940 f   c_soundtool.obj
 0002:00096370       ?Render@CSoundTool@@UAEXXZ 19121370 f   c_soundtool.obj
 0002:00096480       ?SelectionCenter@CSoundTool@@AAE?AV?$CVec3@M@@XZ 19121480 f   c_soundtool.obj
 0002:00096620       ?IsSelectionActive@CSoundTool@@QAE_NXZ 19121620 f   c_soundtool.obj
 0002:00096650       ?SnapCursor@CSoundTool@@AAEXABV?$CVec3@M@@@Z 19121650 f   c_soundtool.obj
 0002:00096720       ?PlayWorldAmbientSound@CSoundTool@@QAEXXZ 19121720 f   c_soundtool.obj
 0002:000968c0       ?StopWorldAmbientSound@CSoundTool@@QAEXXZ 191218c0 f   c_soundtool.obj
 0002:00096920       ?SetWorldAmbientSoundVolume@CSoundTool@@QAEXM@Z 19121920 f   c_soundtool.obj
 0002:00096980       ?CloneSelection@CSoundTool@@AAEXXZ 19121980 f   c_soundtool.obj
 0002:00096d70       ??4CWorldSound@@QAEAAV0@ABV0@@Z 19121d70 f i c_soundtool.obj
 0002:00096e00       ?SetSelectionSound@CSoundTool@@QAEXABV?$basic_string@_WU?$char_traits@_W@std@@V?$K2StringAllocator@_W@@@std@@@Z 19121e00 f   c_soundtool.obj
 0002:00097010       ?SetSelectionVolume@CSoundTool@@QAEXM@Z 19122010 f   c_soundtool.obj
 0002:000972b0       ?SetSelectionFalloff@CSoundTool@@QAEXM@Z 191222b0 f   c_soundtool.obj
 0002:000974c0       ?SetSelectionLoopDelayMin@CSoundTool@@QAEXH@Z 191224c0 f   c_soundtool.obj
 0002:00097700       ?SetSelectionLoopDelayMax@CSoundTool@@QAEXH@Z 19122700 f   c_soundtool.obj
 0002:00097940       ?uiGetSelectionSoundFn@@YA?AV?$basic_string@_WU?$char_traits@_W@std@@V?$K2StringAllocator@_W@@@std@@PAVIWidget@@ABV?$vector@PAVCUIScriptToken@@V?$K2VectorAllocator@PAVCUIScriptToken@@@@@@@Z 19122940 f   c_soundtool.obj
 0002:00097be0       ?GetSelectionSet@CSoundTool@@QAEABV?$set@IU?$less@I@std@@V?$K2SetAllocator@I@@@@XZ 19122be0 f i c_soundtool.obj
 0002:00097c00       ?uiGetSelectionVolumeFn@@YA?AV?$basic_string@_WU?$char_traits@_W@std@@V?$K2StringAllocator@_W@@@std@@PAVIWidget@@ABV?$vector@PAVCUIScriptToken@@V?$K2VectorAllocator@PAVCUIScriptToken@@@@@@@Z 19122c00 f   c_soundtool.obj
 0002:00097eb0       ?uiGetSelectionFalloffFn@@YA?AV?$basic_string@_WU?$char_traits@_W@std@@V?$K2StringAllocator@_W@@@std@@PAVIWidget@@ABV?$vector@PAVCUIScriptToken@@V?$K2VectorAllocator@PAVCUIScriptToken@@@@@@@Z 19122eb0 f   c_soundtool.obj
 0002:00098160       ?uiGetSelectionLoopDelayMinFn@@YA?AV?$basic_string@_WU?$char_traits@_W@std@@V?$K2StringAllocator@_W@@@std@@PAVIWidget@@ABV?$vector@PAVCUIScriptToken@@V?$K2VectorAllocator@PAVCUIScriptToken@@@@@@@Z 19123160 f   c_soundtool.obj
 0002:00098420       ?uiGetSelectionLoopDelayMaxFn@@YA?AV?$basic_string@_WU?$char_traits@_W@std@@V?$K2StringAllocator@_W@@@std@@PAVIWidget@@ABV?$vector@PAVCUIScriptToken@@V?$K2VectorAllocator@PAVCUIScriptToken@@@@@@@Z 19123420 f   c_soundtool.obj
 0002:000986e0       ?uiGetSelectionDetailsFn@@YA?AV?$basic_string@_WU?$char_traits@_W@std@@V?$K2StringAllocator@_W@@@std@@PAVIWidget@@ABV?$vector@PAVCUIScriptToken@@V?$K2VectorAllocator@PAVCUIScriptToken@@@@@@@Z 191236e0 f   c_soundtool.obj
 0002:00098c90       ?uiSetSelectionSoundFn@@YA?AV?$basic_string@_WU?$char_traits@_W@std@@V?$K2StringAllocator@_W@@@std@@PAVIWidget@@ABV?$vector@PAVCUIScriptToken@@V?$K2VectorAllocator@PAVCUIScriptToken@@@@@@@Z 19123c90 f   c_soundtool.obj
 0002:00098cf0       ?uiSetSelectionSoundVoidFn@@YAXPAVIWidget@@ABV?$vector@PAVCUIScriptToken@@V?$K2VectorAllocator@PAVCUIScriptToken@@@@@@@Z 19123cf0 f   c_soundtool.obj
 0002:00098e90       ?uiSetSelectionVolumeFn@@YA?AV?$basic_string@_WU?$char_traits@_W@std@@V?$K2StringAllocator@_W@@@std@@PAVIWidget@@ABV?$vector@PAVCUIScriptToken@@V?$K2VectorAllocator@PAVCUIScriptToken@@@@@@@Z 19123e90 f   c_soundtool.obj
 0002:00098ef0       ?uiSetSelectionVolumeVoidFn@@YAXPAVIWidget@@ABV?$vector@PAVCUIScriptToken@@V?$K2VectorAllocator@PAVCUIScriptToken@@@@@@@Z 19123ef0 f   c_soundtool.obj
 0002:000990b0       ?uiSetSelectionFalloffFn@@YA?AV?$basic_string@_WU?$char_traits@_W@std@@V?$K2StringAllocator@_W@@@std@@PAVIWidget@@ABV?$vector@PAVCUIScriptToken@@V?$K2VectorAllocator@PAVCUIScriptToken@@@@@@@Z 191240b0 f   c_soundtool.obj
 0002:00099110       ?uiSetSelectionFalloffVoidFn@@YAXPAVIWidget@@ABV?$vector@PAVCUIScriptToken@@V?$K2VectorAllocator@PAVCUIScriptToken@@@@@@@Z 19124110 f   c_soundtool.obj
 0002:000992d0       ?uiSetSelectionLoopDelayMinFn@@YA?AV?$basic_string@_WU?$char_traits@_W@std@@V?$K2StringAllocator@_W@@@std@@PAVIWidget@@ABV?$vector@PAVCUIScriptToken@@V?$K2VectorAllocator@PAVCUIScriptToken@@@@@@@Z 191242d0 f   c_soundtool.obj
 0002:00099330       ?uiSetSelectionLoopDelayMinVoidFn@@YAXPAVIWidget@@ABV?$vector@PAVCUIScriptToken@@V?$K2VectorAllocator@PAVCUIScriptToken@@@@@@@Z 19124330 f   c_soundtool.obj
 0002:000994f0       ?uiSetSelectionLoopDelayMaxFn@@YA?AV?$basic_string@_WU?$char_traits@_W@std@@V?$K2StringAllocator@_W@@@std@@PAVIWidget@@ABV?$vector@PAVCUIScriptToken@@V?$K2VectorAllocator@PAVCUIScriptToken@@@@@@@Z 191244f0 f   c_soundtool.obj
 0002:00099550       ?uiSetSelectionLoopDelayMaxVoidFn@@YAXPAVIWidget@@ABV?$vector@PAVCUIScriptToken@@V?$K2VectorAllocator@PAVCUIScriptToken@@@@@@@Z 19124550 f   c_soundtool.obj
 0002:00099710       ?uiSelectNextSoundFn@@YA?AV?$basic_string@_WU?$char_traits@_W@std@@V?$K2StringAllocator@_W@@@std@@PAVIWidget@@ABV?$vector@PAVCUIScriptToken@@V?$K2VectorAllocator@PAVCUIScriptToken@@@@@@@Z 19124710 f   c_soundtool.obj
 0002:00099770       ?uiSelectNextSoundVoidFn@@YAXPAVIWidget@@ABV?$vector@PAVCUIScriptToken@@V?$K2VectorAllocator@PAVCUIScriptToken@@@@@@@Z 19124770 f   c_soundtool.obj
 0002:000997a0       ?uiSelectPreviousSoundFn@@YA?AV?$basic_string@_WU?$char_traits@_W@std@@V?$K2StringAllocator@_W@@@std@@PAVIWidget@@ABV?$vector@PAVCUIScriptToken@@V?$K2VectorAllocator@PAVCUIScriptToken@@@@@@@Z 191247a0 f   c_soundtool.obj
 0002:00099800       ?uiSelectPreviousSoundVoidFn@@YAXPAVIWidget@@ABV?$vector@PAVCUIScriptToken@@V?$K2VectorAllocator@PAVCUIScriptToken@@@@@@@Z 19124800 f   c_soundtool.obj
 0002:00099830       ?uiSoundEditModeFn@@YA?AV?$basic_string@_WU?$char_traits@_W@std@@V?$K2StringAllocator@_W@@@std@@PAVIWidget@@ABV?$vector@PAVCUIScriptToken@@V?$K2VectorAllocator@PAVCUIScriptToken@@@@@@@Z 19124830 f   c_soundtool.obj
 0002:00099890       ?uiSoundEditModeVoidFn@@YAXPAVIWidget@@ABV?$vector@PAVCUIScriptToken@@V?$K2VectorAllocator@PAVCUIScriptToken@@@@@@@Z 19124890 f   c_soundtool.obj
 0002:00099c10       ?uiSoundCenterModeFn@@YA?AV?$basic_string@_WU?$char_traits@_W@std@@V?$K2StringAllocator@_W@@@std@@PAVIWidget@@ABV?$vector@PAVCUIScriptToken@@V?$K2VectorAllocator@PAVCUIScriptToken@@@@@@@Z 19124c10 f   c_soundtool.obj
 0002:00099c70       ?uiSoundCenterModeVoidFn@@YAXPAVIWidget@@ABV?$vector@PAVCUIScriptToken@@V?$K2VectorAllocator@PAVCUIScriptToken@@@@@@@Z 19124c70 f   c_soundtool.obj
 0002:00099e40       ?uiStartWorldAmbientSoundFn@@YA?AV?$basic_string@_WU?$char_traits@_W@std@@V?$K2StringAllocator@_W@@@std@@PAVIWidget@@ABV?$vector@PAVCUIScriptToken@@V?$K2VectorAllocator@PAVCUIScriptToken@@@@@@@Z 19124e40 f   c_soundtool.obj
 0002:00099ea0       ?uiStartWorldAmbientSoundVoidFn@@YAXPAVIWidget@@ABV?$vector@PAVCUIScriptToken@@V?$K2VectorAllocator@PAVCUIScriptToken@@@@@@@Z 19124ea0 f   c_soundtool.obj
 0002:00099ed0       ?uiSetWorldAmbientSoundVolumeFn@@YA?AV?$basic_string@_WU?$char_traits@_W@std@@V?$K2StringAllocator@_W@@@std@@PAVIWidget@@ABV?$vector@PAVCUIScriptToken@@V?$K2VectorAllocator@PAVCUIScriptToken@@@@@@@Z 19124ed0 f   c_soundtool.obj
 0002:00099f30       ?uiSetWorldAmbientSoundVolumeVoidFn@@YAXPAVIWidget@@ABV?$vector@PAVCUIScriptToken@@V?$K2VectorAllocator@PAVCUIScriptToken@@@@@@@Z 19124f30 f   c_soundtool.obj
 0002:00099fd0       ?find@?$basic_string@_WU?$char_traits@_W@std@@V?$K2StringAllocator@_W@@@std@@QBEIPB_WI@Z 19124fd0 f i c_soundtool.obj
 0002:0009a010       ?begin@?$_Tree@V?$_Tmap_traits@IPAVCWorldSound@@U?$less@I@std@@V?$K2MapAllocator@U?$pair@$$CBIPAVCWorldSound@@@std@@@@$0A@@std@@@std@@QAE?AViterator@12@XZ 19125010 f i c_soundtool.obj
 0002:0009a060       ?end@?$_Tree@V?$_Tmap_traits@IPAVCWorldSound@@U?$less@I@std@@V?$K2MapAllocator@U?$pair@$$CBIPAVCWorldSound@@@std@@@@$0A@@std@@@std@@QAE?AViterator@12@XZ 19125060 f i c_soundtool.obj
 0002:0009a0b0       ?rbegin@?$_Tree@V?$_Tmap_traits@IPAVCWorldSound@@U?$less@I@std@@V?$K2MapAllocator@U?$pair@$$CBIPAVCWorldSound@@@std@@@@$0A@@std@@@std@@QAE?AV?$reverse_iterator@Viterator@?$_Tree@V?$_Tmap_traits@IPAVCWorldSound@@U?$less@I@std@@V?$K2MapAllocator@U?$pair@$$CBIPAVCWorldSound@@@std@@@@$0A@@std@@@std@@@2@XZ 191250b0 f i c_soundtool.obj
 0002:0009a170       ?empty@?$_Tree@V?$_Tmap_traits@IPAVCWorldSound@@U?$less@I@std@@V?$K2MapAllocator@U?$pair@$$CBIPAVCWorldSound@@@std@@@@$0A@@std@@@std@@QBE_NXZ 19125170 f i c_soundtool.obj
 0002:0009a1a0       ?find@?$_Tree@V?$_Tmap_traits@IPAVCWorldSound@@U?$less@I@std@@V?$K2MapAllocator@U?$pair@$$CBIPAVCWorldSound@@@std@@@@$0A@@std@@@std@@QAE?AViterator@12@ABI@Z 191251a0 f i c_soundtool.obj
 0002:0009a380       ??0?$map@HUSSoundInfo@CSoundTool@@U?$less@H@std@@V?$K2MapAllocator@U?$pair@$$CBHUSSoundInfo@CSoundTool@@@std@@@@@@QAE@XZ 19125380 f i c_soundtool.obj
 0002:0009a3b0       ??A?$map@HUSSoundInfo@CSoundTool@@U?$less@H@std@@V?$K2MapAllocator@U?$pair@$$CBHUSSoundInfo@CSoundTool@@@std@@@@@std@@QAEAAUSSoundInfo@CSoundTool@@ABH@Z 191253b0 f i c_soundtool.obj
 0002:0009a5d0       ??0SSoundInfo@CSoundTool@@QAE@II@Z 191255d0 f i c_soundtool.obj
 0002:0009a610       ??R?$less@H@std@@QBE_NABH0@Z 19125610 f i c_soundtool.obj
 0002:0009a640       ??1?$_Tree@V?$_Tmap_traits@HUSSoundInfo@CSoundTool@@U?$less@H@std@@V?$K2MapAllocator@U?$pair@$$CBHUSSoundInfo@CSoundTool@@@std@@@@$0A@@std@@@std@@QAE@XZ 19125640 f i c_soundtool.obj
 0002:0009a6c0       ?begin@?$_Tree@V?$_Tmap_traits@HUSSoundInfo@CSoundTool@@U?$less@H@std@@V?$K2MapAllocator@U?$pair@$$CBHUSSoundInfo@CSoundTool@@@std@@@@$0A@@std@@@std@@QAE?AViterator@12@XZ 191256c0 f i c_soundtool.obj
 0002:0009a710       ?end@?$_Tree@V?$_Tmap_traits@HUSSoundInfo@CSoundTool@@U?$less@H@std@@V?$K2MapAllocator@U?$pair@$$CBHUSSoundInfo@CSoundTool@@@std@@@@$0A@@std@@@std@@QAE?AViterator@12@XZ 19125710 f i c_soundtool.obj
 0002:0009a760       ?erase@?$_Tree@V?$_Tmap_traits@HUSSoundInfo@CSoundTool@@U?$less@H@std@@V?$K2MapAllocator@U?$pair@$$CBHUSSoundInfo@CSoundTool@@@std@@@@$0A@@std@@@std@@QAE?AViterator@12@V312@@Z 19125760 f i c_soundtool.obj
 0002:0009b140       ?find@?$_Tree@V?$_Tmap_traits@HUSSoundInfo@CSoundTool@@U?$less@H@std@@V?$K2MapAllocator@U?$pair@$$CBHUSSoundInfo@CSoundTool@@@std@@@@$0A@@std@@@std@@QAE?AViterator@12@ABH@Z 19126140 f i c_soundtool.obj
 0002:0009b320       ??B?$CRange@H@@QBEHXZ      19126320 f i c_soundtool.obj
 0002:0009b380       ?Set@?$CRange@H@@QAEXHH@Z  19126380 f i c_soundtool.obj
 0002:0009b3b0       ?Min@?$CRange@H@@QBEHXZ    191263b0 f i c_soundtool.obj
 0002:0009b3f0       ?Max@?$CRange@H@@QBEHXZ    191263f0 f i c_soundtool.obj
 0002:0009b430       ??Citerator@?$_Tree@V?$_Tmap_traits@IPAVCWorldSound@@U?$less@I@std@@V?$K2MapAllocator@U?$pair@$$CBIPAVCWorldSound@@@std@@@@$0A@@std@@@std@@QBEPAU?$pair@$$CBIPAVCWorldSound@@@2@XZ 19126430 f i c_soundtool.obj
 0002:0009b460       ??Eiterator@?$_Tree@V?$_Tmap_traits@IPAVCWorldSound@@U?$less@I@std@@V?$K2MapAllocator@U?$pair@$$CBIPAVCWorldSound@@@std@@@@$0A@@std@@@std@@QAEAAV012@XZ 19126460 f i c_soundtool.obj
 0002:0009b490       ??Fiterator@?$_Tree@V?$_Tmap_traits@IPAVCWorldSound@@U?$less@I@std@@V?$K2MapAllocator@U?$pair@$$CBIPAVCWorldSound@@@std@@@@$0A@@std@@@std@@QAEAAV012@XZ 19126490 f i c_soundtool.obj
 0002:0009b4c0       ??8const_iterator@?$_Tree@V?$_Tmap_traits@IPAVCWorldSound@@U?$less@I@std@@V?$K2MapAllocator@U?$pair@$$CBIPAVCWorldSound@@@std@@@@$0A@@std@@@std@@QBE_NABV012@@Z 191264c0 f i c_soundtool.obj
 0002:0009b580       ??9const_iterator@?$_Tree@V?$_Tmap_traits@IPAVCWorldSound@@U?$less@I@std@@V?$K2MapAllocator@U?$pair@$$CBIPAVCWorldSound@@@std@@@@$0A@@std@@@std@@QBE_NABV012@@Z 19126580 f i c_soundtool.obj
 0002:0009b5c0       ??Citerator@?$_Tree@V?$_Tmap_traits@HUSSoundInfo@CSoundTool@@U?$less@H@std@@V?$K2MapAllocator@U?$pair@$$CBHUSSoundInfo@CSoundTool@@@std@@@@$0A@@std@@@std@@QBEPAU?$pair@$$CBHUSSoundInfo@CSoundTool@@@2@XZ 191265c0 f i c_soundtool.obj
 0002:0009b5f0       ??Eiterator@?$_Tree@V?$_Tmap_traits@HUSSoundInfo@CSoundTool@@U?$less@H@std@@V?$K2MapAllocator@U?$pair@$$CBHUSSoundInfo@CSoundTool@@@std@@@@$0A@@std@@@std@@QAE?AV012@H@Z 191265f0 f i c_soundtool.obj
 0002:0009b6a0       ??8const_iterator@?$_Tree@V?$_Tmap_traits@HUSSoundInfo@CSoundTool@@U?$less@H@std@@V?$K2MapAllocator@U?$pair@$$CBHUSSoundInfo@CSoundTool@@@std@@@@$0A@@std@@@std@@QBE_NABV012@@Z 191266a0 f i c_soundtool.obj
 0002:0009b760       ??9const_iterator@?$_Tree@V?$_Tmap_traits@HUSSoundInfo@CSoundTool@@U?$less@H@std@@V?$K2MapAllocator@U?$pair@$$CBHUSSoundInfo@CSoundTool@@@std@@@@$0A@@std@@@std@@QBE_NABV012@@Z 19126760 f i c_soundtool.obj
 0002:0009b7a0       ??C?$reverse_iterator@Viterator@?$_Tree@V?$_Tmap_traits@IPAVCWorldSound@@U?$less@I@std@@V?$K2MapAllocator@U?$pair@$$CBIPAVCWorldSound@@@std@@@@$0A@@std@@@std@@@std@@QBEPAU?$pair@$$CBIPAVCWorldSound@@@1@XZ 191267a0 f i c_soundtool.obj
 0002:0009b7d0       ??0?$reverse_iterator@Viterator@?$_Tree@V?$_Tmap_traits@IPAVCWorldSound@@U?$less@I@std@@V?$K2MapAllocator@U?$pair@$$CBIPAVCWorldSound@@@std@@@@$0A@@std@@@std@@@std@@QAE@ABV01@@Z 191267d0 f i c_soundtool.obj
 0002:0009b860       ??0iterator@?$_Tree@V?$_Tmap_traits@IPAVCWorldSound@@U?$less@I@std@@V?$K2MapAllocator@U?$pair@$$CBIPAVCWorldSound@@@std@@@@$0A@@std@@@std@@QAE@ABV012@@Z 19126860 f i c_soundtool.obj
 0002:0009b890       ??1?$_Tree_val@V?$_Tmap_traits@HUSSoundInfo@CSoundTool@@U?$less@H@std@@V?$K2MapAllocator@U?$pair@$$CBHUSSoundInfo@CSoundTool@@@std@@@@$0A@@std@@@std@@QAE@XZ 19126890 f i c_soundtool.obj
 0002:0009b910       ??0const_iterator@?$_Tree@V?$_Tmap_traits@IPAVCWorldSound@@U?$less@I@std@@V?$K2MapAllocator@U?$pair@$$CBIPAVCWorldSound@@@std@@@@$0A@@std@@@std@@QAE@ABV012@@Z 19126910 f i c_soundtool.obj
 0002:0009b950       ??1?$_Tree_ptr@V?$_Tmap_traits@HUSSoundInfo@CSoundTool@@U?$less@H@std@@V?$K2MapAllocator@U?$pair@$$CBHUSSoundInfo@CSoundTool@@@std@@@@$0A@@std@@@std@@QAE@XZ 19126950 f i c_soundtool.obj
 0002:0009b9d0       ??0?$_Bidit@U?$pair@$$CBIPAVCWorldSound@@@std@@HPBU12@ABU12@@std@@QAE@ABU01@@Z 191269d0 f i c_soundtool.obj
 0002:0009ba00       ??1?$_Tree_nod@V?$_Tmap_traits@HUSSoundInfo@CSoundTool@@U?$less@H@std@@V?$K2MapAllocator@U?$pair@$$CBHUSSoundInfo@CSoundTool@@@std@@@@$0A@@std@@@std@@QAE@XZ 19126a00 f i c_soundtool.obj
 0002:0009ba80       ??1?$_Tmap_traits@HUSSoundInfo@CSoundTool@@U?$less@H@std@@V?$K2MapAllocator@U?$pair@$$CBHUSSoundInfo@CSoundTool@@@std@@@@$0A@@std@@QAE@XZ 19126a80 f i c_soundtool.obj
 0002:0009bab0       ?_Key@?$_Tree@V?$_Tmap_traits@IPAVCWorldSound@@U?$less@I@std@@V?$K2MapAllocator@U?$pair@$$CBIPAVCWorldSound@@@std@@@@$0A@@std@@@std@@KAABIPAU_Node@?$_Tree_nod@V?$_Tmap_traits@IPAVCWorldSound@@U?$less@I@std@@V?$K2MapAllocator@U?$pair@$$CBIPAVCWorldSound@@@std@@@@$0A@@std@@@2@@Z 19126ab0 f i c_soundtool.obj
 0002:0009bae0       ?size@?$_Tree@V?$_Tmap_traits@IPAVCWorldSound@@U?$less@I@std@@V?$K2MapAllocator@U?$pair@$$CBIPAVCWorldSound@@@std@@@@$0A@@std@@@std@@QBEIXZ 19126ae0 f i c_soundtool.obj
 0002:0009bb00       ?lower_bound@?$_Tree@V?$_Tmap_traits@IPAVCWorldSound@@U?$less@I@std@@V?$K2MapAllocator@U?$pair@$$CBIPAVCWorldSound@@@std@@@@$0A@@std@@@std@@QAE?AViterator@12@ABI@Z 19126b00 f i c_soundtool.obj
 0002:0009bb60       ?_Lmost@?$_Tree@V?$_Tmap_traits@IPAVCWorldSound@@U?$less@I@std@@V?$K2MapAllocator@U?$pair@$$CBIPAVCWorldSound@@@std@@@@$0A@@std@@@std@@IBEAAPAU_Node@?$_Tree_nod@V?$_Tmap_traits@IPAVCWorldSound@@U?$less@I@std@@V?$K2MapAllocator@U?$pair@$$CBIPAVCWorldSound@@@std@@@@$0A@@std@@@2@XZ 19126b60 f i c_soundtool.obj
 0002:0009bb90       ??0?$map@HUSSoundInfo@CSoundTool@@U?$less@H@std@@V?$K2MapAllocator@U?$pair@$$CBHUSSoundInfo@CSoundTool@@@std@@@@@std@@QAE@XZ 19126b90 f i c_soundtool.obj
 0002:0009bc30       ?_Color@?$_Tree@V?$_Tmap_traits@HUSSoundInfo@CSoundTool@@U?$less@H@std@@V?$K2MapAllocator@U?$pair@$$CBHUSSoundInfo@CSoundTool@@@std@@@@$0A@@std@@@std@@KAAADPAU_Node@?$_Tree_nod@V?$_Tmap_traits@HUSSoundInfo@CSoundTool@@U?$less@H@std@@V?$K2MapAllocator@U?$pair@$$CBHUSSoundInfo@CSoundTool@@@std@@@@$0A@@std@@@2@@Z 19126c30 f i c_soundtool.obj
 0002:0009bc50       ?_Isnil@?$_Tree@V?$_Tmap_traits@HUSSoundInfo@CSoundTool@@U?$less@H@std@@V?$K2MapAllocator@U?$pair@$$CBHUSSoundInfo@CSoundTool@@@std@@@@$0A@@std@@@std@@KAAADPAU_Node@?$_Tree_nod@V?$_Tmap_traits@HUSSoundInfo@CSoundTool@@U?$less@H@std@@V?$K2MapAllocator@U?$pair@$$CBHUSSoundInfo@CSoundTool@@@std@@@@$0A@@std@@@2@@Z 19126c50 f i c_soundtool.obj
 0002:0009bc70       ?_Key@?$_Tree@V?$_Tmap_traits@HUSSoundInfo@CSoundTool@@U?$less@H@std@@V?$K2MapAllocator@U?$pair@$$CBHUSSoundInfo@CSoundTool@@@std@@@@$0A@@std@@@std@@KAABHPAU_Node@?$_Tree_nod@V?$_Tmap_traits@HUSSoundInfo@CSoundTool@@U?$less@H@std@@V?$K2MapAllocator@U?$pair@$$CBHUSSoundInfo@CSoundTool@@@std@@@@$0A@@std@@@2@@Z 19126c70 f i c_soundtool.obj
 0002:0009bca0       ?_Left@?$_Tree@V?$_Tmap_traits@HUSSoundInfo@CSoundTool@@U?$less@H@std@@V?$K2MapAllocator@U?$pair@$$CBHUSSoundInfo@CSoundTool@@@std@@@@$0A@@std@@@std@@KAAAPAU_Node@?$_Tree_nod@V?$_Tmap_traits@HUSSoundInfo@CSoundTool@@U?$less@H@std@@V?$K2MapAllocator@U?$pair@$$CBHUSSoundInfo@CSoundTool@@@std@@@@$0A@@std@@@2@PAU342@@Z 19126ca0 f i c_soundtool.obj
 0002:0009bcc0       ?_Parent@?$_Tree@V?$_Tmap_traits@HUSSoundInfo@CSoundTool@@U?$less@H@std@@V?$K2MapAllocator@U?$pair@$$CBHUSSoundInfo@CSoundTool@@@std@@@@$0A@@std@@@std@@KAAAPAU_Node@?$_Tree_nod@V?$_Tmap_traits@HUSSoundInfo@CSoundTool@@U?$less@H@std@@V?$K2MapAllocator@U?$pair@$$CBHUSSoundInfo@CSoundTool@@@std@@@@$0A@@std@@@2@PAU342@@Z 19126cc0 f i c_soundtool.obj
 0002:0009bce0       ?_Right@?$_Tree@V?$_Tmap_traits@HUSSoundInfo@CSoundTool@@U?$less@H@std@@V?$K2MapAllocator@U?$pair@$$CBHUSSoundInfo@CSoundTool@@@std@@@@$0A@@std@@@std@@KAAAPAU_Node@?$_Tree_nod@V?$_Tmap_traits@HUSSoundInfo@CSoundTool@@U?$less@H@std@@V?$K2MapAllocator@U?$pair@$$CBHUSSoundInfo@CSoundTool@@@std@@@@$0A@@std@@@2@PAU342@@Z 19126ce0 f i c_soundtool.obj
 0002:0009bd00       ?insert@?$_Tree@V?$_Tmap_traits@HUSSoundInfo@CSoundTool@@U?$less@H@std@@V?$K2MapAllocator@U?$pair@$$CBHUSSoundInfo@CSoundTool@@@std@@@@$0A@@std@@@std@@QAE?AViterator@12@V312@ABU?$pair@$$CBHUSSoundInfo@CSoundTool@@@2@@Z 19126d00 f i c_soundtool.obj
 0002:0009cac0       ?lower_bound@?$_Tree@V?$_Tmap_traits@HUSSoundInfo@CSoundTool@@U?$less@H@std@@V?$K2MapAllocator@U?$pair@$$CBHUSSoundInfo@CSoundTool@@@std@@@@$0A@@std@@@std@@QAE?AViterator@12@ABH@Z 19127ac0 f i c_soundtool.obj
 0002:0009cb20       ?_Lmost@?$_Tree@V?$_Tmap_traits@HUSSoundInfo@CSoundTool@@U?$less@H@std@@V?$K2MapAllocator@U?$pair@$$CBHUSSoundInfo@CSoundTool@@@std@@@@$0A@@std@@@std@@IBEAAPAU_Node@?$_Tree_nod@V?$_Tmap_traits@HUSSoundInfo@CSoundTool@@U?$less@H@std@@V?$K2MapAllocator@U?$pair@$$CBHUSSoundInfo@CSoundTool@@@std@@@@$0A@@std@@@2@XZ 19127b20 f i c_soundtool.obj
 0002:0009cb50       ?_Lrotate@?$_Tree@V?$_Tmap_traits@HUSSoundInfo@CSoundTool@@U?$less@H@std@@V?$K2MapAllocator@U?$pair@$$CBHUSSoundInfo@CSoundTool@@@std@@@@$0A@@std@@@std@@IAEXPAU_Node@?$_Tree_nod@V?$_Tmap_traits@HUSSoundInfo@CSoundTool@@U?$less@H@std@@V?$K2MapAllocator@U?$pair@$$CBHUSSoundInfo@CSoundTool@@@std@@@@$0A@@std@@@2@@Z 19127b50 f i c_soundtool.obj
 0002:0009cce0       ?_Max@?$_Tree@V?$_Tmap_traits@HUSSoundInfo@CSoundTool@@U?$less@H@std@@V?$K2MapAllocator@U?$pair@$$CBHUSSoundInfo@CSoundTool@@@std@@@@$0A@@std@@@std@@KAPAU_Node@?$_Tree_nod@V?$_Tmap_traits@HUSSoundInfo@CSoundTool@@U?$less@H@std@@V?$K2MapAllocator@U?$pair@$$CBHUSSoundInfo@CSoundTool@@@std@@@@$0A@@std@@@2@PAU342@@Z 19127ce0 f i c_soundtool.obj
 0002:0009cd40       ?_Min@?$_Tree@V?$_Tmap_traits@HUSSoundInfo@CSoundTool@@U?$less@H@std@@V?$K2MapAllocator@U?$pair@$$CBHUSSoundInfo@CSoundTool@@@std@@@@$0A@@std@@@std@@KAPAU_Node@?$_Tree_nod@V?$_Tmap_traits@HUSSoundInfo@CSoundTool@@U?$less@H@std@@V?$K2MapAllocator@U?$pair@$$CBHUSSoundInfo@CSoundTool@@@std@@@@$0A@@std@@@2@PAU342@@Z 19127d40 f i c_soundtool.obj
 0002:0009cda0       ?_Rmost@?$_Tree@V?$_Tmap_traits@HUSSoundInfo@CSoundTool@@U?$less@H@std@@V?$K2MapAllocator@U?$pair@$$CBHUSSoundInfo@CSoundTool@@@std@@@@$0A@@std@@@std@@IBEAAPAU_Node@?$_Tree_nod@V?$_Tmap_traits@HUSSoundInfo@CSoundTool@@U?$less@H@std@@V?$K2MapAllocator@U?$pair@$$CBHUSSoundInfo@CSoundTool@@@std@@@@$0A@@std@@@2@XZ 19127da0 f i c_soundtool.obj
 0002:0009cdd0       ?_Root@?$_Tree@V?$_Tmap_traits@HUSSoundInfo@CSoundTool@@U?$less@H@std@@V?$K2MapAllocator@U?$pair@$$CBHUSSoundInfo@CSoundTool@@@std@@@@$0A@@std@@@std@@IBEAAPAU_Node@?$_Tree_nod@V?$_Tmap_traits@HUSSoundInfo@CSoundTool@@U?$less@H@std@@V?$K2MapAllocator@U?$pair@$$CBHUSSoundInfo@CSoundTool@@@std@@@@$0A@@std@@@2@XZ 19127dd0 f i c_soundtool.obj
 0002:0009ce00       ?_Rrotate@?$_Tree@V?$_Tmap_traits@HUSSoundInfo@CSoundTool@@U?$less@H@std@@V?$K2MapAllocator@U?$pair@$$CBHUSSoundInfo@CSoundTool@@@std@@@@$0A@@std@@@std@@IAEXPAU_Node@?$_Tree_nod@V?$_Tmap_traits@HUSSoundInfo@CSoundTool@@U?$less@H@std@@V?$K2MapAllocator@U?$pair@$$CBHUSSoundInfo@CSoundTool@@@std@@@@$0A@@std@@@2@@Z 19127e00 f i c_soundtool.obj
 0002:0009cf90       ?_Orphan_ptr@?$_Tree@V?$_Tmap_traits@HUSSoundInfo@CSoundTool@@U?$less@H@std@@V?$K2MapAllocator@U?$pair@$$CBHUSSoundInfo@CSoundTool@@@std@@@@$0A@@std@@@std@@IBEXAAV12@PAU_Node@?$_Tree_nod@V?$_Tmap_traits@HUSSoundInfo@CSoundTool@@U?$less@H@std@@V?$K2MapAllocator@U?$pair@$$CBHUSSoundInfo@CSoundTool@@@std@@@@$0A@@std@@@2@@Z 19127f90 f i c_soundtool.obj
 0002:0009d040       ?_Tidy@?$_Tree@V?$_Tmap_traits@HUSSoundInfo@CSoundTool@@U?$less@H@std@@V?$K2MapAllocator@U?$pair@$$CBHUSSoundInfo@CSoundTool@@@std@@@@$0A@@std@@@std@@IAEXXZ 19128040 f i c_soundtool.obj
 0002:0009d190       ??1?$K2MapAllocator@U?$pair@$$CBHUSSoundInfo@CSoundTool@@@std@@@@QAE@XZ 19128190 f i c_soundtool.obj
 0002:0009d1b0       ??1?$K2MapAllocator@U_Node@?$_Tree_nod@V?$_Tmap_traits@HUSSoundInfo@CSoundTool@@U?$less@H@std@@V?$K2MapAllocator@U?$pair@$$CBHUSSoundInfo@CSoundTool@@@std@@@@$0A@@std@@@std@@@@QAE@XZ 191281b0 f i c_soundtool.obj
 0002:0009d1d0       ?deallocate@?$K2MapAllocator@U_Node@?$_Tree_nod@V?$_Tmap_traits@HUSSoundInfo@CSoundTool@@U?$less@H@std@@V?$K2MapAllocator@U?$pair@$$CBHUSSoundInfo@CSoundTool@@@std@@@@$0A@@std@@@std@@@@QAEXPAU_Node@?$_Tree_nod@V?$_Tmap_traits@HUSSoundInfo@CSoundTool@@U?$less@H@std@@V?$K2MapAllocator@U?$pair@$$CBHUSSoundInfo@CSoundTool@@@std@@@@$0A@@std@@@std@@I@Z 191281d0 f i c_soundtool.obj
 0002:0009d210       ?destroy@?$allocator@U_Node@?$_Tree_nod@V?$_Tmap_traits@HUSSoundInfo@CSoundTool@@U?$less@H@std@@V?$K2MapAllocator@U?$pair@$$CBHUSSoundInfo@CSoundTool@@@std@@@@$0A@@std@@@std@@@std@@QAEXPAU_Node@?$_Tree_nod@V?$_Tmap_traits@HUSSoundInfo@CSoundTool@@U?$less@H@std@@V?$K2MapAllocator@U?$pair@$$CBHUSSoundInfo@CSoundTool@@@std@@@@$0A@@std@@@2@@Z 19128210 f i c_soundtool.obj
 0002:0009d240       ??1?$K2MapAllocator@PAU_Node@?$_Tree_nod@V?$_Tmap_traits@HUSSoundInfo@CSoundTool@@U?$less@H@std@@V?$K2MapAllocator@U?$pair@$$CBHUSSoundInfo@CSoundTool@@@std@@@@$0A@@std@@@std@@@@QAE@XZ 19128240 f i c_soundtool.obj
 0002:0009d260       ??0iterator@?$_Tree@V?$_Tmap_traits@IPAVCWorldSound@@U?$less@I@std@@V?$K2MapAllocator@U?$pair@$$CBIPAVCWorldSound@@@std@@@@$0A@@std@@@std@@QAE@PAU_Node@?$_Tree_nod@V?$_Tmap_traits@IPAVCWorldSound@@U?$less@I@std@@V?$K2MapAllocator@U?$pair@$$CBIPAVCWorldSound@@@std@@@@$0A@@std@@@2@PBV12@@Z 19128260 f i c_soundtool.obj
 0002:0009d2a0       ??Diterator@?$_Tree@V?$_Tmap_traits@IPAVCWorldSound@@U?$less@I@std@@V?$K2MapAllocator@U?$pair@$$CBIPAVCWorldSound@@@std@@@@$0A@@std@@@std@@QBEAAU?$pair@$$CBIPAVCWorldSound@@@2@XZ 191282a0 f i c_soundtool.obj
 0002:0009d2d0       ??Econst_iterator@?$_Tree@V?$_Tmap_traits@IPAVCWorldSound@@U?$less@I@std@@V?$K2MapAllocator@U?$pair@$$CBIPAVCWorldSound@@@std@@@@$0A@@std@@@std@@QAEAAV012@XZ 191282d0 f i c_soundtool.obj
 0002:0009d300       ??Fconst_iterator@?$_Tree@V?$_Tmap_traits@IPAVCWorldSound@@U?$less@I@std@@V?$K2MapAllocator@U?$pair@$$CBIPAVCWorldSound@@@std@@@@$0A@@std@@@std@@QAEAAV012@XZ 19128300 f i c_soundtool.obj
 0002:0009d330       ?_Mynode@const_iterator@?$_Tree@V?$_Tmap_traits@IPAVCWorldSound@@U?$less@I@std@@V?$K2MapAllocator@U?$pair@$$CBIPAVCWorldSound@@@std@@@@$0A@@std@@@std@@QBEPAU_Node@?$_Tree_nod@V?$_Tmap_traits@IPAVCWorldSound@@U?$less@I@std@@V?$K2MapAllocator@U?$pair@$$CBIPAVCWorldSound@@@std@@@@$0A@@std@@@3@XZ 19128330 f i c_soundtool.obj
 0002:0009d350       ??0iterator@?$_Tree@V?$_Tmap_traits@HUSSoundInfo@CSoundTool@@U?$less@H@std@@V?$K2MapAllocator@U?$pair@$$CBHUSSoundInfo@CSoundTool@@@std@@@@$0A@@std@@@std@@QAE@PAU_Node@?$_Tree_nod@V?$_Tmap_traits@HUSSoundInfo@CSoundTool@@U?$less@H@std@@V?$K2MapAllocator@U?$pair@$$CBHUSSoundInfo@CSoundTool@@@std@@@@$0A@@std@@@2@PBV12@@Z 19128350 f i c_soundtool.obj
 0002:0009d390       ??Diterator@?$_Tree@V?$_Tmap_traits@HUSSoundInfo@CSoundTool@@U?$less@H@std@@V?$K2MapAllocator@U?$pair@$$CBHUSSoundInfo@CSoundTool@@@std@@@@$0A@@std@@@std@@QBEAAU?$pair@$$CBHUSSoundInfo@CSoundTool@@@2@XZ 19128390 f i c_soundtool.obj
 0002:0009d3c0       ??Eiterator@?$_Tree@V?$_Tmap_traits@HUSSoundInfo@CSoundTool@@U?$less@H@std@@V?$K2MapAllocator@U?$pair@$$CBHUSSoundInfo@CSoundTool@@@std@@@@$0A@@std@@@std@@QAEAAV012@XZ 191283c0 f i c_soundtool.obj
 0002:0009d3f0       ?_Mynode@const_iterator@?$_Tree@V?$_Tmap_traits@HUSSoundInfo@CSoundTool@@U?$less@H@std@@V?$K2MapAllocator@U?$pair@$$CBHUSSoundInfo@CSoundTool@@@std@@@@$0A@@std@@@std@@QBEPAU_Node@?$_Tree_nod@V?$_Tmap_traits@HUSSoundInfo@CSoundTool@@U?$less@H@std@@V?$K2MapAllocator@U?$pair@$$CBHUSSoundInfo@CSoundTool@@@std@@@@$0A@@std@@@3@XZ 191283f0 f i c_soundtool.obj
 0002:0009d410       ??0?$pair@$$CBHUSSoundInfo@CSoundTool@@@std@@QAE@ABHABUSSoundInfo@CSoundTool@@@Z 19128410 f i c_soundtool.obj
 0002:0009d450       ??0?$reverse_iterator@Viterator@?$_Tree@V?$_Tmap_traits@IPAVCWorldSound@@U?$less@I@std@@V?$K2MapAllocator@U?$pair@$$CBIPAVCWorldSound@@@std@@@@$0A@@std@@@std@@@std@@QAE@Viterator@?$_Tree@V?$_Tmap_traits@IPAVCWorldSound@@U?$less@I@std@@V?$K2MapAllocator@U?$pair@$$CBIPAVCWorldSound@@@std@@@@$0A@@std@@@1@@Z 19128450 f i c_soundtool.obj
 0002:0009d4e0       ??D?$reverse_iterator@Viterator@?$_Tree@V?$_Tmap_traits@IPAVCWorldSound@@U?$less@I@std@@V?$K2MapAllocator@U?$pair@$$CBIPAVCWorldSound@@@std@@@@$0A@@std@@@std@@@std@@QBEAAU?$pair@$$CBIPAVCWorldSound@@@1@XZ 191284e0 f i c_soundtool.obj
 0002:0009d580       ??1?$pair@Viterator@?$_Tree@V?$_Tmap_traits@HUSSoundInfo@CSoundTool@@U?$less@H@std@@V?$K2MapAllocator@U?$pair@$$CBHUSSoundInfo@CSoundTool@@@std@@@@$0A@@std@@@std@@_N@std@@QAE@XZ 19128580 f i c_soundtool.obj
 0002:0009d5b0       ?_Left@?$_Tree@V?$_Tmap_traits@IPAVCWorldSound@@U?$less@I@std@@V?$K2MapAllocator@U?$pair@$$CBIPAVCWorldSound@@@std@@@@$0A@@std@@@std@@KAAAPAU_Node@?$_Tree_nod@V?$_Tmap_traits@IPAVCWorldSound@@U?$less@I@std@@V?$K2MapAllocator@U?$pair@$$CBIPAVCWorldSound@@@std@@@@$0A@@std@@@2@PAU342@@Z 191285b0 f i c_soundtool.obj
 0002:0009d5d0       ?_Myval@?$_Tree@V?$_Tmap_traits@IPAVCWorldSound@@U?$less@I@std@@V?$K2MapAllocator@U?$pair@$$CBIPAVCWorldSound@@@std@@@@$0A@@std@@@std@@KAAAU?$pair@$$CBIPAVCWorldSound@@@2@PAU_Node@?$_Tree_nod@V?$_Tmap_traits@IPAVCWorldSound@@U?$less@I@std@@V?$K2MapAllocator@U?$pair@$$CBIPAVCWorldSound@@@std@@@@$0A@@std@@@2@@Z 191285d0 f i c_soundtool.obj
 0002:0009d5f0       ?_Lbound@?$_Tree@V?$_Tmap_traits@IPAVCWorldSound@@U?$less@I@std@@V?$K2MapAllocator@U?$pair@$$CBIPAVCWorldSound@@@std@@@@$0A@@std@@@std@@IBEPAU_Node@?$_Tree_nod@V?$_Tmap_traits@IPAVCWorldSound@@U?$less@I@std@@V?$K2MapAllocator@U?$pair@$$CBIPAVCWorldSound@@@std@@@@$0A@@std@@@2@ABI@Z 191285f0 f i c_soundtool.obj
 0002:0009d6c0       ?_Kfn@?$_Tmap_traits@IPAVCWorldSound@@U?$less@I@std@@V?$K2MapAllocator@U?$pair@$$CBIPAVCWorldSound@@@std@@@@$0A@@std@@SAABIABU?$pair@$$CBIPAVCWorldSound@@@2@@Z 191286c0 f i c_soundtool.obj
 0002:0009d6e0       ?_Myval@?$_Tree@V?$_Tmap_traits@HUSSoundInfo@CSoundTool@@U?$less@H@std@@V?$K2MapAllocator@U?$pair@$$CBHUSSoundInfo@CSoundTool@@@std@@@@$0A@@std@@@std@@KAAAU?$pair@$$CBHUSSoundInfo@CSoundTool@@@2@PAU_Node@?$_Tree_nod@V?$_Tmap_traits@HUSSoundInfo@CSoundTool@@U?$less@H@std@@V?$K2MapAllocator@U?$pair@$$CBHUSSoundInfo@CSoundTool@@@std@@@@$0A@@std@@@2@@Z 191286e0 f i c_soundtool.obj
 0002:0009d700       ??0?$_Tree@V?$_Tmap_traits@HUSSoundInfo@CSoundTool@@U?$less@H@std@@V?$K2MapAllocator@U?$pair@$$CBHUSSoundInfo@CSoundTool@@@std@@@@$0A@@std@@@std@@QAE@ABU?$less@H@1@ABV?$K2MapAllocator@U?$pair@$$CBHUSSoundInfo@CSoundTool@@@std@@@@@Z 19128700 f i c_soundtool.obj
 0002:0009d7a0       ?size@?$_Tree@V?$_Tmap_traits@HUSSoundInfo@CSoundTool@@U?$less@H@std@@V?$K2MapAllocator@U?$pair@$$CBHUSSoundInfo@CSoundTool@@@std@@@@$0A@@std@@@std@@QBEIXZ 191287a0 f i c_soundtool.obj
 0002:0009d7c0       ?insert@?$_Tree@V?$_Tmap_traits@HUSSoundInfo@CSoundTool@@U?$less@H@std@@V?$K2MapAllocator@U?$pair@$$CBHUSSoundInfo@CSoundTool@@@std@@@@$0A@@std@@@std@@QAE?AU?$pair@Viterator@?$_Tree@V?$_Tmap_traits@HUSSoundInfo@CSoundTool@@U?$less@H@std@@V?$K2MapAllocator@U?$pair@$$CBHUSSoundInfo@CSoundTool@@@std@@@@$0A@@std@@@std@@_N@2@ABU?$pair@$$CBHUSSoundInfo@CSoundTool@@@2@@Z 191287c0 f i c_soundtool.obj
 0002:0009dbe0       ?erase@?$_Tree@V?$_Tmap_traits@HUSSoundInfo@CSoundTool@@U?$less@H@std@@V?$K2MapAllocator@U?$pair@$$CBHUSSoundInfo@CSoundTool@@@std@@@@$0A@@std@@@std@@QAE?AViterator@12@V312@0@Z 19128be0 f i c_soundtool.obj
 0002:0009de70       ?_Insert@?$_Tree@V?$_Tmap_traits@HUSSoundInfo@CSoundTool@@U?$less@H@std@@V?$K2MapAllocator@U?$pair@$$CBHUSSoundInfo@CSoundTool@@@std@@@@$0A@@std@@@std@@IAE?AViterator@12@_NPAU_Node@?$_Tree_nod@V?$_Tmap_traits@HUSSoundInfo@CSoundTool@@U?$less@H@std@@V?$K2MapAllocator@U?$pair@$$CBHUSSoundInfo@CSoundTool@@@std@@@@$0A@@std@@@2@ABU?$pair@$$CBHUSSoundInfo@CSoundTool@@@2@@Z 19128e70 f i c_soundtool.obj
 0002:0009e430       ?_Lbound@?$_Tree@V?$_Tmap_traits@HUSSoundInfo@CSoundTool@@U?$less@H@std@@V?$K2MapAllocator@U?$pair@$$CBHUSSoundInfo@CSoundTool@@@std@@@@$0A@@std@@@std@@IBEPAU_Node@?$_Tree_nod@V?$_Tmap_traits@HUSSoundInfo@CSoundTool@@U?$less@H@std@@V?$K2MapAllocator@U?$pair@$$CBHUSSoundInfo@CSoundTool@@@std@@@@$0A@@std@@@2@ABH@Z 19129430 f i c_soundtool.obj
 0002:0009e500       ?_Kfn@?$_Tmap_traits@HUSSoundInfo@CSoundTool@@U?$less@H@std@@V?$K2MapAllocator@U?$pair@$$CBHUSSoundInfo@CSoundTool@@@std@@@@$0A@@std@@SAABHABU?$pair@$$CBHUSSoundInfo@CSoundTool@@@2@@Z 19129500 f i c_soundtool.obj
 0002:0009e520       ??0?$K2MapAllocator@U?$pair@$$CBHUSSoundInfo@CSoundTool@@@std@@@@QAE@XZ 19129520 f i c_soundtool.obj
 0002:0009e550       ?destroy@?$allocator@PAU_Node@?$_Tree_nod@V?$_Tmap_traits@HUSSoundInfo@CSoundTool@@U?$less@H@std@@V?$K2MapAllocator@U?$pair@$$CBHUSSoundInfo@CSoundTool@@@std@@@@$0A@@std@@@std@@@std@@QAEXPAPAU_Node@?$_Tree_nod@V?$_Tmap_traits@HUSSoundInfo@CSoundTool@@U?$less@H@std@@V?$K2MapAllocator@U?$pair@$$CBHUSSoundInfo@CSoundTool@@@std@@@@$0A@@std@@@2@@Z 19129550 f i c_soundtool.obj
 0002:0009e580       ??0const_iterator@?$_Tree@V?$_Tmap_traits@IPAVCWorldSound@@U?$less@I@std@@V?$K2MapAllocator@U?$pair@$$CBIPAVCWorldSound@@@std@@@@$0A@@std@@@std@@QAE@PAU_Node@?$_Tree_nod@V?$_Tmap_traits@IPAVCWorldSound@@U?$less@I@std@@V?$K2MapAllocator@U?$pair@$$CBIPAVCWorldSound@@@std@@@@$0A@@std@@@2@PBV12@@Z 19129580 f i c_soundtool.obj
 0002:0009e610       ??Dconst_iterator@?$_Tree@V?$_Tmap_traits@IPAVCWorldSound@@U?$less@I@std@@V?$K2MapAllocator@U?$pair@$$CBIPAVCWorldSound@@@std@@@@$0A@@std@@@std@@QBEABU?$pair@$$CBIPAVCWorldSound@@@2@XZ 19129610 f i c_soundtool.obj
 0002:0009e6d0       ?_Dec@const_iterator@?$_Tree@V?$_Tmap_traits@IPAVCWorldSound@@U?$less@I@std@@V?$K2MapAllocator@U?$pair@$$CBIPAVCWorldSound@@@std@@@@$0A@@std@@@std@@QAEXXZ 191296d0 f i c_soundtool.obj
 0002:0009e990       ?_Inc@const_iterator@?$_Tree@V?$_Tmap_traits@IPAVCWorldSound@@U?$less@I@std@@V?$K2MapAllocator@U?$pair@$$CBIPAVCWorldSound@@@std@@@@$0A@@std@@@std@@QAEXXZ 19129990 f i c_soundtool.obj
 0002:0009eb00       ??0iterator@?$_Tree@V?$_Tmap_traits@HUSSoundInfo@CSoundTool@@U?$less@H@std@@V?$K2MapAllocator@U?$pair@$$CBHUSSoundInfo@CSoundTool@@@std@@@@$0A@@std@@@std@@QAE@XZ 19129b00 f i c_soundtool.obj
 0002:0009eb30       ??Fiterator@?$_Tree@V?$_Tmap_traits@HUSSoundInfo@CSoundTool@@U?$less@H@std@@V?$K2MapAllocator@U?$pair@$$CBHUSSoundInfo@CSoundTool@@@std@@@@$0A@@std@@@std@@QAEAAV012@XZ 19129b30 f i c_soundtool.obj
 0002:0009eb60       ??0const_iterator@?$_Tree@V?$_Tmap_traits@HUSSoundInfo@CSoundTool@@U?$less@H@std@@V?$K2MapAllocator@U?$pair@$$CBHUSSoundInfo@CSoundTool@@@std@@@@$0A@@std@@@std@@QAE@PAU_Node@?$_Tree_nod@V?$_Tmap_traits@HUSSoundInfo@CSoundTool@@U?$less@H@std@@V?$K2MapAllocator@U?$pair@$$CBHUSSoundInfo@CSoundTool@@@std@@@@$0A@@std@@@2@PBV12@@Z 19129b60 f i c_soundtool.obj
 0002:0009ebf0       ??Dconst_iterator@?$_Tree@V?$_Tmap_traits@HUSSoundInfo@CSoundTool@@U?$less@H@std@@V?$K2MapAllocator@U?$pair@$$CBHUSSoundInfo@CSoundTool@@@std@@@@$0A@@std@@@std@@QBEABU?$pair@$$CBHUSSoundInfo@CSoundTool@@@2@XZ 19129bf0 f i c_soundtool.obj
 0002:0009ecb0       ??Econst_iterator@?$_Tree@V?$_Tmap_traits@HUSSoundInfo@CSoundTool@@U?$less@H@std@@V?$K2MapAllocator@U?$pair@$$CBHUSSoundInfo@CSoundTool@@@std@@@@$0A@@std@@@std@@QAEAAV012@XZ 19129cb0 f i c_soundtool.obj
 0002:0009ece0       ??0?$_Bidit@U?$pair@$$CBIPAVCWorldSound@@@std@@HPBU12@ABU12@@std@@QAE@XZ 19129ce0 f i c_soundtool.obj
 0002:0009ed10       ??0?$_Bidit@U?$pair@$$CBHUSSoundInfo@CSoundTool@@@std@@HPBU12@ABU12@@std@@QAE@XZ 19129d10 f i c_soundtool.obj
 0002:0009ed40       ?_Isnil@?$_Tree@V?$_Tmap_traits@IPAVCWorldSound@@U?$less@I@std@@V?$K2MapAllocator@U?$pair@$$CBIPAVCWorldSound@@@std@@@@$0A@@std@@@std@@KAAADPAU_Node@?$_Tree_nod@V?$_Tmap_traits@IPAVCWorldSound@@U?$less@I@std@@V?$K2MapAllocator@U?$pair@$$CBIPAVCWorldSound@@@std@@@@$0A@@std@@@2@@Z 19129d40 f i c_soundtool.obj
 0002:0009ed60       ?_Parent@?$_Tree@V?$_Tmap_traits@IPAVCWorldSound@@U?$less@I@std@@V?$K2MapAllocator@U?$pair@$$CBIPAVCWorldSound@@@std@@@@$0A@@std@@@std@@KAAAPAU_Node@?$_Tree_nod@V?$_Tmap_traits@IPAVCWorldSound@@U?$less@I@std@@V?$K2MapAllocator@U?$pair@$$CBIPAVCWorldSound@@@std@@@@$0A@@std@@@2@PAU342@@Z 19129d60 f i c_soundtool.obj
 0002:0009ed80       ?_Right@?$_Tree@V?$_Tmap_traits@IPAVCWorldSound@@U?$less@I@std@@V?$K2MapAllocator@U?$pair@$$CBIPAVCWorldSound@@@std@@@@$0A@@std@@@std@@KAAAPAU_Node@?$_Tree_nod@V?$_Tmap_traits@IPAVCWorldSound@@U?$less@I@std@@V?$K2MapAllocator@U?$pair@$$CBIPAVCWorldSound@@@std@@@@$0A@@std@@@2@PAU342@@Z 19129d80 f i c_soundtool.obj
 0002:0009eda0       ?_Max@?$_Tree@V?$_Tmap_traits@IPAVCWorldSound@@U?$less@I@std@@V?$K2MapAllocator@U?$pair@$$CBIPAVCWorldSound@@@std@@@@$0A@@std@@@std@@KAPAU_Node@?$_Tree_nod@V?$_Tmap_traits@IPAVCWorldSound@@U?$less@I@std@@V?$K2MapAllocator@U?$pair@$$CBIPAVCWorldSound@@@std@@@@$0A@@std@@@2@PAU342@@Z 19129da0 f i c_soundtool.obj
 0002:0009ee00       ?_Min@?$_Tree@V?$_Tmap_traits@IPAVCWorldSound@@U?$less@I@std@@V?$K2MapAllocator@U?$pair@$$CBIPAVCWorldSound@@@std@@@@$0A@@std@@@std@@KAPAU_Node@?$_Tree_nod@V?$_Tmap_traits@IPAVCWorldSound@@U?$less@I@std@@V?$K2MapAllocator@U?$pair@$$CBIPAVCWorldSound@@@std@@@@$0A@@std@@@2@PAU342@@Z 19129e00 f i c_soundtool.obj
 0002:0009ee60       ?_Root@?$_Tree@V?$_Tmap_traits@IPAVCWorldSound@@U?$less@I@std@@V?$K2MapAllocator@U?$pair@$$CBIPAVCWorldSound@@@std@@@@$0A@@std@@@std@@IBEAAPAU_Node@?$_Tree_nod@V?$_Tmap_traits@IPAVCWorldSound@@U?$less@I@std@@V?$K2MapAllocator@U?$pair@$$CBIPAVCWorldSound@@@std@@@@$0A@@std@@@2@XZ 19129e60 f i c_soundtool.obj
 0002:0009ee90       ?max_size@?$_Tree@V?$_Tmap_traits@HUSSoundInfo@CSoundTool@@U?$less@H@std@@V?$K2MapAllocator@U?$pair@$$CBHUSSoundInfo@CSoundTool@@@std@@@@$0A@@std@@@std@@QBEIXZ 19129e90 f i c_soundtool.obj
 0002:0009eec0       ?clear@?$_Tree@V?$_Tmap_traits@HUSSoundInfo@CSoundTool@@U?$less@H@std@@V?$K2MapAllocator@U?$pair@$$CBHUSSoundInfo@CSoundTool@@@std@@@@$0A@@std@@@std@@QAEXXZ 19129ec0 f i c_soundtool.obj
 0002:0009ef50       ?_Init@?$_Tree@V?$_Tmap_traits@HUSSoundInfo@CSoundTool@@U?$less@H@std@@V?$K2MapAllocator@U?$pair@$$CBHUSSoundInfo@CSoundTool@@@std@@@@$0A@@std@@@std@@IAEXXZ 19129f50 f i c_soundtool.obj
 0002:0009efe0       ?_Buynode@?$_Tree@V?$_Tmap_traits@HUSSoundInfo@CSoundTool@@U?$less@H@std@@V?$K2MapAllocator@U?$pair@$$CBHUSSoundInfo@CSoundTool@@@std@@@@$0A@@std@@@std@@IAEPAU_Node@?$_Tree_nod@V?$_Tmap_traits@HUSSoundInfo@CSoundTool@@U?$less@H@std@@V?$K2MapAllocator@U?$pair@$$CBHUSSoundInfo@CSoundTool@@@std@@@@$0A@@std@@@2@PAU342@00ABU?$pair@$$CBHUSSoundInfo@CSoundTool@@@2@D@Z 19129fe0 f i c_soundtool.obj
 0002:0009f100       ??0?$_Tree_val@V?$_Tmap_traits@HUSSoundInfo@CSoundTool@@U?$less@H@std@@V?$K2MapAllocator@U?$pair@$$CBHUSSoundInfo@CSoundTool@@@std@@@@$0A@@std@@@std@@IAE@ABU?$less@H@1@V?$K2MapAllocator@U?$pair@$$CBHUSSoundInfo@CSoundTool@@@std@@@@@Z 1912a100 f i c_soundtool.obj
 0002:0009f1b0       ??0?$K2MapAllocator@U?$pair@$$CBHUSSoundInfo@CSoundTool@@@std@@@@QAE@ABV0@@Z 1912a1b0 f i c_soundtool.obj
 0002:0009f1e0       ??0?$allocator@U?$pair@$$CBHUSSoundInfo@CSoundTool@@@std@@@std@@QAE@XZ 1912a1e0 f i c_soundtool.obj
 0002:0009f200       ??0const_iterator@?$_Tree@V?$_Tmap_traits@HUSSoundInfo@CSoundTool@@U?$less@H@std@@V?$K2MapAllocator@U?$pair@$$CBHUSSoundInfo@CSoundTool@@@std@@@@$0A@@std@@@std@@QAE@XZ 1912a200 f i c_soundtool.obj
 0002:0009f240       ??Fconst_iterator@?$_Tree@V?$_Tmap_traits@HUSSoundInfo@CSoundTool@@U?$less@H@std@@V?$K2MapAllocator@U?$pair@$$CBHUSSoundInfo@CSoundTool@@@std@@@@$0A@@std@@@std@@QAEAAV012@XZ 1912a240 f i c_soundtool.obj
 0002:0009f270       ?_Inc@const_iterator@?$_Tree@V?$_Tmap_traits@HUSSoundInfo@CSoundTool@@U?$less@H@std@@V?$K2MapAllocator@U?$pair@$$CBHUSSoundInfo@CSoundTool@@@std@@@@$0A@@std@@@std@@QAEXXZ 1912a270 f i c_soundtool.obj
 0002:0009f3e0       ??0?$pair@Viterator@?$_Tree@V?$_Tmap_traits@HUSSoundInfo@CSoundTool@@U?$less@H@std@@V?$K2MapAllocator@U?$pair@$$CBHUSSoundInfo@CSoundTool@@@std@@@@$0A@@std@@@std@@_N@std@@QAE@ABViterator@?$_Tree@V?$_Tmap_traits@HUSSoundInfo@CSoundTool@@U?$less@H@std@@V?$K2MapAllocator@U?$pair@$$CBHUSSoundInfo@CSoundTool@@@std@@@@$0A@@std@@@1@AB_N@Z 1912a3e0 f i c_soundtool.obj
 0002:0009f420       ?_Erase@?$_Tree@V?$_Tmap_traits@HUSSoundInfo@CSoundTool@@U?$less@H@std@@V?$K2MapAllocator@U?$pair@$$CBHUSSoundInfo@CSoundTool@@@std@@@@$0A@@std@@@std@@IAEXPAU_Node@?$_Tree_nod@V?$_Tmap_traits@HUSSoundInfo@CSoundTool@@U?$less@H@std@@V?$K2MapAllocator@U?$pair@$$CBHUSSoundInfo@CSoundTool@@@std@@@@$0A@@std@@@2@@Z 1912a420 f i c_soundtool.obj
 0002:0009f4c0       ?_Buynode@?$_Tree@V?$_Tmap_traits@HUSSoundInfo@CSoundTool@@U?$less@H@std@@V?$K2MapAllocator@U?$pair@$$CBHUSSoundInfo@CSoundTool@@@std@@@@$0A@@std@@@std@@IAEPAU_Node@?$_Tree_nod@V?$_Tmap_traits@HUSSoundInfo@CSoundTool@@U?$less@H@std@@V?$K2MapAllocator@U?$pair@$$CBHUSSoundInfo@CSoundTool@@@std@@@@$0A@@std@@@2@XZ 1912a4c0 f i c_soundtool.obj
 0002:0009f6a0       ??0?$_Tree_ptr@V?$_Tmap_traits@HUSSoundInfo@CSoundTool@@U?$less@H@std@@V?$K2MapAllocator@U?$pair@$$CBHUSSoundInfo@CSoundTool@@@std@@@@$0A@@std@@@std@@QAE@ABU?$less@H@1@V?$K2MapAllocator@U?$pair@$$CBHUSSoundInfo@CSoundTool@@@std@@@@@Z 1912a6a0 f i c_soundtool.obj
 0002:0009f750       ??0?$allocator@U?$pair@$$CBHUSSoundInfo@CSoundTool@@@std@@@std@@QAE@ABV01@@Z 1912a750 f i c_soundtool.obj
 0002:0009f770       ?max_size@?$allocator@U?$pair@$$CBHUSSoundInfo@CSoundTool@@@std@@@std@@QBEIXZ 1912a770 f i c_soundtool.obj
 0002:0009f7b0       ?allocate@?$K2MapAllocator@U_Node@?$_Tree_nod@V?$_Tmap_traits@HUSSoundInfo@CSoundTool@@U?$less@H@std@@V?$K2MapAllocator@U?$pair@$$CBHUSSoundInfo@CSoundTool@@@std@@@@$0A@@std@@@std@@@@QAEPAU_Node@?$_Tree_nod@V?$_Tmap_traits@HUSSoundInfo@CSoundTool@@U?$less@H@std@@V?$K2MapAllocator@U?$pair@$$CBHUSSoundInfo@CSoundTool@@@std@@@@$0A@@std@@@std@@I@Z 1912a7b0 f i c_soundtool.obj
 0002:0009f800       ?_Dec@const_iterator@?$_Tree@V?$_Tmap_traits@HUSSoundInfo@CSoundTool@@U?$less@H@std@@V?$K2MapAllocator@U?$pair@$$CBHUSSoundInfo@CSoundTool@@@std@@@@$0A@@std@@@std@@QAEXXZ 1912a800 f i c_soundtool.obj
 0002:0009fac0       ?GetTime@CHost@@QAEIXZ     1912aac0 f i c_soundtool.obj
 0002:0009fae0       ??0_Node@?$_Tree_nod@V?$_Tmap_traits@HUSSoundInfo@CSoundTool@@U?$less@H@std@@V?$K2MapAllocator@U?$pair@$$CBHUSSoundInfo@CSoundTool@@@std@@@@$0A@@std@@@std@@QAE@PAU012@00ABU?$pair@$$CBHUSSoundInfo@CSoundTool@@@2@D@Z 1912aae0 f i c_soundtool.obj
 0002:0009fb60       ??0?$_Tree_nod@V?$_Tmap_traits@HUSSoundInfo@CSoundTool@@U?$less@H@std@@V?$K2MapAllocator@U?$pair@$$CBHUSSoundInfo@CSoundTool@@@std@@@@$0A@@std@@@std@@IAE@ABU?$less@H@1@V?$K2MapAllocator@U?$pair@$$CBHUSSoundInfo@CSoundTool@@@std@@@@@Z 1912ab60 f i c_soundtool.obj
 0002:0009fc00       ?construct@?$allocator@PAU_Node@?$_Tree_nod@V?$_Tmap_traits@HUSSoundInfo@CSoundTool@@U?$less@H@std@@V?$K2MapAllocator@U?$pair@$$CBHUSSoundInfo@CSoundTool@@@std@@@@$0A@@std@@@std@@@std@@QAEXPAPAU_Node@?$_Tree_nod@V?$_Tmap_traits@HUSSoundInfo@CSoundTool@@U?$less@H@std@@V?$K2MapAllocator@U?$pair@$$CBHUSSoundInfo@CSoundTool@@@std@@@@$0A@@std@@@2@ABQAU342@@Z 1912ac00 f i c_soundtool.obj
 0002:0009fc30       ??0?$_Tmap_traits@HUSSoundInfo@CSoundTool@@U?$less@H@std@@V?$K2MapAllocator@U?$pair@$$CBHUSSoundInfo@CSoundTool@@@std@@@@$0A@@std@@QAE@U?$less@H@1@@Z 1912ac30 f i c_soundtool.obj
 0002:0009fc60       ??$_Destroy@U_Node@?$_Tree_nod@V?$_Tmap_traits@HUSSoundInfo@CSoundTool@@U?$less@H@std@@V?$K2MapAllocator@U?$pair@$$CBHUSSoundInfo@CSoundTool@@@std@@@@$0A@@std@@@std@@@std@@YAXPAU_Node@?$_Tree_nod@V?$_Tmap_traits@HUSSoundInfo@CSoundTool@@U?$less@H@std@@V?$K2MapAllocator@U?$pair@$$CBHUSSoundInfo@CSoundTool@@@std@@@@$0A@@std@@@0@@Z 1912ac60 f i c_soundtool.obj
 0002:0009fc80       ??$_Destroy@PAU_Node@?$_Tree_nod@V?$_Tmap_traits@HUSSoundInfo@CSoundTool@@U?$less@H@std@@V?$K2MapAllocator@U?$pair@$$CBHUSSoundInfo@CSoundTool@@@std@@@@$0A@@std@@@std@@@std@@YAXPAPAU_Node@?$_Tree_nod@V?$_Tmap_traits@HUSSoundInfo@CSoundTool@@U?$less@H@std@@V?$K2MapAllocator@U?$pair@$$CBHUSSoundInfo@CSoundTool@@@std@@@@$0A@@std@@@0@@Z 1912ac80 f i c_soundtool.obj
 0002:0009fca0       ??$?0U?$pair@$$CBHUSSoundInfo@CSoundTool@@@std@@@?$K2MapAllocator@PAU_Node@?$_Tree_nod@V?$_Tmap_traits@HUSSoundInfo@CSoundTool@@U?$less@H@std@@V?$K2MapAllocator@U?$pair@$$CBHUSSoundInfo@CSoundTool@@@std@@@@$0A@@std@@@std@@@@QAE@ABV?$K2MapAllocator@U?$pair@$$CBHUSSoundInfo@CSoundTool@@@std@@@@@Z 1912aca0 f i c_soundtool.obj
 0002:0009fcd0       ??$?0U?$pair@$$CBHUSSoundInfo@CSoundTool@@@std@@@?$K2MapAllocator@U_Node@?$_Tree_nod@V?$_Tmap_traits@HUSSoundInfo@CSoundTool@@U?$less@H@std@@V?$K2MapAllocator@U?$pair@$$CBHUSSoundInfo@CSoundTool@@@std@@@@$0A@@std@@@std@@@@QAE@ABV?$K2MapAllocator@U?$pair@$$CBHUSSoundInfo@CSoundTool@@@std@@@@@Z 1912acd0 f i c_soundtool.obj
 0002:0009fd00       ??$_Construct@PAU_Node@?$_Tree_nod@V?$_Tmap_traits@HUSSoundInfo@CSoundTool@@U?$less@H@std@@V?$K2MapAllocator@U?$pair@$$CBHUSSoundInfo@CSoundTool@@@std@@@@$0A@@std@@@std@@PAU123@@std@@YAXPAPAU_Node@?$_Tree_nod@V?$_Tmap_traits@HUSSoundInfo@CSoundTool@@U?$less@H@std@@V?$K2MapAllocator@U?$pair@$$CBHUSSoundInfo@CSoundTool@@@std@@@@$0A@@std@@@0@ABQAU120@@Z 1912ad00 f i c_soundtool.obj
 0002:0009fd60       ??0?$allocator@U_Node@?$_Tree_nod@V?$_Tmap_traits@HUSSoundInfo@CSoundTool@@U?$less@H@std@@V?$K2MapAllocator@U?$pair@$$CBHUSSoundInfo@CSoundTool@@@std@@@@$0A@@std@@@std@@@std@@QAE@XZ 1912ad60 f i c_soundtool.obj
 0002:0009fd80       ??0?$allocator@PAU_Node@?$_Tree_nod@V?$_Tmap_traits@HUSSoundInfo@CSoundTool@@U?$less@H@std@@V?$K2MapAllocator@U?$pair@$$CBHUSSoundInfo@CSoundTool@@@std@@@@$0A@@std@@@std@@@std@@QAE@XZ 1912ad80 f i c_soundtool.obj
 0002:0009fda0       ?GetSound@CWorld@@QAEPAVCWorldSound@@I_N@Z 1912ada0 f i c_soundtool.obj
 0002:0009fde0       ?AllocateNewSound@CWorld@@QBEIXZ 1912ade0 f i c_soundtool.obj
 0002:0009fe10       ?DeleteSound@CWorld@@QBEXI@Z 1912ae10 f i c_soundtool.obj
 0002:0009fe50       ?GetSoundsMap@CWorld@@QBEAAV?$map@IPAVCWorldSound@@U?$less@I@std@@V?$K2MapAllocator@U?$pair@$$CBIPAVCWorldSound@@@std@@@@@@XZ 1912ae50 f i c_soundtool.obj
 0002:0009fe80       ?GetType@IModel@@QBE?AW4EModelType@@XZ 1912ae80 f i c_soundtool.obj
 0002:0009fea0       ?GetNumAnims@CK2Model@@QBEIXZ 1912aea0 f i c_soundtool.obj
 0002:0009fed0       ?size@?$_Tree@V?$_Tmap_traits@V?$basic_string@_WU?$char_traits@_W@std@@V?$K2StringAllocator@_W@@@std@@PAVCAnim@@U?$less@V?$basic_string@_WU?$char_traits@_W@std@@V?$K2StringAllocator@_W@@@std@@@2@V?$K2MapAllocator@U?$pair@$$CBV?$basic_string@_WU?$char_traits@_W@std@@V?$K2StringAllocator@_W@@@std@@PAVCAnim@@@std@@@@$0A@@std@@@std@@QBEIXZ 1912aed0 f i c_soundtool.obj
 0002:0009fef0       ?find@?$basic_string@_WU?$char_traits@_W@std@@V?$K2StringAllocator@_W@@@std@@QBEIPB_WII@Z 1912aef0 f i c_soundtool.obj
 0002:000a0030       ??$_Debug_lt_pred@U?$less@H@std@@HH@std@@YA_NU?$less@H@0@ABH1PB_WI@Z 1912b030 f i c_soundtool.obj
 0002:000a00b0       ?Release@CToolBox@@SAXXZ   1912b0b0 f   c_toolbox.obj
 0002:000a0140       ??_GCToolBox@@QAEPAXI@Z    1912b140 f i c_toolbox.obj
 0002:000a0190       ??1CToolBox@@QAE@XZ        1912b190 f   c_toolbox.obj
 0002:000a02e0       ??1?$map@V?$basic_string@_WU?$char_traits@_W@std@@V?$K2StringAllocator@_W@@@std@@PAVITool@@U?$less@V?$basic_string@_WU?$char_traits@_W@std@@V?$K2StringAllocator@_W@@@std@@@2@V?$K2MapAllocator@U?$pair@$$CBV?$basic_string@_WU?$char_traits@_W@std@@V?$K2StringAllocator@_W@@@std@@PAVITool@@@std@@@@@@QAE@XZ 1912b2e0 f i c_toolbox.obj
 0002:000a0310       ??1?$map@W4EToolID@@PAVITool@@U?$less@W4EToolID@@@std@@V?$K2MapAllocator@U?$pair@$$CBW4EToolID@@PAVITool@@@std@@@@@@QAE@XZ 1912b310 f i c_toolbox.obj
 0002:000a0340       ??1iterator@?$_Tree@V?$_Tmap_traits@V?$basic_string@_WU?$char_traits@_W@std@@V?$K2StringAllocator@_W@@@std@@PAVITool@@U?$less@V?$basic_string@_WU?$char_traits@_W@std@@V?$K2StringAllocator@_W@@@std@@@2@V?$K2MapAllocator@U?$pair@$$CBV?$basic_string@_WU?$char_traits@_W@std@@V?$K2StringAllocator@_W@@@std@@PAVITool@@@std@@@@$0A@@std@@@std@@QAE@XZ 1912b340 f i c_toolbox.obj
 0002:000a0370       ??1?$map@V?$basic_string@_WU?$char_traits@_W@std@@V?$K2StringAllocator@_W@@@std@@PAVITool@@U?$less@V?$basic_string@_WU?$char_traits@_W@std@@V?$K2StringAllocator@_W@@@std@@@2@V?$K2MapAllocator@U?$pair@$$CBV?$basic_string@_WU?$char_traits@_W@std@@V?$K2StringAllocator@_W@@@std@@PAVITool@@@std@@@@@std@@QAE@XZ 1912b370 f i c_toolbox.obj
 0002:000a03a0       ??1?$map@W4EToolID@@PAVITool@@U?$less@W4EToolID@@@std@@V?$K2MapAllocator@U?$pair@$$CBW4EToolID@@PAVITool@@@std@@@@@std@@QAE@XZ 1912b3a0 f i c_toolbox.obj
 0002:000a03d0       ??1const_iterator@?$_Tree@V?$_Tmap_traits@V?$basic_string@_WU?$char_traits@_W@std@@V?$K2StringAllocator@_W@@@std@@PAVITool@@U?$less@V?$basic_string@_WU?$char_traits@_W@std@@V?$K2StringAllocator@_W@@@std@@@2@V?$K2MapAllocator@U?$pair@$$CBV?$basic_string@_WU?$char_traits@_W@std@@V?$K2StringAllocator@_W@@@std@@PAVITool@@@std@@@@$0A@@std@@@std@@QAE@XZ 1912b3d0 f i c_toolbox.obj
 0002:000a0400       ??1?$_Bidit@U?$pair@$$CBV?$basic_string@_WU?$char_traits@_W@std@@V?$K2StringAllocator@_W@@@std@@PAVITool@@@std@@HPBU12@ABU12@@std@@QAE@XZ 1912b400 f i c_toolbox.obj
 0002:000a0430       ??0CToolBox@@AAE@XZ        1912b430 f   c_toolbox.obj
 0002:000a04c0       ?Register@CToolBox@@QAE_NPAVITool@@@Z 1912b4c0 f   c_toolbox.obj
 0002:000a09a0       ?GetName@ITool@@QBEABV?$basic_string@_WU?$char_traits@_W@std@@V?$K2StringAllocator@_W@@@std@@XZ 1912b9a0 f i c_toolbox.obj
 0002:000a09c0       ?GetID@ITool@@QBE?AW4EToolID@@XZ 1912b9c0 f i c_toolbox.obj
 0002:000a09e0       ??1iterator@?$_Tree@V?$_Tmap_traits@W4EToolID@@PAVITool@@U?$less@W4EToolID@@@std@@V?$K2MapAllocator@U?$pair@$$CBW4EToolID@@PAVITool@@@std@@@@$0A@@std@@@std@@QAE@XZ 1912b9e0 f i c_toolbox.obj
 0002:000a0a10       ??1const_iterator@?$_Tree@V?$_Tmap_traits@W4EToolID@@PAVITool@@U?$less@W4EToolID@@@std@@V?$K2MapAllocator@U?$pair@$$CBW4EToolID@@PAVITool@@@std@@@@$0A@@std@@@std@@QAE@XZ 1912ba10 f i c_toolbox.obj
 0002:000a0a40       ??1?$_Bidit@U?$pair@$$CBW4EToolID@@PAVITool@@@std@@HPBU12@ABU12@@std@@QAE@XZ 1912ba40 f i c_toolbox.obj
 0002:000a0a70       ?SelectTool@CToolBox@@QAEPAVITool@@ABV?$basic_string@_WU?$char_traits@_W@std@@V?$K2StringAllocator@_W@@@std@@@Z 1912ba70 f   c_toolbox.obj
 0002:000a0c00       ?SelectTool@CToolBox@@QAEPAVITool@@W4EToolID@@@Z 1912bc00 f   c_toolbox.obj
 0002:000a0d50       ?GetTool@CToolBox@@QAEPAVITool@@ABV?$basic_string@_WU?$char_traits@_W@std@@V?$K2StringAllocator@_W@@@std@@_N@Z 1912bd50 f   c_toolbox.obj
 0002:000a0fe0       ?GetTool@CToolBox@@QAEPAVITool@@W4EToolID@@_N@Z 1912bfe0 f   c_toolbox.obj
 0002:000a1270       ?IsToolSelected@CToolBox@@QAE_NW4EToolID@@@Z 1912c270 f   c_toolbox.obj
 0002:000a12c0       ?uiSelectToolFn@@YA?AV?$basic_string@_WU?$char_traits@_W@std@@V?$K2StringAllocator@_W@@@std@@PAVIWidget@@ABV?$vector@PAVCUIScriptToken@@V?$K2VectorAllocator@PAVCUIScriptToken@@@@@@@Z 1912c2c0 f   c_toolbox.obj
 0002:000a1320       ?uiSelectToolVoidFn@@YAXPAVIWidget@@ABV?$vector@PAVCUIScriptToken@@V?$K2VectorAllocator@PAVCUIScriptToken@@@@@@@Z 1912c320 f   c_toolbox.obj
 0002:000a1530       ??0?$map@V?$basic_string@_WU?$char_traits@_W@std@@V?$K2StringAllocator@_W@@@std@@PAVITool@@U?$less@V?$basic_string@_WU?$char_traits@_W@std@@V?$K2StringAllocator@_W@@@std@@@2@V?$K2MapAllocator@U?$pair@$$CBV?$basic_string@_WU?$char_traits@_W@std@@V?$K2StringAllocator@_W@@@std@@PAVITool@@@std@@@@@@QAE@XZ 1912c530 f i c_toolbox.obj
 0002:000a1560       ??A?$map@V?$basic_string@_WU?$char_traits@_W@std@@V?$K2StringAllocator@_W@@@std@@PAVITool@@U?$less@V?$basic_string@_WU?$char_traits@_W@std@@V?$K2StringAllocator@_W@@@std@@@2@V?$K2MapAllocator@U?$pair@$$CBV?$basic_string@_WU?$char_traits@_W@std@@V?$K2StringAllocator@_W@@@std@@PAVITool@@@std@@@@@std@@QAEAAPAVITool@@ABV?$basic_string@_WU?$char_traits@_W@std@@V?$K2StringAllocator@_W@@@1@@Z 1912c560 f i c_toolbox.obj
 0002:000a17b0       ??1?$_Tree@V?$_Tmap_traits@V?$basic_string@_WU?$char_traits@_W@std@@V?$K2StringAllocator@_W@@@std@@PAVITool@@U?$less@V?$basic_string@_WU?$char_traits@_W@std@@V?$K2StringAllocator@_W@@@std@@@2@V?$K2MapAllocator@U?$pair@$$CBV?$basic_string@_WU?$char_traits@_W@std@@V?$K2StringAllocator@_W@@@std@@PAVITool@@@std@@@@$0A@@std@@@std@@QAE@XZ 1912c7b0 f i c_toolbox.obj
 0002:000a1830       ?begin@?$_Tree@V?$_Tmap_traits@V?$basic_string@_WU?$char_traits@_W@std@@V?$K2StringAllocator@_W@@@std@@PAVITool@@U?$less@V?$basic_string@_WU?$char_traits@_W@std@@V?$K2StringAllocator@_W@@@std@@@2@V?$K2MapAllocator@U?$pair@$$CBV?$basic_string@_WU?$char_traits@_W@std@@V?$K2StringAllocator@_W@@@std@@PAVITool@@@std@@@@$0A@@std@@@std@@QAE?AViterator@12@XZ 1912c830 f i c_toolbox.obj
 0002:000a1880       ?end@?$_Tree@V?$_Tmap_traits@V?$basic_string@_WU?$char_traits@_W@std@@V?$K2StringAllocator@_W@@@std@@PAVITool@@U?$less@V?$basic_string@_WU?$char_traits@_W@std@@V?$K2StringAllocator@_W@@@std@@@2@V?$K2MapAllocator@U?$pair@$$CBV?$basic_string@_WU?$char_traits@_W@std@@V?$K2StringAllocator@_W@@@std@@PAVITool@@@std@@@@$0A@@std@@@std@@QAE?AViterator@12@XZ 1912c880 f i c_toolbox.obj
 0002:000a18d0       ?find@?$_Tree@V?$_Tmap_traits@V?$basic_string@_WU?$char_traits@_W@std@@V?$K2StringAllocator@_W@@@std@@PAVITool@@U?$less@V?$basic_string@_WU?$char_traits@_W@std@@V?$K2StringAllocator@_W@@@std@@@2@V?$K2MapAllocator@U?$pair@$$CBV?$basic_string@_WU?$char_traits@_W@std@@V?$K2StringAllocator@_W@@@std@@PAVITool@@@std@@@@$0A@@std@@@std@@QAE?AViterator@12@ABV?$basic_string@_WU?$char_traits@_W@std@@V?$K2StringAllocator@_W@@@2@@Z 1912c8d0 f i c_toolbox.obj
 0002:000a1ab0       ??0?$map@W4EToolID@@PAVITool@@U?$less@W4EToolID@@@std@@V?$K2MapAllocator@U?$pair@$$CBW4EToolID@@PAVITool@@@std@@@@@@QAE@XZ 1912cab0 f i c_toolbox.obj
 0002:000a1ae0       ??A?$map@W4EToolID@@PAVITool@@U?$less@W4EToolID@@@std@@V?$K2MapAllocator@U?$pair@$$CBW4EToolID@@PAVITool@@@std@@@@@std@@QAEAAPAVITool@@ABW4EToolID@@@Z 1912cae0 f i c_toolbox.obj
 0002:000a1cf0       ??1?$_Tree@V?$_Tmap_traits@W4EToolID@@PAVITool@@U?$less@W4EToolID@@@std@@V?$K2MapAllocator@U?$pair@$$CBW4EToolID@@PAVITool@@@std@@@@$0A@@std@@@std@@QAE@XZ 1912ccf0 f i c_toolbox.obj
 0002:000a1d70       ?end@?$_Tree@V?$_Tmap_traits@W4EToolID@@PAVITool@@U?$less@W4EToolID@@@std@@V?$K2MapAllocator@U?$pair@$$CBW4EToolID@@PAVITool@@@std@@@@$0A@@std@@@std@@QAE?AViterator@12@XZ 1912cd70 f i c_toolbox.obj
 0002:000a1dc0       ?find@?$_Tree@V?$_Tmap_traits@W4EToolID@@PAVITool@@U?$less@W4EToolID@@@std@@V?$K2MapAllocator@U?$pair@$$CBW4EToolID@@PAVITool@@@std@@@@$0A@@std@@@std@@QAE?AViterator@12@ABW4EToolID@@@Z 1912cdc0 f i c_toolbox.obj
 0002:000a1fa0       ??Citerator@?$_Tree@V?$_Tmap_traits@V?$basic_string@_WU?$char_traits@_W@std@@V?$K2StringAllocator@_W@@@std@@PAVITool@@U?$less@V?$basic_string@_WU?$char_traits@_W@std@@V?$K2StringAllocator@_W@@@std@@@2@V?$K2MapAllocator@U?$pair@$$CBV?$basic_string@_WU?$char_traits@_W@std@@V?$K2StringAllocator@_W@@@std@@PAVITool@@@std@@@@$0A@@std@@@std@@QBEPAU?$pair@$$CBV?$basic_string@_WU?$char_traits@_W@std@@V?$K2StringAllocator@_W@@@std@@PAVITool@@@2@XZ 1912cfa0 f i c_toolbox.obj
 0002:000a1fd0       ??Eiterator@?$_Tree@V?$_Tmap_traits@V?$basic_string@_WU?$char_traits@_W@std@@V?$K2StringAllocator@_W@@@std@@PAVITool@@U?$less@V?$basic_string@_WU?$char_traits@_W@std@@V?$K2StringAllocator@_W@@@std@@@2@V?$K2MapAllocator@U?$pair@$$CBV?$basic_string@_WU?$char_traits@_W@std@@V?$K2StringAllocator@_W@@@std@@PAVITool@@@std@@@@$0A@@std@@@std@@QAEAAV012@XZ 1912cfd0 f i c_toolbox.obj
 0002:000a2000       ??8const_iterator@?$_Tree@V?$_Tmap_traits@V?$basic_string@_WU?$char_traits@_W@std@@V?$K2StringAllocator@_W@@@std@@PAVITool@@U?$less@V?$basic_string@_WU?$char_traits@_W@std@@V?$K2StringAllocator@_W@@@std@@@2@V?$K2MapAllocator@U?$pair@$$CBV?$basic_string@_WU?$char_traits@_W@std@@V?$K2StringAllocator@_W@@@std@@PAVITool@@@std@@@@$0A@@std@@@std@@QBE_NABV012@@Z 1912d000 f i c_toolbox.obj
 0002:000a20c0       ??9const_iterator@?$_Tree@V?$_Tmap_traits@V?$basic_string@_WU?$char_traits@_W@std@@V?$K2StringAllocator@_W@@@std@@PAVITool@@U?$less@V?$basic_string@_WU?$char_traits@_W@std@@V?$K2StringAllocator@_W@@@std@@@2@V?$K2MapAllocator@U?$pair@$$CBV?$basic_string@_WU?$char_traits@_W@std@@V?$K2StringAllocator@_W@@@std@@PAVITool@@@std@@@@$0A@@std@@@std@@QBE_NABV012@@Z 1912d0c0 f i c_toolbox.obj
 0002:000a2100       ??Citerator@?$_Tree@V?$_Tmap_traits@W4EToolID@@PAVITool@@U?$less@W4EToolID@@@std@@V?$K2MapAllocator@U?$pair@$$CBW4EToolID@@PAVITool@@@std@@@@$0A@@std@@@std@@QBEPAU?$pair@$$CBW4EToolID@@PAVITool@@@2@XZ 1912d100 f i c_toolbox.obj
 0002:000a2130       ??8const_iterator@?$_Tree@V?$_Tmap_traits@W4EToolID@@PAVITool@@U?$less@W4EToolID@@@std@@V?$K2MapAllocator@U?$pair@$$CBW4EToolID@@PAVITool@@@std@@@@$0A@@std@@@std@@QBE_NABV012@@Z 1912d130 f i c_toolbox.obj
 0002:000a21f0       ??9const_iterator@?$_Tree@V?$_Tmap_traits@W4EToolID@@PAVITool@@U?$less@W4EToolID@@@std@@V?$K2MapAllocator@U?$pair@$$CBW4EToolID@@PAVITool@@@std@@@@$0A@@std@@@std@@QBE_NABV012@@Z 1912d1f0 f i c_toolbox.obj
 0002:000a2230       ??1?$pair@$$CBV?$basic_string@_WU?$char_traits@_W@std@@V?$K2StringAllocator@_W@@@std@@PAVITool@@@std@@QAE@XZ 1912d230 f i c_toolbox.obj
 0002:000a2260       ??0iterator@?$_Tree@V?$_Tmap_traits@V?$basic_string@_WU?$char_traits@_W@std@@V?$K2StringAllocator@_W@@@std@@PAVITool@@U?$less@V?$basic_string@_WU?$char_traits@_W@std@@V?$K2StringAllocator@_W@@@std@@@2@V?$K2MapAllocator@U?$pair@$$CBV?$basic_string@_WU?$char_traits@_W@std@@V?$K2StringAllocator@_W@@@std@@PAVITool@@@std@@@@$0A@@std@@@std@@QAE@ABV012@@Z 1912d260 f i c_toolbox.obj
 0002:000a2290       ??4iterator@?$_Tree@V?$_Tmap_traits@V?$basic_string@_WU?$char_traits@_W@std@@V?$K2StringAllocator@_W@@@std@@PAVITool@@U?$less@V?$basic_string@_WU?$char_traits@_W@std@@V?$K2StringAllocator@_W@@@std@@@2@V?$K2MapAllocator@U?$pair@$$CBV?$basic_string@_WU?$char_traits@_W@std@@V?$K2StringAllocator@_W@@@std@@PAVITool@@@std@@@@$0A@@std@@@std@@QAEAAV012@ABV012@@Z 1912d290 f i c_toolbox.obj
 0002:000a22c0       ??1?$_Tree_val@V?$_Tmap_traits@V?$basic_string@_WU?$char_traits@_W@std@@V?$K2StringAllocator@_W@@@std@@PAVITool@@U?$less@V?$basic_string@_WU?$char_traits@_W@std@@V?$K2StringAllocator@_W@@@std@@@2@V?$K2MapAllocator@U?$pair@$$CBV?$basic_string@_WU?$char_traits@_W@std@@V?$K2StringAllocator@_W@@@std@@PAVITool@@@std@@@@$0A@@std@@@std@@QAE@XZ 1912d2c0 f i c_toolbox.obj
 0002:000a2340       ??0iterator@?$_Tree@V?$_Tmap_traits@W4EToolID@@PAVITool@@U?$less@W4EToolID@@@std@@V?$K2MapAllocator@U?$pair@$$CBW4EToolID@@PAVITool@@@std@@@@$0A@@std@@@std@@QAE@ABV012@@Z 1912d340 f i c_toolbox.obj
 0002:000a2370       ??4iterator@?$_Tree@V?$_Tmap_traits@W4EToolID@@PAVITool@@U?$less@W4EToolID@@@std@@V?$K2MapAllocator@U?$pair@$$CBW4EToolID@@PAVITool@@@std@@@@$0A@@std@@@std@@QAEAAV012@ABV012@@Z 1912d370 f i c_toolbox.obj
 0002:000a23a0       ??1?$_Tree_val@V?$_Tmap_traits@W4EToolID@@PAVITool@@U?$less@W4EToolID@@@std@@V?$K2MapAllocator@U?$pair@$$CBW4EToolID@@PAVITool@@@std@@@@$0A@@std@@@std@@QAE@XZ 1912d3a0 f i c_toolbox.obj
 0002:000a2420       ??0const_iterator@?$_Tree@V?$_Tmap_traits@V?$basic_string@_WU?$char_traits@_W@std@@V?$K2StringAllocator@_W@@@std@@PAVITool@@U?$less@V?$basic_string@_WU?$char_traits@_W@std@@V?$K2StringAllocator@_W@@@std@@@2@V?$K2MapAllocator@U?$pair@$$CBV?$basic_string@_WU?$char_traits@_W@std@@V?$K2StringAllocator@_W@@@std@@PAVITool@@@std@@@@$0A@@std@@@std@@QAE@ABV012@@Z 1912d420 f i c_toolbox.obj
 0002:000a2460       ??4const_iterator@?$_Tree@V?$_Tmap_traits@V?$basic_string@_WU?$char_traits@_W@std@@V?$K2StringAllocator@_W@@@std@@PAVITool@@U?$less@V?$basic_string@_WU?$char_traits@_W@std@@V?$K2StringAllocator@_W@@@std@@@2@V?$K2MapAllocator@U?$pair@$$CBV?$basic_string@_WU?$char_traits@_W@std@@V?$K2StringAllocator@_W@@@std@@PAVITool@@@std@@@@$0A@@std@@@std@@QAEAAV012@ABV012@@Z 1912d460 f i c_toolbox.obj
 0002:000a24a0       ??1?$_Tree_ptr@V?$_Tmap_traits@V?$basic_string@_WU?$char_traits@_W@std@@V?$K2StringAllocator@_W@@@std@@PAVITool@@U?$less@V?$basic_string@_WU?$char_traits@_W@std@@V?$K2StringAllocator@_W@@@std@@@2@V?$K2MapAllocator@U?$pair@$$CBV?$basic_string@_WU?$char_traits@_W@std@@V?$K2StringAllocator@_W@@@std@@PAVITool@@@std@@@@$0A@@std@@@std@@QAE@XZ 1912d4a0 f i c_toolbox.obj
 0002:000a2520       ??0const_iterator@?$_Tree@V?$_Tmap_traits@W4EToolID@@PAVITool@@U?$less@W4EToolID@@@std@@V?$K2MapAllocator@U?$pair@$$CBW4EToolID@@PAVITool@@@std@@@@$0A@@std@@@std@@QAE@ABV012@@Z 1912d520 f i c_toolbox.obj
 0002:000a2560       ??4const_iterator@?$_Tree@V?$_Tmap_traits@W4EToolID@@PAVITool@@U?$less@W4EToolID@@@std@@V?$K2MapAllocator@U?$pair@$$CBW4EToolID@@PAVITool@@@std@@@@$0A@@std@@@std@@QAEAAV012@ABV012@@Z 1912d560 f i c_toolbox.obj
 0002:000a25a0       ??1?$_Tree_ptr@V?$_Tmap_traits@W4EToolID@@PAVITool@@U?$less@W4EToolID@@@std@@V?$K2MapAllocator@U?$pair@$$CBW4EToolID@@PAVITool@@@std@@@@$0A@@std@@@std@@QAE@XZ 1912d5a0 f i c_toolbox.obj
 0002:000a2620       ??0?$_Bidit@U?$pair@$$CBV?$basic_string@_WU?$char_traits@_W@std@@V?$K2StringAllocator@_W@@@std@@PAVITool@@@std@@HPBU12@ABU12@@std@@QAE@ABU01@@Z 1912d620 f i c_toolbox.obj
 0002:000a2650       ??4?$_Bidit@U?$pair@$$CBV?$basic_string@_WU?$char_traits@_W@std@@V?$K2StringAllocator@_W@@@std@@PAVITool@@@std@@HPBU12@ABU12@@std@@QAEAAU01@ABU01@@Z 1912d650 f i c_toolbox.obj
 0002:000a2680       ??1?$_Tree_nod@V?$_Tmap_traits@V?$basic_string@_WU?$char_traits@_W@std@@V?$K2StringAllocator@_W@@@std@@PAVITool@@U?$less@V?$basic_string@_WU?$char_traits@_W@std@@V?$K2StringAllocator@_W@@@std@@@2@V?$K2MapAllocator@U?$pair@$$CBV?$basic_string@_WU?$char_traits@_W@std@@V?$K2StringAllocator@_W@@@std@@PAVITool@@@std@@@@$0A@@std@@@std@@QAE@XZ 1912d680 f i c_toolbox.obj
 0002:000a2700       ??0?$_Bidit@U?$pair@$$CBW4EToolID@@PAVITool@@@std@@HPBU12@ABU12@@std@@QAE@ABU01@@Z 1912d700 f i c_toolbox.obj
 0002:000a2730       ??4?$_Bidit@U?$pair@$$CBW4EToolID@@PAVITool@@@std@@HPBU12@ABU12@@std@@QAEAAU01@ABU01@@Z 1912d730 f i c_toolbox.obj
 0002:000a2760       ??1?$_Tree_nod@V?$_Tmap_traits@W4EToolID@@PAVITool@@U?$less@W4EToolID@@@std@@V?$K2MapAllocator@U?$pair@$$CBW4EToolID@@PAVITool@@@std@@@@$0A@@std@@@std@@QAE@XZ 1912d760 f i c_toolbox.obj
 0002:000a27e0       ??1?$_Tmap_traits@V?$basic_string@_WU?$char_traits@_W@std@@V?$K2StringAllocator@_W@@@std@@PAVITool@@U?$less@V?$basic_string@_WU?$char_traits@_W@std@@V?$K2StringAllocator@_W@@@std@@@2@V?$K2MapAllocator@U?$pair@$$CBV?$basic_string@_WU?$char_traits@_W@std@@V?$K2StringAllocator@_W@@@std@@PAVITool@@@std@@@@$0A@@std@@QAE@XZ 1912d7e0 f i c_toolbox.obj
 0002:000a2810       ??1?$_Tmap_traits@W4EToolID@@PAVITool@@U?$less@W4EToolID@@@std@@V?$K2MapAllocator@U?$pair@$$CBW4EToolID@@PAVITool@@@std@@@@$0A@@std@@QAE@XZ 1912d810 f i c_toolbox.obj
 0002:000a2840       ??0?$map@V?$basic_string@_WU?$char_traits@_W@std@@V?$K2StringAllocator@_W@@@std@@PAVITool@@U?$less@V?$basic_string@_WU?$char_traits@_W@std@@V?$K2StringAllocator@_W@@@std@@@2@V?$K2MapAllocator@U?$pair@$$CBV?$basic_string@_WU?$char_traits@_W@std@@V?$K2StringAllocator@_W@@@std@@PAVITool@@@std@@@@@std@@QAE@XZ 1912d840 f i c_toolbox.obj
 0002:000a28e0       ?_Key@?$_Tree@V?$_Tmap_traits@V?$basic_string@_WU?$char_traits@_W@std@@V?$K2StringAllocator@_W@@@std@@PAVITool@@U?$less@V?$basic_string@_WU?$char_traits@_W@std@@V?$K2StringAllocator@_W@@@std@@@2@V?$K2MapAllocator@U?$pair@$$CBV?$basic_string@_WU?$char_traits@_W@std@@V?$K2StringAllocator@_W@@@std@@PAVITool@@@std@@@@$0A@@std@@@std@@KAABV?$basic_string@_WU?$char_traits@_W@std@@V?$K2StringAllocator@_W@@@2@PAU_Node@?$_Tree_nod@V?$_Tmap_traits@V?$basic_string@_WU?$char_traits@_W@std@@V?$K2StringAllocator@_W@@@std@@PAVITool@@U?$less@V?$basic_string@_WU?$char_traits@_W@std@@V?$K2StringAllocator@_W@@@std@@@2@V?$K2MapAllocator@U?$pair@$$CBV?$basic_string@_WU?$char_traits@_W@std@@V?$K2StringAllocator@_W@@@std@@PAVITool@@@std@@@@$0A@@std@@@2@@Z 1912d8e0 f i c_toolbox.obj
 0002:000a2910       ?insert@?$_Tree@V?$_Tmap_traits@V?$basic_string@_WU?$char_traits@_W@std@@V?$K2StringAllocator@_W@@@std@@PAVITool@@U?$less@V?$basic_string@_WU?$char_traits@_W@std@@V?$K2StringAllocator@_W@@@std@@@2@V?$K2MapAllocator@U?$pair@$$CBV?$basic_string@_WU?$char_traits@_W@std@@V?$K2StringAllocator@_W@@@std@@PAVITool@@@std@@@@$0A@@std@@@std@@QAE?AViterator@12@V312@ABU?$pair@$$CBV?$basic_string@_WU?$char_traits@_W@std@@V?$K2StringAllocator@_W@@@std@@PAVITool@@@2@@Z 1912d910 f i c_toolbox.obj
 0002:000a36d0       ?lower_bound@?$_Tree@V?$_Tmap_traits@V?$basic_string@_WU?$char_traits@_W@std@@V?$K2StringAllocator@_W@@@std@@PAVITool@@U?$less@V?$basic_string@_WU?$char_traits@_W@std@@V?$K2StringAllocator@_W@@@std@@@2@V?$K2MapAllocator@U?$pair@$$CBV?$basic_string@_WU?$char_traits@_W@std@@V?$K2StringAllocator@_W@@@std@@PAVITool@@@std@@@@$0A@@std@@@std@@QAE?AViterator@12@ABV?$basic_string@_WU?$char_traits@_W@std@@V?$K2StringAllocator@_W@@@2@@Z 1912e6d0 f i c_toolbox.obj
 0002:000a3730       ?_Lmost@?$_Tree@V?$_Tmap_traits@V?$basic_string@_WU?$char_traits@_W@std@@V?$K2StringAllocator@_W@@@std@@PAVITool@@U?$less@V?$basic_string@_WU?$char_traits@_W@std@@V?$K2StringAllocator@_W@@@std@@@2@V?$K2MapAllocator@U?$pair@$$CBV?$basic_string@_WU?$char_traits@_W@std@@V?$K2StringAllocator@_W@@@std@@PAVITool@@@std@@@@$0A@@std@@@std@@IBEAAPAU_Node@?$_Tree_nod@V?$_Tmap_traits@V?$basic_string@_WU?$char_traits@_W@std@@V?$K2StringAllocator@_W@@@std@@PAVITool@@U?$less@V?$basic_string@_WU?$char_traits@_W@std@@V?$K2StringAllocator@_W@@@std@@@2@V?$K2MapAllocator@U?$pair@$$CBV?$basic_string@_WU?$char_traits@_W@std@@V?$K2StringAllocator@_W@@@std@@PAVITool@@@std@@@@$0A@@std@@@2@XZ 1912e730 f i c_toolbox.obj
 0002:000a3760       ?_Rmost@?$_Tree@V?$_Tmap_traits@V?$basic_string@_WU?$char_traits@_W@std@@V?$K2StringAllocator@_W@@@std@@PAVITool@@U?$less@V?$basic_string@_WU?$char_traits@_W@std@@V?$K2StringAllocator@_W@@@std@@@2@V?$K2MapAllocator@U?$pair@$$CBV?$basic_string@_WU?$char_traits@_W@std@@V?$K2StringAllocator@_W@@@std@@PAVITool@@@std@@@@$0A@@std@@@std@@IBEAAPAU_Node@?$_Tree_nod@V?$_Tmap_traits@V?$basic_string@_WU?$char_traits@_W@std@@V?$K2StringAllocator@_W@@@std@@PAVITool@@U?$less@V?$basic_string@_WU?$char_traits@_W@std@@V?$K2StringAllocator@_W@@@std@@@2@V?$K2MapAllocator@U?$pair@$$CBV?$basic_string@_WU?$char_traits@_W@std@@V?$K2StringAllocator@_W@@@std@@PAVITool@@@std@@@@$0A@@std@@@2@XZ 1912e760 f i c_toolbox.obj
 0002:000a3790       ?_Tidy@?$_Tree@V?$_Tmap_traits@V?$basic_string@_WU?$char_traits@_W@std@@V?$K2StringAllocator@_W@@@std@@PAVITool@@U?$less@V?$basic_string@_WU?$char_traits@_W@std@@V?$K2StringAllocator@_W@@@std@@@2@V?$K2MapAllocator@U?$pair@$$CBV?$basic_string@_WU?$char_traits@_W@std@@V?$K2StringAllocator@_W@@@std@@PAVITool@@@std@@@@$0A@@std@@@std@@IAEXXZ 1912e790 f i c_toolbox.obj
 0002:000a38e0       ??1?$K2MapAllocator@U?$pair@$$CBV?$basic_string@_WU?$char_traits@_W@std@@V?$K2StringAllocator@_W@@@std@@PAVITool@@@std@@@@QAE@XZ 1912e8e0 f i c_toolbox.obj
 0002:000a3900       ??1?$K2MapAllocator@U_Node@?$_Tree_nod@V?$_Tmap_traits@V?$basic_string@_WU?$char_traits@_W@std@@V?$K2StringAllocator@_W@@@std@@PAVITool@@U?$less@V?$basic_string@_WU?$char_traits@_W@std@@V?$K2StringAllocator@_W@@@std@@@2@V?$K2MapAllocator@U?$pair@$$CBV?$basic_string@_WU?$char_traits@_W@std@@V?$K2StringAllocator@_W@@@std@@PAVITool@@@std@@@@$0A@@std@@@std@@@@QAE@XZ 1912e900 f i c_toolbox.obj
 0002:000a3920       ??1?$K2MapAllocator@PAU_Node@?$_Tree_nod@V?$_Tmap_traits@V?$basic_string@_WU?$char_traits@_W@std@@V?$K2StringAllocator@_W@@@std@@PAVITool@@U?$less@V?$basic_string@_WU?$char_traits@_W@std@@V?$K2StringAllocator@_W@@@std@@@2@V?$K2MapAllocator@U?$pair@$$CBV?$basic_string@_WU?$char_traits@_W@std@@V?$K2StringAllocator@_W@@@std@@PAVITool@@@std@@@@$0A@@std@@@std@@@@QAE@XZ 1912e920 f i c_toolbox.obj
 0002:000a3940       ??0?$map@W4EToolID@@PAVITool@@U?$less@W4EToolID@@@std@@V?$K2MapAllocator@U?$pair@$$CBW4EToolID@@PAVITool@@@std@@@@@std@@QAE@XZ 1912e940 f i c_toolbox.obj
 0002:000a39e0       ?_Key@?$_Tree@V?$_Tmap_traits@W4EToolID@@PAVITool@@U?$less@W4EToolID@@@std@@V?$K2MapAllocator@U?$pair@$$CBW4EToolID@@PAVITool@@@std@@@@$0A@@std@@@std@@KAABW4EToolID@@PAU_Node@?$_Tree_nod@V?$_Tmap_traits@W4EToolID@@PAVITool@@U?$less@W4EToolID@@@std@@V?$K2MapAllocator@U?$pair@$$CBW4EToolID@@PAVITool@@@std@@@@$0A@@std@@@2@@Z 1912e9e0 f i c_toolbox.obj
 0002:000a3a10       ?insert@?$_Tree@V?$_Tmap_traits@W4EToolID@@PAVITool@@U?$less@W4EToolID@@@std@@V?$K2MapAllocator@U?$pair@$$CBW4EToolID@@PAVITool@@@std@@@@$0A@@std@@@std@@QAE?AViterator@12@V312@ABU?$pair@$$CBW4EToolID@@PAVITool@@@2@@Z 1912ea10 f i c_toolbox.obj
 0002:000a47d0       ?lower_bound@?$_Tree@V?$_Tmap_traits@W4EToolID@@PAVITool@@U?$less@W4EToolID@@@std@@V?$K2MapAllocator@U?$pair@$$CBW4EToolID@@PAVITool@@@std@@@@$0A@@std@@@std@@QAE?AViterator@12@ABW4EToolID@@@Z 1912f7d0 f i c_toolbox.obj
 0002:000a4830       ?_Tidy@?$_Tree@V?$_Tmap_traits@W4EToolID@@PAVITool@@U?$less@W4EToolID@@@std@@V?$K2MapAllocator@U?$pair@$$CBW4EToolID@@PAVITool@@@std@@@@$0A@@std@@@std@@IAEXXZ 1912f830 f i c_toolbox.obj
 0002:000a4980       ??1?$K2MapAllocator@U?$pair@$$CBW4EToolID@@PAVITool@@@std@@@@QAE@XZ 1912f980 f i c_toolbox.obj
 0002:000a49a0       ??R?$less@W4EToolID@@@std@@QBE_NABW4EToolID@@0@Z 1912f9a0 f i c_toolbox.obj
 0002:000a49d0       ??1?$K2MapAllocator@U_Node@?$_Tree_nod@V?$_Tmap_traits@W4EToolID@@PAVITool@@U?$less@W4EToolID@@@std@@V?$K2MapAllocator@U?$pair@$$CBW4EToolID@@PAVITool@@@std@@@@$0A@@std@@@std@@@@QAE@XZ 1912f9d0 f i c_toolbox.obj
 0002:000a49f0       ??1?$K2MapAllocator@PAU_Node@?$_Tree_nod@V?$_Tmap_traits@W4EToolID@@PAVITool@@U?$less@W4EToolID@@@std@@V?$K2MapAllocator@U?$pair@$$CBW4EToolID@@PAVITool@@@std@@@@$0A@@std@@@std@@@@QAE@XZ 1912f9f0 f i c_toolbox.obj
 0002:000a4a10       ??0iterator@?$_Tree@V?$_Tmap_traits@V?$basic_string@_WU?$char_traits@_W@std@@V?$K2StringAllocator@_W@@@std@@PAVITool@@U?$less@V?$basic_string@_WU?$char_traits@_W@std@@V?$K2StringAllocator@_W@@@std@@@2@V?$K2MapAllocator@U?$pair@$$CBV?$basic_string@_WU?$char_traits@_W@std@@V?$K2StringAllocator@_W@@@std@@PAVITool@@@std@@@@$0A@@std@@@std@@QAE@PAU_Node@?$_Tree_nod@V?$_Tmap_traits@V?$basic_string@_WU?$char_traits@_W@std@@V?$K2StringAllocator@_W@@@std@@PAVITool@@U?$less@V?$basic_string@_WU?$char_traits@_W@std@@V?$K2StringAllocator@_W@@@std@@@2@V?$K2MapAllocator@U?$pair@$$CBV?$basic_string@_WU?$char_traits@_W@std@@V?$K2StringAllocator@_W@@@std@@PAVITool@@@std@@@@$0A@@std@@@2@PBV12@@Z 1912fa10 f i c_toolbox.obj
 0002:000a4a50       ??Diterator@?$_Tree@V?$_Tmap_traits@V?$basic_string@_WU?$char_traits@_W@std@@V?$K2StringAllocator@_W@@@std@@PAVITool@@U?$less@V?$basic_string@_WU?$char_traits@_W@std@@V?$K2StringAllocator@_W@@@std@@@2@V?$K2MapAllocator@U?$pair@$$CBV?$basic_string@_WU?$char_traits@_W@std@@V?$K2StringAllocator@_W@@@std@@PAVITool@@@std@@@@$0A@@std@@@std@@QBEAAU?$pair@$$CBV?$basic_string@_WU?$char_traits@_W@std@@V?$K2StringAllocator@_W@@@std@@PAVITool@@@2@XZ 1912fa50 f i c_toolbox.obj
 0002:000a4a80       ??Econst_iterator@?$_Tree@V?$_Tmap_traits@V?$basic_string@_WU?$char_traits@_W@std@@V?$K2StringAllocator@_W@@@std@@PAVITool@@U?$less@V?$basic_string@_WU?$char_traits@_W@std@@V?$K2StringAllocator@_W@@@std@@@2@V?$K2MapAllocator@U?$pair@$$CBV?$basic_string@_WU?$char_traits@_W@std@@V?$K2StringAllocator@_W@@@std@@PAVITool@@@std@@@@$0A@@std@@@std@@QAEAAV012@XZ 1912fa80 f i c_toolbox.obj
 0002:000a4ab0       ?_Mynode@const_iterator@?$_Tree@V?$_Tmap_traits@V?$basic_string@_WU?$char_traits@_W@std@@V?$K2StringAllocator@_W@@@std@@PAVITool@@U?$less@V?$basic_string@_WU?$char_traits@_W@std@@V?$K2StringAllocator@_W@@@std@@@2@V?$K2MapAllocator@U?$pair@$$CBV?$basic_string@_WU?$char_traits@_W@std@@V?$K2StringAllocator@_W@@@std@@PAVITool@@@std@@@@$0A@@std@@@std@@QBEPAU_Node@?$_Tree_nod@V?$_Tmap_traits@V?$basic_string@_WU?$char_traits@_W@std@@V?$K2StringAllocator@_W@@@std@@PAVITool@@U?$less@V?$basic_string@_WU?$char_traits@_W@std@@V?$K2StringAllocator@_W@@@std@@@2@V?$K2MapAllocator@U?$pair@$$CBV?$basic_string@_WU?$char_traits@_W@std@@V?$K2StringAllocator@_W@@@std@@PAVITool@@@std@@@@$0A@@std@@@3@XZ 1912fab0 f i c_toolbox.obj
 0002:000a4ad0       ??0?$pair@$$CBV?$basic_string@_WU?$char_traits@_W@std@@V?$K2StringAllocator@_W@@@std@@PAVITool@@@std@@QAE@ABV?$basic_string@_WU?$char_traits@_W@std@@V?$K2StringAllocator@_W@@@1@ABQAVITool@@@Z 1912fad0 f i c_toolbox.obj
 0002:000a4b10       ??0iterator@?$_Tree@V?$_Tmap_traits@W4EToolID@@PAVITool@@U?$less@W4EToolID@@@std@@V?$K2MapAllocator@U?$pair@$$CBW4EToolID@@PAVITool@@@std@@@@$0A@@std@@@std@@QAE@PAU_Node@?$_Tree_nod@V?$_Tmap_traits@W4EToolID@@PAVITool@@U?$less@W4EToolID@@@std@@V?$K2MapAllocator@U?$pair@$$CBW4EToolID@@PAVITool@@@std@@@@$0A@@std@@@2@PBV12@@Z 1912fb10 f i c_toolbox.obj
 0002:000a4b50       ??Diterator@?$_Tree@V?$_Tmap_traits@W4EToolID@@PAVITool@@U?$less@W4EToolID@@@std@@V?$K2MapAllocator@U?$pair@$$CBW4EToolID@@PAVITool@@@std@@@@$0A@@std@@@std@@QBEAAU?$pair@$$CBW4EToolID@@PAVITool@@@2@XZ 1912fb50 f i c_toolbox.obj
 0002:000a4b80       ?_Mynode@const_iterator@?$_Tree@V?$_Tmap_traits@W4EToolID@@PAVITool@@U?$less@W4EToolID@@@std@@V?$K2MapAllocator@U?$pair@$$CBW4EToolID@@PAVITool@@@std@@@@$0A@@std@@@std@@QBEPAU_Node@?$_Tree_nod@V?$_Tmap_traits@W4EToolID@@PAVITool@@U?$less@W4EToolID@@@std@@V?$K2MapAllocator@U?$pair@$$CBW4EToolID@@PAVITool@@@std@@@@$0A@@std@@@3@XZ 1912fb80 f i c_toolbox.obj
 0002:000a4ba0       ??0?$pair@$$CBW4EToolID@@PAVITool@@@std@@QAE@ABW4EToolID@@ABQAVITool@@@Z 1912fba0 f i c_toolbox.obj
 0002:000a4be0       ??1?$pair@Viterator@?$_Tree@V?$_Tmap_traits@V?$basic_string@_WU?$char_traits@_W@std@@V?$K2StringAllocator@_W@@@std@@PAVITool@@U?$less@V?$basic_string@_WU?$char_traits@_W@std@@V?$K2StringAllocator@_W@@@std@@@2@V?$K2MapAllocator@U?$pair@$$CBV?$basic_string@_WU?$char_traits@_W@std@@V?$K2StringAllocator@_W@@@std@@PAVITool@@@std@@@@$0A@@std@@@std@@_N@std@@QAE@XZ 1912fbe0 f i c_toolbox.obj
 0002:000a4c10       ??1?$pair@Viterator@?$_Tree@V?$_Tmap_traits@W4EToolID@@PAVITool@@U?$less@W4EToolID@@@std@@V?$K2MapAllocator@U?$pair@$$CBW4EToolID@@PAVITool@@@std@@@@$0A@@std@@@std@@_N@std@@QAE@XZ 1912fc10 f i c_toolbox.obj
 0002:000a4c40       ?_Isnil@?$_Tree@V?$_Tmap_traits@V?$basic_string@_WU?$char_traits@_W@std@@V?$K2StringAllocator@_W@@@std@@PAVITool@@U?$less@V?$basic_string@_WU?$char_traits@_W@std@@V?$K2StringAllocator@_W@@@std@@@2@V?$K2MapAllocator@U?$pair@$$CBV?$basic_string@_WU?$char_traits@_W@std@@V?$K2StringAllocator@_W@@@std@@PAVITool@@@std@@@@$0A@@std@@@std@@KAAADPAU_Node@?$_Tree_nod@V?$_Tmap_traits@V?$basic_string@_WU?$char_traits@_W@std@@V?$K2StringAllocator@_W@@@std@@PAVITool@@U?$less@V?$basic_string@_WU?$char_traits@_W@std@@V?$K2StringAllocator@_W@@@std@@@2@V?$K2MapAllocator@U?$pair@$$CBV?$basic_string@_WU?$char_traits@_W@std@@V?$K2StringAllocator@_W@@@std@@PAVITool@@@std@@@@$0A@@std@@@2@@Z 1912fc40 f i c_toolbox.obj
 0002:000a4c60       ?_Left@?$_Tree@V?$_Tmap_traits@V?$basic_string@_WU?$char_traits@_W@std@@V?$K2StringAllocator@_W@@@std@@PAVITool@@U?$less@V?$basic_string@_WU?$char_traits@_W@std@@V?$K2StringAllocator@_W@@@std@@@2@V?$K2MapAllocator@U?$pair@$$CBV?$basic_string@_WU?$char_traits@_W@std@@V?$K2StringAllocator@_W@@@std@@PAVITool@@@std@@@@$0A@@std@@@std@@KAAAPAU_Node@?$_Tree_nod@V?$_Tmap_traits@V?$basic_string@_WU?$char_traits@_W@std@@V?$K2StringAllocator@_W@@@std@@PAVITool@@U?$less@V?$basic_string@_WU?$char_traits@_W@std@@V?$K2StringAllocator@_W@@@std@@@2@V?$K2MapAllocator@U?$pair@$$CBV?$basic_string@_WU?$char_traits@_W@std@@V?$K2StringAllocator@_W@@@std@@PAVITool@@@std@@@@$0A@@std@@@2@PAU342@@Z 1912fc60 f i c_toolbox.obj
 0002:000a4c80       ?_Parent@?$_Tree@V?$_Tmap_traits@V?$basic_string@_WU?$char_traits@_W@std@@V?$K2StringAllocator@_W@@@std@@PAVITool@@U?$less@V?$basic_string@_WU?$char_traits@_W@std@@V?$K2StringAllocator@_W@@@std@@@2@V?$K2MapAllocator@U?$pair@$$CBV?$basic_string@_WU?$char_traits@_W@std@@V?$K2StringAllocator@_W@@@std@@PAVITool@@@std@@@@$0A@@std@@@std@@KAAAPAU_Node@?$_Tree_nod@V?$_Tmap_traits@V?$basic_string@_WU?$char_traits@_W@std@@V?$K2StringAllocator@_W@@@std@@PAVITool@@U?$less@V?$basic_string@_WU?$char_traits@_W@std@@V?$K2StringAllocator@_W@@@std@@@2@V?$K2MapAllocator@U?$pair@$$CBV?$basic_string@_WU?$char_traits@_W@std@@V?$K2StringAllocator@_W@@@std@@PAVITool@@@std@@@@$0A@@std@@@2@PAU342@@Z 1912fc80 f i c_toolbox.obj
 0002:000a4ca0       ?_Right@?$_Tree@V?$_Tmap_traits@V?$basic_string@_WU?$char_traits@_W@std@@V?$K2StringAllocator@_W@@@std@@PAVITool@@U?$less@V?$basic_string@_WU?$char_traits@_W@std@@V?$K2StringAllocator@_W@@@std@@@2@V?$K2MapAllocator@U?$pair@$$CBV?$basic_string@_WU?$char_traits@_W@std@@V?$K2StringAllocator@_W@@@std@@PAVITool@@@std@@@@$0A@@std@@@std@@KAAAPAU_Node@?$_Tree_nod@V?$_Tmap_traits@V?$basic_string@_WU?$char_traits@_W@std@@V?$K2StringAllocator@_W@@@std@@PAVITool@@U?$less@V?$basic_string@_WU?$char_traits@_W@std@@V?$K2StringAllocator@_W@@@std@@@2@V?$K2MapAllocator@U?$pair@$$CBV?$basic_string@_WU?$char_traits@_W@std@@V?$K2StringAllocator@_W@@@std@@PAVITool@@@std@@@@$0A@@std@@@2@PAU342@@Z 1912fca0 f i c_toolbox.obj
 0002:000a4cc0       ?_Myval@?$_Tree@V?$_Tmap_traits@V?$basic_string@_WU?$char_traits@_W@std@@V?$K2StringAllocator@_W@@@std@@PAVITool@@U?$less@V?$basic_string@_WU?$char_traits@_W@std@@V?$K2StringAllocator@_W@@@std@@@2@V?$K2MapAllocator@U?$pair@$$CBV?$basic_string@_WU?$char_traits@_W@std@@V?$K2StringAllocator@_W@@@std@@PAVITool@@@std@@@@$0A@@std@@@std@@KAAAU?$pair@$$CBV?$basic_string@_WU?$char_traits@_W@std@@V?$K2StringAllocator@_W@@@std@@PAVITool@@@2@PAU_Node@?$_Tree_nod@V?$_Tmap_traits@V?$basic_string@_WU?$char_traits@_W@std@@V?$K2StringAllocator@_W@@@std@@PAVITool@@U?$less@V?$basic_string@_WU?$char_traits@_W@std@@V?$K2StringAllocator@_W@@@std@@@2@V?$K2MapAllocator@U?$pair@$$CBV?$basic_string@_WU?$char_traits@_W@std@@V?$K2StringAllocator@_W@@@std@@PAVITool@@@std@@@@$0A@@std@@@2@@Z 1912fcc0 f i c_toolbox.obj
 0002:000a4ce0       ??0?$_Tree@V?$_Tmap_traits@V?$basic_string@_WU?$char_traits@_W@std@@V?$K2StringAllocator@_W@@@std@@PAVITool@@U?$less@V?$basic_string@_WU?$char_traits@_W@std@@V?$K2StringAllocator@_W@@@std@@@2@V?$K2MapAllocator@U?$pair@$$CBV?$basic_string@_WU?$char_traits@_W@std@@V?$K2StringAllocator@_W@@@std@@PAVITool@@@std@@@@$0A@@std@@@std@@QAE@ABU?$less@V?$basic_string@_WU?$char_traits@_W@std@@V?$K2StringAllocator@_W@@@std@@@1@ABV?$K2MapAllocator@U?$pair@$$CBV?$basic_string@_WU?$char_traits@_W@std@@V?$K2StringAllocator@_W@@@std@@PAVITool@@@std@@@@@Z 1912fce0 f i c_toolbox.obj
 0002:000a4d80       ?size@?$_Tree@V?$_Tmap_traits@V?$basic_string@_WU?$char_traits@_W@std@@V?$K2StringAllocator@_W@@@std@@PAVITool@@U?$less@V?$basic_string@_WU?$char_traits@_W@std@@V?$K2StringAllocator@_W@@@std@@@2@V?$K2MapAllocator@U?$pair@$$CBV?$basic_string@_WU?$char_traits@_W@std@@V?$K2StringAllocator@_W@@@std@@PAVITool@@@std@@@@$0A@@std@@@std@@QBEIXZ 1912fd80 f i c_toolbox.obj
 0002:000a4da0       ?insert@?$_Tree@V?$_Tmap_traits@V?$basic_string@_WU?$char_traits@_W@std@@V?$K2StringAllocator@_W@@@std@@PAVITool@@U?$less@V?$basic_string@_WU?$char_traits@_W@std@@V?$K2StringAllocator@_W@@@std@@@2@V?$K2MapAllocator@U?$pair@$$CBV?$basic_string@_WU?$char_traits@_W@std@@V?$K2StringAllocator@_W@@@std@@PAVITool@@@std@@@@$0A@@std@@@std@@QAE?AU?$pair@Viterator@?$_Tree@V?$_Tmap_traits@V?$basic_string@_WU?$char_traits@_W@std@@V?$K2StringAllocator@_W@@@std@@PAVITool@@U?$less@V?$basic_string@_WU?$char_traits@_W@std@@V?$K2StringAllocator@_W@@@std@@@2@V?$K2MapAllocator@U?$pair@$$CBV?$basic_string@_WU?$char_traits@_W@std@@V?$K2StringAllocator@_W@@@std@@PAVITool@@@std@@@@$0A@@std@@@std@@_N@2@ABU?$pair@$$CBV?$basic_string@_WU?$char_traits@_W@std@@V?$K2StringAllocator@_W@@@std@@PAVITool@@@2@@Z 1912fda0 f i c_toolbox.obj
 0002:000a51c0       ?_Root@?$_Tree@V?$_Tmap_traits@V?$basic_string@_WU?$char_traits@_W@std@@V?$K2StringAllocator@_W@@@std@@PAVITool@@U?$less@V?$basic_string@_WU?$char_traits@_W@std@@V?$K2StringAllocator@_W@@@std@@@2@V?$K2MapAllocator@U?$pair@$$CBV?$basic_string@_WU?$char_traits@_W@std@@V?$K2StringAllocator@_W@@@std@@PAVITool@@@std@@@@$0A@@std@@@std@@IBEAAPAU_Node@?$_Tree_nod@V?$_Tmap_traits@V?$basic_string@_WU?$char_traits@_W@std@@V?$K2StringAllocator@_W@@@std@@PAVITool@@U?$less@V?$basic_string@_WU?$char_traits@_W@std@@V?$K2StringAllocator@_W@@@std@@@2@V?$K2MapAllocator@U?$pair@$$CBV?$basic_string@_WU?$char_traits@_W@std@@V?$K2StringAllocator@_W@@@std@@PAVITool@@@std@@@@$0A@@std@@@2@XZ 191301c0 f i c_toolbox.obj
 0002:000a51f0       ?erase@?$_Tree@V?$_Tmap_traits@V?$basic_string@_WU?$char_traits@_W@std@@V?$K2StringAllocator@_W@@@std@@PAVITool@@U?$less@V?$basic_string@_WU?$char_traits@_W@std@@V?$K2StringAllocator@_W@@@std@@@2@V?$K2MapAllocator@U?$pair@$$CBV?$basic_string@_WU?$char_traits@_W@std@@V?$K2StringAllocator@_W@@@std@@PAVITool@@@std@@@@$0A@@std@@@std@@QAE?AViterator@12@V312@0@Z 191301f0 f i c_toolbox.obj
 0002:000a5480       ?clear@?$_Tree@V?$_Tmap_traits@V?$basic_string@_WU?$char_traits@_W@std@@V?$K2StringAllocator@_W@@@std@@PAVITool@@U?$less@V?$basic_string@_WU?$char_traits@_W@std@@V?$K2StringAllocator@_W@@@std@@@2@V?$K2MapAllocator@U?$pair@$$CBV?$basic_string@_WU?$char_traits@_W@std@@V?$K2StringAllocator@_W@@@std@@PAVITool@@@std@@@@$0A@@std@@@std@@QAEXXZ 19130480 f i c_toolbox.obj
 0002:000a5510       ?_Erase@?$_Tree@V?$_Tmap_traits@V?$basic_string@_WU?$char_traits@_W@std@@V?$K2StringAllocator@_W@@@std@@PAVITool@@U?$less@V?$basic_string@_WU?$char_traits@_W@std@@V?$K2StringAllocator@_W@@@std@@@2@V?$K2MapAllocator@U?$pair@$$CBV?$basic_string@_WU?$char_traits@_W@std@@V?$K2StringAllocator@_W@@@std@@PAVITool@@@std@@@@$0A@@std@@@std@@IAEXPAU_Node@?$_Tree_nod@V?$_Tmap_traits@V?$basic_string@_WU?$char_traits@_W@std@@V?$K2StringAllocator@_W@@@std@@PAVITool@@U?$less@V?$basic_string@_WU?$char_traits@_W@std@@V?$K2StringAllocator@_W@@@std@@@2@V?$K2MapAllocator@U?$pair@$$CBV?$basic_string@_WU?$char_traits@_W@std@@V?$K2StringAllocator@_W@@@std@@PAVITool@@@std@@@@$0A@@std@@@2@@Z 19130510 f i c_toolbox.obj
 0002:000a55b0       ?_Orphan_ptr@?$_Tree@V?$_Tmap_traits@V?$basic_string@_WU?$char_traits@_W@std@@V?$K2StringAllocator@_W@@@std@@PAVITool@@U?$less@V?$basic_string@_WU?$char_traits@_W@std@@V?$K2StringAllocator@_W@@@std@@@2@V?$K2MapAllocator@U?$pair@$$CBV?$basic_string@_WU?$char_traits@_W@std@@V?$K2StringAllocator@_W@@@std@@PAVITool@@@std@@@@$0A@@std@@@std@@IBEXAAV12@PAU_Node@?$_Tree_nod@V?$_Tmap_traits@V?$basic_string@_WU?$char_traits@_W@std@@V?$K2StringAllocator@_W@@@std@@PAVITool@@U?$less@V?$basic_string@_WU?$char_traits@_W@std@@V?$K2StringAllocator@_W@@@std@@@2@V?$K2MapAllocator@U?$pair@$$CBV?$basic_string@_WU?$char_traits@_W@std@@V?$K2StringAllocator@_W@@@std@@PAVITool@@@std@@@@$0A@@std@@@2@@Z 191305b0 f i c_toolbox.obj
 0002:000a5660       ?_Insert@?$_Tree@V?$_Tmap_traits@V?$basic_string@_WU?$char_traits@_W@std@@V?$K2StringAllocator@_W@@@std@@PAVITool@@U?$less@V?$basic_string@_WU?$char_traits@_W@std@@V?$K2StringAllocator@_W@@@std@@@2@V?$K2MapAllocator@U?$pair@$$CBV?$basic_string@_WU?$char_traits@_W@std@@V?$K2StringAllocator@_W@@@std@@PAVITool@@@std@@@@$0A@@std@@@std@@IAE?AViterator@12@_NPAU_Node@?$_Tree_nod@V?$_Tmap_traits@V?$basic_string@_WU?$char_traits@_W@std@@V?$K2StringAllocator@_W@@@std@@PAVITool@@U?$less@V?$basic_string@_WU?$char_traits@_W@std@@V?$K2StringAllocator@_W@@@std@@@2@V?$K2MapAllocator@U?$pair@$$CBV?$basic_string@_WU?$char_traits@_W@std@@V?$K2StringAllocator@_W@@@std@@PAVITool@@@std@@@@$0A@@std@@@2@ABU?$pair@$$CBV?$basic_string@_WU?$char_traits@_W@std@@V?$K2StringAllocator@_W@@@std@@PAVITool@@@2@@Z 19130660 f i c_toolbox.obj
 0002:000a5c20       ?_Lbound@?$_Tree@V?$_Tmap_traits@V?$basic_string@_WU?$char_traits@_W@std@@V?$K2StringAllocator@_W@@@std@@PAVITool@@U?$less@V?$basic_string@_WU?$char_traits@_W@std@@V?$K2StringAllocator@_W@@@std@@@2@V?$K2MapAllocator@U?$pair@$$CBV?$basic_string@_WU?$char_traits@_W@std@@V?$K2StringAllocator@_W@@@std@@PAVITool@@@std@@@@$0A@@std@@@std@@IBEPAU_Node@?$_Tree_nod@V?$_Tmap_traits@V?$basic_string@_WU?$char_traits@_W@std@@V?$K2StringAllocator@_W@@@std@@PAVITool@@U?$less@V?$basic_string@_WU?$char_traits@_W@std@@V?$K2StringAllocator@_W@@@std@@@2@V?$K2MapAllocator@U?$pair@$$CBV?$basic_string@_WU?$char_traits@_W@std@@V?$K2StringAllocator@_W@@@std@@PAVITool@@@std@@@@$0A@@std@@@2@ABV?$basic_string@_WU?$char_traits@_W@std@@V?$K2StringAllocator@_W@@@2@@Z 19130c20 f i c_toolbox.obj
 0002:000a5cf0       ?_Kfn@?$_Tmap_traits@V?$basic_string@_WU?$char_traits@_W@std@@V?$K2StringAllocator@_W@@@std@@PAVITool@@U?$less@V?$basic_string@_WU?$char_traits@_W@std@@V?$K2StringAllocator@_W@@@std@@@2@V?$K2MapAllocator@U?$pair@$$CBV?$basic_string@_WU?$char_traits@_W@std@@V?$K2StringAllocator@_W@@@std@@PAVITool@@@std@@@@$0A@@std@@SAABV?$basic_string@_WU?$char_traits@_W@std@@V?$K2StringAllocator@_W@@@2@ABU?$pair@$$CBV?$basic_string@_WU?$char_traits@_W@std@@V?$K2StringAllocator@_W@@@std@@PAVITool@@@2@@Z 19130cf0 f i c_toolbox.obj
 0002:000a5d10       ??0?$K2MapAllocator@U?$pair@$$CBV?$basic_string@_WU?$char_traits@_W@std@@V?$K2StringAllocator@_W@@@std@@PAVITool@@@std@@@@QAE@XZ 19130d10 f i c_toolbox.obj
 0002:000a5d40       ?deallocate@?$K2MapAllocator@U_Node@?$_Tree_nod@V?$_Tmap_traits@V?$basic_string@_WU?$char_traits@_W@std@@V?$K2StringAllocator@_W@@@std@@PAVITool@@U?$less@V?$basic_string@_WU?$char_traits@_W@std@@V?$K2StringAllocator@_W@@@std@@@2@V?$K2MapAllocator@U?$pair@$$CBV?$basic_string@_WU?$char_traits@_W@std@@V?$K2StringAllocator@_W@@@std@@PAVITool@@@std@@@@$0A@@std@@@std@@@@QAEXPAU_Node@?$_Tree_nod@V?$_Tmap_traits@V?$basic_string@_WU?$char_traits@_W@std@@V?$K2StringAllocator@_W@@@std@@PAVITool@@U?$less@V?$basic_string@_WU?$char_traits@_W@std@@V?$K2StringAllocator@_W@@@std@@@2@V?$K2MapAllocator@U?$pair@$$CBV?$basic_string@_WU?$char_traits@_W@std@@V?$K2StringAllocator@_W@@@std@@PAVITool@@@std@@@@$0A@@std@@@std@@I@Z 19130d40 f i c_toolbox.obj
 0002:000a5d80       ?destroy@?$allocator@U_Node@?$_Tree_nod@V?$_Tmap_traits@V?$basic_string@_WU?$char_traits@_W@std@@V?$K2StringAllocator@_W@@@std@@PAVITool@@U?$less@V?$basic_string@_WU?$char_traits@_W@std@@V?$K2StringAllocator@_W@@@std@@@2@V?$K2MapAllocator@U?$pair@$$CBV?$basic_string@_WU?$char_traits@_W@std@@V?$K2StringAllocator@_W@@@std@@PAVITool@@@std@@@@$0A@@std@@@std@@@std@@QAEXPAU_Node@?$_Tree_nod@V?$_Tmap_traits@V?$basic_string@_WU?$char_traits@_W@std@@V?$K2StringAllocator@_W@@@std@@PAVITool@@U?$less@V?$basic_string@_WU?$char_traits@_W@std@@V?$K2StringAllocator@_W@@@std@@@2@V?$K2MapAllocator@U?$pair@$$CBV?$basic_string@_WU?$char_traits@_W@std@@V?$K2StringAllocator@_W@@@std@@PAVITool@@@std@@@@$0A@@std@@@2@@Z 19130d80 f i c_toolbox.obj
 0002:000a5db0       ?destroy@?$allocator@PAU_Node@?$_Tree_nod@V?$_Tmap_traits@V?$basic_string@_WU?$char_traits@_W@std@@V?$K2StringAllocator@_W@@@std@@PAVITool@@U?$less@V?$basic_string@_WU?$char_traits@_W@std@@V?$K2StringAllocator@_W@@@std@@@2@V?$K2MapAllocator@U?$pair@$$CBV?$basic_string@_WU?$char_traits@_W@std@@V?$K2StringAllocator@_W@@@std@@PAVITool@@@std@@@@$0A@@std@@@std@@@std@@QAEXPAPAU_Node@?$_Tree_nod@V?$_Tmap_traits@V?$basic_string@_WU?$char_traits@_W@std@@V?$K2StringAllocator@_W@@@std@@PAVITool@@U?$less@V?$basic_string@_WU?$char_traits@_W@std@@V?$K2StringAllocator@_W@@@std@@@2@V?$K2MapAllocator@U?$pair@$$CBV?$basic_string@_WU?$char_traits@_W@std@@V?$K2StringAllocator@_W@@@std@@PAVITool@@@std@@@@$0A@@std@@@2@@Z 19130db0 f i c_toolbox.obj
 0002:000a5de0       ?_Isnil@?$_Tree@V?$_Tmap_traits@W4EToolID@@PAVITool@@U?$less@W4EToolID@@@std@@V?$K2MapAllocator@U?$pair@$$CBW4EToolID@@PAVITool@@@std@@@@$0A@@std@@@std@@KAAADPAU_Node@?$_Tree_nod@V?$_Tmap_traits@W4EToolID@@PAVITool@@U?$less@W4EToolID@@@std@@V?$K2MapAllocator@U?$pair@$$CBW4EToolID@@PAVITool@@@std@@@@$0A@@std@@@2@@Z 19130de0 f i c_toolbox.obj
 0002:000a5e00       ?_Left@?$_Tree@V?$_Tmap_traits@W4EToolID@@PAVITool@@U?$less@W4EToolID@@@std@@V?$K2MapAllocator@U?$pair@$$CBW4EToolID@@PAVITool@@@std@@@@$0A@@std@@@std@@KAAAPAU_Node@?$_Tree_nod@V?$_Tmap_traits@W4EToolID@@PAVITool@@U?$less@W4EToolID@@@std@@V?$K2MapAllocator@U?$pair@$$CBW4EToolID@@PAVITool@@@std@@@@$0A@@std@@@2@PAU342@@Z 19130e00 f i c_toolbox.obj
 0002:000a5e20       ?_Parent@?$_Tree@V?$_Tmap_traits@W4EToolID@@PAVITool@@U?$less@W4EToolID@@@std@@V?$K2MapAllocator@U?$pair@$$CBW4EToolID@@PAVITool@@@std@@@@$0A@@std@@@std@@KAAAPAU_Node@?$_Tree_nod@V?$_Tmap_traits@W4EToolID@@PAVITool@@U?$less@W4EToolID@@@std@@V?$K2MapAllocator@U?$pair@$$CBW4EToolID@@PAVITool@@@std@@@@$0A@@std@@@2@PAU342@@Z 19130e20 f i c_toolbox.obj
 0002:000a5e40       ?_Right@?$_Tree@V?$_Tmap_traits@W4EToolID@@PAVITool@@U?$less@W4EToolID@@@std@@V?$K2MapAllocator@U?$pair@$$CBW4EToolID@@PAVITool@@@std@@@@$0A@@std@@@std@@KAAAPAU_Node@?$_Tree_nod@V?$_Tmap_traits@W4EToolID@@PAVITool@@U?$less@W4EToolID@@@std@@V?$K2MapAllocator@U?$pair@$$CBW4EToolID@@PAVITool@@@std@@@@$0A@@std@@@2@PAU342@@Z 19130e40 f i c_toolbox.obj
 0002:000a5e60       ?_Myval@?$_Tree@V?$_Tmap_traits@W4EToolID@@PAVITool@@U?$less@W4EToolID@@@std@@V?$K2MapAllocator@U?$pair@$$CBW4EToolID@@PAVITool@@@std@@@@$0A@@std@@@std@@KAAAU?$pair@$$CBW4EToolID@@PAVITool@@@2@PAU_Node@?$_Tree_nod@V?$_Tmap_traits@W4EToolID@@PAVITool@@U?$less@W4EToolID@@@std@@V?$K2MapAllocator@U?$pair@$$CBW4EToolID@@PAVITool@@@std@@@@$0A@@std@@@2@@Z 19130e60 f i c_toolbox.obj
 0002:000a5e80       ??0?$_Tree@V?$_Tmap_traits@W4EToolID@@PAVITool@@U?$less@W4EToolID@@@std@@V?$K2MapAllocator@U?$pair@$$CBW4EToolID@@PAVITool@@@std@@@@$0A@@std@@@std@@QAE@ABU?$less@W4EToolID@@@1@ABV?$K2MapAllocator@U?$pair@$$CBW4EToolID@@PAVITool@@@std@@@@@Z 19130e80 f i c_toolbox.obj
 0002:000a5f20       ?begin@?$_Tree@V?$_Tmap_traits@W4EToolID@@PAVITool@@U?$less@W4EToolID@@@std@@V?$K2MapAllocator@U?$pair@$$CBW4EToolID@@PAVITool@@@std@@@@$0A@@std@@@std@@QAE?AViterator@12@XZ 19130f20 f i c_toolbox.obj
 0002:000a5f70       ?size@?$_Tree@V?$_Tmap_traits@W4EToolID@@PAVITool@@U?$less@W4EToolID@@@std@@V?$K2MapAllocator@U?$pair@$$CBW4EToolID@@PAVITool@@@std@@@@$0A@@std@@@std@@QBEIXZ 19130f70 f i c_toolbox.obj
 0002:000a5f90       ?insert@?$_Tree@V?$_Tmap_traits@W4EToolID@@PAVITool@@U?$less@W4EToolID@@@std@@V?$K2MapAllocator@U?$pair@$$CBW4EToolID@@PAVITool@@@std@@@@$0A@@std@@@std@@QAE?AU?$pair@Viterator@?$_Tree@V?$_Tmap_traits@W4EToolID@@PAVITool@@U?$less@W4EToolID@@@std@@V?$K2MapAllocator@U?$pair@$$CBW4EToolID@@PAVITool@@@std@@@@$0A@@std@@@std@@_N@2@ABU?$pair@$$CBW4EToolID@@PAVITool@@@2@@Z 19130f90 f i c_toolbox.obj
 0002:000a63b0       ?erase@?$_Tree@V?$_Tmap_traits@W4EToolID@@PAVITool@@U?$less@W4EToolID@@@std@@V?$K2MapAllocator@U?$pair@$$CBW4EToolID@@PAVITool@@@std@@@@$0A@@std@@@std@@QAE?AViterator@12@V312@0@Z 191313b0 f i c_toolbox.obj
 0002:000a6640       ?_Insert@?$_Tree@V?$_Tmap_traits@W4EToolID@@PAVITool@@U?$less@W4EToolID@@@std@@V?$K2MapAllocator@U?$pair@$$CBW4EToolID@@PAVITool@@@std@@@@$0A@@std@@@std@@IAE?AViterator@12@_NPAU_Node@?$_Tree_nod@V?$_Tmap_traits@W4EToolID@@PAVITool@@U?$less@W4EToolID@@@std@@V?$K2MapAllocator@U?$pair@$$CBW4EToolID@@PAVITool@@@std@@@@$0A@@std@@@2@ABU?$pair@$$CBW4EToolID@@PAVITool@@@2@@Z 19131640 f i c_toolbox.obj
 0002:000a6c00       ?_Lbound@?$_Tree@V?$_Tmap_traits@W4EToolID@@PAVITool@@U?$less@W4EToolID@@@std@@V?$K2MapAllocator@U?$pair@$$CBW4EToolID@@PAVITool@@@std@@@@$0A@@std@@@std@@IBEPAU_Node@?$_Tree_nod@V?$_Tmap_traits@W4EToolID@@PAVITool@@U?$less@W4EToolID@@@std@@V?$K2MapAllocator@U?$pair@$$CBW4EToolID@@PAVITool@@@std@@@@$0A@@std@@@2@ABW4EToolID@@@Z 19131c00 f i c_toolbox.obj
 0002:000a6cd0       ?_Rmost@?$_Tree@V?$_Tmap_traits@W4EToolID@@PAVITool@@U?$less@W4EToolID@@@std@@V?$K2MapAllocator@U?$pair@$$CBW4EToolID@@PAVITool@@@std@@@@$0A@@std@@@std@@IBEAAPAU_Node@?$_Tree_nod@V?$_Tmap_traits@W4EToolID@@PAVITool@@U?$less@W4EToolID@@@std@@V?$K2MapAllocator@U?$pair@$$CBW4EToolID@@PAVITool@@@std@@@@$0A@@std@@@2@XZ 19131cd0 f i c_toolbox.obj
 0002:000a6d00       ?_Kfn@?$_Tmap_traits@W4EToolID@@PAVITool@@U?$less@W4EToolID@@@std@@V?$K2MapAllocator@U?$pair@$$CBW4EToolID@@PAVITool@@@std@@@@$0A@@std@@SAABW4EToolID@@ABU?$pair@$$CBW4EToolID@@PAVITool@@@2@@Z 19131d00 f i c_toolbox.obj
 0002:000a6d20       ??0?$K2MapAllocator@U?$pair@$$CBW4EToolID@@PAVITool@@@std@@@@QAE@XZ 19131d20 f i c_toolbox.obj
 0002:000a6d50       ?deallocate@?$K2MapAllocator@U_Node@?$_Tree_nod@V?$_Tmap_traits@W4EToolID@@PAVITool@@U?$less@W4EToolID@@@std@@V?$K2MapAllocator@U?$pair@$$CBW4EToolID@@PAVITool@@@std@@@@$0A@@std@@@std@@@@QAEXPAU_Node@?$_Tree_nod@V?$_Tmap_traits@W4EToolID@@PAVITool@@U?$less@W4EToolID@@@std@@V?$K2MapAllocator@U?$pair@$$CBW4EToolID@@PAVITool@@@std@@@@$0A@@std@@@std@@I@Z 19131d50 f i c_toolbox.obj
 0002:000a6d90       ?destroy@?$allocator@PAU_Node@?$_Tree_nod@V?$_Tmap_traits@W4EToolID@@PAVITool@@U?$less@W4EToolID@@@std@@V?$K2MapAllocator@U?$pair@$$CBW4EToolID@@PAVITool@@@std@@@@$0A@@std@@@std@@@std@@QAEXPAPAU_Node@?$_Tree_nod@V?$_Tmap_traits@W4EToolID@@PAVITool@@U?$less@W4EToolID@@@std@@V?$K2MapAllocator@U?$pair@$$CBW4EToolID@@PAVITool@@@std@@@@$0A@@std@@@2@@Z 19131d90 f i c_toolbox.obj
 0002:000a6dc0       ??0iterator@?$_Tree@V?$_Tmap_traits@V?$basic_string@_WU?$char_traits@_W@std@@V?$K2StringAllocator@_W@@@std@@PAVITool@@U?$less@V?$basic_string@_WU?$char_traits@_W@std@@V?$K2StringAllocator@_W@@@std@@@2@V?$K2MapAllocator@U?$pair@$$CBV?$basic_string@_WU?$char_traits@_W@std@@V?$K2StringAllocator@_W@@@std@@PAVITool@@@std@@@@$0A@@std@@@std@@QAE@XZ 19131dc0 f i c_toolbox.obj
 0002:000a6df0       ??Fiterator@?$_Tree@V?$_Tmap_traits@V?$basic_string@_WU?$char_traits@_W@std@@V?$K2StringAllocator@_W@@@std@@PAVITool@@U?$less@V?$basic_string@_WU?$char_traits@_W@std@@V?$K2StringAllocator@_W@@@std@@@2@V?$K2MapAllocator@U?$pair@$$CBV?$basic_string@_WU?$char_traits@_W@std@@V?$K2StringAllocator@_W@@@std@@PAVITool@@@std@@@@$0A@@std@@@std@@QAEAAV012@XZ 19131df0 f i c_toolbox.obj
 0002:000a6e20       ??0const_iterator@?$_Tree@V?$_Tmap_traits@V?$basic_string@_WU?$char_traits@_W@std@@V?$K2StringAllocator@_W@@@std@@PAVITool@@U?$less@V?$basic_string@_WU?$char_traits@_W@std@@V?$K2StringAllocator@_W@@@std@@@2@V?$K2MapAllocator@U?$pair@$$CBV?$basic_string@_WU?$char_traits@_W@std@@V?$K2StringAllocator@_W@@@std@@PAVITool@@@std@@@@$0A@@std@@@std@@QAE@PAU_Node@?$_Tree_nod@V?$_Tmap_traits@V?$basic_string@_WU?$char_traits@_W@std@@V?$K2StringAllocator@_W@@@std@@PAVITool@@U?$less@V?$basic_string@_WU?$char_traits@_W@std@@V?$K2StringAllocator@_W@@@std@@@2@V?$K2MapAllocator@U?$pair@$$CBV?$basic_string@_WU?$char_traits@_W@std@@V?$K2StringAllocator@_W@@@std@@PAVITool@@@std@@@@$0A@@std@@@2@PBV12@@Z 19131e20 f i c_toolbox.obj
 0002:000a6eb0       ??Dconst_iterator@?$_Tree@V?$_Tmap_traits@V?$basic_string@_WU?$char_traits@_W@std@@V?$K2StringAllocator@_W@@@std@@PAVITool@@U?$less@V?$basic_string@_WU?$char_traits@_W@std@@V?$K2StringAllocator@_W@@@std@@@2@V?$K2MapAllocator@U?$pair@$$CBV?$basic_string@_WU?$char_traits@_W@std@@V?$K2StringAllocator@_W@@@std@@PAVITool@@@std@@@@$0A@@std@@@std@@QBEABU?$pair@$$CBV?$basic_string@_WU?$char_traits@_W@std@@V?$K2StringAllocator@_W@@@std@@PAVITool@@@2@XZ 19131eb0 f i c_toolbox.obj
 0002:000a6f70       ?_Inc@const_iterator@?$_Tree@V?$_Tmap_traits@V?$basic_string@_WU?$char_traits@_W@std@@V?$K2StringAllocator@_W@@@std@@PAVITool@@U?$less@V?$basic_string@_WU?$char_traits@_W@std@@V?$K2StringAllocator@_W@@@std@@@2@V?$K2MapAllocator@U?$pair@$$CBV?$basic_string@_WU?$char_traits@_W@std@@V?$K2StringAllocator@_W@@@std@@PAVITool@@@std@@@@$0A@@std@@@std@@QAEXXZ 19131f70 f i c_toolbox.obj
 0002:000a70e0       ??0iterator@?$_Tree@V?$_Tmap_traits@W4EToolID@@PAVITool@@U?$less@W4EToolID@@@std@@V?$K2MapAllocator@U?$pair@$$CBW4EToolID@@PAVITool@@@std@@@@$0A@@std@@@std@@QAE@XZ 191320e0 f i c_toolbox.obj
 0002:000a7110       ??Eiterator@?$_Tree@V?$_Tmap_traits@W4EToolID@@PAVITool@@U?$less@W4EToolID@@@std@@V?$K2MapAllocator@U?$pair@$$CBW4EToolID@@PAVITool@@@std@@@@$0A@@std@@@std@@QAEAAV012@XZ 19132110 f i c_toolbox.obj
 0002:000a7140       ??Fiterator@?$_Tree@V?$_Tmap_traits@W4EToolID@@PAVITool@@U?$less@W4EToolID@@@std@@V?$K2MapAllocator@U?$pair@$$CBW4EToolID@@PAVITool@@@std@@@@$0A@@std@@@std@@QAEAAV012@XZ 19132140 f i c_toolbox.obj
 0002:000a7170       ??0const_iterator@?$_Tree@V?$_Tmap_traits@W4EToolID@@PAVITool@@U?$less@W4EToolID@@@std@@V?$K2MapAllocator@U?$pair@$$CBW4EToolID@@PAVITool@@@std@@@@$0A@@std@@@std@@QAE@PAU_Node@?$_Tree_nod@V?$_Tmap_traits@W4EToolID@@PAVITool@@U?$less@W4EToolID@@@std@@V?$K2MapAllocator@U?$pair@$$CBW4EToolID@@PAVITool@@@std@@@@$0A@@std@@@2@PBV12@@Z 19132170 f i c_toolbox.obj
 0002:000a7200       ??Dconst_iterator@?$_Tree@V?$_Tmap_traits@W4EToolID@@PAVITool@@U?$less@W4EToolID@@@std@@V?$K2MapAllocator@U?$pair@$$CBW4EToolID@@PAVITool@@@std@@@@$0A@@std@@@std@@QBEABU?$pair@$$CBW4EToolID@@PAVITool@@@2@XZ 19132200 f i c_toolbox.obj
 0002:000a72c0       ??0?$_Bidit@U?$pair@$$CBV?$basic_string@_WU?$char_traits@_W@std@@V?$K2StringAllocator@_W@@@std@@PAVITool@@@std@@HPBU12@ABU12@@std@@QAE@XZ 191322c0 f i c_toolbox.obj
 0002:000a72f0       ??0?$_Bidit@U?$pair@$$CBW4EToolID@@PAVITool@@@std@@HPBU12@ABU12@@std@@QAE@XZ 191322f0 f i c_toolbox.obj
 0002:000a7320       ?_Color@?$_Tree@V?$_Tmap_traits@V?$basic_string@_WU?$char_traits@_W@std@@V?$K2StringAllocator@_W@@@std@@PAVITool@@U?$less@V?$basic_string@_WU?$char_traits@_W@std@@V?$K2StringAllocator@_W@@@std@@@2@V?$K2MapAllocator@U?$pair@$$CBV?$basic_string@_WU?$char_traits@_W@std@@V?$K2StringAllocator@_W@@@std@@PAVITool@@@std@@@@$0A@@std@@@std@@KAAADPAU_Node@?$_Tree_nod@V?$_Tmap_traits@V?$basic_string@_WU?$char_traits@_W@std@@V?$K2StringAllocator@_W@@@std@@PAVITool@@U?$less@V?$basic_string@_WU?$char_traits@_W@std@@V?$K2StringAllocator@_W@@@std@@@2@V?$K2MapAllocator@U?$pair@$$CBV?$basic_string@_WU?$char_traits@_W@std@@V?$K2StringAllocator@_W@@@std@@PAVITool@@@std@@@@$0A@@std@@@2@@Z 19132320 f i c_toolbox.obj
 0002:000a7340       ?max_size@?$_Tree@V?$_Tmap_traits@V?$basic_string@_WU?$char_traits@_W@std@@V?$K2StringAllocator@_W@@@std@@PAVITool@@U?$less@V?$basic_string@_WU?$char_traits@_W@std@@V?$K2StringAllocator@_W@@@std@@@2@V?$K2MapAllocator@U?$pair@$$CBV?$basic_string@_WU?$char_traits@_W@std@@V?$K2StringAllocator@_W@@@std@@PAVITool@@@std@@@@$0A@@std@@@std@@QBEIXZ 19132340 f i c_toolbox.obj
 0002:000a7370       ?erase@?$_Tree@V?$_Tmap_traits@V?$basic_string@_WU?$char_traits@_W@std@@V?$K2StringAllocator@_W@@@std@@PAVITool@@U?$less@V?$basic_string@_WU?$char_traits@_W@std@@V?$K2StringAllocator@_W@@@std@@@2@V?$K2MapAllocator@U?$pair@$$CBV?$basic_string@_WU?$char_traits@_W@std@@V?$K2StringAllocator@_W@@@std@@PAVITool@@@std@@@@$0A@@std@@@std@@QAE?AViterator@12@V312@@Z 19132370 f i c_toolbox.obj
 0002:000a7d50       ?_Init@?$_Tree@V?$_Tmap_traits@V?$basic_string@_WU?$char_traits@_W@std@@V?$K2StringAllocator@_W@@@std@@PAVITool@@U?$less@V?$basic_string@_WU?$char_traits@_W@std@@V?$K2StringAllocator@_W@@@std@@@2@V?$K2MapAllocator@U?$pair@$$CBV?$basic_string@_WU?$char_traits@_W@std@@V?$K2StringAllocator@_W@@@std@@PAVITool@@@std@@@@$0A@@std@@@std@@IAEXXZ 19132d50 f i c_toolbox.obj
 0002:000a7de0       ?_Lrotate@?$_Tree@V?$_Tmap_traits@V?$basic_string@_WU?$char_traits@_W@std@@V?$K2StringAllocator@_W@@@std@@PAVITool@@U?$less@V?$basic_string@_WU?$char_traits@_W@std@@V?$K2StringAllocator@_W@@@std@@@2@V?$K2MapAllocator@U?$pair@$$CBV?$basic_string@_WU?$char_traits@_W@std@@V?$K2StringAllocator@_W@@@std@@PAVITool@@@std@@@@$0A@@std@@@std@@IAEXPAU_Node@?$_Tree_nod@V?$_Tmap_traits@V?$basic_string@_WU?$char_traits@_W@std@@V?$K2StringAllocator@_W@@@std@@PAVITool@@U?$less@V?$basic_string@_WU?$char_traits@_W@std@@V?$K2StringAllocator@_W@@@std@@@2@V?$K2MapAllocator@U?$pair@$$CBV?$basic_string@_WU?$char_traits@_W@std@@V?$K2StringAllocator@_W@@@std@@PAVITool@@@std@@@@$0A@@std@@@2@@Z 19132de0 f i c_toolbox.obj
 0002:000a7f70       ?_Min@?$_Tree@V?$_Tmap_traits@V?$basic_string@_WU?$char_traits@_W@std@@V?$K2StringAllocator@_W@@@std@@PAVITool@@U?$less@V?$basic_string@_WU?$char_traits@_W@std@@V?$K2StringAllocator@_W@@@std@@@2@V?$K2MapAllocator@U?$pair@$$CBV?$basic_string@_WU?$char_traits@_W@std@@V?$K2StringAllocator@_W@@@std@@PAVITool@@@std@@@@$0A@@std@@@std@@KAPAU_Node@?$_Tree_nod@V?$_Tmap_traits@V?$basic_string@_WU?$char_traits@_W@std@@V?$K2StringAllocator@_W@@@std@@PAVITool@@U?$less@V?$basic_string@_WU?$char_traits@_W@std@@V?$K2StringAllocator@_W@@@std@@@2@V?$K2MapAllocator@U?$pair@$$CBV?$basic_string@_WU?$char_traits@_W@std@@V?$K2StringAllocator@_W@@@std@@PAVITool@@@std@@@@$0A@@std@@@2@PAU342@@Z 19132f70 f i c_toolbox.obj
 0002:000a7fd0       ?_Rrotate@?$_Tree@V?$_Tmap_traits@V?$basic_string@_WU?$char_traits@_W@std@@V?$K2StringAllocator@_W@@@std@@PAVITool@@U?$less@V?$basic_string@_WU?$char_traits@_W@std@@V?$K2StringAllocator@_W@@@std@@@2@V?$K2MapAllocator@U?$pair@$$CBV?$basic_string@_WU?$char_traits@_W@std@@V?$K2StringAllocator@_W@@@std@@PAVITool@@@std@@@@$0A@@std@@@std@@IAEXPAU_Node@?$_Tree_nod@V?$_Tmap_traits@V?$basic_string@_WU?$char_traits@_W@std@@V?$K2StringAllocator@_W@@@std@@PAVITool@@U?$less@V?$basic_string@_WU?$char_traits@_W@std@@V?$K2StringAllocator@_W@@@std@@@2@V?$K2MapAllocator@U?$pair@$$CBV?$basic_string@_WU?$char_traits@_W@std@@V?$K2StringAllocator@_W@@@std@@PAVITool@@@std@@@@$0A@@std@@@2@@Z 19132fd0 f i c_toolbox.obj
 0002:000a8160       ?_Buynode@?$_Tree@V?$_Tmap_traits@V?$basic_string@_WU?$char_traits@_W@std@@V?$K2StringAllocator@_W@@@std@@PAVITool@@U?$less@V?$basic_string@_WU?$char_traits@_W@std@@V?$K2StringAllocator@_W@@@std@@@2@V?$K2MapAllocator@U?$pair@$$CBV?$basic_string@_WU?$char_traits@_W@std@@V?$K2StringAllocator@_W@@@std@@PAVITool@@@std@@@@$0A@@std@@@std@@IAEPAU_Node@?$_Tree_nod@V?$_Tmap_traits@V?$basic_string@_WU?$char_traits@_W@std@@V?$K2StringAllocator@_W@@@std@@PAVITool@@U?$less@V?$basic_string@_WU?$char_traits@_W@std@@V?$K2StringAllocator@_W@@@std@@@2@V?$K2MapAllocator@U?$pair@$$CBV?$basic_string@_WU?$char_traits@_W@std@@V?$K2StringAllocator@_W@@@std@@PAVITool@@@std@@@@$0A@@std@@@2@PAU342@00ABU?$pair@$$CBV?$basic_string@_WU?$char_traits@_W@std@@V?$K2StringAllocator@_W@@@std@@PAVITool@@@2@D@Z 19133160 f i c_toolbox.obj
 0002:000a8280       ??0?$_Tree_val@V?$_Tmap_traits@V?$basic_string@_WU?$char_traits@_W@std@@V?$K2StringAllocator@_W@@@std@@PAVITool@@U?$less@V?$basic_string@_WU?$char_traits@_W@std@@V?$K2StringAllocator@_W@@@std@@@2@V?$K2MapAllocator@U?$pair@$$CBV?$basic_string@_WU?$char_traits@_W@std@@V?$K2StringAllocator@_W@@@std@@PAVITool@@@std@@@@$0A@@std@@@std@@IAE@ABU?$less@V?$basic_string@_WU?$char_traits@_W@std@@V?$K2StringAllocator@_W@@@std@@@1@V?$K2MapAllocator@U?$pair@$$CBV?$basic_string@_WU?$char_traits@_W@std@@V?$K2StringAllocator@_W@@@std@@PAVITool@@@std@@@@@Z 19133280 f i c_toolbox.obj
 0002:000a8330       ??0?$K2MapAllocator@U?$pair@$$CBV?$basic_string@_WU?$char_traits@_W@std@@V?$K2StringAllocator@_W@@@std@@PAVITool@@@std@@@@QAE@ABV0@@Z 19133330 f i c_toolbox.obj
 0002:000a8360       ??0?$allocator@U?$pair@$$CBV?$basic_string@_WU?$char_traits@_W@std@@V?$K2StringAllocator@_W@@@std@@PAVITool@@@std@@@std@@QAE@XZ 19133360 f i c_toolbox.obj
 0002:000a8380       ?_Color@?$_Tree@V?$_Tmap_traits@W4EToolID@@PAVITool@@U?$less@W4EToolID@@@std@@V?$K2MapAllocator@U?$pair@$$CBW4EToolID@@PAVITool@@@std@@@@$0A@@std@@@std@@KAAADPAU_Node@?$_Tree_nod@V?$_Tmap_traits@W4EToolID@@PAVITool@@U?$less@W4EToolID@@@std@@V?$K2MapAllocator@U?$pair@$$CBW4EToolID@@PAVITool@@@std@@@@$0A@@std@@@2@@Z 19133380 f i c_toolbox.obj
 0002:000a83a0       ?max_size@?$_Tree@V?$_Tmap_traits@W4EToolID@@PAVITool@@U?$less@W4EToolID@@@std@@V?$K2MapAllocator@U?$pair@$$CBW4EToolID@@PAVITool@@@std@@@@$0A@@std@@@std@@QBEIXZ 191333a0 f i c_toolbox.obj
 0002:000a83d0       ?erase@?$_Tree@V?$_Tmap_traits@W4EToolID@@PAVITool@@U?$less@W4EToolID@@@std@@V?$K2MapAllocator@U?$pair@$$CBW4EToolID@@PAVITool@@@std@@@@$0A@@std@@@std@@QAE?AViterator@12@V312@@Z 191333d0 f i c_toolbox.obj
 0002:000a8db0       ?clear@?$_Tree@V?$_Tmap_traits@W4EToolID@@PAVITool@@U?$less@W4EToolID@@@std@@V?$K2MapAllocator@U?$pair@$$CBW4EToolID@@PAVITool@@@std@@@@$0A@@std@@@std@@QAEXXZ 19133db0 f i c_toolbox.obj
 0002:000a8e40       ?_Init@?$_Tree@V?$_Tmap_traits@W4EToolID@@PAVITool@@U?$less@W4EToolID@@@std@@V?$K2MapAllocator@U?$pair@$$CBW4EToolID@@PAVITool@@@std@@@@$0A@@std@@@std@@IAEXXZ 19133e40 f i c_toolbox.obj
 0002:000a8ed0       ?_Lmost@?$_Tree@V?$_Tmap_traits@W4EToolID@@PAVITool@@U?$less@W4EToolID@@@std@@V?$K2MapAllocator@U?$pair@$$CBW4EToolID@@PAVITool@@@std@@@@$0A@@std@@@std@@IBEAAPAU_Node@?$_Tree_nod@V?$_Tmap_traits@W4EToolID@@PAVITool@@U?$less@W4EToolID@@@std@@V?$K2MapAllocator@U?$pair@$$CBW4EToolID@@PAVITool@@@std@@@@$0A@@std@@@2@XZ 19133ed0 f i c_toolbox.obj
 0002:000a8f00       ?_Lrotate@?$_Tree@V?$_Tmap_traits@W4EToolID@@PAVITool@@U?$less@W4EToolID@@@std@@V?$K2MapAllocator@U?$pair@$$CBW4EToolID@@PAVITool@@@std@@@@$0A@@std@@@std@@IAEXPAU_Node@?$_Tree_nod@V?$_Tmap_traits@W4EToolID@@PAVITool@@U?$less@W4EToolID@@@std@@V?$K2MapAllocator@U?$pair@$$CBW4EToolID@@PAVITool@@@std@@@@$0A@@std@@@2@@Z 19133f00 f i c_toolbox.obj
 0002:000a9090       ?_Root@?$_Tree@V?$_Tmap_traits@W4EToolID@@PAVITool@@U?$less@W4EToolID@@@std@@V?$K2MapAllocator@U?$pair@$$CBW4EToolID@@PAVITool@@@std@@@@$0A@@std@@@std@@IBEAAPAU_Node@?$_Tree_nod@V?$_Tmap_traits@W4EToolID@@PAVITool@@U?$less@W4EToolID@@@std@@V?$K2MapAllocator@U?$pair@$$CBW4EToolID@@PAVITool@@@std@@@@$0A@@std@@@2@XZ 19134090 f i c_toolbox.obj
 0002:000a90c0       ?_Rrotate@?$_Tree@V?$_Tmap_traits@W4EToolID@@PAVITool@@U?$less@W4EToolID@@@std@@V?$K2MapAllocator@U?$pair@$$CBW4EToolID@@PAVITool@@@std@@@@$0A@@std@@@std@@IAEXPAU_Node@?$_Tree_nod@V?$_Tmap_traits@W4EToolID@@PAVITool@@U?$less@W4EToolID@@@std@@V?$K2MapAllocator@U?$pair@$$CBW4EToolID@@PAVITool@@@std@@@@$0A@@std@@@2@@Z 191340c0 f i c_toolbox.obj
 0002:000a9250       ?_Buynode@?$_Tree@V?$_Tmap_traits@W4EToolID@@PAVITool@@U?$less@W4EToolID@@@std@@V?$K2MapAllocator@U?$pair@$$CBW4EToolID@@PAVITool@@@std@@@@$0A@@std@@@std@@IAEPAU_Node@?$_Tree_nod@V?$_Tmap_traits@W4EToolID@@PAVITool@@U?$less@W4EToolID@@@std@@V?$K2MapAllocator@U?$pair@$$CBW4EToolID@@PAVITool@@@std@@@@$0A@@std@@@2@PAU342@00ABU?$pair@$$CBW4EToolID@@PAVITool@@@2@D@Z 19134250 f i c_toolbox.obj
 0002:000a9370       ??0?$_Tree_val@V?$_Tmap_traits@W4EToolID@@PAVITool@@U?$less@W4EToolID@@@std@@V?$K2MapAllocator@U?$pair@$$CBW4EToolID@@PAVITool@@@std@@@@$0A@@std@@@std@@IAE@ABU?$less@W4EToolID@@@1@V?$K2MapAllocator@U?$pair@$$CBW4EToolID@@PAVITool@@@std@@@@@Z 19134370 f i c_toolbox.obj
 0002:000a9420       ??0?$K2MapAllocator@U?$pair@$$CBW4EToolID@@PAVITool@@@std@@@@QAE@ABV0@@Z 19134420 f i c_toolbox.obj
 0002:000a9450       ??0?$allocator@U?$pair@$$CBW4EToolID@@PAVITool@@@std@@@std@@QAE@XZ 19134450 f i c_toolbox.obj
 0002:000a9470       ??Eiterator@?$_Tree@V?$_Tmap_traits@V?$basic_string@_WU?$char_traits@_W@std@@V?$K2StringAllocator@_W@@@std@@PAVITool@@U?$less@V?$basic_string@_WU?$char_traits@_W@std@@V?$K2StringAllocator@_W@@@std@@@2@V?$K2MapAllocator@U?$pair@$$CBV?$basic_string@_WU?$char_traits@_W@std@@V?$K2StringAllocator@_W@@@std@@PAVITool@@@std@@@@$0A@@std@@@std@@QAE?AV012@H@Z 19134470 f i c_toolbox.obj
 0002:000a9520       ??0const_iterator@?$_Tree@V?$_Tmap_traits@V?$basic_string@_WU?$char_traits@_W@std@@V?$K2StringAllocator@_W@@@std@@PAVITool@@U?$less@V?$basic_string@_WU?$char_traits@_W@std@@V?$K2StringAllocator@_W@@@std@@@2@V?$K2MapAllocator@U?$pair@$$CBV?$basic_string@_WU?$char_traits@_W@std@@V?$K2StringAllocator@_W@@@std@@PAVITool@@@std@@@@$0A@@std@@@std@@QAE@XZ 19134520 f i c_toolbox.obj
 0002:000a9560       ??Fconst_iterator@?$_Tree@V?$_Tmap_traits@V?$basic_string@_WU?$char_traits@_W@std@@V?$K2StringAllocator@_W@@@std@@PAVITool@@U?$less@V?$basic_string@_WU?$char_traits@_W@std@@V?$K2StringAllocator@_W@@@std@@@2@V?$K2MapAllocator@U?$pair@$$CBV?$basic_string@_WU?$char_traits@_W@std@@V?$K2StringAllocator@_W@@@std@@PAVITool@@@std@@@@$0A@@std@@@std@@QAEAAV012@XZ 19134560 f i c_toolbox.obj
 0002:000a9590       ??Eiterator@?$_Tree@V?$_Tmap_traits@W4EToolID@@PAVITool@@U?$less@W4EToolID@@@std@@V?$K2MapAllocator@U?$pair@$$CBW4EToolID@@PAVITool@@@std@@@@$0A@@std@@@std@@QAE?AV012@H@Z 19134590 f i c_toolbox.obj
 0002:000a9640       ??0const_iterator@?$_Tree@V?$_Tmap_traits@W4EToolID@@PAVITool@@U?$less@W4EToolID@@@std@@V?$K2MapAllocator@U?$pair@$$CBW4EToolID@@PAVITool@@@std@@@@$0A@@std@@@std@@QAE@XZ 19134640 f i c_toolbox.obj
 0002:000a9680       ??Econst_iterator@?$_Tree@V?$_Tmap_traits@W4EToolID@@PAVITool@@U?$less@W4EToolID@@@std@@V?$K2MapAllocator@U?$pair@$$CBW4EToolID@@PAVITool@@@std@@@@$0A@@std@@@std@@QAEAAV012@XZ 19134680 f i c_toolbox.obj
 0002:000a96b0       ??Fconst_iterator@?$_Tree@V?$_Tmap_traits@W4EToolID@@PAVITool@@U?$less@W4EToolID@@@std@@V?$K2MapAllocator@U?$pair@$$CBW4EToolID@@PAVITool@@@std@@@@$0A@@std@@@std@@QAEAAV012@XZ 191346b0 f i c_toolbox.obj
 0002:000a96e0       ??0?$pair@Viterator@?$_Tree@V?$_Tmap_traits@V?$basic_string@_WU?$char_traits@_W@std@@V?$K2StringAllocator@_W@@@std@@PAVITool@@U?$less@V?$basic_string@_WU?$char_traits@_W@std@@V?$K2StringAllocator@_W@@@std@@@2@V?$K2MapAllocator@U?$pair@$$CBV?$basic_string@_WU?$char_traits@_W@std@@V?$K2StringAllocator@_W@@@std@@PAVITool@@@std@@@@$0A@@std@@@std@@_N@std@@QAE@ABViterator@?$_Tree@V?$_Tmap_traits@V?$basic_string@_WU?$char_traits@_W@std@@V?$K2StringAllocator@_W@@@std@@PAVITool@@U?$less@V?$basic_string@_WU?$char_traits@_W@std@@V?$K2StringAllocator@_W@@@std@@@2@V?$K2MapAllocator@U?$pair@$$CBV?$basic_string@_WU?$char_traits@_W@std@@V?$K2StringAllocator@_W@@@std@@PAVITool@@@std@@@@$0A@@std@@@1@AB_N@Z 191346e0 f i c_toolbox.obj
 0002:000a9720       ??0?$pair@Viterator@?$_Tree@V?$_Tmap_traits@W4EToolID@@PAVITool@@U?$less@W4EToolID@@@std@@V?$K2MapAllocator@U?$pair@$$CBW4EToolID@@PAVITool@@@std@@@@$0A@@std@@@std@@_N@std@@QAE@ABViterator@?$_Tree@V?$_Tmap_traits@W4EToolID@@PAVITool@@U?$less@W4EToolID@@@std@@V?$K2MapAllocator@U?$pair@$$CBW4EToolID@@PAVITool@@@std@@@@$0A@@std@@@1@AB_N@Z 19134720 f i c_toolbox.obj
 0002:000a9760       ?_Max@?$_Tree@V?$_Tmap_traits@V?$basic_string@_WU?$char_traits@_W@std@@V?$K2StringAllocator@_W@@@std@@PAVITool@@U?$less@V?$basic_string@_WU?$char_traits@_W@std@@V?$K2StringAllocator@_W@@@std@@@2@V?$K2MapAllocator@U?$pair@$$CBV?$basic_string@_WU?$char_traits@_W@std@@V?$K2StringAllocator@_W@@@std@@PAVITool@@@std@@@@$0A@@std@@@std@@KAPAU_Node@?$_Tree_nod@V?$_Tmap_traits@V?$basic_string@_WU?$char_traits@_W@std@@V?$K2StringAllocator@_W@@@std@@PAVITool@@U?$less@V?$basic_string@_WU?$char_traits@_W@std@@V?$K2StringAllocator@_W@@@std@@@2@V?$K2MapAllocator@U?$pair@$$CBV?$basic_string@_WU?$char_traits@_W@std@@V?$K2StringAllocator@_W@@@std@@PAVITool@@@std@@@@$0A@@std@@@2@PAU342@@Z 19134760 f i c_toolbox.obj
 0002:000a97c0       ?_Buynode@?$_Tree@V?$_Tmap_traits@V?$basic_string@_WU?$char_traits@_W@std@@V?$K2StringAllocator@_W@@@std@@PAVITool@@U?$less@V?$basic_string@_WU?$char_traits@_W@std@@V?$K2StringAllocator@_W@@@std@@@2@V?$K2MapAllocator@U?$pair@$$CBV?$basic_string@_WU?$char_traits@_W@std@@V?$K2StringAllocator@_W@@@std@@PAVITool@@@std@@@@$0A@@std@@@std@@IAEPAU_Node@?$_Tree_nod@V?$_Tmap_traits@V?$basic_string@_WU?$char_traits@_W@std@@V?$K2StringAllocator@_W@@@std@@PAVITool@@U?$less@V?$basic_string@_WU?$char_traits@_W@std@@V?$K2StringAllocator@_W@@@std@@@2@V?$K2MapAllocator@U?$pair@$$CBV?$basic_string@_WU?$char_traits@_W@std@@V?$K2StringAllocator@_W@@@std@@PAVITool@@@std@@@@$0A@@std@@@2@XZ 191347c0 f i c_toolbox.obj
 0002:000a99a0       ??0?$_Tree_ptr@V?$_Tmap_traits@V?$basic_string@_WU?$char_traits@_W@std@@V?$K2StringAllocator@_W@@@std@@PAVITool@@U?$less@V?$basic_string@_WU?$char_traits@_W@std@@V?$K2StringAllocator@_W@@@std@@@2@V?$K2MapAllocator@U?$pair@$$CBV?$basic_string@_WU?$char_traits@_W@std@@V?$K2StringAllocator@_W@@@std@@PAVITool@@@std@@@@$0A@@std@@@std@@QAE@ABU?$less@V?$basic_string@_WU?$char_traits@_W@std@@V?$K2StringAllocator@_W@@@std@@@1@V?$K2MapAllocator@U?$pair@$$CBV?$basic_string@_WU?$char_traits@_W@std@@V?$K2StringAllocator@_W@@@std@@PAVITool@@@std@@@@@Z 191349a0 f i c_toolbox.obj
 0002:000a9a50       ??0?$allocator@U?$pair@$$CBV?$basic_string@_WU?$char_traits@_W@std@@V?$K2StringAllocator@_W@@@std@@PAVITool@@@std@@@std@@QAE@ABV01@@Z 19134a50 f i c_toolbox.obj
 0002:000a9a70       ?max_size@?$allocator@U?$pair@$$CBV?$basic_string@_WU?$char_traits@_W@std@@V?$K2StringAllocator@_W@@@std@@PAVITool@@@std@@@std@@QBEIXZ 19134a70 f i c_toolbox.obj
 0002:000a9ab0       ?allocate@?$K2MapAllocator@U_Node@?$_Tree_nod@V?$_Tmap_traits@V?$basic_string@_WU?$char_traits@_W@std@@V?$K2StringAllocator@_W@@@std@@PAVITool@@U?$less@V?$basic_string@_WU?$char_traits@_W@std@@V?$K2StringAllocator@_W@@@std@@@2@V?$K2MapAllocator@U?$pair@$$CBV?$basic_string@_WU?$char_traits@_W@std@@V?$K2StringAllocator@_W@@@std@@PAVITool@@@std@@@@$0A@@std@@@std@@@@QAEPAU_Node@?$_Tree_nod@V?$_Tmap_traits@V?$basic_string@_WU?$char_traits@_W@std@@V?$K2StringAllocator@_W@@@std@@PAVITool@@U?$less@V?$basic_string@_WU?$char_traits@_W@std@@V?$K2StringAllocator@_W@@@std@@@2@V?$K2MapAllocator@U?$pair@$$CBV?$basic_string@_WU?$char_traits@_W@std@@V?$K2StringAllocator@_W@@@std@@PAVITool@@@std@@@@$0A@@std@@@std@@I@Z 19134ab0 f i c_toolbox.obj
 0002:000a9b00       ?_Erase@?$_Tree@V?$_Tmap_traits@W4EToolID@@PAVITool@@U?$less@W4EToolID@@@std@@V?$K2MapAllocator@U?$pair@$$CBW4EToolID@@PAVITool@@@std@@@@$0A@@std@@@std@@IAEXPAU_Node@?$_Tree_nod@V?$_Tmap_traits@W4EToolID@@PAVITool@@U?$less@W4EToolID@@@std@@V?$K2MapAllocator@U?$pair@$$CBW4EToolID@@PAVITool@@@std@@@@$0A@@std@@@2@@Z 19134b00 f i c_toolbox.obj
 0002:000a9ba0       ?_Max@?$_Tree@V?$_Tmap_traits@W4EToolID@@PAVITool@@U?$less@W4EToolID@@@std@@V?$K2MapAllocator@U?$pair@$$CBW4EToolID@@PAVITool@@@std@@@@$0A@@std@@@std@@KAPAU_Node@?$_Tree_nod@V?$_Tmap_traits@W4EToolID@@PAVITool@@U?$less@W4EToolID@@@std@@V?$K2MapAllocator@U?$pair@$$CBW4EToolID@@PAVITool@@@std@@@@$0A@@std@@@2@PAU342@@Z 19134ba0 f i c_toolbox.obj
 0002:000a9c00       ?_Min@?$_Tree@V?$_Tmap_traits@W4EToolID@@PAVITool@@U?$less@W4EToolID@@@std@@V?$K2MapAllocator@U?$pair@$$CBW4EToolID@@PAVITool@@@std@@@@$0A@@std@@@std@@KAPAU_Node@?$_Tree_nod@V?$_Tmap_traits@W4EToolID@@PAVITool@@U?$less@W4EToolID@@@std@@V?$K2MapAllocator@U?$pair@$$CBW4EToolID@@PAVITool@@@std@@@@$0A@@std@@@2@PAU342@@Z 19134c00 f i c_toolbox.obj
 0002:000a9c60       ?_Orphan_ptr@?$_Tree@V?$_Tmap_traits@W4EToolID@@PAVITool@@U?$less@W4EToolID@@@std@@V?$K2MapAllocator@U?$pair@$$CBW4EToolID@@PAVITool@@@std@@@@$0A@@std@@@std@@IBEXAAV12@PAU_Node@?$_Tree_nod@V?$_Tmap_traits@W4EToolID@@PAVITool@@U?$less@W4EToolID@@@std@@V?$K2MapAllocator@U?$pair@$$CBW4EToolID@@PAVITool@@@std@@@@$0A@@std@@@2@@Z 19134c60 f i c_toolbox.obj
 0002:000a9d10       ?_Buynode@?$_Tree@V?$_Tmap_traits@W4EToolID@@PAVITool@@U?$less@W4EToolID@@@std@@V?$K2MapAllocator@U?$pair@$$CBW4EToolID@@PAVITool@@@std@@@@$0A@@std@@@std@@IAEPAU_Node@?$_Tree_nod@V?$_Tmap_traits@W4EToolID@@PAVITool@@U?$less@W4EToolID@@@std@@V?$K2MapAllocator@U?$pair@$$CBW4EToolID@@PAVITool@@@std@@@@$0A@@std@@@2@XZ 19134d10 f i c_toolbox.obj
 0002:000a9ef0       ??0?$_Tree_ptr@V?$_Tmap_traits@W4EToolID@@PAVITool@@U?$less@W4EToolID@@@std@@V?$K2MapAllocator@U?$pair@$$CBW4EToolID@@PAVITool@@@std@@@@$0A@@std@@@std@@QAE@ABU?$less@W4EToolID@@@1@V?$K2MapAllocator@U?$pair@$$CBW4EToolID@@PAVITool@@@std@@@@@Z 19134ef0 f i c_toolbox.obj
 0002:000a9fa0       ??0?$allocator@U?$pair@$$CBW4EToolID@@PAVITool@@@std@@@std@@QAE@ABV01@@Z 19134fa0 f i c_toolbox.obj
 0002:000a9fc0       ?max_size@?$allocator@U?$pair@$$CBW4EToolID@@PAVITool@@@std@@@std@@QBEIXZ 19134fc0 f i c_toolbox.obj
 0002:000aa000       ?allocate@?$K2MapAllocator@U_Node@?$_Tree_nod@V?$_Tmap_traits@W4EToolID@@PAVITool@@U?$less@W4EToolID@@@std@@V?$K2MapAllocator@U?$pair@$$CBW4EToolID@@PAVITool@@@std@@@@$0A@@std@@@std@@@@QAEPAU_Node@?$_Tree_nod@V?$_Tmap_traits@W4EToolID@@PAVITool@@U?$less@W4EToolID@@@std@@V?$K2MapAllocator@U?$pair@$$CBW4EToolID@@PAVITool@@@std@@@@$0A@@std@@@std@@I@Z 19135000 f i c_toolbox.obj
 0002:000aa050       ?destroy@?$allocator@U_Node@?$_Tree_nod@V?$_Tmap_traits@W4EToolID@@PAVITool@@U?$less@W4EToolID@@@std@@V?$K2MapAllocator@U?$pair@$$CBW4EToolID@@PAVITool@@@std@@@@$0A@@std@@@std@@@std@@QAEXPAU_Node@?$_Tree_nod@V?$_Tmap_traits@W4EToolID@@PAVITool@@U?$less@W4EToolID@@@std@@V?$K2MapAllocator@U?$pair@$$CBW4EToolID@@PAVITool@@@std@@@@$0A@@std@@@2@@Z 19135050 f i c_toolbox.obj
 0002:000aa080       ?_Dec@const_iterator@?$_Tree@V?$_Tmap_traits@V?$basic_string@_WU?$char_traits@_W@std@@V?$K2StringAllocator@_W@@@std@@PAVITool@@U?$less@V?$basic_string@_WU?$char_traits@_W@std@@V?$K2StringAllocator@_W@@@std@@@2@V?$K2MapAllocator@U?$pair@$$CBV?$basic_string@_WU?$char_traits@_W@std@@V?$K2StringAllocator@_W@@@std@@PAVITool@@@std@@@@$0A@@std@@@std@@QAEXXZ 19135080 f i c_toolbox.obj
 0002:000aa340       ?_Dec@const_iterator@?$_Tree@V?$_Tmap_traits@W4EToolID@@PAVITool@@U?$less@W4EToolID@@@std@@V?$K2MapAllocator@U?$pair@$$CBW4EToolID@@PAVITool@@@std@@@@$0A@@std@@@std@@QAEXXZ 19135340 f i c_toolbox.obj
 0002:000aa600       ?_Inc@const_iterator@?$_Tree@V?$_Tmap_traits@W4EToolID@@PAVITool@@U?$less@W4EToolID@@@std@@V?$K2MapAllocator@U?$pair@$$CBW4EToolID@@PAVITool@@@std@@@@$0A@@std@@@std@@QAEXXZ 19135600 f i c_toolbox.obj
 0002:000aa770       ??0_Node@?$_Tree_nod@V?$_Tmap_traits@V?$basic_string@_WU?$char_traits@_W@std@@V?$K2StringAllocator@_W@@@std@@PAVITool@@U?$less@V?$basic_string@_WU?$char_traits@_W@std@@V?$K2StringAllocator@_W@@@std@@@2@V?$K2MapAllocator@U?$pair@$$CBV?$basic_string@_WU?$char_traits@_W@std@@V?$K2StringAllocator@_W@@@std@@PAVITool@@@std@@@@$0A@@std@@@std@@QAE@PAU012@00ABU?$pair@$$CBV?$basic_string@_WU?$char_traits@_W@std@@V?$K2StringAllocator@_W@@@std@@PAVITool@@@2@D@Z 19135770 f i c_toolbox.obj
 0002:000aa7e0       ??0_Node@?$_Tree_nod@V?$_Tmap_traits@W4EToolID@@PAVITool@@U?$less@W4EToolID@@@std@@V?$K2MapAllocator@U?$pair@$$CBW4EToolID@@PAVITool@@@std@@@@$0A@@std@@@std@@QAE@PAU012@00ABU?$pair@$$CBW4EToolID@@PAVITool@@@2@D@Z 191357e0 f i c_toolbox.obj
 0002:000aa850       ??0?$pair@$$CBV?$basic_string@_WU?$char_traits@_W@std@@V?$K2StringAllocator@_W@@@std@@PAVITool@@@std@@QAE@ABU01@@Z 19135850 f i c_toolbox.obj
 0002:000aa890       ??0?$_Tree_nod@V?$_Tmap_traits@V?$basic_string@_WU?$char_traits@_W@std@@V?$K2StringAllocator@_W@@@std@@PAVITool@@U?$less@V?$basic_string@_WU?$char_traits@_W@std@@V?$K2StringAllocator@_W@@@std@@@2@V?$K2MapAllocator@U?$pair@$$CBV?$basic_string@_WU?$char_traits@_W@std@@V?$K2StringAllocator@_W@@@std@@PAVITool@@@std@@@@$0A@@std@@@std@@IAE@ABU?$less@V?$basic_string@_WU?$char_traits@_W@std@@V?$K2StringAllocator@_W@@@std@@@1@V?$K2MapAllocator@U?$pair@$$CBV?$basic_string@_WU?$char_traits@_W@std@@V?$K2StringAllocator@_W@@@std@@PAVITool@@@std@@@@@Z 19135890 f i c_toolbox.obj
 0002:000aa930       ?construct@?$allocator@PAU_Node@?$_Tree_nod@V?$_Tmap_traits@V?$basic_string@_WU?$char_traits@_W@std@@V?$K2StringAllocator@_W@@@std@@PAVITool@@U?$less@V?$basic_string@_WU?$char_traits@_W@std@@V?$K2StringAllocator@_W@@@std@@@2@V?$K2MapAllocator@U?$pair@$$CBV?$basic_string@_WU?$char_traits@_W@std@@V?$K2StringAllocator@_W@@@std@@PAVITool@@@std@@@@$0A@@std@@@std@@@std@@QAEXPAPAU_Node@?$_Tree_nod@V?$_Tmap_traits@V?$basic_string@_WU?$char_traits@_W@std@@V?$K2StringAllocator@_W@@@std@@PAVITool@@U?$less@V?$basic_string@_WU?$char_traits@_W@std@@V?$K2StringAllocator@_W@@@std@@@2@V?$K2MapAllocator@U?$pair@$$CBV?$basic_string@_WU?$char_traits@_W@std@@V?$K2StringAllocator@_W@@@std@@PAVITool@@@std@@@@$0A@@std@@@2@ABQAU342@@Z 19135930 f i c_toolbox.obj
 0002:000aa960       ??0?$_Tree_nod@V?$_Tmap_traits@W4EToolID@@PAVITool@@U?$less@W4EToolID@@@std@@V?$K2MapAllocator@U?$pair@$$CBW4EToolID@@PAVITool@@@std@@@@$0A@@std@@@std@@IAE@ABU?$less@W4EToolID@@@1@V?$K2MapAllocator@U?$pair@$$CBW4EToolID@@PAVITool@@@std@@@@@Z 19135960 f i c_toolbox.obj
 0002:000aaa00       ?construct@?$allocator@PAU_Node@?$_Tree_nod@V?$_Tmap_traits@W4EToolID@@PAVITool@@U?$less@W4EToolID@@@std@@V?$K2MapAllocator@U?$pair@$$CBW4EToolID@@PAVITool@@@std@@@@$0A@@std@@@std@@@std@@QAEXPAPAU_Node@?$_Tree_nod@V?$_Tmap_traits@W4EToolID@@PAVITool@@U?$less@W4EToolID@@@std@@V?$K2MapAllocator@U?$pair@$$CBW4EToolID@@PAVITool@@@std@@@@$0A@@std@@@2@ABQAU342@@Z 19135a00 f i c_toolbox.obj
 0002:000aaa30       ??0?$_Tmap_traits@V?$basic_string@_WU?$char_traits@_W@std@@V?$K2StringAllocator@_W@@@std@@PAVITool@@U?$less@V?$basic_string@_WU?$char_traits@_W@std@@V?$K2StringAllocator@_W@@@std@@@2@V?$K2MapAllocator@U?$pair@$$CBV?$basic_string@_WU?$char_traits@_W@std@@V?$K2StringAllocator@_W@@@std@@PAVITool@@@std@@@@$0A@@std@@QAE@U?$less@V?$basic_string@_WU?$char_traits@_W@std@@V?$K2StringAllocator@_W@@@std@@@1@@Z 19135a30 f i c_toolbox.obj
 0002:000aaa60       ??0?$_Tmap_traits@W4EToolID@@PAVITool@@U?$less@W4EToolID@@@std@@V?$K2MapAllocator@U?$pair@$$CBW4EToolID@@PAVITool@@@std@@@@$0A@@std@@QAE@U?$less@W4EToolID@@@1@@Z 19135a60 f i c_toolbox.obj
 0002:000aaa90       ??$_Debug_lt_pred@U?$less@W4EToolID@@@std@@W4EToolID@@W43@@std@@YA_NU?$less@W4EToolID@@@0@ABW4EToolID@@1PB_WI@Z 19135a90 f i c_toolbox.obj
 0002:000aab10       ??$_Destroy@U_Node@?$_Tree_nod@V?$_Tmap_traits@V?$basic_string@_WU?$char_traits@_W@std@@V?$K2StringAllocator@_W@@@std@@PAVITool@@U?$less@V?$basic_string@_WU?$char_traits@_W@std@@V?$K2StringAllocator@_W@@@std@@@2@V?$K2MapAllocator@U?$pair@$$CBV?$basic_string@_WU?$char_traits@_W@std@@V?$K2StringAllocator@_W@@@std@@PAVITool@@@std@@@@$0A@@std@@@std@@@std@@YAXPAU_Node@?$_Tree_nod@V?$_Tmap_traits@V?$basic_string@_WU?$char_traits@_W@std@@V?$K2StringAllocator@_W@@@std@@PAVITool@@U?$less@V?$basic_string@_WU?$char_traits@_W@std@@V?$K2StringAllocator@_W@@@std@@@2@V?$K2MapAllocator@U?$pair@$$CBV?$basic_string@_WU?$char_traits@_W@std@@V?$K2StringAllocator@_W@@@std@@PAVITool@@@std@@@@$0A@@std@@@0@@Z 19135b10 f i c_toolbox.obj
 0002:000aab30       ??$_Destroy@PAU_Node@?$_Tree_nod@V?$_Tmap_traits@V?$basic_string@_WU?$char_traits@_W@std@@V?$K2StringAllocator@_W@@@std@@PAVITool@@U?$less@V?$basic_string@_WU?$char_traits@_W@std@@V?$K2StringAllocator@_W@@@std@@@2@V?$K2MapAllocator@U?$pair@$$CBV?$basic_string@_WU?$char_traits@_W@std@@V?$K2StringAllocator@_W@@@std@@PAVITool@@@std@@@@$0A@@std@@@std@@@std@@YAXPAPAU_Node@?$_Tree_nod@V?$_Tmap_traits@V?$basic_string@_WU?$char_traits@_W@std@@V?$K2StringAllocator@_W@@@std@@PAVITool@@U?$less@V?$basic_string@_WU?$char_traits@_W@std@@V?$K2StringAllocator@_W@@@std@@@2@V?$K2MapAllocator@U?$pair@$$CBV?$basic_string@_WU?$char_traits@_W@std@@V?$K2StringAllocator@_W@@@std@@PAVITool@@@std@@@@$0A@@std@@@0@@Z 19135b30 f i c_toolbox.obj
 0002:000aab50       ??$_Destroy@PAU_Node@?$_Tree_nod@V?$_Tmap_traits@W4EToolID@@PAVITool@@U?$less@W4EToolID@@@std@@V?$K2MapAllocator@U?$pair@$$CBW4EToolID@@PAVITool@@@std@@@@$0A@@std@@@std@@@std@@YAXPAPAU_Node@?$_Tree_nod@V?$_Tmap_traits@W4EToolID@@PAVITool@@U?$less@W4EToolID@@@std@@V?$K2MapAllocator@U?$pair@$$CBW4EToolID@@PAVITool@@@std@@@@$0A@@std@@@0@@Z 19135b50 f i c_toolbox.obj
 0002:000aab70       ??$?0U?$pair@$$CBV?$basic_string@_WU?$char_traits@_W@std@@V?$K2StringAllocator@_W@@@std@@PAVITool@@@std@@@?$K2MapAllocator@PAU_Node@?$_Tree_nod@V?$_Tmap_traits@V?$basic_string@_WU?$char_traits@_W@std@@V?$K2StringAllocator@_W@@@std@@PAVITool@@U?$less@V?$basic_string@_WU?$char_traits@_W@std@@V?$K2StringAllocator@_W@@@std@@@2@V?$K2MapAllocator@U?$pair@$$CBV?$basic_string@_WU?$char_traits@_W@std@@V?$K2StringAllocator@_W@@@std@@PAVITool@@@std@@@@$0A@@std@@@std@@@@QAE@ABV?$K2MapAllocator@U?$pair@$$CBV?$basic_string@_WU?$char_traits@_W@std@@V?$K2StringAllocator@_W@@@std@@PAVITool@@@std@@@@@Z 19135b70 f i c_toolbox.obj
 0002:000aaba0       ??$?0U?$pair@$$CBW4EToolID@@PAVITool@@@std@@@?$K2MapAllocator@PAU_Node@?$_Tree_nod@V?$_Tmap_traits@W4EToolID@@PAVITool@@U?$less@W4EToolID@@@std@@V?$K2MapAllocator@U?$pair@$$CBW4EToolID@@PAVITool@@@std@@@@$0A@@std@@@std@@@@QAE@ABV?$K2MapAllocator@U?$pair@$$CBW4EToolID@@PAVITool@@@std@@@@@Z 19135ba0 f i c_toolbox.obj
 0002:000aabd0       ??$_Destroy@U_Node@?$_Tree_nod@V?$_Tmap_traits@W4EToolID@@PAVITool@@U?$less@W4EToolID@@@std@@V?$K2MapAllocator@U?$pair@$$CBW4EToolID@@PAVITool@@@std@@@@$0A@@std@@@std@@@std@@YAXPAU_Node@?$_Tree_nod@V?$_Tmap_traits@W4EToolID@@PAVITool@@U?$less@W4EToolID@@@std@@V?$K2MapAllocator@U?$pair@$$CBW4EToolID@@PAVITool@@@std@@@@$0A@@std@@@0@@Z 19135bd0 f i c_toolbox.obj
 0002:000aabf0       ??$?0U?$pair@$$CBV?$basic_string@_WU?$char_traits@_W@std@@V?$K2StringAllocator@_W@@@std@@PAVITool@@@std@@@?$K2MapAllocator@U_Node@?$_Tree_nod@V?$_Tmap_traits@V?$basic_string@_WU?$char_traits@_W@std@@V?$K2StringAllocator@_W@@@std@@PAVITool@@U?$less@V?$basic_string@_WU?$char_traits@_W@std@@V?$K2StringAllocator@_W@@@std@@@2@V?$K2MapAllocator@U?$pair@$$CBV?$basic_string@_WU?$char_traits@_W@std@@V?$K2StringAllocator@_W@@@std@@PAVITool@@@std@@@@$0A@@std@@@std@@@@QAE@ABV?$K2MapAllocator@U?$pair@$$CBV?$basic_string@_WU?$char_traits@_W@std@@V?$K2StringAllocator@_W@@@std@@PAVITool@@@std@@@@@Z 19135bf0 f i c_toolbox.obj
 0002:000aac20       ??$_Construct@PAU_Node@?$_Tree_nod@V?$_Tmap_traits@V?$basic_string@_WU?$char_traits@_W@std@@V?$K2StringAllocator@_W@@@std@@PAVITool@@U?$less@V?$basic_string@_WU?$char_traits@_W@std@@V?$K2StringAllocator@_W@@@std@@@2@V?$K2MapAllocator@U?$pair@$$CBV?$basic_string@_WU?$char_traits@_W@std@@V?$K2StringAllocator@_W@@@std@@PAVITool@@@std@@@@$0A@@std@@@std@@PAU123@@std@@YAXPAPAU_Node@?$_Tree_nod@V?$_Tmap_traits@V?$basic_string@_WU?$char_traits@_W@std@@V?$K2StringAllocator@_W@@@std@@PAVITool@@U?$less@V?$basic_string@_WU?$char_traits@_W@std@@V?$K2StringAllocator@_W@@@std@@@2@V?$K2MapAllocator@U?$pair@$$CBV?$basic_string@_WU?$char_traits@_W@std@@V?$K2StringAllocator@_W@@@std@@PAVITool@@@std@@@@$0A@@std@@@0@ABQAU120@@Z 19135c20 f i c_toolbox.obj
 0002:000aac80       ??$?0U?$pair@$$CBW4EToolID@@PAVITool@@@std@@@?$K2MapAllocator@U_Node@?$_Tree_nod@V?$_Tmap_traits@W4EToolID@@PAVITool@@U?$less@W4EToolID@@@std@@V?$K2MapAllocator@U?$pair@$$CBW4EToolID@@PAVITool@@@std@@@@$0A@@std@@@std@@@@QAE@ABV?$K2MapAllocator@U?$pair@$$CBW4EToolID@@PAVITool@@@std@@@@@Z 19135c80 f i c_toolbox.obj
 0002:000aacb0       ??$_Construct@PAU_Node@?$_Tree_nod@V?$_Tmap_traits@W4EToolID@@PAVITool@@U?$less@W4EToolID@@@std@@V?$K2MapAllocator@U?$pair@$$CBW4EToolID@@PAVITool@@@std@@@@$0A@@std@@@std@@PAU123@@std@@YAXPAPAU_Node@?$_Tree_nod@V?$_Tmap_traits@W4EToolID@@PAVITool@@U?$less@W4EToolID@@@std@@V?$K2MapAllocator@U?$pair@$$CBW4EToolID@@PAVITool@@@std@@@@$0A@@std@@@0@ABQAU120@@Z 19135cb0 f i c_toolbox.obj
 0002:000aad10       ??_G_Node@?$_Tree_nod@V?$_Tmap_traits@V?$basic_string@_WU?$char_traits@_W@std@@V?$K2StringAllocator@_W@@@std@@PAVITool@@U?$less@V?$basic_string@_WU?$char_traits@_W@std@@V?$K2StringAllocator@_W@@@std@@@2@V?$K2MapAllocator@U?$pair@$$CBV?$basic_string@_WU?$char_traits@_W@std@@V?$K2StringAllocator@_W@@@std@@PAVITool@@@std@@@@$0A@@std@@@std@@QAEPAXI@Z 19135d10 f i c_toolbox.obj
 0002:000aad60       ??1_Node@?$_Tree_nod@V?$_Tmap_traits@V?$basic_string@_WU?$char_traits@_W@std@@V?$K2StringAllocator@_W@@@std@@PAVITool@@U?$less@V?$basic_string@_WU?$char_traits@_W@std@@V?$K2StringAllocator@_W@@@std@@@2@V?$K2MapAllocator@U?$pair@$$CBV?$basic_string@_WU?$char_traits@_W@std@@V?$K2StringAllocator@_W@@@std@@PAVITool@@@std@@@@$0A@@std@@@std@@QAE@XZ 19135d60 f i c_toolbox.obj
 0002:000aad90       ??0?$allocator@U_Node@?$_Tree_nod@V?$_Tmap_traits@V?$basic_string@_WU?$char_traits@_W@std@@V?$K2StringAllocator@_W@@@std@@PAVITool@@U?$less@V?$basic_string@_WU?$char_traits@_W@std@@V?$K2StringAllocator@_W@@@std@@@2@V?$K2MapAllocator@U?$pair@$$CBV?$basic_string@_WU?$char_traits@_W@std@@V?$K2StringAllocator@_W@@@std@@PAVITool@@@std@@@@$0A@@std@@@std@@@std@@QAE@XZ 19135d90 f i c_toolbox.obj
 0002:000aadb0       ??0?$allocator@PAU_Node@?$_Tree_nod@V?$_Tmap_traits@V?$basic_string@_WU?$char_traits@_W@std@@V?$K2StringAllocator@_W@@@std@@PAVITool@@U?$less@V?$basic_string@_WU?$char_traits@_W@std@@V?$K2StringAllocator@_W@@@std@@@2@V?$K2MapAllocator@U?$pair@$$CBV?$basic_string@_WU?$char_traits@_W@std@@V?$K2StringAllocator@_W@@@std@@PAVITool@@@std@@@@$0A@@std@@@std@@@std@@QAE@XZ 19135db0 f i c_toolbox.obj
 0002:000aadd0       ??0?$allocator@U_Node@?$_Tree_nod@V?$_Tmap_traits@W4EToolID@@PAVITool@@U?$less@W4EToolID@@@std@@V?$K2MapAllocator@U?$pair@$$CBW4EToolID@@PAVITool@@@std@@@@$0A@@std@@@std@@@std@@QAE@XZ 19135dd0 f i c_toolbox.obj
 0002:000aadf0       ??0?$allocator@PAU_Node@?$_Tree_nod@V?$_Tmap_traits@W4EToolID@@PAVITool@@U?$less@W4EToolID@@@std@@V?$K2MapAllocator@U?$pair@$$CBW4EToolID@@PAVITool@@@std@@@@$0A@@std@@@std@@@std@@QAE@XZ 19135df0 f i c_toolbox.obj
 0002:000aae10       ??$QuoteStr@V?$basic_string@_WU?$char_traits@_W@std@@V?$K2StringAllocator@_W@@@std@@@@YA?AV?$basic_string@_WU?$char_traits@_W@std@@V?$K2StringAllocator@_W@@@std@@V01@@Z 19135e10 f i c_toolbox.obj
 0002:000aaef0       ??0CWaterTool@@QAE@XZ      19135ef0 f   c_watertool.obj
 0002:000ab1b0       ??_ECWaterTool@@UAEPAXI@Z  191361b0 f i c_watertool.obj
 0002:000ab1b0       ??_GCWaterTool@@UAEPAXI@Z  191361b0 f i c_watertool.obj
 0002:000ab200       ??1CWaterTool@@UAE@XZ      19136200 f i c_watertool.obj
 0002:000ab2b0       ?PrimaryUp@CWaterTool@@UAEXXZ 191362b0 f   c_watertool.obj
 0002:000ab300       ?PrimaryDown@CWaterTool@@UAEXXZ 19136300 f   c_watertool.obj
 0002:000ab4e0       ?SecondaryUp@CWaterTool@@UAEXXZ 191364e0 f   c_watertool.obj
 0002:000ab530       ?SecondaryDown@CWaterTool@@UAEXXZ 19136530 f   c_watertool.obj
 0002:000ab710       ?TertiaryUp@CWaterTool@@UAEXXZ 19136710 f   c_watertool.obj
 0002:000ab730       ?TertiaryDown@CWaterTool@@UAEXXZ 19136730 f   c_watertool.obj
 0002:000ab750       ?QuaternaryUp@CWaterTool@@UAEXXZ 19136750 f   c_watertool.obj
 0002:000ab770       ?QuaternaryDown@CWaterTool@@UAEXXZ 19136770 f   c_watertool.obj
 0002:000ab790       ?Cancel@CWaterTool@@UAEXXZ 19136790 f   c_watertool.obj
 0002:000ab7b0       ?Delete@CWaterTool@@UAEXXZ 191367b0 f   c_watertool.obj
 0002:000ab7d0       ?CalcToolProperties@CWaterTool@@QAEXXZ 191367d0 f   c_watertool.obj
 0002:000abbb0       ?Enter@CWaterTool@@UAEXXZ  19136bb0 f   c_watertool.obj
 0002:000abbd0       ?Frame@CWaterTool@@UAEXM@Z 19136bd0 f   c_watertool.obj
 0002:000abd50       ?Draw@CWaterTool@@UAEXXZ   19136d50 f   c_watertool.obj
 0002:000ac010       ?Render@CWaterTool@@UAEXXZ 19137010 f   c_watertool.obj
 0002:000aeed0       ?uiSetWaterModeFn@@YA?AV?$basic_string@_WU?$char_traits@_W@std@@V?$K2StringAllocator@_W@@@std@@PAVIWidget@@ABV?$vector@PAVCUIScriptToken@@V?$K2VectorAllocator@PAVCUIScriptToken@@@@@@@Z 19139ed0 f   c_watertool.obj
 0002:000aef30       ?uiSetWaterModeVoidFn@@YAXPAVIWidget@@ABV?$vector@PAVCUIScriptToken@@V?$K2VectorAllocator@PAVCUIScriptToken@@@@@@@Z 19139f30 f   c_watertool.obj
 0002:000af0b0       ?WaterDraw@CWaterTool@@QAEXXZ 1913a0b0 f   c_watertool.obj
 0002:000af0d0       ?ClampWaterRectToGrid@CWaterTool@@QAEXPAV?$CRect@H@@@Z 1913a0d0 f   c_watertool.obj
 0002:000af240       ?ClampRectToGrid@CWaterTool@@QAEXPAV?$CRect@H@@@Z 1913a240 f   c_watertool.obj
 0002:000af370       ?GetProcessor@CXMLProcessor_brushlistitems@@CAPAVIXMLProcessor@@ABV?$basic_string@_WU?$char_traits@_W@std@@V?$K2StringAllocator@_W@@@std@@@Z 1913a370 f   c_xmlproc_brushlistitems.obj
 0002:000af490       ?RegisterProcessor@CXMLProcessor_brushlistitems@@SAXPAVIXMLProcessor@@@Z 1913a490 f   c_xmlproc_brushlistitems.obj
 0002:000af770       ??1?$pair@V?$basic_string@_WU?$char_traits@_W@std@@V?$K2StringAllocator@_W@@@std@@PAVIXMLProcessor@@@std@@QAE@XZ 1913a770 f i c_xmlproc_brushlistitems.obj
 0002:000af7a0       ??1?$pair@Viterator@?$_Tree@V?$_Tmap_traits@V?$basic_string@_WU?$char_traits@_W@std@@V?$K2StringAllocator@_W@@@std@@PAVIXMLProcessor@@U?$less@V?$basic_string@_WU?$char_traits@_W@std@@V?$K2StringAllocator@_W@@@std@@@2@V?$K2MapAllocator@U?$pair@$$CBV?$basic_string@_WU?$char_traits@_W@std@@V?$K2StringAllocator@_W@@@std@@PAVIXMLProcessor@@@std@@@@$0A@@std@@@std@@_N@std@@QAE@XZ 1913a7a0 f i c_xmlproc_brushlistitems.obj
 0002:000af7d0       ??0CXMLProcessor_brushlistitems@@QAE@ABV?$basic_string@_WU?$char_traits@_W@std@@V?$K2StringAllocator@_W@@@std@@@Z 1913a7d0 f   c_xmlproc_brushlistitems.obj
 0002:000af880       ?RemoveChild@CXMLProcessor_brushlistitems@@UAEXABV?$basic_string@_WU?$char_traits@_W@std@@V?$K2StringAllocator@_W@@@std@@@Z 1913a880 f i c_xmlproc_brushlistitems.obj
 0002:000af9b0       ??_ECXMLProcessor_brushlistitems@@UAEPAXI@Z 1913a9b0 f i c_xmlproc_brushlistitems.obj
 0002:000af9b0       ??_GCXMLProcessor_brushlistitems@@UAEPAXI@Z 1913a9b0 f i c_xmlproc_brushlistitems.obj
 0002:000afa00       ??1CXMLProcessor_brushlistitems@@UAE@XZ 1913aa00 f i c_xmlproc_brushlistitems.obj
 0002:000afb30       ?Process@CXMLProcessor_brushlistitems@@UAE_NABVCXMLNode@@PAXPAVIXMLProcessor@@@Z 1913ab30 f   c_xmlproc_brushlistitems.obj
 0002:000b03d0       ?GetCurrentBrushIndex@CBrush@@SAHXZ 1913b3d0 f i c_xmlproc_brushlistitems.obj
 0002:000b03f0       ?SetProperty@CWidgetStyle@@QAEXABV?$basic_string@_WU?$char_traits@_W@std@@V?$K2StringAllocator@_W@@@std@@PB_W@Z 1913b3f0 f i c_xmlproc_brushlistitems.obj
 0002:000b0490       ?SetProperty@CWidgetStyle@@QAEXABV?$basic_string@_WU?$char_traits@_W@std@@V?$K2StringAllocator@_W@@@std@@_N@Z 1913b490 f i c_xmlproc_brushlistitems.obj
 0002:000b0540       ??0?$map@V?$basic_string@_WU?$char_traits@_W@std@@V?$K2StringAllocator@_W@@@std@@PAVIXMLProcessor@@U?$less@V?$basic_string@_WU?$char_traits@_W@std@@V?$K2StringAllocator@_W@@@std@@@2@V?$K2MapAllocator@U?$pair@$$CBV?$basic_string@_WU?$char_traits@_W@std@@V?$K2StringAllocator@_W@@@std@@PAVIXMLProcessor@@@std@@@@@@QAE@XZ 1913b540 f i c_xmlproc_brushlistitems.obj
 0002:000b0570       ?insert@?$_Tree@V?$_Tmap_traits@V?$basic_string@_WU?$char_traits@_W@std@@V?$K2StringAllocator@_W@@@std@@PAVIXMLProcessor@@U?$less@V?$basic_string@_WU?$char_traits@_W@std@@V?$K2StringAllocator@_W@@@std@@@2@V?$K2MapAllocator@U?$pair@$$CBV?$basic_string@_WU?$char_traits@_W@std@@V?$K2StringAllocator@_W@@@std@@PAVIXMLProcessor@@@std@@@@$0A@@std@@@std@@QAE?AU?$pair@Viterator@?$_Tree@V?$_Tmap_traits@V?$basic_string@_WU?$char_traits@_W@std@@V?$K2StringAllocator@_W@@@std@@PAVIXMLProcessor@@U?$less@V?$basic_string@_WU?$char_traits@_W@std@@V?$K2StringAllocator@_W@@@std@@@2@V?$K2MapAllocator@U?$pair@$$CBV?$basic_string@_WU?$char_traits@_W@std@@V?$K2StringAllocator@_W@@@std@@PAVIXMLProcessor@@@std@@@@$0A@@std@@@std@@_N@2@ABU?$pair@$$CBV?$basic_string@_WU?$char_traits@_W@std@@V?$K2StringAllocator@_W@@@std@@PAVIXMLProcessor@@@2@@Z 1913b570 f i c_xmlproc_brushlistitems.obj
 0002:000b0990       ??0?$pair@V?$basic_string@_WU?$char_traits@_W@std@@V?$K2StringAllocator@_W@@@std@@PAVIXMLProcessor@@@std@@QAE@ABV?$basic_string@_WU?$char_traits@_W@std@@V?$K2StringAllocator@_W@@@1@ABQAVIXMLProcessor@@@Z 1913b990 f i c_xmlproc_brushlistitems.obj
 0002:000b09d0       ??0?$map@V?$basic_string@_WU?$char_traits@_W@std@@V?$K2StringAllocator@_W@@@std@@PAVIXMLProcessor@@U?$less@V?$basic_string@_WU?$char_traits@_W@std@@V?$K2StringAllocator@_W@@@std@@@2@V?$K2MapAllocator@U?$pair@$$CBV?$basic_string@_WU?$char_traits@_W@std@@V?$K2StringAllocator@_W@@@std@@PAVIXMLProcessor@@@std@@@@@std@@QAE@XZ 1913b9d0 f i c_xmlproc_brushlistitems.obj
 0002:000b0a70       ??1?$_Tree@V?$_Tmap_traits@V?$basic_string@_WU?$char_traits@_W@std@@V?$K2StringAllocator@_W@@@std@@PAVIXMLProcessor@@U?$less@V?$basic_string@_WU?$char_traits@_W@std@@V?$K2StringAllocator@_W@@@std@@@2@V?$K2MapAllocator@U?$pair@$$CBV?$basic_string@_WU?$char_traits@_W@std@@V?$K2StringAllocator@_W@@@std@@PAVIXMLProcessor@@@std@@@@$0A@@std@@@std@@QAE@XZ 1913ba70 f i c_xmlproc_brushlistitems.obj
 0002:000b0af0       ?_Insert@?$_Tree@V?$_Tmap_traits@V?$basic_string@_WU?$char_traits@_W@std@@V?$K2StringAllocator@_W@@@std@@PAVIXMLProcessor@@U?$less@V?$basic_string@_WU?$char_traits@_W@std@@V?$K2StringAllocator@_W@@@std@@@2@V?$K2MapAllocator@U?$pair@$$CBV?$basic_string@_WU?$char_traits@_W@std@@V?$K2StringAllocator@_W@@@std@@PAVIXMLProcessor@@@std@@@@$0A@@std@@@std@@IAE?AViterator@12@_NPAU_Node@?$_Tree_nod@V?$_Tmap_traits@V?$basic_string@_WU?$char_traits@_W@std@@V?$K2StringAllocator@_W@@@std@@PAVIXMLProcessor@@U?$less@V?$basic_string@_WU?$char_traits@_W@std@@V?$K2StringAllocator@_W@@@std@@@2@V?$K2MapAllocator@U?$pair@$$CBV?$basic_string@_WU?$char_traits@_W@std@@V?$K2StringAllocator@_W@@@std@@PAVIXMLProcessor@@@std@@@@$0A@@std@@@2@ABU?$pair@$$CBV?$basic_string@_WU?$char_traits@_W@std@@V?$K2StringAllocator@_W@@@std@@PAVIXMLProcessor@@@2@@Z 1913baf0 f i c_xmlproc_brushlistitems.obj
 0002:000b10b0       ??Fiterator@?$_Tree@V?$_Tmap_traits@V?$basic_string@_WU?$char_traits@_W@std@@V?$K2StringAllocator@_W@@@std@@PAVIXMLProcessor@@U?$less@V?$basic_string@_WU?$char_traits@_W@std@@V?$K2StringAllocator@_W@@@std@@@2@V?$K2MapAllocator@U?$pair@$$CBV?$basic_string@_WU?$char_traits@_W@std@@V?$K2StringAllocator@_W@@@std@@PAVIXMLProcessor@@@std@@@@$0A@@std@@@std@@QAEAAV012@XZ 1913c0b0 f i c_xmlproc_brushlistitems.obj
 0002:000b10e0       ??0?$pair@Viterator@?$_Tree@V?$_Tmap_traits@V?$basic_string@_WU?$char_traits@_W@std@@V?$K2StringAllocator@_W@@@std@@PAVIXMLProcessor@@U?$less@V?$basic_string@_WU?$char_traits@_W@std@@V?$K2StringAllocator@_W@@@std@@@2@V?$K2MapAllocator@U?$pair@$$CBV?$basic_string@_WU?$char_traits@_W@std@@V?$K2StringAllocator@_W@@@std@@PAVIXMLProcessor@@@std@@@@$0A@@std@@@std@@_N@std@@QAE@ABViterator@?$_Tree@V?$_Tmap_traits@V?$basic_string@_WU?$char_traits@_W@std@@V?$K2StringAllocator@_W@@@std@@PAVIXMLProcessor@@U?$less@V?$basic_string@_WU?$char_traits@_W@std@@V?$K2StringAllocator@_W@@@std@@@2@V?$K2MapAllocator@U?$pair@$$CBV?$basic_string@_WU?$char_traits@_W@std@@V?$K2StringAllocator@_W@@@std@@PAVIXMLProcessor@@@std@@@@$0A@@std@@@1@AB_N@Z 1913c0e0 f i c_xmlproc_brushlistitems.obj
 0002:000b1120       ??1?$_Tree_val@V?$_Tmap_traits@V?$basic_string@_WU?$char_traits@_W@std@@V?$K2StringAllocator@_W@@@std@@PAVIXMLProcessor@@U?$less@V?$basic_string@_WU?$char_traits@_W@std@@V?$K2StringAllocator@_W@@@std@@@2@V?$K2MapAllocator@U?$pair@$$CBV?$basic_string@_WU?$char_traits@_W@std@@V?$K2StringAllocator@_W@@@std@@PAVIXMLProcessor@@@std@@@@$0A@@std@@@std@@QAE@XZ 1913c120 f i c_xmlproc_brushlistitems.obj
 0002:000b11a0       ??1?$_Tree_ptr@V?$_Tmap_traits@V?$basic_string@_WU?$char_traits@_W@std@@V?$K2StringAllocator@_W@@@std@@PAVIXMLProcessor@@U?$less@V?$basic_string@_WU?$char_traits@_W@std@@V?$K2StringAllocator@_W@@@std@@@2@V?$K2MapAllocator@U?$pair@$$CBV?$basic_string@_WU?$char_traits@_W@std@@V?$K2StringAllocator@_W@@@std@@PAVIXMLProcessor@@@std@@@@$0A@@std@@@std@@QAE@XZ 1913c1a0 f i c_xmlproc_brushlistitems.obj
 0002:000b1220       ??1?$_Tree_nod@V?$_Tmap_traits@V?$basic_string@_WU?$char_traits@_W@std@@V?$K2StringAllocator@_W@@@std@@PAVIXMLProcessor@@U?$less@V?$basic_string@_WU?$char_traits@_W@std@@V?$K2StringAllocator@_W@@@std@@@2@V?$K2MapAllocator@U?$pair@$$CBV?$basic_string@_WU?$char_traits@_W@std@@V?$K2StringAllocator@_W@@@std@@PAVIXMLProcessor@@@std@@@@$0A@@std@@@std@@QAE@XZ 1913c220 f i c_xmlproc_brushlistitems.obj
 0002:000b12a0       ??1?$_Tmap_traits@V?$basic_string@_WU?$char_traits@_W@std@@V?$K2StringAllocator@_W@@@std@@PAVIXMLProcessor@@U?$less@V?$basic_string@_WU?$char_traits@_W@std@@V?$K2StringAllocator@_W@@@std@@@2@V?$K2MapAllocator@U?$pair@$$CBV?$basic_string@_WU?$char_traits@_W@std@@V?$K2StringAllocator@_W@@@std@@PAVIXMLProcessor@@@std@@@@$0A@@std@@QAE@XZ 1913c2a0 f i c_xmlproc_brushlistitems.obj
 0002:000b12d0       ??0?$_Tree@V?$_Tmap_traits@V?$basic_string@_WU?$char_traits@_W@std@@V?$K2StringAllocator@_W@@@std@@PAVIXMLProcessor@@U?$less@V?$basic_string@_WU?$char_traits@_W@std@@V?$K2StringAllocator@_W@@@std@@@2@V?$K2MapAllocator@U?$pair@$$CBV?$basic_string@_WU?$char_traits@_W@std@@V?$K2StringAllocator@_W@@@std@@PAVIXMLProcessor@@@std@@@@$0A@@std@@@std@@QAE@ABU?$less@V?$basic_string@_WU?$char_traits@_W@std@@V?$K2StringAllocator@_W@@@std@@@1@ABV?$K2MapAllocator@U?$pair@$$CBV?$basic_string@_WU?$char_traits@_W@std@@V?$K2StringAllocator@_W@@@std@@PAVIXMLProcessor@@@std@@@@@Z 1913c2d0 f i c_xmlproc_brushlistitems.obj
 0002:000b1370       ?max_size@?$_Tree@V?$_Tmap_traits@V?$basic_string@_WU?$char_traits@_W@std@@V?$K2StringAllocator@_W@@@std@@PAVIXMLProcessor@@U?$less@V?$basic_string@_WU?$char_traits@_W@std@@V?$K2StringAllocator@_W@@@std@@@2@V?$K2MapAllocator@U?$pair@$$CBV?$basic_string@_WU?$char_traits@_W@std@@V?$K2StringAllocator@_W@@@std@@PAVIXMLProcessor@@@std@@@@$0A@@std@@@std@@QBEIXZ 1913c370 f i c_xmlproc_brushlistitems.obj
 0002:000b13a0       ?_Buynode@?$_Tree@V?$_Tmap_traits@V?$basic_string@_WU?$char_traits@_W@std@@V?$K2StringAllocator@_W@@@std@@PAVIXMLProcessor@@U?$less@V?$basic_string@_WU?$char_traits@_W@std@@V?$K2StringAllocator@_W@@@std@@@2@V?$K2MapAllocator@U?$pair@$$CBV?$basic_string@_WU?$char_traits@_W@std@@V?$K2StringAllocator@_W@@@std@@PAVIXMLProcessor@@@std@@@@$0A@@std@@@std@@IAEPAU_Node@?$_Tree_nod@V?$_Tmap_traits@V?$basic_string@_WU?$char_traits@_W@std@@V?$K2StringAllocator@_W@@@std@@PAVIXMLProcessor@@U?$less@V?$basic_string@_WU?$char_traits@_W@std@@V?$K2StringAllocator@_W@@@std@@@2@V?$K2MapAllocator@U?$pair@$$CBV?$basic_string@_WU?$char_traits@_W@std@@V?$K2StringAllocator@_W@@@std@@PAVIXMLProcessor@@@std@@@@$0A@@std@@@2@PAU342@00ABU?$pair@$$CBV?$basic_string@_WU?$char_traits@_W@std@@V?$K2StringAllocator@_W@@@std@@PAVIXMLProcessor@@@2@D@Z 1913c3a0 f i c_xmlproc_brushlistitems.obj
 0002:000b14c0       ?_Tidy@?$_Tree@V?$_Tmap_traits@V?$basic_string@_WU?$char_traits@_W@std@@V?$K2StringAllocator@_W@@@std@@PAVIXMLProcessor@@U?$less@V?$basic_string@_WU?$char_traits@_W@std@@V?$K2StringAllocator@_W@@@std@@@2@V?$K2MapAllocator@U?$pair@$$CBV?$basic_string@_WU?$char_traits@_W@std@@V?$K2StringAllocator@_W@@@std@@PAVIXMLProcessor@@@std@@@@$0A@@std@@@std@@IAEXXZ 1913c4c0 f i c_xmlproc_brushlistitems.obj
 0002:000b1610       ??0?$K2MapAllocator@U?$pair@$$CBV?$basic_string@_WU?$char_traits@_W@std@@V?$K2StringAllocator@_W@@@std@@PAVIXMLProcessor@@@std@@@@QAE@XZ 1913c610 f i c_xmlproc_brushlistitems.obj
 0002:000b1640       ??1?$K2MapAllocator@U?$pair@$$CBV?$basic_string@_WU?$char_traits@_W@std@@V?$K2StringAllocator@_W@@@std@@PAVIXMLProcessor@@@std@@@@QAE@XZ 1913c640 f i c_xmlproc_brushlistitems.obj
 0002:000b1660       ??1?$K2MapAllocator@U_Node@?$_Tree_nod@V?$_Tmap_traits@V?$basic_string@_WU?$char_traits@_W@std@@V?$K2StringAllocator@_W@@@std@@PAVIXMLProcessor@@U?$less@V?$basic_string@_WU?$char_traits@_W@std@@V?$K2StringAllocator@_W@@@std@@@2@V?$K2MapAllocator@U?$pair@$$CBV?$basic_string@_WU?$char_traits@_W@std@@V?$K2StringAllocator@_W@@@std@@PAVIXMLProcessor@@@std@@@@$0A@@std@@@std@@@@QAE@XZ 1913c660 f i c_xmlproc_brushlistitems.obj
 0002:000b1680       ??1?$K2MapAllocator@PAU_Node@?$_Tree_nod@V?$_Tmap_traits@V?$basic_string@_WU?$char_traits@_W@std@@V?$K2StringAllocator@_W@@@std@@PAVIXMLProcessor@@U?$less@V?$basic_string@_WU?$char_traits@_W@std@@V?$K2StringAllocator@_W@@@std@@@2@V?$K2MapAllocator@U?$pair@$$CBV?$basic_string@_WU?$char_traits@_W@std@@V?$K2StringAllocator@_W@@@std@@PAVIXMLProcessor@@@std@@@@$0A@@std@@@std@@@@QAE@XZ 1913c680 f i c_xmlproc_brushlistitems.obj
 0002:000b16a0       ??Fconst_iterator@?$_Tree@V?$_Tmap_traits@V?$basic_string@_WU?$char_traits@_W@std@@V?$K2StringAllocator@_W@@@std@@PAVIXMLProcessor@@U?$less@V?$basic_string@_WU?$char_traits@_W@std@@V?$K2StringAllocator@_W@@@std@@@2@V?$K2MapAllocator@U?$pair@$$CBV?$basic_string@_WU?$char_traits@_W@std@@V?$K2StringAllocator@_W@@@std@@PAVIXMLProcessor@@@std@@@@$0A@@std@@@std@@QAEAAV012@XZ 1913c6a0 f i c_xmlproc_brushlistitems.obj
 0002:000b16d0       ?_Init@?$_Tree@V?$_Tmap_traits@V?$basic_string@_WU?$char_traits@_W@std@@V?$K2StringAllocator@_W@@@std@@PAVIXMLProcessor@@U?$less@V?$basic_string@_WU?$char_traits@_W@std@@V?$K2StringAllocator@_W@@@std@@@2@V?$K2MapAllocator@U?$pair@$$CBV?$basic_string@_WU?$char_traits@_W@std@@V?$K2StringAllocator@_W@@@std@@PAVIXMLProcessor@@@std@@@@$0A@@std@@@std@@IAEXXZ 1913c6d0 f i c_xmlproc_brushlistitems.obj
 0002:000b1760       ??0?$_Tree_val@V?$_Tmap_traits@V?$basic_string@_WU?$char_traits@_W@std@@V?$K2StringAllocator@_W@@@std@@PAVIXMLProcessor@@U?$less@V?$basic_string@_WU?$char_traits@_W@std@@V?$K2StringAllocator@_W@@@std@@@2@V?$K2MapAllocator@U?$pair@$$CBV?$basic_string@_WU?$char_traits@_W@std@@V?$K2StringAllocator@_W@@@std@@PAVIXMLProcessor@@@std@@@@$0A@@std@@@std@@IAE@ABU?$less@V?$basic_string@_WU?$char_traits@_W@std@@V?$K2StringAllocator@_W@@@std@@@1@V?$K2MapAllocator@U?$pair@$$CBV?$basic_string@_WU?$char_traits@_W@std@@V?$K2StringAllocator@_W@@@std@@PAVIXMLProcessor@@@std@@@@@Z 1913c760 f i c_xmlproc_brushlistitems.obj
 0002:000b1810       ??0?$K2MapAllocator@U?$pair@$$CBV?$basic_string@_WU?$char_traits@_W@std@@V?$K2StringAllocator@_W@@@std@@PAVIXMLProcessor@@@std@@@@QAE@ABV0@@Z 1913c810 f i c_xmlproc_brushlistitems.obj
 0002:000b1840       ??0?$allocator@U?$pair@$$CBV?$basic_string@_WU?$char_traits@_W@std@@V?$K2StringAllocator@_W@@@std@@PAVIXMLProcessor@@@std@@@std@@QAE@XZ 1913c840 f i c_xmlproc_brushlistitems.obj
 0002:000b1860       ?max_size@?$allocator@U?$pair@$$CBV?$basic_string@_WU?$char_traits@_W@std@@V?$K2StringAllocator@_W@@@std@@PAVIXMLProcessor@@@std@@@std@@QBEIXZ 1913c860 f i c_xmlproc_brushlistitems.obj
 0002:000b18a0       ?allocate@?$K2MapAllocator@U_Node@?$_Tree_nod@V?$_Tmap_traits@V?$basic_string@_WU?$char_traits@_W@std@@V?$K2StringAllocator@_W@@@std@@PAVIXMLProcessor@@U?$less@V?$basic_string@_WU?$char_traits@_W@std@@V?$K2StringAllocator@_W@@@std@@@2@V?$K2MapAllocator@U?$pair@$$CBV?$basic_string@_WU?$char_traits@_W@std@@V?$K2StringAllocator@_W@@@std@@PAVIXMLProcessor@@@std@@@@$0A@@std@@@std@@@@QAEPAU_Node@?$_Tree_nod@V?$_Tmap_traits@V?$basic_string@_WU?$char_traits@_W@std@@V?$K2StringAllocator@_W@@@std@@PAVIXMLProcessor@@U?$less@V?$basic_string@_WU?$char_traits@_W@std@@V?$K2StringAllocator@_W@@@std@@@2@V?$K2MapAllocator@U?$pair@$$CBV?$basic_string@_WU?$char_traits@_W@std@@V?$K2StringAllocator@_W@@@std@@PAVIXMLProcessor@@@std@@@@$0A@@std@@@std@@I@Z 1913c8a0 f i c_xmlproc_brushlistitems.obj
 0002:000b18f0       ?destroy@?$allocator@PAU_Node@?$_Tree_nod@V?$_Tmap_traits@V?$basic_string@_WU?$char_traits@_W@std@@V?$K2StringAllocator@_W@@@std@@PAVIXMLProcessor@@U?$less@V?$basic_string@_WU?$char_traits@_W@std@@V?$K2StringAllocator@_W@@@std@@@2@V?$K2MapAllocator@U?$pair@$$CBV?$basic_string@_WU?$char_traits@_W@std@@V?$K2StringAllocator@_W@@@std@@PAVIXMLProcessor@@@std@@@@$0A@@std@@@std@@@std@@QAEXPAPAU_Node@?$_Tree_nod@V?$_Tmap_traits@V?$basic_string@_WU?$char_traits@_W@std@@V?$K2StringAllocator@_W@@@std@@PAVIXMLProcessor@@U?$less@V?$basic_string@_WU?$char_traits@_W@std@@V?$K2StringAllocator@_W@@@std@@@2@V?$K2MapAllocator@U?$pair@$$CBV?$basic_string@_WU?$char_traits@_W@std@@V?$K2StringAllocator@_W@@@std@@PAVIXMLProcessor@@@std@@@@$0A@@std@@@2@@Z 1913c8f0 f i c_xmlproc_brushlistitems.obj
 0002:000b1920       ?_Dec@const_iterator@?$_Tree@V?$_Tmap_traits@V?$basic_string@_WU?$char_traits@_W@std@@V?$K2StringAllocator@_W@@@std@@PAVIXMLProcessor@@U?$less@V?$basic_string@_WU?$char_traits@_W@std@@V?$K2StringAllocator@_W@@@std@@@2@V?$K2MapAllocator@U?$pair@$$CBV?$basic_string@_WU?$char_traits@_W@std@@V?$K2StringAllocator@_W@@@std@@PAVIXMLProcessor@@@std@@@@$0A@@std@@@std@@QAEXXZ 1913c920 f i c_xmlproc_brushlistitems.obj
 0002:000b1be0       ??0_Node@?$_Tree_nod@V?$_Tmap_traits@V?$basic_string@_WU?$char_traits@_W@std@@V?$K2StringAllocator@_W@@@std@@PAVIXMLProcessor@@U?$less@V?$basic_string@_WU?$char_traits@_W@std@@V?$K2StringAllocator@_W@@@std@@@2@V?$K2MapAllocator@U?$pair@$$CBV?$basic_string@_WU?$char_traits@_W@std@@V?$K2StringAllocator@_W@@@std@@PAVIXMLProcessor@@@std@@@@$0A@@std@@@std@@QAE@PAU012@00ABU?$pair@$$CBV?$basic_string@_WU?$char_traits@_W@std@@V?$K2StringAllocator@_W@@@std@@PAVIXMLProcessor@@@2@D@Z 1913cbe0 f i c_xmlproc_brushlistitems.obj
 0002:000b1c50       ??0?$pair@$$CBV?$basic_string@_WU?$char_traits@_W@std@@V?$K2StringAllocator@_W@@@std@@PAVIXMLProcessor@@@std@@QAE@ABU01@@Z 1913cc50 f i c_xmlproc_brushlistitems.obj
 0002:000b1c90       ?_Buynode@?$_Tree@V?$_Tmap_traits@V?$basic_string@_WU?$char_traits@_W@std@@V?$K2StringAllocator@_W@@@std@@PAVIXMLProcessor@@U?$less@V?$basic_string@_WU?$char_traits@_W@std@@V?$K2StringAllocator@_W@@@std@@@2@V?$K2MapAllocator@U?$pair@$$CBV?$basic_string@_WU?$char_traits@_W@std@@V?$K2StringAllocator@_W@@@std@@PAVIXMLProcessor@@@std@@@@$0A@@std@@@std@@IAEPAU_Node@?$_Tree_nod@V?$_Tmap_traits@V?$basic_string@_WU?$char_traits@_W@std@@V?$K2StringAllocator@_W@@@std@@PAVIXMLProcessor@@U?$less@V?$basic_string@_WU?$char_traits@_W@std@@V?$K2StringAllocator@_W@@@std@@@2@V?$K2MapAllocator@U?$pair@$$CBV?$basic_string@_WU?$char_traits@_W@std@@V?$K2StringAllocator@_W@@@std@@PAVIXMLProcessor@@@std@@@@$0A@@std@@@2@XZ 1913cc90 f i c_xmlproc_brushlistitems.obj
 0002:000b1e70       ??0?$_Tree_ptr@V?$_Tmap_traits@V?$basic_string@_WU?$char_traits@_W@std@@V?$K2StringAllocator@_W@@@std@@PAVIXMLProcessor@@U?$less@V?$basic_string@_WU?$char_traits@_W@std@@V?$K2StringAllocator@_W@@@std@@@2@V?$K2MapAllocator@U?$pair@$$CBV?$basic_string@_WU?$char_traits@_W@std@@V?$K2StringAllocator@_W@@@std@@PAVIXMLProcessor@@@std@@@@$0A@@std@@@std@@QAE@ABU?$less@V?$basic_string@_WU?$char_traits@_W@std@@V?$K2StringAllocator@_W@@@std@@@1@V?$K2MapAllocator@U?$pair@$$CBV?$basic_string@_WU?$char_traits@_W@std@@V?$K2StringAllocator@_W@@@std@@PAVIXMLProcessor@@@std@@@@@Z 1913ce70 f i c_xmlproc_brushlistitems.obj
 0002:000b1f20       ??0?$allocator@U?$pair@$$CBV?$basic_string@_WU?$char_traits@_W@std@@V?$K2StringAllocator@_W@@@std@@PAVIXMLProcessor@@@std@@@std@@QAE@ABV01@@Z 1913cf20 f i c_xmlproc_brushlistitems.obj
 0002:000b1f40       ??0?$_Tree_nod@V?$_Tmap_traits@V?$basic_string@_WU?$char_traits@_W@std@@V?$K2StringAllocator@_W@@@std@@PAVIXMLProcessor@@U?$less@V?$basic_string@_WU?$char_traits@_W@std@@V?$K2StringAllocator@_W@@@std@@@2@V?$K2MapAllocator@U?$pair@$$CBV?$basic_string@_WU?$char_traits@_W@std@@V?$K2StringAllocator@_W@@@std@@PAVIXMLProcessor@@@std@@@@$0A@@std@@@std@@IAE@ABU?$less@V?$basic_string@_WU?$char_traits@_W@std@@V?$K2StringAllocator@_W@@@std@@@1@V?$K2MapAllocator@U?$pair@$$CBV?$basic_string@_WU?$char_traits@_W@std@@V?$K2StringAllocator@_W@@@std@@PAVIXMLProcessor@@@std@@@@@Z 1913cf40 f i c_xmlproc_brushlistitems.obj
 0002:000b1fe0       ?construct@?$allocator@PAU_Node@?$_Tree_nod@V?$_Tmap_traits@V?$basic_string@_WU?$char_traits@_W@std@@V?$K2StringAllocator@_W@@@std@@PAVIXMLProcessor@@U?$less@V?$basic_string@_WU?$char_traits@_W@std@@V?$K2StringAllocator@_W@@@std@@@2@V?$K2MapAllocator@U?$pair@$$CBV?$basic_string@_WU?$char_traits@_W@std@@V?$K2StringAllocator@_W@@@std@@PAVIXMLProcessor@@@std@@@@$0A@@std@@@std@@@std@@QAEXPAPAU_Node@?$_Tree_nod@V?$_Tmap_traits@V?$basic_string@_WU?$char_traits@_W@std@@V?$K2StringAllocator@_W@@@std@@PAVIXMLProcessor@@U?$less@V?$basic_string@_WU?$char_traits@_W@std@@V?$K2StringAllocator@_W@@@std@@@2@V?$K2MapAllocator@U?$pair@$$CBV?$basic_string@_WU?$char_traits@_W@std@@V?$K2StringAllocator@_W@@@std@@PAVIXMLProcessor@@@std@@@@$0A@@std@@@2@ABQAU342@@Z 1913cfe0 f i c_xmlproc_brushlistitems.obj
 0002:000b2010       ??0?$_Tmap_traits@V?$basic_string@_WU?$char_traits@_W@std@@V?$K2StringAllocator@_W@@@std@@PAVIXMLProcessor@@U?$less@V?$basic_string@_WU?$char_traits@_W@std@@V?$K2StringAllocator@_W@@@std@@@2@V?$K2MapAllocator@U?$pair@$$CBV?$basic_string@_WU?$char_traits@_W@std@@V?$K2StringAllocator@_W@@@std@@PAVIXMLProcessor@@@std@@@@$0A@@std@@QAE@U?$less@V?$basic_string@_WU?$char_traits@_W@std@@V?$K2StringAllocator@_W@@@std@@@1@@Z 1913d010 f i c_xmlproc_brushlistitems.obj
 0002:000b2040       ??$?0V?$basic_string@_WU?$char_traits@_W@std@@V?$K2StringAllocator@_W@@@std@@PAVIXMLProcessor@@@?$pair@$$CBV?$basic_string@_WU?$char_traits@_W@std@@V?$K2StringAllocator@_W@@@std@@PAVIXMLProcessor@@@std@@QAE@ABU?$pair@V?$basic_string@_WU?$char_traits@_W@std@@V?$K2StringAllocator@_W@@@std@@PAVIXMLProcessor@@@1@@Z 1913d040 f i c_xmlproc_brushlistitems.obj
 0002:000b2080       ??$IsNull@VIWidget@@@@YA_NPAVIWidget@@@Z 1913d080 f i c_xmlproc_brushlistitems.obj
 0002:000b20a0       ??$_Destroy@PAU_Node@?$_Tree_nod@V?$_Tmap_traits@V?$basic_string@_WU?$char_traits@_W@std@@V?$K2StringAllocator@_W@@@std@@PAVIXMLProcessor@@U?$less@V?$basic_string@_WU?$char_traits@_W@std@@V?$K2StringAllocator@_W@@@std@@@2@V?$K2MapAllocator@U?$pair@$$CBV?$basic_string@_WU?$char_traits@_W@std@@V?$K2StringAllocator@_W@@@std@@PAVIXMLProcessor@@@std@@@@$0A@@std@@@std@@@std@@YAXPAPAU_Node@?$_Tree_nod@V?$_Tmap_traits@V?$basic_string@_WU?$char_traits@_W@std@@V?$K2StringAllocator@_W@@@std@@PAVIXMLProcessor@@U?$less@V?$basic_string@_WU?$char_traits@_W@std@@V?$K2StringAllocator@_W@@@std@@@2@V?$K2MapAllocator@U?$pair@$$CBV?$basic_string@_WU?$char_traits@_W@std@@V?$K2StringAllocator@_W@@@std@@PAVIXMLProcessor@@@std@@@@$0A@@std@@@0@@Z 1913d0a0 f i c_xmlproc_brushlistitems.obj
 0002:000b20c0       ??$?0U?$pair@$$CBV?$basic_string@_WU?$char_traits@_W@std@@V?$K2StringAllocator@_W@@@std@@PAVIXMLProcessor@@@std@@@?$K2MapAllocator@PAU_Node@?$_Tree_nod@V?$_Tmap_traits@V?$basic_string@_WU?$char_traits@_W@std@@V?$K2StringAllocator@_W@@@std@@PAVIXMLProcessor@@U?$less@V?$basic_string@_WU?$char_traits@_W@std@@V?$K2StringAllocator@_W@@@std@@@2@V?$K2MapAllocator@U?$pair@$$CBV?$basic_string@_WU?$char_traits@_W@std@@V?$K2StringAllocator@_W@@@std@@PAVIXMLProcessor@@@std@@@@$0A@@std@@@std@@@@QAE@ABV?$K2MapAllocator@U?$pair@$$CBV?$basic_string@_WU?$char_traits@_W@std@@V?$K2StringAllocator@_W@@@std@@PAVIXMLProcessor@@@std@@@@@Z 1913d0c0 f i c_xmlproc_brushlistitems.obj
 0002:000b20f0       ??$?0U?$pair@$$CBV?$basic_string@_WU?$char_traits@_W@std@@V?$K2StringAllocator@_W@@@std@@PAVIXMLProcessor@@@std@@@?$K2MapAllocator@U_Node@?$_Tree_nod@V?$_Tmap_traits@V?$basic_string@_WU?$char_traits@_W@std@@V?$K2StringAllocator@_W@@@std@@PAVIXMLProcessor@@U?$less@V?$basic_string@_WU?$char_traits@_W@std@@V?$K2StringAllocator@_W@@@std@@@2@V?$K2MapAllocator@U?$pair@$$CBV?$basic_string@_WU?$char_traits@_W@std@@V?$K2StringAllocator@_W@@@std@@PAVIXMLProcessor@@@std@@@@$0A@@std@@@std@@@@QAE@ABV?$K2MapAllocator@U?$pair@$$CBV?$basic_string@_WU?$char_traits@_W@std@@V?$K2StringAllocator@_W@@@std@@PAVIXMLProcessor@@@std@@@@@Z 1913d0f0 f i c_xmlproc_brushlistitems.obj
 0002:000b2120       ??$_Construct@PAU_Node@?$_Tree_nod@V?$_Tmap_traits@V?$basic_string@_WU?$char_traits@_W@std@@V?$K2StringAllocator@_W@@@std@@PAVIXMLProcessor@@U?$less@V?$basic_string@_WU?$char_traits@_W@std@@V?$K2StringAllocator@_W@@@std@@@2@V?$K2MapAllocator@U?$pair@$$CBV?$basic_string@_WU?$char_traits@_W@std@@V?$K2StringAllocator@_W@@@std@@PAVIXMLProcessor@@@std@@@@$0A@@std@@@std@@PAU123@@std@@YAXPAPAU_Node@?$_Tree_nod@V?$_Tmap_traits@V?$basic_string@_WU?$char_traits@_W@std@@V?$K2StringAllocator@_W@@@std@@PAVIXMLProcessor@@U?$less@V?$basic_string@_WU?$char_traits@_W@std@@V?$K2StringAllocator@_W@@@std@@@2@V?$K2MapAllocator@U?$pair@$$CBV?$basic_string@_WU?$char_traits@_W@std@@V?$K2StringAllocator@_W@@@std@@PAVIXMLProcessor@@@std@@@@$0A@@std@@@0@ABQAU120@@Z 1913d120 f i c_xmlproc_brushlistitems.obj
 0002:000b2180       ??0?$allocator@U_Node@?$_Tree_nod@V?$_Tmap_traits@V?$basic_string@_WU?$char_traits@_W@std@@V?$K2StringAllocator@_W@@@std@@PAVIXMLProcessor@@U?$less@V?$basic_string@_WU?$char_traits@_W@std@@V?$K2StringAllocator@_W@@@std@@@2@V?$K2MapAllocator@U?$pair@$$CBV?$basic_string@_WU?$char_traits@_W@std@@V?$K2StringAllocator@_W@@@std@@PAVIXMLProcessor@@@std@@@@$0A@@std@@@std@@@std@@QAE@XZ 1913d180 f i c_xmlproc_brushlistitems.obj
 0002:000b21a0       ??0?$allocator@PAU_Node@?$_Tree_nod@V?$_Tmap_traits@V?$basic_string@_WU?$char_traits@_W@std@@V?$K2StringAllocator@_W@@@std@@PAVIXMLProcessor@@U?$less@V?$basic_string@_WU?$char_traits@_W@std@@V?$K2StringAllocator@_W@@@std@@@2@V?$K2MapAllocator@U?$pair@$$CBV?$basic_string@_WU?$char_traits@_W@std@@V?$K2StringAllocator@_W@@@std@@PAVIXMLProcessor@@@std@@@@$0A@@std@@@std@@@std@@QAE@XZ 1913d1a0 f i c_xmlproc_brushlistitems.obj
 0002:000b21c0       ??1iterator@?$_Tree@V?$_Tmap_traits@V?$basic_string@_WU?$char_traits@_W@std@@V?$K2StringAllocator@_W@@@std@@PAVIXMLProcessor@@U?$less@V?$basic_string@_WU?$char_traits@_W@std@@V?$K2StringAllocator@_W@@@std@@@2@V?$K2MapAllocator@U?$pair@$$CBV?$basic_string@_WU?$char_traits@_W@std@@V?$K2StringAllocator@_W@@@std@@PAVIXMLProcessor@@@std@@@@$0A@@std@@@std@@QAE@XZ 1913d1c0 f i c_xmlproc_brushlistitems.obj
 0002:000b21f0       ??0iterator@?$_Tree@V?$_Tmap_traits@V?$basic_string@_WU?$char_traits@_W@std@@V?$K2StringAllocator@_W@@@std@@PAVIXMLProcessor@@U?$less@V?$basic_string@_WU?$char_traits@_W@std@@V?$K2StringAllocator@_W@@@std@@@2@V?$K2MapAllocator@U?$pair@$$CBV?$basic_string@_WU?$char_traits@_W@std@@V?$K2StringAllocator@_W@@@std@@PAVIXMLProcessor@@@std@@@@$0A@@std@@@std@@QAE@ABV012@@Z 1913d1f0 f i c_xmlproc_brushlistitems.obj
 0002:000b2220       ??1const_iterator@?$_Tree@V?$_Tmap_traits@V?$basic_string@_WU?$char_traits@_W@std@@V?$K2StringAllocator@_W@@@std@@PAVIXMLProcessor@@U?$less@V?$basic_string@_WU?$char_traits@_W@std@@V?$K2StringAllocator@_W@@@std@@@2@V?$K2MapAllocator@U?$pair@$$CBV?$basic_string@_WU?$char_traits@_W@std@@V?$K2StringAllocator@_W@@@std@@PAVIXMLProcessor@@@std@@@@$0A@@std@@@std@@QAE@XZ 1913d220 f i c_xmlproc_brushlistitems.obj
 0002:000b2250       ??0const_iterator@?$_Tree@V?$_Tmap_traits@V?$basic_string@_WU?$char_traits@_W@std@@V?$K2StringAllocator@_W@@@std@@PAVIXMLProcessor@@U?$less@V?$basic_string@_WU?$char_traits@_W@std@@V?$K2StringAllocator@_W@@@std@@@2@V?$K2MapAllocator@U?$pair@$$CBV?$basic_string@_WU?$char_traits@_W@std@@V?$K2StringAllocator@_W@@@std@@PAVIXMLProcessor@@@std@@@@$0A@@std@@@std@@QAE@ABV012@@Z 1913d250 f i c_xmlproc_brushlistitems.obj
 0002:000b2290       ??1?$_Bidit@U?$pair@$$CBV?$basic_string@_WU?$char_traits@_W@std@@V?$K2StringAllocator@_W@@@std@@PAVIXMLProcessor@@@std@@HPBU12@ABU12@@std@@QAE@XZ 1913d290 f i c_xmlproc_brushlistitems.obj
 0002:000b22c0       ??0?$_Bidit@U?$pair@$$CBV?$basic_string@_WU?$char_traits@_W@std@@V?$K2StringAllocator@_W@@@std@@PAVIXMLProcessor@@@std@@HPBU12@ABU12@@std@@QAE@ABU01@@Z 1913d2c0 f i c_xmlproc_brushlistitems.obj
 0002:000b22f0       ?begin@?$_Tree@V?$_Tmap_traits@V?$basic_string@_WU?$char_traits@_W@std@@V?$K2StringAllocator@_W@@@std@@PAVIXMLProcessor@@U?$less@V?$basic_string@_WU?$char_traits@_W@std@@V?$K2StringAllocator@_W@@@std@@@2@V?$K2MapAllocator@U?$pair@$$CBV?$basic_string@_WU?$char_traits@_W@std@@V?$K2StringAllocator@_W@@@std@@PAVIXMLProcessor@@@std@@@@$0A@@std@@@std@@QAE?AViterator@12@XZ 1913d2f0 f i c_xmlproc_brushlistitems.obj
 0002:000b2340       ?end@?$_Tree@V?$_Tmap_traits@V?$basic_string@_WU?$char_traits@_W@std@@V?$K2StringAllocator@_W@@@std@@PAVIXMLProcessor@@U?$less@V?$basic_string@_WU?$char_traits@_W@std@@V?$K2StringAllocator@_W@@@std@@@2@V?$K2MapAllocator@U?$pair@$$CBV?$basic_string@_WU?$char_traits@_W@std@@V?$K2StringAllocator@_W@@@std@@PAVIXMLProcessor@@@std@@@@$0A@@std@@@std@@QAE?AViterator@12@XZ 1913d340 f i c_xmlproc_brushlistitems.obj
 0002:000b2390       ?erase@?$_Tree@V?$_Tmap_traits@V?$basic_string@_WU?$char_traits@_W@std@@V?$K2StringAllocator@_W@@@std@@PAVIXMLProcessor@@U?$less@V?$basic_string@_WU?$char_traits@_W@std@@V?$K2StringAllocator@_W@@@std@@@2@V?$K2MapAllocator@U?$pair@$$CBV?$basic_string@_WU?$char_traits@_W@std@@V?$K2StringAllocator@_W@@@std@@PAVIXMLProcessor@@@std@@@@$0A@@std@@@std@@QAE?AViterator@12@V312@@Z 1913d390 f i c_xmlproc_brushlistitems.obj
 0002:000b2d70       ?find@?$_Tree@V?$_Tmap_traits@V?$basic_string@_WU?$char_traits@_W@std@@V?$K2StringAllocator@_W@@@std@@PAVIXMLProcessor@@U?$less@V?$basic_string@_WU?$char_traits@_W@std@@V?$K2StringAllocator@_W@@@std@@@2@V?$K2MapAllocator@U?$pair@$$CBV?$basic_string@_WU?$char_traits@_W@std@@V?$K2StringAllocator@_W@@@std@@PAVIXMLProcessor@@@std@@@@$0A@@std@@@std@@QAE?AViterator@12@ABV?$basic_string@_WU?$char_traits@_W@std@@V?$K2StringAllocator@_W@@@2@@Z 1913dd70 f i c_xmlproc_brushlistitems.obj
 0002:000b2f50       ??Citerator@?$_Tree@V?$_Tmap_traits@V?$basic_string@_WU?$char_traits@_W@std@@V?$K2StringAllocator@_W@@@std@@PAVIXMLProcessor@@U?$less@V?$basic_string@_WU?$char_traits@_W@std@@V?$K2StringAllocator@_W@@@std@@@2@V?$K2MapAllocator@U?$pair@$$CBV?$basic_string@_WU?$char_traits@_W@std@@V?$K2StringAllocator@_W@@@std@@PAVIXMLProcessor@@@std@@@@$0A@@std@@@std@@QBEPAU?$pair@$$CBV?$basic_string@_WU?$char_traits@_W@std@@V?$K2StringAllocator@_W@@@std@@PAVIXMLProcessor@@@2@XZ 1913df50 f i c_xmlproc_brushlistitems.obj
 0002:000b2f80       ??Eiterator@?$_Tree@V?$_Tmap_traits@V?$basic_string@_WU?$char_traits@_W@std@@V?$K2StringAllocator@_W@@@std@@PAVIXMLProcessor@@U?$less@V?$basic_string@_WU?$char_traits@_W@std@@V?$K2StringAllocator@_W@@@std@@@2@V?$K2MapAllocator@U?$pair@$$CBV?$basic_string@_WU?$char_traits@_W@std@@V?$K2StringAllocator@_W@@@std@@PAVIXMLProcessor@@@std@@@@$0A@@std@@@std@@QAEAAV012@XZ 1913df80 f i c_xmlproc_brushlistitems.obj
 0002:000b2fb0       ??9const_iterator@?$_Tree@V?$_Tmap_traits@V?$basic_string@_WU?$char_traits@_W@std@@V?$K2StringAllocator@_W@@@std@@PAVIXMLProcessor@@U?$less@V?$basic_string@_WU?$char_traits@_W@std@@V?$K2StringAllocator@_W@@@std@@@2@V?$K2MapAllocator@U?$pair@$$CBV?$basic_string@_WU?$char_traits@_W@std@@V?$K2StringAllocator@_W@@@std@@PAVIXMLProcessor@@@std@@@@$0A@@std@@@std@@QBE_NABV012@@Z 1913dfb0 f i c_xmlproc_brushlistitems.obj
 0002:000b2ff0       ?_Color@?$_Tree@V?$_Tmap_traits@V?$basic_string@_WU?$char_traits@_W@std@@V?$K2StringAllocator@_W@@@std@@PAVIXMLProcessor@@U?$less@V?$basic_string@_WU?$char_traits@_W@std@@V?$K2StringAllocator@_W@@@std@@@2@V?$K2MapAllocator@U?$pair@$$CBV?$basic_string@_WU?$char_traits@_W@std@@V?$K2StringAllocator@_W@@@std@@PAVIXMLProcessor@@@std@@@@$0A@@std@@@std@@KAAADPAU_Node@?$_Tree_nod@V?$_Tmap_traits@V?$basic_string@_WU?$char_traits@_W@std@@V?$K2StringAllocator@_W@@@std@@PAVIXMLProcessor@@U?$less@V?$basic_string@_WU?$char_traits@_W@std@@V?$K2StringAllocator@_W@@@std@@@2@V?$K2MapAllocator@U?$pair@$$CBV?$basic_string@_WU?$char_traits@_W@std@@V?$K2StringAllocator@_W@@@std@@PAVIXMLProcessor@@@std@@@@$0A@@std@@@2@@Z 1913dff0 f i c_xmlproc_brushlistitems.obj
 0002:000b3010       ?_Isnil@?$_Tree@V?$_Tmap_traits@V?$basic_string@_WU?$char_traits@_W@std@@V?$K2StringAllocator@_W@@@std@@PAVIXMLProcessor@@U?$less@V?$basic_string@_WU?$char_traits@_W@std@@V?$K2StringAllocator@_W@@@std@@@2@V?$K2MapAllocator@U?$pair@$$CBV?$basic_string@_WU?$char_traits@_W@std@@V?$K2StringAllocator@_W@@@std@@PAVIXMLProcessor@@@std@@@@$0A@@std@@@std@@KAAADPAU_Node@?$_Tree_nod@V?$_Tmap_traits@V?$basic_string@_WU?$char_traits@_W@std@@V?$K2StringAllocator@_W@@@std@@PAVIXMLProcessor@@U?$less@V?$basic_string@_WU?$char_traits@_W@std@@V?$K2StringAllocator@_W@@@std@@@2@V?$K2MapAllocator@U?$pair@$$CBV?$basic_string@_WU?$char_traits@_W@std@@V?$K2StringAllocator@_W@@@std@@PAVIXMLProcessor@@@std@@@@$0A@@std@@@2@@Z 1913e010 f i c_xmlproc_brushlistitems.obj
 0002:000b3030       ?_Key@?$_Tree@V?$_Tmap_traits@V?$basic_string@_WU?$char_traits@_W@std@@V?$K2StringAllocator@_W@@@std@@PAVIXMLProcessor@@U?$less@V?$basic_string@_WU?$char_traits@_W@std@@V?$K2StringAllocator@_W@@@std@@@2@V?$K2MapAllocator@U?$pair@$$CBV?$basic_string@_WU?$char_traits@_W@std@@V?$K2StringAllocator@_W@@@std@@PAVIXMLProcessor@@@std@@@@$0A@@std@@@std@@KAABV?$basic_string@_WU?$char_traits@_W@std@@V?$K2StringAllocator@_W@@@2@PAU_Node@?$_Tree_nod@V?$_Tmap_traits@V?$basic_string@_WU?$char_traits@_W@std@@V?$K2StringAllocator@_W@@@std@@PAVIXMLProcessor@@U?$less@V?$basic_string@_WU?$char_traits@_W@std@@V?$K2StringAllocator@_W@@@std@@@2@V?$K2MapAllocator@U?$pair@$$CBV?$basic_string@_WU?$char_traits@_W@std@@V?$K2StringAllocator@_W@@@std@@PAVIXMLProcessor@@@std@@@@$0A@@std@@@2@@Z 1913e030 f i c_xmlproc_brushlistitems.obj
 0002:000b3060       ?_Left@?$_Tree@V?$_Tmap_traits@V?$basic_string@_WU?$char_traits@_W@std@@V?$K2StringAllocator@_W@@@std@@PAVIXMLProcessor@@U?$less@V?$basic_string@_WU?$char_traits@_W@std@@V?$K2StringAllocator@_W@@@std@@@2@V?$K2MapAllocator@U?$pair@$$CBV?$basic_string@_WU?$char_traits@_W@std@@V?$K2StringAllocator@_W@@@std@@PAVIXMLProcessor@@@std@@@@$0A@@std@@@std@@KAAAPAU_Node@?$_Tree_nod@V?$_Tmap_traits@V?$basic_string@_WU?$char_traits@_W@std@@V?$K2StringAllocator@_W@@@std@@PAVIXMLProcessor@@U?$less@V?$basic_string@_WU?$char_traits@_W@std@@V?$K2StringAllocator@_W@@@std@@@2@V?$K2MapAllocator@U?$pair@$$CBV?$basic_string@_WU?$char_traits@_W@std@@V?$K2StringAllocator@_W@@@std@@PAVIXMLProcessor@@@std@@@@$0A@@std@@@2@PAU342@@Z 1913e060 f i c_xmlproc_brushlistitems.obj
 0002:000b3080       ?_Parent@?$_Tree@V?$_Tmap_traits@V?$basic_string@_WU?$char_traits@_W@std@@V?$K2StringAllocator@_W@@@std@@PAVIXMLProcessor@@U?$less@V?$basic_string@_WU?$char_traits@_W@std@@V?$K2StringAllocator@_W@@@std@@@2@V?$K2MapAllocator@U?$pair@$$CBV?$basic_string@_WU?$char_traits@_W@std@@V?$K2StringAllocator@_W@@@std@@PAVIXMLProcessor@@@std@@@@$0A@@std@@@std@@KAAAPAU_Node@?$_Tree_nod@V?$_Tmap_traits@V?$basic_string@_WU?$char_traits@_W@std@@V?$K2StringAllocator@_W@@@std@@PAVIXMLProcessor@@U?$less@V?$basic_string@_WU?$char_traits@_W@std@@V?$K2StringAllocator@_W@@@std@@@2@V?$K2MapAllocator@U?$pair@$$CBV?$basic_string@_WU?$char_traits@_W@std@@V?$K2StringAllocator@_W@@@std@@PAVIXMLProcessor@@@std@@@@$0A@@std@@@2@PAU342@@Z 1913e080 f i c_xmlproc_brushlistitems.obj
 0002:000b30a0       ?_Right@?$_Tree@V?$_Tmap_traits@V?$basic_string@_WU?$char_traits@_W@std@@V?$K2StringAllocator@_W@@@std@@PAVIXMLProcessor@@U?$less@V?$basic_string@_WU?$char_traits@_W@std@@V?$K2StringAllocator@_W@@@std@@@2@V?$K2MapAllocator@U?$pair@$$CBV?$basic_string@_WU?$char_traits@_W@std@@V?$K2StringAllocator@_W@@@std@@PAVIXMLProcessor@@@std@@@@$0A@@std@@@std@@KAAAPAU_Node@?$_Tree_nod@V?$_Tmap_traits@V?$basic_string@_WU?$char_traits@_W@std@@V?$K2StringAllocator@_W@@@std@@PAVIXMLProcessor@@U?$less@V?$basic_string@_WU?$char_traits@_W@std@@V?$K2StringAllocator@_W@@@std@@@2@V?$K2MapAllocator@U?$pair@$$CBV?$basic_string@_WU?$char_traits@_W@std@@V?$K2StringAllocator@_W@@@std@@PAVIXMLProcessor@@@std@@@@$0A@@std@@@2@PAU342@@Z 1913e0a0 f i c_xmlproc_brushlistitems.obj
 0002:000b30c0       ?erase@?$_Tree@V?$_Tmap_traits@V?$basic_string@_WU?$char_traits@_W@std@@V?$K2StringAllocator@_W@@@std@@PAVIXMLProcessor@@U?$less@V?$basic_string@_WU?$char_traits@_W@std@@V?$K2StringAllocator@_W@@@std@@@2@V?$K2MapAllocator@U?$pair@$$CBV?$basic_string@_WU?$char_traits@_W@std@@V?$K2StringAllocator@_W@@@std@@PAVIXMLProcessor@@@std@@@@$0A@@std@@@std@@QAE?AViterator@12@V312@0@Z 1913e0c0 f i c_xmlproc_brushlistitems.obj
 0002:000b3350       ?lower_bound@?$_Tree@V?$_Tmap_traits@V?$basic_string@_WU?$char_traits@_W@std@@V?$K2StringAllocator@_W@@@std@@PAVIXMLProcessor@@U?$less@V?$basic_string@_WU?$char_traits@_W@std@@V?$K2StringAllocator@_W@@@std@@@2@V?$K2MapAllocator@U?$pair@$$CBV?$basic_string@_WU?$char_traits@_W@std@@V?$K2StringAllocator@_W@@@std@@PAVIXMLProcessor@@@std@@@@$0A@@std@@@std@@QAE?AViterator@12@ABV?$basic_string@_WU?$char_traits@_W@std@@V?$K2StringAllocator@_W@@@2@@Z 1913e350 f i c_xmlproc_brushlistitems.obj
 0002:000b33b0       ?_Lmost@?$_Tree@V?$_Tmap_traits@V?$basic_string@_WU?$char_traits@_W@std@@V?$K2StringAllocator@_W@@@std@@PAVIXMLProcessor@@U?$less@V?$basic_string@_WU?$char_traits@_W@std@@V?$K2StringAllocator@_W@@@std@@@2@V?$K2MapAllocator@U?$pair@$$CBV?$basic_string@_WU?$char_traits@_W@std@@V?$K2StringAllocator@_W@@@std@@PAVIXMLProcessor@@@std@@@@$0A@@std@@@std@@IBEAAPAU_Node@?$_Tree_nod@V?$_Tmap_traits@V?$basic_string@_WU?$char_traits@_W@std@@V?$K2StringAllocator@_W@@@std@@PAVIXMLProcessor@@U?$less@V?$basic_string@_WU?$char_traits@_W@std@@V?$K2StringAllocator@_W@@@std@@@2@V?$K2MapAllocator@U?$pair@$$CBV?$basic_string@_WU?$char_traits@_W@std@@V?$K2StringAllocator@_W@@@std@@PAVIXMLProcessor@@@std@@@@$0A@@std@@@2@XZ 1913e3b0 f i c_xmlproc_brushlistitems.obj
 0002:000b33e0       ?_Lrotate@?$_Tree@V?$_Tmap_traits@V?$basic_string@_WU?$char_traits@_W@std@@V?$K2StringAllocator@_W@@@std@@PAVIXMLProcessor@@U?$less@V?$basic_string@_WU?$char_traits@_W@std@@V?$K2StringAllocator@_W@@@std@@@2@V?$K2MapAllocator@U?$pair@$$CBV?$basic_string@_WU?$char_traits@_W@std@@V?$K2StringAllocator@_W@@@std@@PAVIXMLProcessor@@@std@@@@$0A@@std@@@std@@IAEXPAU_Node@?$_Tree_nod@V?$_Tmap_traits@V?$basic_string@_WU?$char_traits@_W@std@@V?$K2StringAllocator@_W@@@std@@PAVIXMLProcessor@@U?$less@V?$basic_string@_WU?$char_traits@_W@std@@V?$K2StringAllocator@_W@@@std@@@2@V?$K2MapAllocator@U?$pair@$$CBV?$basic_string@_WU?$char_traits@_W@std@@V?$K2StringAllocator@_W@@@std@@PAVIXMLProcessor@@@std@@@@$0A@@std@@@2@@Z 1913e3e0 f i c_xmlproc_brushlistitems.obj
 0002:000b3570       ?_Max@?$_Tree@V?$_Tmap_traits@V?$basic_string@_WU?$char_traits@_W@std@@V?$K2StringAllocator@_W@@@std@@PAVIXMLProcessor@@U?$less@V?$basic_string@_WU?$char_traits@_W@std@@V?$K2StringAllocator@_W@@@std@@@2@V?$K2MapAllocator@U?$pair@$$CBV?$basic_string@_WU?$char_traits@_W@std@@V?$K2StringAllocator@_W@@@std@@PAVIXMLProcessor@@@std@@@@$0A@@std@@@std@@KAPAU_Node@?$_Tree_nod@V?$_Tmap_traits@V?$basic_string@_WU?$char_traits@_W@std@@V?$K2StringAllocator@_W@@@std@@PAVIXMLProcessor@@U?$less@V?$basic_string@_WU?$char_traits@_W@std@@V?$K2StringAllocator@_W@@@std@@@2@V?$K2MapAllocator@U?$pair@$$CBV?$basic_string@_WU?$char_traits@_W@std@@V?$K2StringAllocator@_W@@@std@@PAVIXMLProcessor@@@std@@@@$0A@@std@@@2@PAU342@@Z 1913e570 f i c_xmlproc_brushlistitems.obj
 0002:000b35d0       ?_Min@?$_Tree@V?$_Tmap_traits@V?$basic_string@_WU?$char_traits@_W@std@@V?$K2StringAllocator@_W@@@std@@PAVIXMLProcessor@@U?$less@V?$basic_string@_WU?$char_traits@_W@std@@V?$K2StringAllocator@_W@@@std@@@2@V?$K2MapAllocator@U?$pair@$$CBV?$basic_string@_WU?$char_traits@_W@std@@V?$K2StringAllocator@_W@@@std@@PAVIXMLProcessor@@@std@@@@$0A@@std@@@std@@KAPAU_Node@?$_Tree_nod@V?$_Tmap_traits@V?$basic_string@_WU?$char_traits@_W@std@@V?$K2StringAllocator@_W@@@std@@PAVIXMLProcessor@@U?$less@V?$basic_string@_WU?$char_traits@_W@std@@V?$K2StringAllocator@_W@@@std@@@2@V?$K2MapAllocator@U?$pair@$$CBV?$basic_string@_WU?$char_traits@_W@std@@V?$K2StringAllocator@_W@@@std@@PAVIXMLProcessor@@@std@@@@$0A@@std@@@2@PAU342@@Z 1913e5d0 f i c_xmlproc_brushlistitems.obj
 0002:000b3630       ?_Rmost@?$_Tree@V?$_Tmap_traits@V?$basic_string@_WU?$char_traits@_W@std@@V?$K2StringAllocator@_W@@@std@@PAVIXMLProcessor@@U?$less@V?$basic_string@_WU?$char_traits@_W@std@@V?$K2StringAllocator@_W@@@std@@@2@V?$K2MapAllocator@U?$pair@$$CBV?$basic_string@_WU?$char_traits@_W@std@@V?$K2StringAllocator@_W@@@std@@PAVIXMLProcessor@@@std@@@@$0A@@std@@@std@@IBEAAPAU_Node@?$_Tree_nod@V?$_Tmap_traits@V?$basic_string@_WU?$char_traits@_W@std@@V?$K2StringAllocator@_W@@@std@@PAVIXMLProcessor@@U?$less@V?$basic_string@_WU?$char_traits@_W@std@@V?$K2StringAllocator@_W@@@std@@@2@V?$K2MapAllocator@U?$pair@$$CBV?$basic_string@_WU?$char_traits@_W@std@@V?$K2StringAllocator@_W@@@std@@PAVIXMLProcessor@@@std@@@@$0A@@std@@@2@XZ 1913e630 f i c_xmlproc_brushlistitems.obj
 0002:000b3660       ?_Root@?$_Tree@V?$_Tmap_traits@V?$basic_string@_WU?$char_traits@_W@std@@V?$K2StringAllocator@_W@@@std@@PAVIXMLProcessor@@U?$less@V?$basic_string@_WU?$char_traits@_W@std@@V?$K2StringAllocator@_W@@@std@@@2@V?$K2MapAllocator@U?$pair@$$CBV?$basic_string@_WU?$char_traits@_W@std@@V?$K2StringAllocator@_W@@@std@@PAVIXMLProcessor@@@std@@@@$0A@@std@@@std@@IBEAAPAU_Node@?$_Tree_nod@V?$_Tmap_traits@V?$basic_string@_WU?$char_traits@_W@std@@V?$K2StringAllocator@_W@@@std@@PAVIXMLProcessor@@U?$less@V?$basic_string@_WU?$char_traits@_W@std@@V?$K2StringAllocator@_W@@@std@@@2@V?$K2MapAllocator@U?$pair@$$CBV?$basic_string@_WU?$char_traits@_W@std@@V?$K2StringAllocator@_W@@@std@@PAVIXMLProcessor@@@std@@@@$0A@@std@@@2@XZ 1913e660 f i c_xmlproc_brushlistitems.obj
 0002:000b3690       ?_Rrotate@?$_Tree@V?$_Tmap_traits@V?$basic_string@_WU?$char_traits@_W@std@@V?$K2StringAllocator@_W@@@std@@PAVIXMLProcessor@@U?$less@V?$basic_string@_WU?$char_traits@_W@std@@V?$K2StringAllocator@_W@@@std@@@2@V?$K2MapAllocator@U?$pair@$$CBV?$basic_string@_WU?$char_traits@_W@std@@V?$K2StringAllocator@_W@@@std@@PAVIXMLProcessor@@@std@@@@$0A@@std@@@std@@IAEXPAU_Node@?$_Tree_nod@V?$_Tmap_traits@V?$basic_string@_WU?$char_traits@_W@std@@V?$K2StringAllocator@_W@@@std@@PAVIXMLProcessor@@U?$less@V?$basic_string@_WU?$char_traits@_W@std@@V?$K2StringAllocator@_W@@@std@@@2@V?$K2MapAllocator@U?$pair@$$CBV?$basic_string@_WU?$char_traits@_W@std@@V?$K2StringAllocator@_W@@@std@@PAVIXMLProcessor@@@std@@@@$0A@@std@@@2@@Z 1913e690 f i c_xmlproc_brushlistitems.obj
 0002:000b3820       ?_Orphan_ptr@?$_Tree@V?$_Tmap_traits@V?$basic_string@_WU?$char_traits@_W@std@@V?$K2StringAllocator@_W@@@std@@PAVIXMLProcessor@@U?$less@V?$basic_string@_WU?$char_traits@_W@std@@V?$K2StringAllocator@_W@@@std@@@2@V?$K2MapAllocator@U?$pair@$$CBV?$basic_string@_WU?$char_traits@_W@std@@V?$K2StringAllocator@_W@@@std@@PAVIXMLProcessor@@@std@@@@$0A@@std@@@std@@IBEXAAV12@PAU_Node@?$_Tree_nod@V?$_Tmap_traits@V?$basic_string@_WU?$char_traits@_W@std@@V?$K2StringAllocator@_W@@@std@@PAVIXMLProcessor@@U?$less@V?$basic_string@_WU?$char_traits@_W@std@@V?$K2StringAllocator@_W@@@std@@@2@V?$K2MapAllocator@U?$pair@$$CBV?$basic_string@_WU?$char_traits@_W@std@@V?$K2StringAllocator@_W@@@std@@PAVIXMLProcessor@@@std@@@@$0A@@std@@@2@@Z 1913e820 f i c_xmlproc_brushlistitems.obj
 0002:000b38d0       ?deallocate@?$K2MapAllocator@U_Node@?$_Tree_nod@V?$_Tmap_traits@V?$basic_string@_WU?$char_traits@_W@std@@V?$K2StringAllocator@_W@@@std@@PAVIXMLProcessor@@U?$less@V?$basic_string@_WU?$char_traits@_W@std@@V?$K2StringAllocator@_W@@@std@@@2@V?$K2MapAllocator@U?$pair@$$CBV?$basic_string@_WU?$char_traits@_W@std@@V?$K2StringAllocator@_W@@@std@@PAVIXMLProcessor@@@std@@@@$0A@@std@@@std@@@@QAEXPAU_Node@?$_Tree_nod@V?$_Tmap_traits@V?$basic_string@_WU?$char_traits@_W@std@@V?$K2StringAllocator@_W@@@std@@PAVIXMLProcessor@@U?$less@V?$basic_string@_WU?$char_traits@_W@std@@V?$K2StringAllocator@_W@@@std@@@2@V?$K2MapAllocator@U?$pair@$$CBV?$basic_string@_WU?$char_traits@_W@std@@V?$K2StringAllocator@_W@@@std@@PAVIXMLProcessor@@@std@@@@$0A@@std@@@std@@I@Z 1913e8d0 f i c_xmlproc_brushlistitems.obj
 0002:000b3910       ?destroy@?$allocator@U_Node@?$_Tree_nod@V?$_Tmap_traits@V?$basic_string@_WU?$char_traits@_W@std@@V?$K2StringAllocator@_W@@@std@@PAVIXMLProcessor@@U?$less@V?$basic_string@_WU?$char_traits@_W@std@@V?$K2StringAllocator@_W@@@std@@@2@V?$K2MapAllocator@U?$pair@$$CBV?$basic_string@_WU?$char_traits@_W@std@@V?$K2StringAllocator@_W@@@std@@PAVIXMLProcessor@@@std@@@@$0A@@std@@@std@@@std@@QAEXPAU_Node@?$_Tree_nod@V?$_Tmap_traits@V?$basic_string@_WU?$char_traits@_W@std@@V?$K2StringAllocator@_W@@@std@@PAVIXMLProcessor@@U?$less@V?$basic_string@_WU?$char_traits@_W@std@@V?$K2StringAllocator@_W@@@std@@@2@V?$K2MapAllocator@U?$pair@$$CBV?$basic_string@_WU?$char_traits@_W@std@@V?$K2StringAllocator@_W@@@std@@PAVIXMLProcessor@@@std@@@@$0A@@std@@@2@@Z 1913e910 f i c_xmlproc_brushlistitems.obj
 0002:000b3940       ??0iterator@?$_Tree@V?$_Tmap_traits@V?$basic_string@_WU?$char_traits@_W@std@@V?$K2StringAllocator@_W@@@std@@PAVIXMLProcessor@@U?$less@V?$basic_string@_WU?$char_traits@_W@std@@V?$K2StringAllocator@_W@@@std@@@2@V?$K2MapAllocator@U?$pair@$$CBV?$basic_string@_WU?$char_traits@_W@std@@V?$K2StringAllocator@_W@@@std@@PAVIXMLProcessor@@@std@@@@$0A@@std@@@std@@QAE@PAU_Node@?$_Tree_nod@V?$_Tmap_traits@V?$basic_string@_WU?$char_traits@_W@std@@V?$K2StringAllocator@_W@@@std@@PAVIXMLProcessor@@U?$less@V?$basic_string@_WU?$char_traits@_W@std@@V?$K2StringAllocator@_W@@@std@@@2@V?$K2MapAllocator@U?$pair@$$CBV?$basic_string@_WU?$char_traits@_W@std@@V?$K2StringAllocator@_W@@@std@@PAVIXMLProcessor@@@std@@@@$0A@@std@@@2@PBV12@@Z 1913e940 f i c_xmlproc_brushlistitems.obj
 0002:000b3980       ??Diterator@?$_Tree@V?$_Tmap_traits@V?$basic_string@_WU?$char_traits@_W@std@@V?$K2StringAllocator@_W@@@std@@PAVIXMLProcessor@@U?$less@V?$basic_string@_WU?$char_traits@_W@std@@V?$K2StringAllocator@_W@@@std@@@2@V?$K2MapAllocator@U?$pair@$$CBV?$basic_string@_WU?$char_traits@_W@std@@V?$K2StringAllocator@_W@@@std@@PAVIXMLProcessor@@@std@@@@$0A@@std@@@std@@QBEAAU?$pair@$$CBV?$basic_string@_WU?$char_traits@_W@std@@V?$K2StringAllocator@_W@@@std@@PAVIXMLProcessor@@@2@XZ 1913e980 f i c_xmlproc_brushlistitems.obj
 0002:000b39b0       ??Econst_iterator@?$_Tree@V?$_Tmap_traits@V?$basic_string@_WU?$char_traits@_W@std@@V?$K2StringAllocator@_W@@@std@@PAVIXMLProcessor@@U?$less@V?$basic_string@_WU?$char_traits@_W@std@@V?$K2StringAllocator@_W@@@std@@@2@V?$K2MapAllocator@U?$pair@$$CBV?$basic_string@_WU?$char_traits@_W@std@@V?$K2StringAllocator@_W@@@std@@PAVIXMLProcessor@@@std@@@@$0A@@std@@@std@@QAEAAV012@XZ 1913e9b0 f i c_xmlproc_brushlistitems.obj
 0002:000b39e0       ??8const_iterator@?$_Tree@V?$_Tmap_traits@V?$basic_string@_WU?$char_traits@_W@std@@V?$K2StringAllocator@_W@@@std@@PAVIXMLProcessor@@U?$less@V?$basic_string@_WU?$char_traits@_W@std@@V?$K2StringAllocator@_W@@@std@@@2@V?$K2MapAllocator@U?$pair@$$CBV?$basic_string@_WU?$char_traits@_W@std@@V?$K2StringAllocator@_W@@@std@@PAVIXMLProcessor@@@std@@@@$0A@@std@@@std@@QBE_NABV012@@Z 1913e9e0 f i c_xmlproc_brushlistitems.obj
 0002:000b3aa0       ?_Mynode@const_iterator@?$_Tree@V?$_Tmap_traits@V?$basic_string@_WU?$char_traits@_W@std@@V?$K2StringAllocator@_W@@@std@@PAVIXMLProcessor@@U?$less@V?$basic_string@_WU?$char_traits@_W@std@@V?$K2StringAllocator@_W@@@std@@@2@V?$K2MapAllocator@U?$pair@$$CBV?$basic_string@_WU?$char_traits@_W@std@@V?$K2StringAllocator@_W@@@std@@PAVIXMLProcessor@@@std@@@@$0A@@std@@@std@@QBEPAU_Node@?$_Tree_nod@V?$_Tmap_traits@V?$basic_string@_WU?$char_traits@_W@std@@V?$K2StringAllocator@_W@@@std@@PAVIXMLProcessor@@U?$less@V?$basic_string@_WU?$char_traits@_W@std@@V?$K2StringAllocator@_W@@@std@@@2@V?$K2MapAllocator@U?$pair@$$CBV?$basic_string@_WU?$char_traits@_W@std@@V?$K2StringAllocator@_W@@@std@@PAVIXMLProcessor@@@std@@@@$0A@@std@@@3@XZ 1913eaa0 f i c_xmlproc_brushlistitems.obj
 0002:000b3ac0       ?_Myval@?$_Tree@V?$_Tmap_traits@V?$basic_string@_WU?$char_traits@_W@std@@V?$K2StringAllocator@_W@@@std@@PAVIXMLProcessor@@U?$less@V?$basic_string@_WU?$char_traits@_W@std@@V?$K2StringAllocator@_W@@@std@@@2@V?$K2MapAllocator@U?$pair@$$CBV?$basic_string@_WU?$char_traits@_W@std@@V?$K2StringAllocator@_W@@@std@@PAVIXMLProcessor@@@std@@@@$0A@@std@@@std@@KAAAU?$pair@$$CBV?$basic_string@_WU?$char_traits@_W@std@@V?$K2StringAllocator@_W@@@std@@PAVIXMLProcessor@@@2@PAU_Node@?$_Tree_nod@V?$_Tmap_traits@V?$basic_string@_WU?$char_traits@_W@std@@V?$K2StringAllocator@_W@@@std@@PAVIXMLProcessor@@U?$less@V?$basic_string@_WU?$char_traits@_W@std@@V?$K2StringAllocator@_W@@@std@@@2@V?$K2MapAllocator@U?$pair@$$CBV?$basic_string@_WU?$char_traits@_W@std@@V?$K2StringAllocator@_W@@@std@@PAVIXMLProcessor@@@std@@@@$0A@@std@@@2@@Z 1913eac0 f i c_xmlproc_brushlistitems.obj
 0002:000b3ae0       ?clear@?$_Tree@V?$_Tmap_traits@V?$basic_string@_WU?$char_traits@_W@std@@V?$K2StringAllocator@_W@@@std@@PAVIXMLProcessor@@U?$less@V?$basic_string@_WU?$char_traits@_W@std@@V?$K2StringAllocator@_W@@@std@@@2@V?$K2MapAllocator@U?$pair@$$CBV?$basic_string@_WU?$char_traits@_W@std@@V?$K2StringAllocator@_W@@@std@@PAVIXMLProcessor@@@std@@@@$0A@@std@@@std@@QAEXXZ 1913eae0 f i c_xmlproc_brushlistitems.obj
 0002:000b3b70       ?_Lbound@?$_Tree@V?$_Tmap_traits@V?$basic_string@_WU?$char_traits@_W@std@@V?$K2StringAllocator@_W@@@std@@PAVIXMLProcessor@@U?$less@V?$basic_string@_WU?$char_traits@_W@std@@V?$K2StringAllocator@_W@@@std@@@2@V?$K2MapAllocator@U?$pair@$$CBV?$basic_string@_WU?$char_traits@_W@std@@V?$K2StringAllocator@_W@@@std@@PAVIXMLProcessor@@@std@@@@$0A@@std@@@std@@IBEPAU_Node@?$_Tree_nod@V?$_Tmap_traits@V?$basic_string@_WU?$char_traits@_W@std@@V?$K2StringAllocator@_W@@@std@@PAVIXMLProcessor@@U?$less@V?$basic_string@_WU?$char_traits@_W@std@@V?$K2StringAllocator@_W@@@std@@@2@V?$K2MapAllocator@U?$pair@$$CBV?$basic_string@_WU?$char_traits@_W@std@@V?$K2StringAllocator@_W@@@std@@PAVIXMLProcessor@@@std@@@@$0A@@std@@@2@ABV?$basic_string@_WU?$char_traits@_W@std@@V?$K2StringAllocator@_W@@@2@@Z 1913eb70 f i c_xmlproc_brushlistitems.obj
 0002:000b3c40       ?_Kfn@?$_Tmap_traits@V?$basic_string@_WU?$char_traits@_W@std@@V?$K2StringAllocator@_W@@@std@@PAVIXMLProcessor@@U?$less@V?$basic_string@_WU?$char_traits@_W@std@@V?$K2StringAllocator@_W@@@std@@@2@V?$K2MapAllocator@U?$pair@$$CBV?$basic_string@_WU?$char_traits@_W@std@@V?$K2StringAllocator@_W@@@std@@PAVIXMLProcessor@@@std@@@@$0A@@std@@SAABV?$basic_string@_WU?$char_traits@_W@std@@V?$K2StringAllocator@_W@@@2@ABU?$pair@$$CBV?$basic_string@_WU?$char_traits@_W@std@@V?$K2StringAllocator@_W@@@std@@PAVIXMLProcessor@@@2@@Z 1913ec40 f i c_xmlproc_brushlistitems.obj
 0002:000b3c60       ??Eiterator@?$_Tree@V?$_Tmap_traits@V?$basic_string@_WU?$char_traits@_W@std@@V?$K2StringAllocator@_W@@@std@@PAVIXMLProcessor@@U?$less@V?$basic_string@_WU?$char_traits@_W@std@@V?$K2StringAllocator@_W@@@std@@@2@V?$K2MapAllocator@U?$pair@$$CBV?$basic_string@_WU?$char_traits@_W@std@@V?$K2StringAllocator@_W@@@std@@PAVIXMLProcessor@@@std@@@@$0A@@std@@@std@@QAE?AV012@H@Z 1913ec60 f i c_xmlproc_brushlistitems.obj
 0002:000b3d10       ??0const_iterator@?$_Tree@V?$_Tmap_traits@V?$basic_string@_WU?$char_traits@_W@std@@V?$K2StringAllocator@_W@@@std@@PAVIXMLProcessor@@U?$less@V?$basic_string@_WU?$char_traits@_W@std@@V?$K2StringAllocator@_W@@@std@@@2@V?$K2MapAllocator@U?$pair@$$CBV?$basic_string@_WU?$char_traits@_W@std@@V?$K2StringAllocator@_W@@@std@@PAVIXMLProcessor@@@std@@@@$0A@@std@@@std@@QAE@PAU_Node@?$_Tree_nod@V?$_Tmap_traits@V?$basic_string@_WU?$char_traits@_W@std@@V?$K2StringAllocator@_W@@@std@@PAVIXMLProcessor@@U?$less@V?$basic_string@_WU?$char_traits@_W@std@@V?$K2StringAllocator@_W@@@std@@@2@V?$K2MapAllocator@U?$pair@$$CBV?$basic_string@_WU?$char_traits@_W@std@@V?$K2StringAllocator@_W@@@std@@PAVIXMLProcessor@@@std@@@@$0A@@std@@@2@PBV12@@Z 1913ed10 f i c_xmlproc_brushlistitems.obj
 0002:000b3da0       ??Dconst_iterator@?$_Tree@V?$_Tmap_traits@V?$basic_string@_WU?$char_traits@_W@std@@V?$K2StringAllocator@_W@@@std@@PAVIXMLProcessor@@U?$less@V?$basic_string@_WU?$char_traits@_W@std@@V?$K2StringAllocator@_W@@@std@@@2@V?$K2MapAllocator@U?$pair@$$CBV?$basic_string@_WU?$char_traits@_W@std@@V?$K2StringAllocator@_W@@@std@@PAVIXMLProcessor@@@std@@@@$0A@@std@@@std@@QBEABU?$pair@$$CBV?$basic_string@_WU?$char_traits@_W@std@@V?$K2StringAllocator@_W@@@std@@PAVIXMLProcessor@@@2@XZ 1913eda0 f i c_xmlproc_brushlistitems.obj
 0002:000b3e60       ?_Inc@const_iterator@?$_Tree@V?$_Tmap_traits@V?$basic_string@_WU?$char_traits@_W@std@@V?$K2StringAllocator@_W@@@std@@PAVIXMLProcessor@@U?$less@V?$basic_string@_WU?$char_traits@_W@std@@V?$K2StringAllocator@_W@@@std@@@2@V?$K2MapAllocator@U?$pair@$$CBV?$basic_string@_WU?$char_traits@_W@std@@V?$K2StringAllocator@_W@@@std@@PAVIXMLProcessor@@@std@@@@$0A@@std@@@std@@QAEXXZ 1913ee60 f i c_xmlproc_brushlistitems.obj
 0002:000b3fd0       ??0?$_Bidit@U?$pair@$$CBV?$basic_string@_WU?$char_traits@_W@std@@V?$K2StringAllocator@_W@@@std@@PAVIXMLProcessor@@@std@@HPBU12@ABU12@@std@@QAE@XZ 1913efd0 f i c_xmlproc_brushlistitems.obj
