 cgame_debug

 Timestamp is 4dfdae92 (Sun Jun 19 03:08:50 2011)

 Preferred load address is 19000000

 Start         Length     Name                   Class
 0001:00000000 00125f78H .textbss                DATA
 0002:00000000 001f7e8aH .text                   CODE
 0002:001f7e90 0003df1fH .text$x                 CODE
 0002:00235db0 00024155H .text$yc                CODE
 0002:00259f10 0000a3d7H .text$yd                CODE
 0003:00000000 00000104H .CRT$XCA                DATA
 0003:00000104 00000ee9H .CRT$XCU                DATA
 0003:00000ff0 00000104H .CRT$XCZ                DATA
 0003:000010f4 00000104H .CRT$XIA                DATA
 0003:000011f8 00000104H .CRT$XIAA               DATA
 0003:000012fc 00000104H .CRT$XIC                DATA
 0003:00001400 00000104H .CRT$XIZ                DATA
 0003:00001510 000364a9H .rdata                  DATA
 0003:000379bc 0000015dH .rdata$debug            DATA
 0003:00037b1c 00000156H .rdata$r                DATA
 0003:00037c74 00000104H .rtc$IAA                DATA
 0003:00037d78 00000104H .rtc$IZZ                DATA
 0003:00037e7c 00000104H .rtc$TAA                DATA
 0003:00037f80 00000104H .rtc$TZZ                DATA
 0003:00038088 00032a91H .xdata$x                DATA
 0003:0006ab20 0000015dH .edata                  DATA
 0004:00000000 00000254H .data                   DATA
 0004:00000258 0001e830H .bss                    DATA
 0005:00000000 00000064H .idata$2                DATA
 0005:00000064 00000014H .idata$3                DATA
 0005:00000078 00001004H .idata$4                DATA
 0005:0000107c 00001004H .idata$5                DATA
 0005:00002080 0000d98dH .idata$6                DATA
 0006:00000000 00000169H .rsrc$01                DATA
 0006:00000170 00000a99H .rsrc$02                DATA

  Address         Publics by Value              Rva+Base       Lib:Object

 0000:00000000       ___safe_se_handler_table   00000000     <absolute>
 0000:00000000       ___safe_se_handler_count   00000000     <absolute>
 0000:00000000       __except_list              00000000     <absolute>
 0000:00009876       __fltused                  00009876     <absolute>
 0000:00009876       __ldused                   00009876     <absolute>
 0000:00000000       ___ImageBase               19000000     <linker-defined>
 0001:00000000       __enc$textbss$begin        19001000     <linker-defined>
 0001:00125f78       __enc$textbss$end          19126f78     <linker-defined>
 0002:000133b0       ??_H@YGXPAXIHP6EPAX0@Z@Z   1913a3b0 f i c_clientcommander.obj
 0002:000133f0       ??0CClientCommander@@QAE@XZ 1913a3f0 f   c_clientcommander.obj
 0002:00013850       ??0SSelectedPlayerWaypoint@CClientCommander@@QAE@XZ 1913a850 f i c_clientcommander.obj
 0002:000138c0       ??1?$list@IV?$K2ListAllocator@I@@@@QAE@XZ 1913a8c0 f i c_clientcommander.obj
 0002:000138f0       ??1?$set@IU?$less@I@std@@V?$K2SetAllocator@I@@@@QAE@XZ 1913a8f0 f i c_clientcommander.obj
 0002:00013920       ??1SSelectionSet@@QAE@XZ   1913a920 f i c_clientcommander.obj
 0002:00013950       ??1?$set@IU?$less@I@std@@V?$K2SetAllocator@I@@@std@@QAE@XZ 1913a950 f i c_clientcommander.obj
 0002:00013980       ??1?$set@USSelectionEntry@@U?$less@USSelectionEntry@@@std@@V?$K2SetAllocator@USSelectionEntry@@@@@@QAE@XZ 1913a980 f i c_clientcommander.obj
 0002:000139b0       ??1?$set@USSelectionEntry@@U?$less@USSelectionEntry@@@std@@V?$K2SetAllocator@USSelectionEntry@@@@@std@@QAE@XZ 1913a9b0 f i c_clientcommander.obj
 0002:000139e0       ??0SSelectionSet@@QAE@XZ   1913a9e0 f i c_clientcommander.obj
 0002:00013a10       ?LoadResources@CClientCommander@@QAEXI@Z 1913aa10 f   c_clientcommander.obj
 0002:000142d0       ?Reinitialize@CClientCommander@@QAEXXZ 1913b2d0 f   c_clientcommander.obj
 0002:00014500       ?UpdateSelection@CClientCommander@@AAEXXZ 1913b500 f   c_clientcommander.obj
 0002:000146c0       ??6@YAAAVIBuffer@@AAV0@E@Z 1913b6c0 f i c_clientcommander.obj
 0002:000146f0       ??6@YAAAVIBuffer@@AAV0@G@Z 1913b6f0 f i c_clientcommander.obj
 0002:00014720       ?WriteShort@IBuffer@@QAEXF@Z 1913b720 f i c_clientcommander.obj
 0002:00014760       ??0CBufferDynamic@@QAE@XZ  1913b760 f i c_clientcommander.obj
 0002:000147f0       ?GetLength@IBuffer@@UBEIXZ 1913b7f0 f i c_clientcommander.obj
 0002:00014810       ?GetReadPos@IBuffer@@UBEIXZ 1913b810 f i c_clientcommander.obj
 0002:00014830       ?Rewind@IBuffer@@UBEXXZ    1913b830 f i c_clientcommander.obj
 0002:00014860       ?Duplicate@IBuffer@@UAEPADI@Z 1913b860 f i c_clientcommander.obj
 0002:000148a0       ?Duplicate@IBuffer@@UAEPADXZ 1913b8a0 f i c_clientcommander.obj
 0002:000148e0       ?Get@IBuffer@@UBEPBDXZ     1913b8e0 f i c_clientcommander.obj
 0002:00014910       ?Clear@IBuffer@@UAEXXZ     1913b910 f i c_clientcommander.obj
 0002:00014950       ?ClearFaults@IBuffer@@QAEXXZ 1913b950 f i c_clientcommander.obj
 0002:00014980       ?Clear@IBuffer@@UAEXD@Z    1913b980 f i c_clientcommander.obj
 0002:000149e0       ?Set@CMemManager@@SAPAXPAXEI@Z 1913b9e0 f i c_clientcommander.obj
 0002:00014a10       ??4IBuffer@@UAEAAV0@PB_W@Z 1913ba10 f i c_clientcommander.obj
 0002:00014a60       ??4IBuffer@@UAEAAV0@ABV0@@Z 1913ba60 f i c_clientcommander.obj
 0002:00014ac0       ??AIBuffer@@UAEAADI@Z      1913bac0 f i c_clientcommander.obj
 0002:00014b90       ??AIBuffer@@UBEDI@Z        1913bb90 f i c_clientcommander.obj
 0002:00014c60       ?Duplicate@IBuffer@@UAEPADII@Z 1913bc60 f i c_clientcommander.obj
 0002:00014cf0       ?Copy@CMemManager@@SAPAXPAXPBXI@Z 1913bcf0 f i c_clientcommander.obj
 0002:00014d20       ?Get@IBuffer@@UBEPBDI@Z    1913bd20 f i c_clientcommander.obj
 0002:00014d60       ??_ECBufferDynamic@@UAEPAXI@Z 1913bd60 f i c_clientcommander.obj
 0002:00014d60       ??_GCBufferDynamic@@UAEPAXI@Z 1913bd60 f i c_clientcommander.obj
 0002:00014db0       ??1CBufferDynamic@@UAE@XZ  1913bdb0 f i c_clientcommander.obj
 0002:00014de0       ?Append@CBufferDynamic@@UAE_NPBXI@Z 1913bde0 f i c_clientcommander.obj
 0002:00014ef0       ??1iterator@?$_Tree@V?$_Tset_traits@IU?$less@I@std@@V?$K2SetAllocator@I@@$0A@@std@@@std@@QAE@XZ 1913bef0 f i c_clientcommander.obj
 0002:00014f20       ??1const_iterator@?$_Tree@V?$_Tset_traits@IU?$less@I@std@@V?$K2SetAllocator@I@@$0A@@std@@@std@@QAE@XZ 1913bf20 f i c_clientcommander.obj
 0002:00014f50       ??1?$_Bidit@IHPBIABI@std@@QAE@XZ 1913bf50 f i c_clientcommander.obj
 0002:00014f80       ??1_Iterator_base@std@@QAE@XZ 1913bf80 f i c_clientcommander.obj
 0002:00015000       ?_Orphan_me@_Iterator_base@std@@QAEXXZ 1913c000 f i c_clientcommander.obj
 0002:000150a0       ?CanDoubleActivate@CClientCommander@@AAE_NXZ 1913c0a0 f   c_clientcommander.obj
 0002:00015120       ?GetTime@CHost@@QAEIXZ     1913c120 f i c_clientcommander.obj
 0002:00015140       ?CancelDoubleActivate@CClientCommander@@AAEXXZ 1913c140 f   c_clientcommander.obj
 0002:00015180       ?UpdateDoubleActivate@CClientCommander@@AAEXXZ 1913c180 f   c_clientcommander.obj
 0002:000151c0       ?ValidateSelections@CClientCommander@@QAEXXZ 1913c1c0 f   c_clientcommander.obj
 0002:00015820       ??1?$pair@Viterator@?$_Tree@V?$_Tset_traits@IU?$less@I@std@@V?$K2SetAllocator@I@@$0A@@std@@@std@@_N@std@@QAE@XZ 1913c820 f i c_clientcommander.obj
 0002:00015850       ?RefreshCursor@CUIManager@@QAEXXZ 1913c850 f i c_clientcommander.obj
 0002:00015870       ??4iterator@?$_Tree@V?$_Tset_traits@IU?$less@I@std@@V?$K2SetAllocator@I@@$0A@@std@@@std@@QAEAAV012@ABV012@@Z 1913c870 f i c_clientcommander.obj
 0002:000158a0       ??4const_iterator@?$_Tree@V?$_Tset_traits@IU?$less@I@std@@V?$K2SetAllocator@I@@$0A@@std@@@std@@QAEAAV012@ABV012@@Z 1913c8a0 f i c_clientcommander.obj
 0002:000158e0       ??4?$_Bidit@IHPBIABI@std@@QAEAAU01@ABU01@@Z 1913c8e0 f i c_clientcommander.obj
 0002:00015910       ??4_Iterator_base@std@@QAEAAV01@ABV01@@Z 1913c910 f i c_clientcommander.obj
 0002:000159c0       ?_Adopt@_Iterator_base@std@@QAEXPBV_Container_base@2@@Z 1913c9c0 f i c_clientcommander.obj
 0002:00015a90       ?Frame@CClientCommander@@QAEXXZ 1913ca90 f   c_clientcommander.obj
 0002:00017360       ?SetCommanderState@CClientCommander@@QAEXW4ECommanderState@@@Z 1913e360 f i c_clientcommander.obj
 0002:00017390       ?GetCommanderState@CClientCommander@@QBE?AW4ECommanderState@@XZ 1913e390 f i c_clientcommander.obj
 0002:000173b0       ?GetPingModifiersDown@CClientCommander@@QBE_NXZ 1913e3b0 f i c_clientcommander.obj
 0002:00017420       ?GetSelectedControlEntity@CClientCommander@@QAEPAVIUnitEntity@@XZ 1913e420 f i c_clientcommander.obj
 0002:00017460       ?SetCursorHidden@CGameInterfaceManager@@QAEX_N@Z 1913e460 f i c_clientcommander.obj
 0002:00017490       ?GetHoverWidget@CInterface@@QAEPAVIWidget@@XZ 1913e490 f i c_clientcommander.obj
 0002:000174c0       ??1?$_Iterator@$00@?$list@IV?$K2ListAllocator@I@@@std@@QAE@XZ 1913e4c0 f i c_clientcommander.obj
 0002:000174f0       ??0?$_Iterator@$00@?$list@IV?$K2ListAllocator@I@@@std@@QAE@ABV012@@Z 1913e4f0 f i c_clientcommander.obj
 0002:00017520       ??4?$_Iterator@$00@?$list@IV?$K2ListAllocator@I@@@std@@QAEAAV012@ABV012@@Z 1913e520 f i c_clientcommander.obj
 0002:00017550       ??1?$_Const_iterator@$00@?$list@IV?$K2ListAllocator@I@@@std@@QAE@XZ 1913e550 f i c_clientcommander.obj
 0002:00017580       ??0?$_Const_iterator@$00@?$list@IV?$K2ListAllocator@I@@@std@@QAE@ABV012@@Z 1913e580 f i c_clientcommander.obj
 0002:000175c0       ??4?$_Const_iterator@$00@?$list@IV?$K2ListAllocator@I@@@std@@QAEAAV012@ABV012@@Z 1913e5c0 f i c_clientcommander.obj
 0002:00017600       ?GetSelectionRect@CClientCommander@@AAE?AV?$CRect@M@@XZ 1913e600 f   c_clientcommander.obj
 0002:00017720       ?UpdateHoverSelection@CClientCommander@@AAEXXZ 1913e720 f   c_clientcommander.obj
 0002:00017e50       ??1?$set@PAVIUnitEntity@@U?$less@PAVIUnitEntity@@@std@@V?$K2SetAllocator@PAVIUnitEntity@@@@@@QAE@XZ 1913ee50 f i c_clientcommander.obj
 0002:00017e80       ??1?$pair@Viterator@?$_Tree@V?$_Tset_traits@PAVIUnitEntity@@U?$less@PAVIUnitEntity@@@std@@V?$K2SetAllocator@PAVIUnitEntity@@@@$0A@@std@@@std@@_N@std@@QAE@XZ 1913ee80 f i c_clientcommander.obj
 0002:00017eb0       ??1iterator@?$_Tree@V?$_Tset_traits@PAVIUnitEntity@@U?$less@PAVIUnitEntity@@@std@@V?$K2SetAllocator@PAVIUnitEntity@@@@$0A@@std@@@std@@QAE@XZ 1913eeb0 f i c_clientcommander.obj
 0002:00017ee0       ??1?$set@PAVIUnitEntity@@U?$less@PAVIUnitEntity@@@std@@V?$K2SetAllocator@PAVIUnitEntity@@@@@std@@QAE@XZ 1913eee0 f i c_clientcommander.obj
 0002:00017f10       ??1const_iterator@?$_Tree@V?$_Tset_traits@PAVIUnitEntity@@U?$less@PAVIUnitEntity@@@std@@V?$K2SetAllocator@PAVIUnitEntity@@@@$0A@@std@@@std@@QAE@XZ 1913ef10 f i c_clientcommander.obj
 0002:00017f40       ??1?$_Bidit@PAVIUnitEntity@@HPBQAV1@ABQAV1@@std@@QAE@XZ 1913ef40 f i c_clientcommander.obj
 0002:00017f70       ?Draw@CClientCommander@@QAEXXZ 1913ef70 f   c_clientcommander.obj
 0002:00018100       ?IsSelectionActive@CClientCommander@@AAE_NXZ 1913f100 f i c_clientcommander.obj
 0002:00018130       ?ProximitySearch@CClientCommander@@AAEXABV?$CVec3@M@@@Z 1913f130 f   c_clientcommander.obj
 0002:00018560       ??1?$vector@IV?$K2VectorAllocator@I@@@@QAE@XZ 1913f560 f i c_clientcommander.obj
 0002:00018590       ??1?$_Const_iterator@$00@?$list@PAVIUnitEntity@@V?$K2ListAllocator@PAVIUnitEntity@@@@@std@@QAE@XZ 1913f590 f i c_clientcommander.obj
 0002:000185c0       ?UpdateCursorTrace@CClientCommander@@AAEXABV?$CVec2@M@@II@Z 1913f5c0 f   c_clientcommander.obj
 0002:00018d60       ?M_PointOnLine@@YA?AV?$CVec3@M@@ABV1@0M@Z 1913fd60 f i c_clientcommander.obj
 0002:00018db0       ??0STraceInfo@@QAE@XZ      1913fdb0 f i c_clientcommander.obj
 0002:00018df0       ??0CPlane@@QAE@XZ          1913fdf0 f i c_clientcommander.obj
 0002:00018e20       ?PrimaryDown@CClientCommander@@QAEXABV?$CVec2@M@@@Z 1913fe20 f   c_clientcommander.obj
 0002:00019570       ?GetModifier1@CClientCommander@@QAE_NXZ 19140570 f i c_clientcommander.obj
 0002:00019590       ?GetFrontQueueModifier@CClientCommander@@QAE_NXZ 19140590 f i c_clientcommander.obj
 0002:000195b0       ??6@YAAAVIBuffer@@AAV0@H@Z 191405b0 f i c_clientcommander.obj
 0002:000195e0       ?WriteInt@IBuffer@@QAEXH@Z 191405e0 f i c_clientcommander.obj
 0002:00019620       ??6@YAAAVIBuffer@@AAV0@I@Z 19140620 f i c_clientcommander.obj
 0002:00019650       ?PrimaryUp@CClientCommander@@QAEXABV?$CVec2@M@@@Z 19140650 f   c_clientcommander.obj
 0002:00019940       ?SelectionContainsHeroes@CClientCommander@@ABE_NXZ 19140940 f   c_clientcommander.obj
 0002:00019a90       ?SecondaryDown@CClientCommander@@QAEXABV?$CVec2@M@@@Z 19140a90 f   c_clientcommander.obj
 0002:00019cc0       ?SecondaryUp@CClientCommander@@QAEXABV?$CVec2@M@@@Z 19140cc0 f   c_clientcommander.obj
 0002:00019cf0       ?Cancel@CClientCommander@@QAE_NABV?$CVec2@M@@@Z 19140cf0 f   c_clientcommander.obj
 0002:00019d80       ?StartSelect@CClientCommander@@AAEXABV?$CVec2@M@@@Z 19140d80 f   c_clientcommander.obj
 0002:00019e10       ?ApplySelect@CClientCommander@@AAEXABV?$CVec2@M@@@Z 19140e10 f   c_clientcommander.obj
 0002:0001a8c0       ?GetType@IGameEntity@@QBEGXZ 191418c0 f i c_clientcommander.obj
 0002:0001a8e0       ?IsType@IGameEntity@@QBE_NG@Z 191418e0 f i c_clientcommander.obj
 0002:0001a910       ?GiveOrder@CClientCommander@@QAEXW4ECommanderOrder@@IEI@Z 19141910 f   c_clientcommander.obj
 0002:0001aac0       ?GetModifier2@CClientCommander@@QAE_NXZ 19141ac0 f i c_clientcommander.obj
 0002:0001aae0       ?GetModifier4@CClientCommander@@QAE_NXZ 19141ae0 f i c_clientcommander.obj
 0002:0001ab00       ?GiveOrder@CClientCommander@@QAEXW4ECommanderOrder@@ABV?$CVec2@M@@EI@Z 19141b00 f   c_clientcommander.obj
 0002:0001aef0       ??6@YAAAVIBuffer@@AAV0@ABV?$CVec2@M@@@Z 19141ef0 f i c_clientcommander.obj
 0002:0001af40       ?WriteFloat@IBuffer@@QAEXM@Z 19141f40 f i c_clientcommander.obj
 0002:0001af80       ?SetSourcePosition@CGameEvent@@QAEXABV?$CVec3@M@@@Z 19141f80 f i c_clientcommander.obj
 0002:0001afd0       ?SetEffect@CGameEvent@@QAEXI@Z 19141fd0 f i c_clientcommander.obj
 0002:0001b010       ?GetEffect@CGameEvent@@QBEIXZ 19142010 f i c_clientcommander.obj
 0002:0001b030       ?StartCommand@CClientCommander@@QAEXABV?$CVec2@M@@EW4ECommanderOrder@@I@Z 19142030 f   c_clientcommander.obj
 0002:0001b1e0       ?ActivateTool@CClientCommander@@QAEXH_NPAVIUnitEntity@@0@Z 191421e0 f   c_clientcommander.obj
 0002:0001c260       ?ResetVoiceSequence@CClientCommander@@QAEXXZ 19143260 f i c_clientcommander.obj
 0002:0001c290       ?GetBaseBuildingIndex@CTeamInfo@@QBEIXZ 19143290 f i c_clientcommander.obj
 0002:0001c2c0       ?IsShopVisible@CGameInterfaceManager@@QBE_NXZ 191432c0 f i c_clientcommander.obj
 0002:0001c2f0       ??6CConsoleStream@@QAEAAV0@ABV?$basic_string@_WU?$char_traits@_W@std@@V?$K2StringAllocator@_W@@@std@@@Z 191432f0 f i c_clientcommander.obj
 0002:0001c320       ?AddOutputHistory@CConsoleStream@@AAEXABV?$basic_string@_WU?$char_traits@_W@std@@V?$K2StringAllocator@_W@@@std@@@Z 19143320 f i c_clientcommander.obj
 0002:0001c350       ?GetNewl@CConsole@@QBEABV?$basic_string@_WU?$char_traits@_W@std@@V?$K2StringAllocator@_W@@@std@@XZ 19143350 f i c_clientcommander.obj
 0002:0001c380       ??6CConsole@@QAEAAVCConsoleStream@@PB_W@Z 19143380 f i c_clientcommander.obj
 0002:0001c3b0       ??6CConsoleStream@@QAEAAV0@PB_W@Z 191433b0 f i c_clientcommander.obj
 0002:0001c440       ??1?$map@V?$basic_string@_WU?$char_traits@_W@std@@V?$K2StringAllocator@_W@@@std@@V12@U?$less@V?$basic_string@_WU?$char_traits@_W@std@@V?$K2StringAllocator@_W@@@std@@@2@V?$K2MapAllocator@U?$pair@$$CBV?$basic_string@_WU?$char_traits@_W@std@@V?$K2StringAllocator@_W@@@std@@V12@@std@@@@@@QAE@XZ 19143440 f i c_clientcommander.obj
 0002:0001c470       ??1?$map@V?$basic_string@_WU?$char_traits@_W@std@@V?$K2StringAllocator@_W@@@std@@V12@U?$less@V?$basic_string@_WU?$char_traits@_W@std@@V?$K2StringAllocator@_W@@@std@@@2@V?$K2MapAllocator@U?$pair@$$CBV?$basic_string@_WU?$char_traits@_W@std@@V?$K2StringAllocator@_W@@@std@@V12@@std@@@@@std@@QAE@XZ 19143470 f i c_clientcommander.obj
 0002:0001c4a0       ?HasFlag@IEntityTool@@QBE_NG@Z 191434a0 f i c_clientcommander.obj
 0002:0001c4e0       ?GetTypeName@IGameEntity@@QBEABV?$basic_string@_WU?$char_traits@_W@std@@V?$K2StringAllocator@_W@@@std@@XZ 191434e0 f i c_clientcommander.obj
 0002:0001c500       ?Cast@CClientCommander@@QAEXABV?$CVec2@M@@0_N@Z 19143500 f   c_clientcommander.obj
 0002:0001dbb0       ?XtoW@@YA?AV?$basic_string@_WU?$char_traits@_W@std@@V?$K2StringAllocator@_W@@@std@@MHHH@Z 19144bb0 f i c_clientcommander.obj
 0002:0001dc90       ?GetIndex@IGameEntity@@QBEIXZ 19144c90 f i c_clientcommander.obj
 0002:0001dcb0       ?DoubleActivate@CClientCommander@@QAEXXZ 19144cb0 f   c_clientcommander.obj
 0002:0001df80       ?Ping@CClientCommander@@QAEXXZ 19144f80 f   c_clientcommander.obj
 0002:0001e850       ?GetPingEnabled@CClientCommander@@QBE_NXZ 19145850 f i c_clientcommander.obj
 0002:0001e8d0       ?GetSelectedControlEntityIndex@CClientCommander@@QAEIXZ 191458d0 f   c_clientcommander.obj
 0002:0001e9b0       ?GetSelectedInfoEntityIndex@CClientCommander@@QAEIXZ 191459b0 f   c_clientcommander.obj
 0002:0001ea70       ?SelectEntity@CClientCommander@@QAEXI@Z 19145a70 f   c_clientcommander.obj
 0002:0001f480       ?SaveSelectionSet@CClientCommander@@QAEXI@Z 19146480 f   c_clientcommander.obj
 0002:0001f670       ??0SSelectionEntry@@QAE@II@Z 19146670 f i c_clientcommander.obj
 0002:0001f6b0       ??1?$pair@Viterator@?$_Tree@V?$_Tset_traits@USSelectionEntry@@U?$less@USSelectionEntry@@@std@@V?$K2SetAllocator@USSelectionEntry@@@@$0A@@std@@@std@@_N@std@@QAE@XZ 191466b0 f i c_clientcommander.obj
 0002:0001f6e0       ??1iterator@?$_Tree@V?$_Tset_traits@USSelectionEntry@@U?$less@USSelectionEntry@@@std@@V?$K2SetAllocator@USSelectionEntry@@@@$0A@@std@@@std@@QAE@XZ 191466e0 f i c_clientcommander.obj
 0002:0001f710       ??1const_iterator@?$_Tree@V?$_Tset_traits@USSelectionEntry@@U?$less@USSelectionEntry@@@std@@V?$K2SetAllocator@USSelectionEntry@@@@$0A@@std@@@std@@QAE@XZ 19146710 f i c_clientcommander.obj
 0002:0001f740       ??1?$_Bidit@USSelectionEntry@@HPBU1@ABU1@@std@@QAE@XZ 19146740 f i c_clientcommander.obj
 0002:0001f770       ?AddToSelectionSet@CClientCommander@@QAEXI@Z 19146770 f   c_clientcommander.obj
 0002:0001f930       ?RemoveFromSelectionSet@CClientCommander@@QAEXI@Z 19146930 f   c_clientcommander.obj
 0002:0001fb20       ?RecallSelectionSet@CClientCommander@@QAEXI@Z 19146b20 f   c_clientcommander.obj
 0002:0001ffb0       ?ReplaceUnitInSelectionSets@CClientCommander@@QAEIII@Z 19146fb0 f   c_clientcommander.obj
 0002:00020340       ??0iterator@?$_Tree@V?$_Tset_traits@USSelectionEntry@@U?$less@USSelectionEntry@@@std@@V?$K2SetAllocator@USSelectionEntry@@@@$0A@@std@@@std@@QAE@ABV012@@Z 19147340 f i c_clientcommander.obj
 0002:00020370       ??0const_iterator@?$_Tree@V?$_Tset_traits@USSelectionEntry@@U?$less@USSelectionEntry@@@std@@V?$K2SetAllocator@USSelectionEntry@@@@$0A@@std@@@std@@QAE@ABV012@@Z 19147370 f i c_clientcommander.obj
 0002:000203b0       ??0?$_Bidit@USSelectionEntry@@HPBU1@ABU1@@std@@QAE@ABU01@@Z 191473b0 f i c_clientcommander.obj
 0002:000203e0       ??0_Iterator_base@std@@QAE@ABV01@@Z 191473e0 f i c_clientcommander.obj
 0002:00020430       ?UpdateSelectedPlayerWaypoints@CClientCommander@@AAEXXZ 19147430 f   c_clientcommander.obj
 0002:00020630       ?GetCameraDistance@CClientCommander@@QBEMXZ 19147630 f   c_clientcommander.obj
 0002:00020670       ?NextUnit@CClientCommander@@QAEX_N@Z 19147670 f   c_clientcommander.obj
 0002:00020e50       ?GetSelectedInfoEntity@CClientCommander@@QAEPAVIUnitEntity@@XZ 19147e50 f i c_clientcommander.obj
 0002:00020e90       ?PrevUnit@CClientCommander@@QAEX_N@Z 19147e90 f   c_clientcommander.obj
 0002:00021690       ?NextInventoryUnit@CClientCommander@@QAEX_N@Z 19148690 f   c_clientcommander.obj
 0002:000218f0       ?PrevInventoryUnit@CClientCommander@@QAEX_N@Z 191488f0 f   c_clientcommander.obj
 0002:00021b80       ?SetControlUnit@CClientCommander@@QAEXH_N@Z 19148b80 f   c_clientcommander.obj
 0002:000221c0       ?DeselectUnit@CClientCommander@@QAEXH@Z 191491c0 f   c_clientcommander.obj
 0002:00022650       ?PlaySelectSound@CClientCommander@@AAEXI@Z 19149650 f   c_clientcommander.obj
 0002:000229a0       ?IsChannelAvailable@CSoundManager@@QAE_NH@Z 191499a0 f i c_clientcommander.obj
 0002:00022a20       ?GetNumSamples@CSample@@QBEIXZ 19149a20 f i c_clientcommander.obj
 0002:00022a50       ?GetSample@CSample@@QAEII@Z 19149a50 f i c_clientcommander.obj
 0002:00022a90       ?PrepareClientSnapshot@CClientCommander@@QAEXAAVCClientSnapshot@@@Z 19149a90 f   c_clientcommander.obj
 0002:00022c10       ?MinimapPrimaryClick@CClientCommander@@QAE_NABV?$CVec2@M@@@Z 19149c10 f   c_clientcommander.obj
 0002:00022f50       ?MinimapSecondaryClick@CClientCommander@@QAE_NABV?$CVec2@M@@@Z 19149f50 f   c_clientcommander.obj
 0002:000231e0       ?StartClickCmdPos@CClientCommander@@QAEXABV?$basic_string@_WU?$char_traits@_W@std@@V?$K2StringAllocator@_W@@@std@@@Z 1914a1e0 f   c_clientcommander.obj
 0002:00023220       ?PrintErrorMessage@CClientCommander@@QAEXABV?$basic_string@_WU?$char_traits@_W@std@@V?$K2StringAllocator@_W@@@std@@@Z 1914a220 f   c_clientcommander.obj
 0002:000232d0       ?SetDefaultActiveShop@CClientCommander@@QAEXXZ 1914a2d0 f   c_clientcommander.obj
 0002:00023440       ??1?$vector@V?$basic_string@_WU?$char_traits@_W@std@@V?$K2StringAllocator@_W@@@std@@V?$K2VectorAllocator@V?$basic_string@_WU?$char_traits@_W@std@@V?$K2StringAllocator@_W@@@std@@@@@@QAE@XZ 1914a440 f i c_clientcommander.obj
 0002:00023470       ?IsTargetingEntity@CClientCommander@@QBE_NXZ 1914a470 f   c_clientcommander.obj
 0002:000234d0       ?GetActiveUnits@CClientCommander@@QBE_NXZ 1914a4d0 f   c_clientcommander.obj
 0002:00023630       ?ForceResendGameplayOptions@CClientCommander@@QAEXXZ 1914a630 f   c_clientcommander.obj
 0002:00023660       ?TransmitGameplayOptions@CClientCommander@@QAEXXZ 1914a660 f   c_clientcommander.obj
 0002:000238b0       ?XtoW@@YA?AV?$basic_string@_WU?$char_traits@_W@std@@V?$K2StringAllocator@_W@@@std@@_N0@Z 1914a8b0 f i c_clientcommander.obj
 0002:00023950       ?IsReplay@CHost@@QBE_NXZ   1914a950 f i c_clientcommander.obj
 0002:00023970       ??6@YAAAVIBuffer@@AAV0@ABV?$basic_string@DU?$char_traits@D@std@@V?$K2StringAllocator@D@@@std@@@Z 1914a970 f i c_clientcommander.obj
 0002:000239b0       ?OnPetAdded@CClientCommander@@QAEXI@Z 1914a9b0 f   c_clientcommander.obj
 0002:00023a10       ?front@?$vector@V?$basic_string@_WU?$char_traits@_W@std@@V?$K2StringAllocator@_W@@@std@@V?$K2VectorAllocator@V?$basic_string@_WU?$char_traits@_W@std@@V?$K2StringAllocator@_W@@@std@@@@@std@@QAEAAV?$basic_string@_WU?$char_traits@_W@std@@V?$K2StringAllocator@_W@@@2@XZ 1914aa10 f i c_clientcommander.obj
 0002:00023ab0       ??1?$_Vector_iterator@V?$basic_string@_WU?$char_traits@_W@std@@V?$K2StringAllocator@_W@@@std@@V?$K2VectorAllocator@V?$basic_string@_WU?$char_traits@_W@std@@V?$K2StringAllocator@_W@@@std@@@@@std@@QAE@XZ 1914aab0 f i c_clientcommander.obj
 0002:00023ae0       ??1?$_Vector_const_iterator@V?$basic_string@_WU?$char_traits@_W@std@@V?$K2StringAllocator@_W@@@std@@V?$K2VectorAllocator@V?$basic_string@_WU?$char_traits@_W@std@@V?$K2StringAllocator@_W@@@std@@@@@std@@QAE@XZ 1914aae0 f i c_clientcommander.obj
 0002:00023b10       ??1?$_Ranit@V?$basic_string@_WU?$char_traits@_W@std@@V?$K2StringAllocator@_W@@@std@@HPBV12@ABV12@@std@@QAE@XZ 1914ab10 f i c_clientcommander.obj
 0002:00023b40       ??0?$list@IV?$K2ListAllocator@I@@@@QAE@XZ 1914ab40 f i c_clientcommander.obj
 0002:00023b70       ??1?$list@IV?$K2ListAllocator@I@@@std@@QAE@XZ 1914ab70 f i c_clientcommander.obj
 0002:00023bf0       ?begin@?$list@IV?$K2ListAllocator@I@@@std@@QAE?AV?$_Iterator@$00@12@XZ 1914abf0 f i c_clientcommander.obj
 0002:00023c50       ?end@?$list@IV?$K2ListAllocator@I@@@std@@QAE?AV?$_Iterator@$00@12@XZ 1914ac50 f i c_clientcommander.obj
 0002:00023ca0       ?push_back@?$list@IV?$K2ListAllocator@I@@@std@@QAEXABI@Z 1914aca0 f i c_clientcommander.obj
 0002:00023cf0       ?erase@?$list@IV?$K2ListAllocator@I@@@std@@QAE?AV?$_Iterator@$00@12@V312@@Z 1914acf0 f i c_clientcommander.obj
 0002:00023ec0       ??0?$set@IU?$less@I@std@@V?$K2SetAllocator@I@@@@QAE@XZ 1914aec0 f i c_clientcommander.obj
 0002:00023ef0       ??1?$_Tree@V?$_Tset_traits@IU?$less@I@std@@V?$K2SetAllocator@I@@$0A@@std@@@std@@QAE@XZ 1914aef0 f i c_clientcommander.obj
 0002:00023f70       ?begin@?$_Tree@V?$_Tset_traits@IU?$less@I@std@@V?$K2SetAllocator@I@@$0A@@std@@@std@@QBE?AVconst_iterator@12@XZ 1914af70 f i c_clientcommander.obj
 0002:00023fc0       ?end@?$_Tree@V?$_Tset_traits@IU?$less@I@std@@V?$K2SetAllocator@I@@$0A@@std@@@std@@QBE?AVconst_iterator@12@XZ 1914afc0 f i c_clientcommander.obj
 0002:00024010       ?empty@?$_Tree@V?$_Tset_traits@IU?$less@I@std@@V?$K2SetAllocator@I@@$0A@@std@@@std@@QBE_NXZ 1914b010 f i c_clientcommander.obj
 0002:00024040       ?find@?$_Tree@V?$_Tset_traits@IU?$less@I@std@@V?$K2SetAllocator@I@@$0A@@std@@@std@@QAE?AViterator@12@ABI@Z 1914b040 f i c_clientcommander.obj
 0002:00024220       ?GetCurrentGamePointer@IGame@@SAPAV1@XZ 1914b220 f i c_clientcommander.obj
 0002:00024240       ?GetGameTime@IGame@@QBEIXZ 1914b240 f i c_clientcommander.obj
 0002:00024260       ?HasFlags@IGame@@QBE_NE@Z  1914b260 f i c_clientcommander.obj
 0002:000242b0       ?HasFlags@CGameInfo@@QBE_NE@Z 1914b2b0 f i c_clientcommander.obj
 0002:000242f0       ??1?$CRect@M@@QAE@XZ       1914b2f0 f i c_clientcommander.obj
 0002:00024310       ??0?$CRect@M@@QAE@V?$CVec2@M@@0@Z 1914b310 f i c_clientcommander.obj
 0002:00024370       ?GetWidth@?$CRect@M@@QBEMXZ 1914b370 f i c_clientcommander.obj
 0002:000243a0       ?GetHeight@?$CRect@M@@QBEMXZ 1914b3a0 f i c_clientcommander.obj
 0002:000243d0       ?begin@?$list@PAVIUnitEntity@@V?$K2ListAllocator@PAVIUnitEntity@@@@@std@@QBE?AV?$_Const_iterator@$00@12@XZ 1914b3d0 f i c_clientcommander.obj
 0002:00024430       ?end@?$list@PAVIUnitEntity@@V?$K2ListAllocator@PAVIUnitEntity@@@@@std@@QBE?AV?$_Const_iterator@$00@12@XZ 1914b430 f i c_clientcommander.obj
 0002:00024480       ??Diterator@?$_Tree@V?$_Tset_traits@IU?$less@I@std@@V?$K2SetAllocator@I@@$0A@@std@@@std@@QBEAAIXZ 1914b480 f i c_clientcommander.obj
 0002:000244b0       ??Dconst_iterator@?$_Tree@V?$_Tset_traits@IU?$less@I@std@@V?$K2SetAllocator@I@@$0A@@std@@@std@@QBEABIXZ 1914b4b0 f i c_clientcommander.obj
 0002:00024570       ?GetWorldWidth@IGame@@QBEMXZ 1914b570 f i c_clientcommander.obj
 0002:000245a0       ?GetWorldWidth@CWorld@@QBEMXZ 1914b5a0 f i c_clientcommander.obj
 0002:000245e0       ??E?$_Vector_iterator@IV?$K2VectorAllocator@I@@@std@@QAEAAV01@XZ 1914b5e0 f i c_clientcommander.obj
 0002:00024610       ?GetWorldHeight@IGame@@QBEMXZ 1914b610 f i c_clientcommander.obj
 0002:00024640       ?GetWorldHeight@CWorld@@QBEMXZ 1914b640 f i c_clientcommander.obj
 0002:00024680       ?GetWorldEntityList@IGame@@QAEAAV?$vector@IV?$K2VectorAllocator@I@@@@XZ 1914b680 f i c_clientcommander.obj
 0002:000246b0       ?GetEntityList@CWorld@@QBEAAV?$vector@IV?$K2VectorAllocator@I@@@@XZ 1914b6b0 f i c_clientcommander.obj
 0002:000246e0       ??0?$set@USSelectionEntry@@U?$less@USSelectionEntry@@@std@@V?$K2SetAllocator@USSelectionEntry@@@@@@QAE@XZ 1914b6e0 f i c_clientcommander.obj
 0002:00024710       ??1?$_Tree@V?$_Tset_traits@USSelectionEntry@@U?$less@USSelectionEntry@@@std@@V?$K2SetAllocator@USSelectionEntry@@@@$0A@@std@@@std@@QAE@XZ 1914b710 f i c_clientcommander.obj
 0002:00024790       ?begin@?$_Tree@V?$_Tset_traits@USSelectionEntry@@U?$less@USSelectionEntry@@@std@@V?$K2SetAllocator@USSelectionEntry@@@@$0A@@std@@@std@@QAE?AViterator@12@XZ 1914b790 f i c_clientcommander.obj
 0002:000247e0       ?end@?$_Tree@V?$_Tset_traits@USSelectionEntry@@U?$less@USSelectionEntry@@@std@@V?$K2SetAllocator@USSelectionEntry@@@@$0A@@std@@@std@@QAE?AViterator@12@XZ 1914b7e0 f i c_clientcommander.obj
 0002:00024830       ?empty@?$_Tree@V?$_Tset_traits@USSelectionEntry@@U?$less@USSelectionEntry@@@std@@V?$K2SetAllocator@USSelectionEntry@@@@$0A@@std@@@std@@QBE_NXZ 1914b830 f i c_clientcommander.obj
 0002:00024860       ?insert@?$_Tree@V?$_Tset_traits@USSelectionEntry@@U?$less@USSelectionEntry@@@std@@V?$K2SetAllocator@USSelectionEntry@@@@$0A@@std@@@std@@QAE?AU?$pair@Viterator@?$_Tree@V?$_Tset_traits@USSelectionEntry@@U?$less@USSelectionEntry@@@std@@V?$K2SetAllocator@USSelectionEntry@@@@$0A@@std@@@std@@_N@2@ABUSSelectionEntry@@@Z 1914b860 f i c_clientcommander.obj
 0002:00024c80       ?GetTerrainPosition@IGame@@QAE?AV?$CVec3@M@@ABV?$CVec2@M@@@Z 1914bc80 f i c_clientcommander.obj
 0002:00024cf0       ?IsInBounds@IGame@@QAE_NMM@Z 1914bcf0 f i c_clientcommander.obj
 0002:00024d30       ?IsInGameBounds@CWorld@@QBE_NMM@Z 1914bd30 f i c_clientcommander.obj
 0002:00024dc0       ?erase@?$_Tree@V?$_Tset_traits@USSelectionEntry@@U?$less@USSelectionEntry@@@std@@V?$K2SetAllocator@USSelectionEntry@@@@$0A@@std@@@std@@QAE?AViterator@12@V312@@Z 1914bdc0 f i c_clientcommander.obj
 0002:000257a0       ?GetEntitiesInRadius@IGame@@QAEXAAV?$vector@IV?$K2VectorAllocator@I@@@@ABV?$CVec2@M@@MI@Z 1914c7a0 f i c_clientcommander.obj
 0002:000257e0       ?GetEntitiesInRadius@CWorld@@QAEXAAV?$vector@IV?$K2VectorAllocator@I@@@@ABV?$CVec2@M@@MI@Z 1914c7e0 f i c_clientcommander.obj
 0002:00025830       ?GetTeam@IGame@@QBEPAVCTeamInfo@@I@Z 1914c830 f i c_clientcommander.obj
 0002:00025940       ?erase@?$_Tree@V?$_Tset_traits@USSelectionEntry@@U?$less@USSelectionEntry@@@std@@V?$K2SetAllocator@USSelectionEntry@@@@$0A@@std@@@std@@QAEIABUSSelectionEntry@@@Z 1914c940 f i c_clientcommander.obj
 0002:00025ac0       ?clear@?$_Tree@V?$_Tset_traits@USSelectionEntry@@U?$less@USSelectionEntry@@@std@@V?$K2SetAllocator@USSelectionEntry@@@@$0A@@std@@@std@@QAEXXZ 1914cac0 f i c_clientcommander.obj
 0002:00025b50       ?GetEntity@IGame@@QAEPAVIGameEntity@@I@Z 1914cb50 f i c_clientcommander.obj
 0002:00025b90       ?GetUnitEntity@IGame@@QAEPAVIUnitEntity@@I@Z 1914cb90 f i c_clientcommander.obj
 0002:00025bf0       ?GetEntityFromWorldIndex@IGame@@QAEPAVIVisualEntity@@I@Z 1914cbf0 f i c_clientcommander.obj
 0002:00025c50       ?GetGameIndex@CWorldEntity@@QBEIXZ 1914cc50 f i c_clientcommander.obj
 0002:00025c70       ?GetWorldEntity@IGame@@QAEPAVCWorldEntity@@I_N@Z 1914cc70 f i c_clientcommander.obj
 0002:00025cc0       ?GetEntity@CWorld@@QBEPAVCWorldEntity@@I_N@Z 1914ccc0 f i c_clientcommander.obj
 0002:00025d00       ?GetVisualEntity@IGame@@QAEPAVIVisualEntity@@I@Z 1914cd00 f i c_clientcommander.obj
 0002:00025d60       ?GetGameIndexFromWorldIndex@IGame@@QAEII@Z 1914cd60 f i c_clientcommander.obj
 0002:00025db0       ?GetFirstEntity@IGame@@QAEPAVIGameEntity@@XZ 1914cdb0 f i c_clientcommander.obj
 0002:00025df0       ?GetNextEntity@IGame@@QAEPAVIGameEntity@@PAV2@@Z 1914cdf0 f i c_clientcommander.obj
 0002:00025e30       ?GetUnitList@IGame@@QAEABV?$list@PAVIUnitEntity@@V?$K2ListAllocator@PAVIUnitEntity@@@@@@XZ 1914ce30 f i c_clientcommander.obj
 0002:00025e70       ?AddEvent@IGame@@QAEIABVCGameEvent@@@Z 1914ce70 f i c_clientcommander.obj
 0002:00025ea0       ?DeleteEvent@IGame@@QAEXI@Z 1914cea0 f i c_clientcommander.obj
 0002:00025ed0       ??1const_iterator@?$_Tree@V?$_Tmap_traits@IPAVCTeamInfo@@U?$less@I@std@@V?$K2MapAllocator@U?$pair@$$CBIPAVCTeamInfo@@@std@@@@$0A@@std@@@std@@QAE@XZ 1914ced0 f i c_clientcommander.obj
 0002:00025f00       ??1?$_Bidit@U?$pair@$$CBIPAVCTeamInfo@@@std@@HPBU12@ABU12@@std@@QAE@XZ 1914cf00 f i c_clientcommander.obj
 0002:00025f30       ??D?$_Iterator@$00@?$list@IV?$K2ListAllocator@I@@@std@@QBEAAIXZ 1914cf30 f i c_clientcommander.obj
 0002:00025f60       ??E?$_Iterator@$00@?$list@IV?$K2ListAllocator@I@@@std@@QAEAAV012@XZ 1914cf60 f i c_clientcommander.obj
 0002:00025f90       ??9?$_Const_iterator@$00@?$list@IV?$K2ListAllocator@I@@@std@@QBE_NABV012@@Z 1914cf90 f i c_clientcommander.obj
 0002:00025fd0       ??0?$set@PAVIUnitEntity@@U?$less@PAVIUnitEntity@@@std@@V?$K2SetAllocator@PAVIUnitEntity@@@@@@QAE@XZ 1914cfd0 f i c_clientcommander.obj
 0002:00026000       ??1?$_Tree@V?$_Tset_traits@PAVIUnitEntity@@U?$less@PAVIUnitEntity@@@std@@V?$K2SetAllocator@PAVIUnitEntity@@@@$0A@@std@@@std@@QAE@XZ 1914d000 f i c_clientcommander.obj
 0002:00026080       ?begin@?$_Tree@V?$_Tset_traits@PAVIUnitEntity@@U?$less@PAVIUnitEntity@@@std@@V?$K2SetAllocator@PAVIUnitEntity@@@@$0A@@std@@@std@@QAE?AViterator@12@XZ 1914d080 f i c_clientcommander.obj
 0002:000260d0       ?end@?$_Tree@V?$_Tset_traits@PAVIUnitEntity@@U?$less@PAVIUnitEntity@@@std@@V?$K2SetAllocator@PAVIUnitEntity@@@@$0A@@std@@@std@@QAE?AViterator@12@XZ 1914d0d0 f i c_clientcommander.obj
 0002:00026120       ?insert@?$_Tree@V?$_Tset_traits@PAVIUnitEntity@@U?$less@PAVIUnitEntity@@@std@@V?$K2SetAllocator@PAVIUnitEntity@@@@$0A@@std@@@std@@QAE?AU?$pair@Viterator@?$_Tree@V?$_Tset_traits@PAVIUnitEntity@@U?$less@PAVIUnitEntity@@@std@@V?$K2SetAllocator@PAVIUnitEntity@@@@$0A@@std@@@std@@_N@2@ABQAVIUnitEntity@@@Z 1914d120 f i c_clientcommander.obj
 0002:00026540       ??Diterator@?$_Tree@V?$_Tset_traits@PAVIUnitEntity@@U?$less@PAVIUnitEntity@@@std@@V?$K2SetAllocator@PAVIUnitEntity@@@@$0A@@std@@@std@@QBEAAPAVIUnitEntity@@XZ 1914d540 f i c_clientcommander.obj
 0002:00026570       ??Eiterator@?$_Tree@V?$_Tset_traits@PAVIUnitEntity@@U?$less@PAVIUnitEntity@@@std@@V?$K2SetAllocator@PAVIUnitEntity@@@@$0A@@std@@@std@@QAEAAV012@XZ 1914d570 f i c_clientcommander.obj
 0002:000265a0       ??9const_iterator@?$_Tree@V?$_Tset_traits@PAVIUnitEntity@@U?$less@PAVIUnitEntity@@@std@@V?$K2SetAllocator@PAVIUnitEntity@@@@$0A@@std@@@std@@QBE_NABV012@@Z 1914d5a0 f i c_clientcommander.obj
 0002:000265e0       ??D?$_Const_iterator@$00@?$list@PAVIUnitEntity@@V?$K2ListAllocator@PAVIUnitEntity@@@@@std@@QBEABQAVIUnitEntity@@XZ 1914d5e0 f i c_clientcommander.obj
 0002:000266b0       ??E?$_Const_iterator@$00@?$list@PAVIUnitEntity@@V?$K2ListAllocator@PAVIUnitEntity@@@@@std@@QAEAAV012@XZ 1914d6b0 f i c_clientcommander.obj
 0002:00026790       ??9?$_Const_iterator@$00@?$list@PAVIUnitEntity@@V?$K2ListAllocator@PAVIUnitEntity@@@@@std@@QBE_NABV012@@Z 1914d790 f i c_clientcommander.obj
 0002:000267d0       ??0?$CBufferFixed@$08@@QAE@XZ 1914d7d0 f i c_clientcommander.obj
 0002:00026880       ?WriteBytes@IBuffer@@UAE_NEI@Z 1914d880 f i c_clientcommander.obj
 0002:000268a0       ??1?$CBufferFixed@$08@@UAE@XZ 1914d8a0 f i c_clientcommander.obj
 0002:000268e0       ??0?$CBufferFixed@$0BA@@@QAE@XZ 1914d8e0 f i c_clientcommander.obj
 0002:00026990       ??1?$CBufferFixed@$0BA@@@UAE@XZ 1914d990 f i c_clientcommander.obj
 0002:000269d0       ??0?$CBufferFixed@$0BE@@@QAE@XZ 1914d9d0 f i c_clientcommander.obj
 0002:00026a80       ??1?$CBufferFixed@$0BE@@@UAE@XZ 1914da80 f i c_clientcommander.obj
 0002:00026ac0       ??0?$CBufferFixed@$06@@QAE@XZ 1914dac0 f i c_clientcommander.obj
 0002:00026b70       ??1?$CBufferFixed@$06@@UAE@XZ 1914db70 f i c_clientcommander.obj
 0002:00026bb0       ??0?$CBufferFixed@$0M@@@QAE@XZ 1914dbb0 f i c_clientcommander.obj
 0002:00026c60       ??1?$CBufferFixed@$0M@@@UAE@XZ 1914dc60 f i c_clientcommander.obj
 0002:00026ca0       ??0?$CBufferFixed@$0BI@@@QAE@XZ 1914dca0 f i c_clientcommander.obj
 0002:00026d50       ??1?$CBufferFixed@$0BI@@@UAE@XZ 1914dd50 f i c_clientcommander.obj
 0002:00026d90       ??0?$CBufferFixed@$04@@QAE@XZ 1914dd90 f i c_clientcommander.obj
 0002:00026e40       ??1?$CBufferFixed@$04@@UAE@XZ 1914de40 f i c_clientcommander.obj
 0002:00026e80       ??0?$CBufferFixed@$02@@QAE@XZ 1914de80 f i c_clientcommander.obj
 0002:00026f30       ??1?$CBufferFixed@$02@@UAE@XZ 1914df30 f i c_clientcommander.obj
 0002:00026f70       ??0?$CBufferFixed@$0L@@@QAE@XZ 1914df70 f i c_clientcommander.obj
 0002:00027020       ??1?$CBufferFixed@$0L@@@UAE@XZ 1914e020 f i c_clientcommander.obj
 0002:00027060       ??Diterator@?$_Tree@V?$_Tset_traits@USSelectionEntry@@U?$less@USSelectionEntry@@@std@@V?$K2SetAllocator@USSelectionEntry@@@@$0A@@std@@@std@@QBEAAUSSelectionEntry@@XZ 1914e060 f i c_clientcommander.obj
 0002:00027090       ??Eiterator@?$_Tree@V?$_Tset_traits@USSelectionEntry@@U?$less@USSelectionEntry@@@std@@V?$K2SetAllocator@USSelectionEntry@@@@$0A@@std@@@std@@QAEAAV012@XZ 1914e090 f i c_clientcommander.obj
 0002:000270c0       ??9const_iterator@?$_Tree@V?$_Tset_traits@USSelectionEntry@@U?$less@USSelectionEntry@@@std@@V?$K2SetAllocator@USSelectionEntry@@@@$0A@@std@@@std@@QBE_NABV012@@Z 1914e0c0 f i c_clientcommander.obj
 0002:00027100       ??1?$_List_val@IV?$K2ListAllocator@I@@@std@@QAE@XZ 1914e100 f i c_clientcommander.obj
 0002:00027180       ??1?$_Tree_val@V?$_Tset_traits@IU?$less@I@std@@V?$K2SetAllocator@I@@$0A@@std@@@std@@QAE@XZ 1914e180 f i c_clientcommander.obj
 0002:00027200       ??1?$_Tree_val@V?$_Tset_traits@USSelectionEntry@@U?$less@USSelectionEntry@@@std@@V?$K2SetAllocator@USSelectionEntry@@@@$0A@@std@@@std@@QAE@XZ 1914e200 f i c_clientcommander.obj
 0002:00027280       ??1?$pair@Viterator@?$_Tree@V?$_Tset_traits@USSelectionEntry@@U?$less@USSelectionEntry@@@std@@V?$K2SetAllocator@USSelectionEntry@@@@$0A@@std@@@std@@V123@@std@@QAE@XZ 1914e280 f i c_clientcommander.obj
 0002:00027300       ??1?$_Tree_val@V?$_Tset_traits@PAVIUnitEntity@@U?$less@PAVIUnitEntity@@@std@@V?$K2SetAllocator@PAVIUnitEntity@@@@$0A@@std@@@std@@QAE@XZ 1914e300 f i c_clientcommander.obj
 0002:00027380       ??_E?$CBufferFixed@$08@@UAEPAXI@Z 1914e380 f i c_clientcommander.obj
 0002:00027380       ??_G?$CBufferFixed@$08@@UAEPAXI@Z 1914e380 f i c_clientcommander.obj
 0002:000273d0       ??_E?$CBufferFixed@$0BA@@@UAEPAXI@Z 1914e3d0 f i c_clientcommander.obj
 0002:000273d0       ??_G?$CBufferFixed@$0BA@@@UAEPAXI@Z 1914e3d0 f i c_clientcommander.obj
 0002:00027420       ??_G?$CBufferFixed@$0BE@@@UAEPAXI@Z 1914e420 f i c_clientcommander.obj
 0002:00027420       ??_E?$CBufferFixed@$0BE@@@UAEPAXI@Z 1914e420 f i c_clientcommander.obj
 0002:00027470       ??_G?$CBufferFixed@$06@@UAEPAXI@Z 1914e470 f i c_clientcommander.obj
 0002:00027470       ??_E?$CBufferFixed@$06@@UAEPAXI@Z 1914e470 f i c_clientcommander.obj
 0002:000274c0       ??_G?$CBufferFixed@$0M@@@UAEPAXI@Z 1914e4c0 f i c_clientcommander.obj
 0002:000274c0       ??_E?$CBufferFixed@$0M@@@UAEPAXI@Z 1914e4c0 f i c_clientcommander.obj
 0002:00027510       ??_E?$CBufferFixed@$0BI@@@UAEPAXI@Z 1914e510 f i c_clientcommander.obj
 0002:00027510       ??_G?$CBufferFixed@$0BI@@@UAEPAXI@Z 1914e510 f i c_clientcommander.obj
 0002:00027560       ??_E?$CBufferFixed@$04@@UAEPAXI@Z 1914e560 f i c_clientcommander.obj
 0002:00027560       ??_G?$CBufferFixed@$04@@UAEPAXI@Z 1914e560 f i c_clientcommander.obj
 0002:000275b0       ??_G?$CBufferFixed@$02@@UAEPAXI@Z 1914e5b0 f i c_clientcommander.obj
 0002:000275b0       ??_E?$CBufferFixed@$02@@UAEPAXI@Z 1914e5b0 f i c_clientcommander.obj
 0002:00027600       ??_G?$CBufferFixed@$0L@@@UAEPAXI@Z 1914e600 f i c_clientcommander.obj
 0002:00027600       ??_E?$CBufferFixed@$0L@@@UAEPAXI@Z 1914e600 f i c_clientcommander.obj
 0002:00027650       ??1?$_List_ptr@IV?$K2ListAllocator@I@@@std@@QAE@XZ 1914e650 f i c_clientcommander.obj
 0002:000276d0       ??1?$_Tree_ptr@V?$_Tset_traits@IU?$less@I@std@@V?$K2SetAllocator@I@@$0A@@std@@@std@@QAE@XZ 1914e6d0 f i c_clientcommander.obj
 0002:00027750       ??1?$_Tree_ptr@V?$_Tset_traits@USSelectionEntry@@U?$less@USSelectionEntry@@@std@@V?$K2SetAllocator@USSelectionEntry@@@@$0A@@std@@@std@@QAE@XZ 1914e750 f i c_clientcommander.obj
 0002:000277d0       ??1?$_Tree_ptr@V?$_Tset_traits@PAVIUnitEntity@@U?$less@PAVIUnitEntity@@@std@@V?$K2SetAllocator@PAVIUnitEntity@@@@$0A@@std@@@std@@QAE@XZ 1914e7d0 f i c_clientcommander.obj
 0002:00027850       ?GetXY@CCamera@@QBE?AV?$CVec2@M@@XZ 1914e850 f i c_clientcommander.obj
 0002:000278a0       ??1?$_List_nod@IV?$K2ListAllocator@I@@@std@@QAE@XZ 1914e8a0 f i c_clientcommander.obj
 0002:00027920       ?GetX@CCamera@@QBEMXZ      1914e920 f i c_clientcommander.obj
 0002:00027940       ?GetY@CCamera@@QBEMXZ      1914e940 f i c_clientcommander.obj
 0002:00027960       ??1?$_Tree_nod@V?$_Tset_traits@IU?$less@I@std@@V?$K2SetAllocator@I@@$0A@@std@@@std@@QAE@XZ 1914e960 f i c_clientcommander.obj
 0002:000279e0       ??1?$_Tree_nod@V?$_Tset_traits@USSelectionEntry@@U?$less@USSelectionEntry@@@std@@V?$K2SetAllocator@USSelectionEntry@@@@$0A@@std@@@std@@QAE@XZ 1914e9e0 f i c_clientcommander.obj
 0002:00027a60       ?GetOrigin@CCamera@@QBEABV?$CVec3@M@@XZ 1914ea60 f i c_clientcommander.obj
 0002:00027a80       ??1?$_Tree_nod@V?$_Tset_traits@PAVIUnitEntity@@U?$less@PAVIUnitEntity@@@std@@V?$K2SetAllocator@PAVIUnitEntity@@@@$0A@@std@@@std@@QAE@XZ 1914ea80 f i c_clientcommander.obj
 0002:00027b00       ??1?$_Tset_traits@IU?$less@I@std@@V?$K2SetAllocator@I@@$0A@@std@@QAE@XZ 1914eb00 f i c_clientcommander.obj
 0002:00027b30       ?ConstructRay@CCamera@@QBE?AV?$CVec3@M@@ABV?$CVec2@M@@@Z 1914eb30 f i c_clientcommander.obj
 0002:00027b80       ??1?$_Tset_traits@USSelectionEntry@@U?$less@USSelectionEntry@@@std@@V?$K2SetAllocator@USSelectionEntry@@@@$0A@@std@@QAE@XZ 1914eb80 f i c_clientcommander.obj
 0002:00027bb0       ??1?$_Tset_traits@PAVIUnitEntity@@U?$less@PAVIUnitEntity@@@std@@V?$K2SetAllocator@PAVIUnitEntity@@@@$0A@@std@@QAE@XZ 1914ebb0 f i c_clientcommander.obj
 0002:00027be0       ?_Nextnode@?$list@IV?$K2ListAllocator@I@@@std@@KAAAPAU_Node@?$_List_nod@IV?$K2ListAllocator@I@@@2@PAU342@@Z 1914ebe0 f i c_clientcommander.obj
 0002:00027c00       ?_Prevnode@?$list@IV?$K2ListAllocator@I@@@std@@KAAAPAU_Node@?$_List_nod@IV?$K2ListAllocator@I@@@2@PAU342@@Z 1914ec00 f i c_clientcommander.obj
 0002:00027c20       ??0?$list@IV?$K2ListAllocator@I@@@std@@QAE@XZ 1914ec20 f i c_clientcommander.obj
 0002:00027cc0       ?_Insert@?$list@IV?$K2ListAllocator@I@@@std@@QAEXV?$_Iterator@$00@12@ABI@Z 1914ecc0 f i c_clientcommander.obj
 0002:00027dd0       ?_Tidy@?$list@IV?$K2ListAllocator@I@@@std@@IAEXXZ 1914edd0 f i c_clientcommander.obj
 0002:00027e60       ?_Orphan_ptr@?$list@IV?$K2ListAllocator@I@@@std@@IBEXAAV12@PAU_Node@?$_List_nod@IV?$K2ListAllocator@I@@@2@@Z 1914ee60 f i c_clientcommander.obj
 0002:00027f10       ??1?$K2ListAllocator@I@@QAE@XZ 1914ef10 f i c_clientcommander.obj
 0002:00027f30       ??1?$K2ListAllocator@U_Node@?$_List_nod@IV?$K2ListAllocator@I@@@std@@@@QAE@XZ 1914ef30 f i c_clientcommander.obj
 0002:00027f50       ?deallocate@?$K2ListAllocator@U_Node@?$_List_nod@IV?$K2ListAllocator@I@@@std@@@@QAEXPAU_Node@?$_List_nod@IV?$K2ListAllocator@I@@@std@@I@Z 1914ef50 f i c_clientcommander.obj
 0002:00027f90       ?destroy@?$allocator@U_Node@?$_List_nod@IV?$K2ListAllocator@I@@@std@@@std@@QAEXPAU_Node@?$_List_nod@IV?$K2ListAllocator@I@@@2@@Z 1914ef90 f i c_clientcommander.obj
 0002:00027fc0       ??1?$K2ListAllocator@PAU_Node@?$_List_nod@IV?$K2ListAllocator@I@@@std@@@@QAE@XZ 1914efc0 f i c_clientcommander.obj
 0002:00027fe0       ??0?$set@IU?$less@I@std@@V?$K2SetAllocator@I@@@std@@QAE@XZ 1914efe0 f i c_clientcommander.obj
 0002:00028080       ?_Tidy@?$_Tree@V?$_Tset_traits@IU?$less@I@std@@V?$K2SetAllocator@I@@$0A@@std@@@std@@IAEXXZ 1914f080 f i c_clientcommander.obj
 0002:000281d0       ??1?$K2SetAllocator@I@@QAE@XZ 1914f1d0 f i c_clientcommander.obj
 0002:000281f0       ??1?$K2SetAllocator@U_Node@?$_Tree_nod@V?$_Tset_traits@IU?$less@I@std@@V?$K2SetAllocator@I@@$0A@@std@@@std@@@@QAE@XZ 1914f1f0 f i c_clientcommander.obj
 0002:00028210       ??1?$K2SetAllocator@PAU_Node@?$_Tree_nod@V?$_Tset_traits@IU?$less@I@std@@V?$K2SetAllocator@I@@$0A@@std@@@std@@@@QAE@XZ 1914f210 f i c_clientcommander.obj
 0002:00028230       ?_Nextnode@?$list@PAVIUnitEntity@@V?$K2ListAllocator@PAVIUnitEntity@@@@@std@@KAAAPAU_Node@?$_List_nod@PAVIUnitEntity@@V?$K2ListAllocator@PAVIUnitEntity@@@@@2@PAU342@@Z 1914f230 f i c_clientcommander.obj
 0002:00028250       ?_Myval@?$list@PAVIUnitEntity@@V?$K2ListAllocator@PAVIUnitEntity@@@@@std@@KAAAPAVIUnitEntity@@PAU_Node@?$_List_nod@PAVIUnitEntity@@V?$K2ListAllocator@PAVIUnitEntity@@@@@2@@Z 1914f250 f i c_clientcommander.obj
 0002:00028270       ??E?$_Vector_const_iterator@IV?$K2VectorAllocator@I@@@std@@QAEAAV01@XZ 1914f270 f i c_clientcommander.obj
 0002:00028360       ?GetHero@CPlayer@@QBEPAVIHeroEntity@@XZ 1914f360 f i c_clientcommander.obj
 0002:000283a0       ?GetHeroEntity@IGame@@QAEPAVIHeroEntity@@I@Z 1914f3a0 f i c_clientcommander.obj
 0002:00028400       ?GetHeroIndex@CPlayer@@QBEIXZ 1914f400 f i c_clientcommander.obj
 0002:00028430       ??0?$set@USSelectionEntry@@U?$less@USSelectionEntry@@@std@@V?$K2SetAllocator@USSelectionEntry@@@@@std@@QAE@XZ 1914f430 f i c_clientcommander.obj
 0002:000284d0       ?_Color@?$_Tree@V?$_Tset_traits@USSelectionEntry@@U?$less@USSelectionEntry@@@std@@V?$K2SetAllocator@USSelectionEntry@@@@$0A@@std@@@std@@KAAADPAU_Node@?$_Tree_nod@V?$_Tset_traits@USSelectionEntry@@U?$less@USSelectionEntry@@@std@@V?$K2SetAllocator@USSelectionEntry@@@@$0A@@std@@@2@@Z 1914f4d0 f i c_clientcommander.obj
 0002:000284f0       ?_Isnil@?$_Tree@V?$_Tset_traits@USSelectionEntry@@U?$less@USSelectionEntry@@@std@@V?$K2SetAllocator@USSelectionEntry@@@@$0A@@std@@@std@@KAAADPAU_Node@?$_Tree_nod@V?$_Tset_traits@USSelectionEntry@@U?$less@USSelectionEntry@@@std@@V?$K2SetAllocator@USSelectionEntry@@@@$0A@@std@@@2@@Z 1914f4f0 f i c_clientcommander.obj
 0002:00028510       ?_Key@?$_Tree@V?$_Tset_traits@USSelectionEntry@@U?$less@USSelectionEntry@@@std@@V?$K2SetAllocator@USSelectionEntry@@@@$0A@@std@@@std@@KAABUSSelectionEntry@@PAU_Node@?$_Tree_nod@V?$_Tset_traits@USSelectionEntry@@U?$less@USSelectionEntry@@@std@@V?$K2SetAllocator@USSelectionEntry@@@@$0A@@std@@@2@@Z 1914f510 f i c_clientcommander.obj
 0002:00028540       ?_Left@?$_Tree@V?$_Tset_traits@USSelectionEntry@@U?$less@USSelectionEntry@@@std@@V?$K2SetAllocator@USSelectionEntry@@@@$0A@@std@@@std@@KAAAPAU_Node@?$_Tree_nod@V?$_Tset_traits@USSelectionEntry@@U?$less@USSelectionEntry@@@std@@V?$K2SetAllocator@USSelectionEntry@@@@$0A@@std@@@2@PAU342@@Z 1914f540 f i c_clientcommander.obj
 0002:00028560       ?_Parent@?$_Tree@V?$_Tset_traits@USSelectionEntry@@U?$less@USSelectionEntry@@@std@@V?$K2SetAllocator@USSelectionEntry@@@@$0A@@std@@@std@@KAAAPAU_Node@?$_Tree_nod@V?$_Tset_traits@USSelectionEntry@@U?$less@USSelectionEntry@@@std@@V?$K2SetAllocator@USSelectionEntry@@@@$0A@@std@@@2@PAU342@@Z 1914f560 f i c_clientcommander.obj
 0002:00028580       ?_Right@?$_Tree@V?$_Tset_traits@USSelectionEntry@@U?$less@USSelectionEntry@@@std@@V?$K2SetAllocator@USSelectionEntry@@@@$0A@@std@@@std@@KAAAPAU_Node@?$_Tree_nod@V?$_Tset_traits@USSelectionEntry@@U?$less@USSelectionEntry@@@std@@V?$K2SetAllocator@USSelectionEntry@@@@$0A@@std@@@2@PAU342@@Z 1914f580 f i c_clientcommander.obj
 0002:000285a0       ?size@?$_Tree@V?$_Tset_traits@USSelectionEntry@@U?$less@USSelectionEntry@@@std@@V?$K2SetAllocator@USSelectionEntry@@@@$0A@@std@@@std@@QBEIXZ 1914f5a0 f i c_clientcommander.obj
 0002:000285c0       ?erase@?$_Tree@V?$_Tset_traits@USSelectionEntry@@U?$less@USSelectionEntry@@@std@@V?$K2SetAllocator@USSelectionEntry@@@@$0A@@std@@@std@@QAE?AViterator@12@V312@0@Z 1914f5c0 f i c_clientcommander.obj
 0002:00028850       ?equal_range@?$_Tree@V?$_Tset_traits@USSelectionEntry@@U?$less@USSelectionEntry@@@std@@V?$K2SetAllocator@USSelectionEntry@@@@$0A@@std@@@std@@QAE?AU?$pair@Viterator@?$_Tree@V?$_Tset_traits@USSelectionEntry@@U?$less@USSelectionEntry@@@std@@V?$K2SetAllocator@USSelectionEntry@@@@$0A@@std@@@std@@V123@@2@ABUSSelectionEntry@@@Z 1914f850 f i c_clientcommander.obj
 0002:00028940       ?_Erase@?$_Tree@V?$_Tset_traits@USSelectionEntry@@U?$less@USSelectionEntry@@@std@@V?$K2SetAllocator@USSelectionEntry@@@@$0A@@std@@@std@@IAEXPAU_Node@?$_Tree_nod@V?$_Tset_traits@USSelectionEntry@@U?$less@USSelectionEntry@@@std@@V?$K2SetAllocator@USSelectionEntry@@@@$0A@@std@@@2@@Z 1914f940 f i c_clientcommander.obj
 0002:000289e0       ?_Insert@?$_Tree@V?$_Tset_traits@USSelectionEntry@@U?$less@USSelectionEntry@@@std@@V?$K2SetAllocator@USSelectionEntry@@@@$0A@@std@@@std@@IAE?AViterator@12@_NPAU_Node@?$_Tree_nod@V?$_Tset_traits@USSelectionEntry@@U?$less@USSelectionEntry@@@std@@V?$K2SetAllocator@USSelectionEntry@@@@$0A@@std@@@2@ABUSSelectionEntry@@@Z 1914f9e0 f i c_clientcommander.obj
 0002:00028fa0       ??0length_error@std@@QAE@ABV?$basic_string@DU?$char_traits@D@std@@V?$allocator@D@2@@1@@Z 1914ffa0 f i c_clientcommander.obj
 0002:00028fe0       ??0logic_error@std@@QAE@ABV?$basic_string@DU?$char_traits@D@std@@V?$allocator@D@2@@1@@Z 1914ffe0 f i c_clientcommander.obj
 0002:00029070       ?what@logic_error@std@@UBEPBDXZ 19150070 f i c_clientcommander.obj
 0002:000290a0       ??_Glogic_error@std@@UAEPAXI@Z 191500a0 f i c_clientcommander.obj
 0002:000290a0       ??_Elogic_error@std@@UAEPAXI@Z 191500a0 f i c_clientcommander.obj
 0002:000290f0       ??1logic_error@std@@UAE@XZ 191500f0 f i c_clientcommander.obj
 0002:00029130       ??1length_error@std@@UAE@XZ 19150130 f i c_clientcommander.obj
 0002:00029160       ??_Elength_error@std@@UAEPAXI@Z 19150160 f i c_clientcommander.obj
 0002:00029160       ??_Glength_error@std@@UAEPAXI@Z 19150160 f i c_clientcommander.obj
 0002:000291b0       ??0logic_error@std@@QAE@ABV01@@Z 191501b0 f i c_clientcommander.obj
 0002:00029250       ?GetTeam@CPlayer@@QBEIXZ   19150250 f i c_clientcommander.obj
 0002:00029280       ?_Lmost@?$_Tree@V?$_Tset_traits@USSelectionEntry@@U?$less@USSelectionEntry@@@std@@V?$K2SetAllocator@USSelectionEntry@@@@$0A@@std@@@std@@IBEAAPAU_Node@?$_Tree_nod@V?$_Tset_traits@USSelectionEntry@@U?$less@USSelectionEntry@@@std@@V?$K2SetAllocator@USSelectionEntry@@@@$0A@@std@@@2@XZ 19150280 f i c_clientcommander.obj
 0002:000292b0       ?_Lrotate@?$_Tree@V?$_Tset_traits@USSelectionEntry@@U?$less@USSelectionEntry@@@std@@V?$K2SetAllocator@USSelectionEntry@@@@$0A@@std@@@std@@IAEXPAU_Node@?$_Tree_nod@V?$_Tset_traits@USSelectionEntry@@U?$less@USSelectionEntry@@@std@@V?$K2SetAllocator@USSelectionEntry@@@@$0A@@std@@@2@@Z 191502b0 f i c_clientcommander.obj
 0002:00029440       ?_Max@?$_Tree@V?$_Tset_traits@USSelectionEntry@@U?$less@USSelectionEntry@@@std@@V?$K2SetAllocator@USSelectionEntry@@@@$0A@@std@@@std@@KAPAU_Node@?$_Tree_nod@V?$_Tset_traits@USSelectionEntry@@U?$less@USSelectionEntry@@@std@@V?$K2SetAllocator@USSelectionEntry@@@@$0A@@std@@@2@PAU342@@Z 19150440 f i c_clientcommander.obj
 0002:000294a0       ?_Min@?$_Tree@V?$_Tset_traits@USSelectionEntry@@U?$less@USSelectionEntry@@@std@@V?$K2SetAllocator@USSelectionEntry@@@@$0A@@std@@@std@@KAPAU_Node@?$_Tree_nod@V?$_Tset_traits@USSelectionEntry@@U?$less@USSelectionEntry@@@std@@V?$K2SetAllocator@USSelectionEntry@@@@$0A@@std@@@2@PAU342@@Z 191504a0 f i c_clientcommander.obj
 0002:00029500       ?_Rmost@?$_Tree@V?$_Tset_traits@USSelectionEntry@@U?$less@USSelectionEntry@@@std@@V?$K2SetAllocator@USSelectionEntry@@@@$0A@@std@@@std@@IBEAAPAU_Node@?$_Tree_nod@V?$_Tset_traits@USSelectionEntry@@U?$less@USSelectionEntry@@@std@@V?$K2SetAllocator@USSelectionEntry@@@@$0A@@std@@@2@XZ 19150500 f i c_clientcommander.obj
 0002:00029530       ?_Root@?$_Tree@V?$_Tset_traits@USSelectionEntry@@U?$less@USSelectionEntry@@@std@@V?$K2SetAllocator@USSelectionEntry@@@@$0A@@std@@@std@@IBEAAPAU_Node@?$_Tree_nod@V?$_Tset_traits@USSelectionEntry@@U?$less@USSelectionEntry@@@std@@V?$K2SetAllocator@USSelectionEntry@@@@$0A@@std@@@2@XZ 19150530 f i c_clientcommander.obj
 0002:00029560       ?_Rrotate@?$_Tree@V?$_Tset_traits@USSelectionEntry@@U?$less@USSelectionEntry@@@std@@V?$K2SetAllocator@USSelectionEntry@@@@$0A@@std@@@std@@IAEXPAU_Node@?$_Tree_nod@V?$_Tset_traits@USSelectionEntry@@U?$less@USSelectionEntry@@@std@@V?$K2SetAllocator@USSelectionEntry@@@@$0A@@std@@@2@@Z 19150560 f i c_clientcommander.obj
 0002:000296f0       ?_Orphan_ptr@?$_Tree@V?$_Tset_traits@USSelectionEntry@@U?$less@USSelectionEntry@@@std@@V?$K2SetAllocator@USSelectionEntry@@@@$0A@@std@@@std@@IBEXAAV12@PAU_Node@?$_Tree_nod@V?$_Tset_traits@USSelectionEntry@@U?$less@USSelectionEntry@@@std@@V?$K2SetAllocator@USSelectionEntry@@@@$0A@@std@@@2@@Z 191506f0 f i c_clientcommander.obj
 0002:000297a0       ?_Tidy@?$_Tree@V?$_Tset_traits@USSelectionEntry@@U?$less@USSelectionEntry@@@std@@V?$K2SetAllocator@USSelectionEntry@@@@$0A@@std@@@std@@IAEXXZ 191507a0 f i c_clientcommander.obj
 0002:000298f0       ?_Kfn@?$_Tset_traits@USSelectionEntry@@U?$less@USSelectionEntry@@@std@@V?$K2SetAllocator@USSelectionEntry@@@@$0A@@std@@SAABUSSelectionEntry@@ABU3@@Z 191508f0 f i c_clientcommander.obj
 0002:00029910       ??1?$K2SetAllocator@USSelectionEntry@@@@QAE@XZ 19150910 f i c_clientcommander.obj
 0002:00029930       ??1?$K2SetAllocator@U_Node@?$_Tree_nod@V?$_Tset_traits@USSelectionEntry@@U?$less@USSelectionEntry@@@std@@V?$K2SetAllocator@USSelectionEntry@@@@$0A@@std@@@std@@@@QAE@XZ 19150930 f i c_clientcommander.obj
 0002:00029950       ?deallocate@?$K2SetAllocator@U_Node@?$_Tree_nod@V?$_Tset_traits@USSelectionEntry@@U?$less@USSelectionEntry@@@std@@V?$K2SetAllocator@USSelectionEntry@@@@$0A@@std@@@std@@@@QAEXPAU_Node@?$_Tree_nod@V?$_Tset_traits@USSelectionEntry@@U?$less@USSelectionEntry@@@std@@V?$K2SetAllocator@USSelectionEntry@@@@$0A@@std@@@std@@I@Z 19150950 f i c_clientcommander.obj
 0002:00029990       ?destroy@?$allocator@U_Node@?$_Tree_nod@V?$_Tset_traits@USSelectionEntry@@U?$less@USSelectionEntry@@@std@@V?$K2SetAllocator@USSelectionEntry@@@@$0A@@std@@@std@@@std@@QAEXPAU_Node@?$_Tree_nod@V?$_Tset_traits@USSelectionEntry@@U?$less@USSelectionEntry@@@std@@V?$K2SetAllocator@USSelectionEntry@@@@$0A@@std@@@2@@Z 19150990 f i c_clientcommander.obj
 0002:000299c0       ??1?$K2SetAllocator@PAU_Node@?$_Tree_nod@V?$_Tset_traits@USSelectionEntry@@U?$less@USSelectionEntry@@@std@@V?$K2SetAllocator@USSelectionEntry@@@@$0A@@std@@@std@@@@QAE@XZ 191509c0 f i c_clientcommander.obj
 0002:000299e0       ?GetPosition@CPlayer@@QBEABV?$CVec3@M@@XZ 191509e0 f i c_clientcommander.obj
 0002:00029a10       ??4?$set@IU?$less@I@std@@V?$K2SetAllocator@I@@@@QAEAAV0@ABV0@@Z 19150a10 f i c_clientcommander.obj
 0002:00029a40       ??4?$set@IU?$less@I@std@@V?$K2SetAllocator@I@@@std@@QAEAAV01@ABV01@@Z 19150a40 f i c_clientcommander.obj
 0002:00029a70       ?GetWorldIndex@IVisualEntity@@QBEIXZ 19150a70 f i c_clientcommander.obj
 0002:00029aa0       ?GetTeam@IVisualEntity@@QBEIXZ 19150aa0 f i c_clientcommander.obj
 0002:00029ad0       ?GetStatus@IVisualEntity@@QBEEXZ 19150ad0 f i c_clientcommander.obj
 0002:00029b00       ?GetPosition@IVisualEntity@@QBEABV?$CVec3@M@@XZ 19150b00 f i c_clientcommander.obj
 0002:00029b30       ??0?$_Iterator@$00@?$list@IV?$K2ListAllocator@I@@@std@@QAE@PAU_Node@?$_List_nod@IV?$K2ListAllocator@I@@@2@PBV12@@Z 19150b30 f i c_clientcommander.obj
 0002:00029b70       ??E?$_Iterator@$00@?$list@IV?$K2ListAllocator@I@@@std@@QAE?AV012@H@Z 19150b70 f i c_clientcommander.obj
 0002:00029c20       ??D?$_Const_iterator@$00@?$list@IV?$K2ListAllocator@I@@@std@@QBEABIXZ 19150c20 f i c_clientcommander.obj
 0002:00029cf0       ??E?$_Const_iterator@$00@?$list@IV?$K2ListAllocator@I@@@std@@QAEAAV012@XZ 19150cf0 f i c_clientcommander.obj
 0002:00029dd0       ??8?$_Const_iterator@$00@?$list@IV?$K2ListAllocator@I@@@std@@QBE_NABV012@@Z 19150dd0 f i c_clientcommander.obj
 0002:00029e10       ?_Mynode@?$_Const_iterator@$00@?$list@IV?$K2ListAllocator@I@@@std@@QBEPAU_Node@?$_List_nod@IV?$K2ListAllocator@I@@@3@XZ 19150e10 f i c_clientcommander.obj
 0002:00029e30       ??0?$set@PAVIUnitEntity@@U?$less@PAVIUnitEntity@@@std@@V?$K2SetAllocator@PAVIUnitEntity@@@@@std@@QAE@XZ 19150e30 f i c_clientcommander.obj
 0002:00029ed0       ?_Isnil@?$_Tree@V?$_Tset_traits@PAVIUnitEntity@@U?$less@PAVIUnitEntity@@@std@@V?$K2SetAllocator@PAVIUnitEntity@@@@$0A@@std@@@std@@KAAADPAU_Node@?$_Tree_nod@V?$_Tset_traits@PAVIUnitEntity@@U?$less@PAVIUnitEntity@@@std@@V?$K2SetAllocator@PAVIUnitEntity@@@@$0A@@std@@@2@@Z 19150ed0 f i c_clientcommander.obj
 0002:00029ef0       ?_Key@?$_Tree@V?$_Tset_traits@PAVIUnitEntity@@U?$less@PAVIUnitEntity@@@std@@V?$K2SetAllocator@PAVIUnitEntity@@@@$0A@@std@@@std@@KAABQAVIUnitEntity@@PAU_Node@?$_Tree_nod@V?$_Tset_traits@PAVIUnitEntity@@U?$less@PAVIUnitEntity@@@std@@V?$K2SetAllocator@PAVIUnitEntity@@@@$0A@@std@@@2@@Z 19150ef0 f i c_clientcommander.obj
 0002:00029f20       ?_Left@?$_Tree@V?$_Tset_traits@PAVIUnitEntity@@U?$less@PAVIUnitEntity@@@std@@V?$K2SetAllocator@PAVIUnitEntity@@@@$0A@@std@@@std@@KAAAPAU_Node@?$_Tree_nod@V?$_Tset_traits@PAVIUnitEntity@@U?$less@PAVIUnitEntity@@@std@@V?$K2SetAllocator@PAVIUnitEntity@@@@$0A@@std@@@2@PAU342@@Z 19150f20 f i c_clientcommander.obj
 0002:00029f40       ?_Right@?$_Tree@V?$_Tset_traits@PAVIUnitEntity@@U?$less@PAVIUnitEntity@@@std@@V?$K2SetAllocator@PAVIUnitEntity@@@@$0A@@std@@@std@@KAAAPAU_Node@?$_Tree_nod@V?$_Tset_traits@PAVIUnitEntity@@U?$less@PAVIUnitEntity@@@std@@V?$K2SetAllocator@PAVIUnitEntity@@@@$0A@@std@@@2@PAU342@@Z 19150f40 f i c_clientcommander.obj
 0002:00029f60       ?_Insert@?$_Tree@V?$_Tset_traits@PAVIUnitEntity@@U?$less@PAVIUnitEntity@@@std@@V?$K2SetAllocator@PAVIUnitEntity@@@@$0A@@std@@@std@@IAE?AViterator@12@_NPAU_Node@?$_Tree_nod@V?$_Tset_traits@PAVIUnitEntity@@U?$less@PAVIUnitEntity@@@std@@V?$K2SetAllocator@PAVIUnitEntity@@@@$0A@@std@@@2@ABQAVIUnitEntity@@@Z 19150f60 f i c_clientcommander.obj
 0002:0002a520       ?_Lmost@?$_Tree@V?$_Tset_traits@PAVIUnitEntity@@U?$less@PAVIUnitEntity@@@std@@V?$K2SetAllocator@PAVIUnitEntity@@@@$0A@@std@@@std@@IBEAAPAU_Node@?$_Tree_nod@V?$_Tset_traits@PAVIUnitEntity@@U?$less@PAVIUnitEntity@@@std@@V?$K2SetAllocator@PAVIUnitEntity@@@@$0A@@std@@@2@XZ 19151520 f i c_clientcommander.obj
 0002:0002a550       ?_Root@?$_Tree@V?$_Tset_traits@PAVIUnitEntity@@U?$less@PAVIUnitEntity@@@std@@V?$K2SetAllocator@PAVIUnitEntity@@@@$0A@@std@@@std@@IBEAAPAU_Node@?$_Tree_nod@V?$_Tset_traits@PAVIUnitEntity@@U?$less@PAVIUnitEntity@@@std@@V?$K2SetAllocator@PAVIUnitEntity@@@@$0A@@std@@@2@XZ 19151550 f i c_clientcommander.obj
 0002:0002a580       ?_Tidy@?$_Tree@V?$_Tset_traits@PAVIUnitEntity@@U?$less@PAVIUnitEntity@@@std@@V?$K2SetAllocator@PAVIUnitEntity@@@@$0A@@std@@@std@@IAEXXZ 19151580 f i c_clientcommander.obj
 0002:0002a6d0       ?_Kfn@?$_Tset_traits@PAVIUnitEntity@@U?$less@PAVIUnitEntity@@@std@@V?$K2SetAllocator@PAVIUnitEntity@@@@$0A@@std@@SAABQAVIUnitEntity@@ABQAV3@@Z 191516d0 f i c_clientcommander.obj
 0002:0002a6f0       ??1?$K2SetAllocator@PAVIUnitEntity@@@@QAE@XZ 191516f0 f i c_clientcommander.obj
 0002:0002a710       ??1?$K2SetAllocator@U_Node@?$_Tree_nod@V?$_Tset_traits@PAVIUnitEntity@@U?$less@PAVIUnitEntity@@@std@@V?$K2SetAllocator@PAVIUnitEntity@@@@$0A@@std@@@std@@@@QAE@XZ 19151710 f i c_clientcommander.obj
 0002:0002a730       ??1?$K2SetAllocator@PAU_Node@?$_Tree_nod@V?$_Tset_traits@PAVIUnitEntity@@U?$less@PAVIUnitEntity@@@std@@V?$K2SetAllocator@PAVIUnitEntity@@@@$0A@@std@@@std@@@@QAE@XZ 19151730 f i c_clientcommander.obj
 0002:0002a750       ??0?$pair@Viterator@?$_Tree@V?$_Tset_traits@PAVIUnitEntity@@U?$less@PAVIUnitEntity@@@std@@V?$K2SetAllocator@PAVIUnitEntity@@@@$0A@@std@@@std@@_N@std@@QAE@ABViterator@?$_Tree@V?$_Tset_traits@PAVIUnitEntity@@U?$less@PAVIUnitEntity@@@std@@V?$K2SetAllocator@PAVIUnitEntity@@@@$0A@@std@@@1@AB_N@Z 19151750 f i c_clientcommander.obj
 0002:0002a790       ??0iterator@?$_Tree@V?$_Tset_traits@PAVIUnitEntity@@U?$less@PAVIUnitEntity@@@std@@V?$K2SetAllocator@PAVIUnitEntity@@@@$0A@@std@@@std@@QAE@PAU_Node@?$_Tree_nod@V?$_Tset_traits@PAVIUnitEntity@@U?$less@PAVIUnitEntity@@@std@@V?$K2SetAllocator@PAVIUnitEntity@@@@$0A@@std@@@2@PBV12@@Z 19151790 f i c_clientcommander.obj
 0002:0002a7d0       ??Fiterator@?$_Tree@V?$_Tset_traits@PAVIUnitEntity@@U?$less@PAVIUnitEntity@@@std@@V?$K2SetAllocator@PAVIUnitEntity@@@@$0A@@std@@@std@@QAEAAV012@XZ 191517d0 f i c_clientcommander.obj
 0002:0002a800       ??Dconst_iterator@?$_Tree@V?$_Tset_traits@PAVIUnitEntity@@U?$less@PAVIUnitEntity@@@std@@V?$K2SetAllocator@PAVIUnitEntity@@@@$0A@@std@@@std@@QBEABQAVIUnitEntity@@XZ 19151800 f i c_clientcommander.obj
 0002:0002a8c0       ??Econst_iterator@?$_Tree@V?$_Tset_traits@PAVIUnitEntity@@U?$less@PAVIUnitEntity@@@std@@V?$K2SetAllocator@PAVIUnitEntity@@@@$0A@@std@@@std@@QAEAAV012@XZ 191518c0 f i c_clientcommander.obj
 0002:0002a8f0       ??8const_iterator@?$_Tree@V?$_Tset_traits@PAVIUnitEntity@@U?$less@PAVIUnitEntity@@@std@@V?$K2SetAllocator@PAVIUnitEntity@@@@$0A@@std@@@std@@QBE_NABV012@@Z 191518f0 f i c_clientcommander.obj
 0002:0002a9b0       ?_Mynode@const_iterator@?$_Tree@V?$_Tset_traits@PAVIUnitEntity@@U?$less@PAVIUnitEntity@@@std@@V?$K2SetAllocator@PAVIUnitEntity@@@@$0A@@std@@@std@@QBEPAU_Node@?$_Tree_nod@V?$_Tset_traits@PAVIUnitEntity@@U?$less@PAVIUnitEntity@@@std@@V?$K2SetAllocator@PAVIUnitEntity@@@@$0A@@std@@@3@XZ 191519b0 f i c_clientcommander.obj
 0002:0002a9d0       ??0?$_Const_iterator@$00@?$list@PAVIUnitEntity@@V?$K2ListAllocator@PAVIUnitEntity@@@@@std@@QAE@PAU_Node@?$_List_nod@PAVIUnitEntity@@V?$K2ListAllocator@PAVIUnitEntity@@@@@2@PBV12@@Z 191519d0 f i c_clientcommander.obj
 0002:0002aa60       ??8?$_Const_iterator@$00@?$list@PAVIUnitEntity@@V?$K2ListAllocator@PAVIUnitEntity@@@@@std@@QBE_NABV012@@Z 19151a60 f i c_clientcommander.obj
 0002:0002aaa0       ??0?$pair@Viterator@?$_Tree@V?$_Tset_traits@USSelectionEntry@@U?$less@USSelectionEntry@@@std@@V?$K2SetAllocator@USSelectionEntry@@@@$0A@@std@@@std@@_N@std@@QAE@ABViterator@?$_Tree@V?$_Tset_traits@USSelectionEntry@@U?$less@USSelectionEntry@@@std@@V?$K2SetAllocator@USSelectionEntry@@@@$0A@@std@@@1@AB_N@Z 19151aa0 f i c_clientcommander.obj
 0002:0002aae0       ??0iterator@?$_Tree@V?$_Tset_traits@USSelectionEntry@@U?$less@USSelectionEntry@@@std@@V?$K2SetAllocator@USSelectionEntry@@@@$0A@@std@@@std@@QAE@PAU_Node@?$_Tree_nod@V?$_Tset_traits@USSelectionEntry@@U?$less@USSelectionEntry@@@std@@V?$K2SetAllocator@USSelectionEntry@@@@$0A@@std@@@2@PBV12@@Z 19151ae0 f i c_clientcommander.obj
 0002:0002ab20       ??Fiterator@?$_Tree@V?$_Tset_traits@USSelectionEntry@@U?$less@USSelectionEntry@@@std@@V?$K2SetAllocator@USSelectionEntry@@@@$0A@@std@@@std@@QAEAAV012@XZ 19151b20 f i c_clientcommander.obj
 0002:0002ab50       ??Dconst_iterator@?$_Tree@V?$_Tset_traits@USSelectionEntry@@U?$less@USSelectionEntry@@@std@@V?$K2SetAllocator@USSelectionEntry@@@@$0A@@std@@@std@@QBEABUSSelectionEntry@@XZ 19151b50 f i c_clientcommander.obj
 0002:0002ac10       ??Econst_iterator@?$_Tree@V?$_Tset_traits@USSelectionEntry@@U?$less@USSelectionEntry@@@std@@V?$K2SetAllocator@USSelectionEntry@@@@$0A@@std@@@std@@QAEAAV012@XZ 19151c10 f i c_clientcommander.obj
 0002:0002ac40       ??8const_iterator@?$_Tree@V?$_Tset_traits@USSelectionEntry@@U?$less@USSelectionEntry@@@std@@V?$K2SetAllocator@USSelectionEntry@@@@$0A@@std@@@std@@QBE_NABV012@@Z 19151c40 f i c_clientcommander.obj
 0002:0002ad00       ?_Mynode@const_iterator@?$_Tree@V?$_Tset_traits@USSelectionEntry@@U?$less@USSelectionEntry@@@std@@V?$K2SetAllocator@USSelectionEntry@@@@$0A@@std@@@std@@QBEPAU_Node@?$_Tree_nod@V?$_Tset_traits@USSelectionEntry@@U?$less@USSelectionEntry@@@std@@V?$K2SetAllocator@USSelectionEntry@@@@$0A@@std@@@3@XZ 19151d00 f i c_clientcommander.obj
 0002:0002ad20       ??0iterator@?$_Tree@V?$_Tset_traits@PAVIUnitEntity@@U?$less@PAVIUnitEntity@@@std@@V?$K2SetAllocator@PAVIUnitEntity@@@@$0A@@std@@@std@@QAE@ABV012@@Z 19151d20 f i c_clientcommander.obj
 0002:0002ad50       ??0?$_Bidit@PAVIUnitEntity@@HPBQAV1@ABQAV1@@std@@QAE@XZ 19151d50 f i c_clientcommander.obj
 0002:0002ad80       ??0_Iterator_base@std@@QAE@XZ 19151d80 f i c_clientcommander.obj
 0002:0002adc0       ??0const_iterator@?$_Tree@V?$_Tset_traits@PAVIUnitEntity@@U?$less@PAVIUnitEntity@@@std@@V?$K2SetAllocator@PAVIUnitEntity@@@@$0A@@std@@@std@@QAE@ABV012@@Z 19151dc0 f i c_clientcommander.obj
 0002:0002ae00       ??0?$_Bidit@PAVIUnitEntity@@HPBQAV1@ABQAV1@@std@@QAE@ABU01@@Z 19151e00 f i c_clientcommander.obj
 0002:0002ae30       ?_Myval@?$list@IV?$K2ListAllocator@I@@@std@@KAAAIPAU_Node@?$_List_nod@IV?$K2ListAllocator@I@@@2@@Z 19151e30 f i c_clientcommander.obj
 0002:0002ae50       ?clear@?$list@IV?$K2ListAllocator@I@@@std@@QAEXXZ 19151e50 f i c_clientcommander.obj
 0002:0002af30       ?_Buynode@?$list@IV?$K2ListAllocator@I@@@std@@IAEPAU_Node@?$_List_nod@IV?$K2ListAllocator@I@@@2@XZ 19151f30 f i c_clientcommander.obj
 0002:0002b070       ?_Buynode@?$list@IV?$K2ListAllocator@I@@@std@@IAEPAU_Node@?$_List_nod@IV?$K2ListAllocator@I@@@2@PAU342@0ABI@Z 19152070 f i c_clientcommander.obj
 0002:0002b210       ?_Incsize@?$list@IV?$K2ListAllocator@I@@@std@@IAEXI@Z 19152210 f i c_clientcommander.obj
 0002:0002b2f0       ??0?$_List_val@IV?$K2ListAllocator@I@@@std@@QAE@V?$K2ListAllocator@I@@@Z 191522f0 f i c_clientcommander.obj
 0002:0002b3a0       ??0?$K2ListAllocator@I@@QAE@XZ 191523a0 f i c_clientcommander.obj
 0002:0002b3d0       ?GetInstance@CMemManager@@SAPAV1@XZ 191523d0 f i c_clientcommander.obj
 0002:0002b4a0       ?destroy@?$allocator@PAU_Node@?$_List_nod@IV?$K2ListAllocator@I@@@std@@@std@@QAEXPAPAU_Node@?$_List_nod@IV?$K2ListAllocator@I@@@2@@Z 191524a0 f i c_clientcommander.obj
 0002:0002b4d0       ??0?$_Tree@V?$_Tset_traits@IU?$less@I@std@@V?$K2SetAllocator@I@@$0A@@std@@@std@@QAE@ABU?$less@I@1@ABV?$K2SetAllocator@I@@@Z 191524d0 f i c_clientcommander.obj
 0002:0002b570       ??0?$K2SetAllocator@I@@QAE@XZ 19152570 f i c_clientcommander.obj
 0002:0002b5a0       ?destroy@?$allocator@PAU_Node@?$_Tree_nod@V?$_Tset_traits@IU?$less@I@std@@V?$K2SetAllocator@I@@$0A@@std@@@std@@@std@@QAEXPAPAU_Node@?$_Tree_nod@V?$_Tset_traits@IU?$less@I@std@@V?$K2SetAllocator@I@@$0A@@std@@@2@@Z 191525a0 f i c_clientcommander.obj
 0002:0002b5d0       ?_Myval@?$_Tree@V?$_Tset_traits@USSelectionEntry@@U?$less@USSelectionEntry@@@std@@V?$K2SetAllocator@USSelectionEntry@@@@$0A@@std@@@std@@KAAAUSSelectionEntry@@PAU_Node@?$_Tree_nod@V?$_Tset_traits@USSelectionEntry@@U?$less@USSelectionEntry@@@std@@V?$K2SetAllocator@USSelectionEntry@@@@$0A@@std@@@2@@Z 191525d0 f i c_clientcommander.obj
 0002:0002b5f0       ??0?$_Tree@V?$_Tset_traits@USSelectionEntry@@U?$less@USSelectionEntry@@@std@@V?$K2SetAllocator@USSelectionEntry@@@@$0A@@std@@@std@@QAE@ABU?$less@USSelectionEntry@@@1@ABV?$K2SetAllocator@USSelectionEntry@@@@@Z 191525f0 f i c_clientcommander.obj
 0002:0002b690       ?max_size@?$_Tree@V?$_Tset_traits@USSelectionEntry@@U?$less@USSelectionEntry@@@std@@V?$K2SetAllocator@USSelectionEntry@@@@$0A@@std@@@std@@QBEIXZ 19152690 f i c_clientcommander.obj
 0002:0002b6c0       ?lower_bound@?$_Tree@V?$_Tset_traits@USSelectionEntry@@U?$less@USSelectionEntry@@@std@@V?$K2SetAllocator@USSelectionEntry@@@@$0A@@std@@@std@@QAE?AViterator@12@ABUSSelectionEntry@@@Z 191526c0 f i c_clientcommander.obj
 0002:0002b720       ?upper_bound@?$_Tree@V?$_Tset_traits@USSelectionEntry@@U?$less@USSelectionEntry@@@std@@V?$K2SetAllocator@USSelectionEntry@@@@$0A@@std@@@std@@QAE?AViterator@12@ABUSSelectionEntry@@@Z 19152720 f i c_clientcommander.obj
 0002:0002b780       ?_Buynode@?$_Tree@V?$_Tset_traits@USSelectionEntry@@U?$less@USSelectionEntry@@@std@@V?$K2SetAllocator@USSelectionEntry@@@@$0A@@std@@@std@@IAEPAU_Node@?$_Tree_nod@V?$_Tset_traits@USSelectionEntry@@U?$less@USSelectionEntry@@@std@@V?$K2SetAllocator@USSelectionEntry@@@@$0A@@std@@@2@PAU342@00ABUSSelectionEntry@@D@Z 19152780 f i c_clientcommander.obj
 0002:0002b8a0       ??2@YAPAXIPAX@Z            191528a0 f i c_clientcommander.obj
 0002:0002b8c0       ??3@YAXPAX0@Z              191528c0 f i c_clientcommander.obj
 0002:0002b8e0       ??0?$K2SetAllocator@USSelectionEntry@@@@QAE@XZ 191528e0 f i c_clientcommander.obj
 0002:0002b910       ?destroy@?$allocator@PAU_Node@?$_Tree_nod@V?$_Tset_traits@USSelectionEntry@@U?$less@USSelectionEntry@@@std@@V?$K2SetAllocator@USSelectionEntry@@@@$0A@@std@@@std@@@std@@QAEXPAPAU_Node@?$_Tree_nod@V?$_Tset_traits@USSelectionEntry@@U?$less@USSelectionEntry@@@std@@V?$K2SetAllocator@USSelectionEntry@@@@$0A@@std@@@2@@Z 19152910 f i c_clientcommander.obj
 0002:0002b940       ??0?$_Const_iterator@$00@?$list@IV?$K2ListAllocator@I@@@std@@QAE@PAU_Node@?$_List_nod@IV?$K2ListAllocator@I@@@2@PBV12@@Z 19152940 f i c_clientcommander.obj
 0002:0002b9d0       ?_Compat@?$_Const_iterator@$00@?$list@IV?$K2ListAllocator@I@@@std@@QBEXABV123@@Z 191529d0 f i c_clientcommander.obj
 0002:0002ba90       ?_Color@?$_Tree@V?$_Tset_traits@PAVIUnitEntity@@U?$less@PAVIUnitEntity@@@std@@V?$K2SetAllocator@PAVIUnitEntity@@@@$0A@@std@@@std@@KAAADPAU_Node@?$_Tree_nod@V?$_Tset_traits@PAVIUnitEntity@@U?$less@PAVIUnitEntity@@@std@@V?$K2SetAllocator@PAVIUnitEntity@@@@$0A@@std@@@2@@Z 19152a90 f i c_clientcommander.obj
 0002:0002bab0       ?_Parent@?$_Tree@V?$_Tset_traits@PAVIUnitEntity@@U?$less@PAVIUnitEntity@@@std@@V?$K2SetAllocator@PAVIUnitEntity@@@@$0A@@std@@@std@@KAAAPAU_Node@?$_Tree_nod@V?$_Tset_traits@PAVIUnitEntity@@U?$less@PAVIUnitEntity@@@std@@V?$K2SetAllocator@PAVIUnitEntity@@@@$0A@@std@@@2@PAU342@@Z 19152ab0 f i c_clientcommander.obj
 0002:0002bad0       ?_Myval@?$_Tree@V?$_Tset_traits@PAVIUnitEntity@@U?$less@PAVIUnitEntity@@@std@@V?$K2SetAllocator@PAVIUnitEntity@@@@$0A@@std@@@std@@KAAAPAVIUnitEntity@@PAU_Node@?$_Tree_nod@V?$_Tset_traits@PAVIUnitEntity@@U?$less@PAVIUnitEntity@@@std@@V?$K2SetAllocator@PAVIUnitEntity@@@@$0A@@std@@@2@@Z 19152ad0 f i c_clientcommander.obj
 0002:0002baf0       ??0?$_Tree@V?$_Tset_traits@PAVIUnitEntity@@U?$less@PAVIUnitEntity@@@std@@V?$K2SetAllocator@PAVIUnitEntity@@@@$0A@@std@@@std@@QAE@ABU?$less@PAVIUnitEntity@@@1@ABV?$K2SetAllocator@PAVIUnitEntity@@@@@Z 19152af0 f i c_clientcommander.obj
 0002:0002bb90       ?max_size@?$_Tree@V?$_Tset_traits@PAVIUnitEntity@@U?$less@PAVIUnitEntity@@@std@@V?$K2SetAllocator@PAVIUnitEntity@@@@$0A@@std@@@std@@QBEIXZ 19152b90 f i c_clientcommander.obj
 0002:0002bbc0       ?erase@?$_Tree@V?$_Tset_traits@PAVIUnitEntity@@U?$less@PAVIUnitEntity@@@std@@V?$K2SetAllocator@PAVIUnitEntity@@@@$0A@@std@@@std@@QAE?AViterator@12@V312@0@Z 19152bc0 f i c_clientcommander.obj
 0002:0002be50       ?_Lrotate@?$_Tree@V?$_Tset_traits@PAVIUnitEntity@@U?$less@PAVIUnitEntity@@@std@@V?$K2SetAllocator@PAVIUnitEntity@@@@$0A@@std@@@std@@IAEXPAU_Node@?$_Tree_nod@V?$_Tset_traits@PAVIUnitEntity@@U?$less@PAVIUnitEntity@@@std@@V?$K2SetAllocator@PAVIUnitEntity@@@@$0A@@std@@@2@@Z 19152e50 f i c_clientcommander.obj
 0002:0002bfe0       ?_Rmost@?$_Tree@V?$_Tset_traits@PAVIUnitEntity@@U?$less@PAVIUnitEntity@@@std@@V?$K2SetAllocator@PAVIUnitEntity@@@@$0A@@std@@@std@@IBEAAPAU_Node@?$_Tree_nod@V?$_Tset_traits@PAVIUnitEntity@@U?$less@PAVIUnitEntity@@@std@@V?$K2SetAllocator@PAVIUnitEntity@@@@$0A@@std@@@2@XZ 19152fe0 f i c_clientcommander.obj
 0002:0002c010       ?_Rrotate@?$_Tree@V?$_Tset_traits@PAVIUnitEntity@@U?$less@PAVIUnitEntity@@@std@@V?$K2SetAllocator@PAVIUnitEntity@@@@$0A@@std@@@std@@IAEXPAU_Node@?$_Tree_nod@V?$_Tset_traits@PAVIUnitEntity@@U?$less@PAVIUnitEntity@@@std@@V?$K2SetAllocator@PAVIUnitEntity@@@@$0A@@std@@@2@@Z 19153010 f i c_clientcommander.obj
 0002:0002c1a0       ?_Buynode@?$_Tree@V?$_Tset_traits@PAVIUnitEntity@@U?$less@PAVIUnitEntity@@@std@@V?$K2SetAllocator@PAVIUnitEntity@@@@$0A@@std@@@std@@IAEPAU_Node@?$_Tree_nod@V?$_Tset_traits@PAVIUnitEntity@@U?$less@PAVIUnitEntity@@@std@@V?$K2SetAllocator@PAVIUnitEntity@@@@$0A@@std@@@2@PAU342@00ABQAVIUnitEntity@@D@Z 191531a0 f i c_clientcommander.obj
 0002:0002c2c0       ??0?$K2SetAllocator@PAVIUnitEntity@@@@QAE@XZ 191532c0 f i c_clientcommander.obj
 0002:0002c2f0       ?deallocate@?$K2SetAllocator@U_Node@?$_Tree_nod@V?$_Tset_traits@PAVIUnitEntity@@U?$less@PAVIUnitEntity@@@std@@V?$K2SetAllocator@PAVIUnitEntity@@@@$0A@@std@@@std@@@@QAEXPAU_Node@?$_Tree_nod@V?$_Tset_traits@PAVIUnitEntity@@U?$less@PAVIUnitEntity@@@std@@V?$K2SetAllocator@PAVIUnitEntity@@@@$0A@@std@@@std@@I@Z 191532f0 f i c_clientcommander.obj
 0002:0002c330       ?destroy@?$allocator@PAU_Node@?$_Tree_nod@V?$_Tset_traits@PAVIUnitEntity@@U?$less@PAVIUnitEntity@@@std@@V?$K2SetAllocator@PAVIUnitEntity@@@@$0A@@std@@@std@@@std@@QAEXPAPAU_Node@?$_Tree_nod@V?$_Tset_traits@PAVIUnitEntity@@U?$less@PAVIUnitEntity@@@std@@V?$K2SetAllocator@PAVIUnitEntity@@@@$0A@@std@@@2@@Z 19153330 f i c_clientcommander.obj
 0002:0002c360       ??0const_iterator@?$_Tree@V?$_Tset_traits@PAVIUnitEntity@@U?$less@PAVIUnitEntity@@@std@@V?$K2SetAllocator@PAVIUnitEntity@@@@$0A@@std@@@std@@QAE@PAU_Node@?$_Tree_nod@V?$_Tset_traits@PAVIUnitEntity@@U?$less@PAVIUnitEntity@@@std@@V?$K2SetAllocator@PAVIUnitEntity@@@@$0A@@std@@@2@PBV12@@Z 19153360 f i c_clientcommander.obj
 0002:0002c3f0       ??Fconst_iterator@?$_Tree@V?$_Tset_traits@PAVIUnitEntity@@U?$less@PAVIUnitEntity@@@std@@V?$K2SetAllocator@PAVIUnitEntity@@@@$0A@@std@@@std@@QAEAAV012@XZ 191533f0 f i c_clientcommander.obj
 0002:0002c420       ?_Inc@const_iterator@?$_Tree@V?$_Tset_traits@PAVIUnitEntity@@U?$less@PAVIUnitEntity@@@std@@V?$K2SetAllocator@PAVIUnitEntity@@@@$0A@@std@@@std@@QAEXXZ 19153420 f i c_clientcommander.obj
 0002:0002c590       ?_Compat@?$_Const_iterator@$00@?$list@PAVIUnitEntity@@V?$K2ListAllocator@PAVIUnitEntity@@@@@std@@QBEXABV123@@Z 19153590 f i c_clientcommander.obj
 0002:0002c650       ??Eiterator@?$_Tree@V?$_Tset_traits@USSelectionEntry@@U?$less@USSelectionEntry@@@std@@V?$K2SetAllocator@USSelectionEntry@@@@$0A@@std@@@std@@QAE?AV012@H@Z 19153650 f i c_clientcommander.obj
 0002:0002c700       ??0const_iterator@?$_Tree@V?$_Tset_traits@USSelectionEntry@@U?$less@USSelectionEntry@@@std@@V?$K2SetAllocator@USSelectionEntry@@@@$0A@@std@@@std@@QAE@PAU_Node@?$_Tree_nod@V?$_Tset_traits@USSelectionEntry@@U?$less@USSelectionEntry@@@std@@V?$K2SetAllocator@USSelectionEntry@@@@$0A@@std@@@2@PBV12@@Z 19153700 f i c_clientcommander.obj
 0002:0002c790       ??Fconst_iterator@?$_Tree@V?$_Tset_traits@USSelectionEntry@@U?$less@USSelectionEntry@@@std@@V?$K2SetAllocator@USSelectionEntry@@@@$0A@@std@@@std@@QAEAAV012@XZ 19153790 f i c_clientcommander.obj
 0002:0002c7c0       ?_Inc@const_iterator@?$_Tree@V?$_Tset_traits@USSelectionEntry@@U?$less@USSelectionEntry@@@std@@V?$K2SetAllocator@USSelectionEntry@@@@$0A@@std@@@std@@QAEXXZ 191537c0 f i c_clientcommander.obj
 0002:0002c930       ??0?$pair@Viterator@?$_Tree@V?$_Tset_traits@USSelectionEntry@@U?$less@USSelectionEntry@@@std@@V?$K2SetAllocator@USSelectionEntry@@@@$0A@@std@@@std@@V123@@std@@QAE@ABViterator@?$_Tree@V?$_Tset_traits@USSelectionEntry@@U?$less@USSelectionEntry@@@std@@V?$K2SetAllocator@USSelectionEntry@@@@$0A@@std@@@1@0@Z 19153930 f i c_clientcommander.obj
 0002:0002c9c0       ??0?$_Bidit@USSelectionEntry@@HPBU1@ABU1@@std@@QAE@XZ 191539c0 f i c_clientcommander.obj
 0002:0002c9f0       ?max_size@?$list@IV?$K2ListAllocator@I@@@std@@QBEIXZ 191539f0 f i c_clientcommander.obj
 0002:0002ca20       ??0?$_List_ptr@IV?$K2ListAllocator@I@@@std@@IAE@V?$K2ListAllocator@I@@@Z 19153a20 f i c_clientcommander.obj
 0002:0002cad0       ??0?$K2ListAllocator@I@@QAE@ABV0@@Z 19153ad0 f i c_clientcommander.obj
 0002:0002cb00       ?allocate@?$K2ListAllocator@U_Node@?$_List_nod@IV?$K2ListAllocator@I@@@std@@@@QAEPAU_Node@?$_List_nod@IV?$K2ListAllocator@I@@@std@@I@Z 19153b00 f i c_clientcommander.obj
 0002:0002cb50       ?Allocate@CMemManager@@SAPAXIPBDW4MemoryType@@00F@Z 19153b50 f i c_clientcommander.obj
 0002:0002cb90       ?construct@?$allocator@PAU_Node@?$_List_nod@IV?$K2ListAllocator@I@@@std@@@std@@QAEXPAPAU_Node@?$_List_nod@IV?$K2ListAllocator@I@@@2@ABQAU342@@Z 19153b90 f i c_clientcommander.obj
 0002:0002cbc0       ?_Init@?$_Tree@V?$_Tset_traits@IU?$less@I@std@@V?$K2SetAllocator@I@@$0A@@std@@@std@@IAEXXZ 19153bc0 f i c_clientcommander.obj
 0002:0002cc50       ??0?$_Tree_val@V?$_Tset_traits@IU?$less@I@std@@V?$K2SetAllocator@I@@$0A@@std@@@std@@IAE@ABU?$less@I@1@V?$K2SetAllocator@I@@@Z 19153c50 f i c_clientcommander.obj
 0002:0002cd00       ??0?$K2SetAllocator@I@@QAE@ABV0@@Z 19153d00 f i c_clientcommander.obj
 0002:0002cd30       ??0?$allocator@PAVIUnitEntity@@@std@@QAE@XZ 19153d30 f i c_clientcommander.obj
 0002:0002cd50       ?max_size@?$allocator@PAVIUnitEntity@@@std@@QBEIXZ 19153d50 f i c_clientcommander.obj
 0002:0002cd90       ?_Init@?$_Tree@V?$_Tset_traits@USSelectionEntry@@U?$less@USSelectionEntry@@@std@@V?$K2SetAllocator@USSelectionEntry@@@@$0A@@std@@@std@@IAEXXZ 19153d90 f i c_clientcommander.obj
 0002:0002ce20       ?_Lbound@?$_Tree@V?$_Tset_traits@USSelectionEntry@@U?$less@USSelectionEntry@@@std@@V?$K2SetAllocator@USSelectionEntry@@@@$0A@@std@@@std@@IBEPAU_Node@?$_Tree_nod@V?$_Tset_traits@USSelectionEntry@@U?$less@USSelectionEntry@@@std@@V?$K2SetAllocator@USSelectionEntry@@@@$0A@@std@@@2@ABUSSelectionEntry@@@Z 19153e20 f i c_clientcommander.obj
 0002:0002cef0       ?_Ubound@?$_Tree@V?$_Tset_traits@USSelectionEntry@@U?$less@USSelectionEntry@@@std@@V?$K2SetAllocator@USSelectionEntry@@@@$0A@@std@@@std@@IBEPAU_Node@?$_Tree_nod@V?$_Tset_traits@USSelectionEntry@@U?$less@USSelectionEntry@@@std@@V?$K2SetAllocator@USSelectionEntry@@@@$0A@@std@@@2@ABUSSelectionEntry@@@Z 19153ef0 f i c_clientcommander.obj
 0002:0002cfc0       ??0?$_Tree_val@V?$_Tset_traits@USSelectionEntry@@U?$less@USSelectionEntry@@@std@@V?$K2SetAllocator@USSelectionEntry@@@@$0A@@std@@@std@@IAE@ABU?$less@USSelectionEntry@@@1@V?$K2SetAllocator@USSelectionEntry@@@@@Z 19153fc0 f i c_clientcommander.obj
 0002:0002d070       ??0?$K2SetAllocator@USSelectionEntry@@@@QAE@ABV0@@Z 19154070 f i c_clientcommander.obj
 0002:0002d0a0       ??0?$allocator@USSelectionEntry@@@std@@QAE@XZ 191540a0 f i c_clientcommander.obj
 0002:0002d0c0       ?max_size@?$allocator@USSelectionEntry@@@std@@QBEIXZ 191540c0 f i c_clientcommander.obj
 0002:0002d100       ?allocate@?$K2SetAllocator@U_Node@?$_Tree_nod@V?$_Tset_traits@USSelectionEntry@@U?$less@USSelectionEntry@@@std@@V?$K2SetAllocator@USSelectionEntry@@@@$0A@@std@@@std@@@@QAEPAU_Node@?$_Tree_nod@V?$_Tset_traits@USSelectionEntry@@U?$less@USSelectionEntry@@@std@@V?$K2SetAllocator@USSelectionEntry@@@@$0A@@std@@@std@@I@Z 19154100 f i c_clientcommander.obj
 0002:0002d150       ?erase@?$_Tree@V?$_Tset_traits@PAVIUnitEntity@@U?$less@PAVIUnitEntity@@@std@@V?$K2SetAllocator@PAVIUnitEntity@@@@$0A@@std@@@std@@QAE?AViterator@12@V312@@Z 19154150 f i c_clientcommander.obj
 0002:0002db30       ?clear@?$_Tree@V?$_Tset_traits@PAVIUnitEntity@@U?$less@PAVIUnitEntity@@@std@@V?$K2SetAllocator@PAVIUnitEntity@@@@$0A@@std@@@std@@QAEXXZ 19154b30 f i c_clientcommander.obj
 0002:0002dbc0       ?_Init@?$_Tree@V?$_Tset_traits@PAVIUnitEntity@@U?$less@PAVIUnitEntity@@@std@@V?$K2SetAllocator@PAVIUnitEntity@@@@$0A@@std@@@std@@IAEXXZ 19154bc0 f i c_clientcommander.obj
 0002:0002dc50       ?_Min@?$_Tree@V?$_Tset_traits@PAVIUnitEntity@@U?$less@PAVIUnitEntity@@@std@@V?$K2SetAllocator@PAVIUnitEntity@@@@$0A@@std@@@std@@KAPAU_Node@?$_Tree_nod@V?$_Tset_traits@PAVIUnitEntity@@U?$less@PAVIUnitEntity@@@std@@V?$K2SetAllocator@PAVIUnitEntity@@@@$0A@@std@@@2@PAU342@@Z 19154c50 f i c_clientcommander.obj
 0002:0002dcb0       ??0?$_Tree_val@V?$_Tset_traits@PAVIUnitEntity@@U?$less@PAVIUnitEntity@@@std@@V?$K2SetAllocator@PAVIUnitEntity@@@@$0A@@std@@@std@@IAE@ABU?$less@PAVIUnitEntity@@@1@V?$K2SetAllocator@PAVIUnitEntity@@@@@Z 19154cb0 f i c_clientcommander.obj
 0002:0002dd60       ??0?$K2SetAllocator@PAVIUnitEntity@@@@QAE@ABV0@@Z 19154d60 f i c_clientcommander.obj
 0002:0002dd90       ?allocate@?$K2SetAllocator@U_Node@?$_Tree_nod@V?$_Tset_traits@PAVIUnitEntity@@U?$less@PAVIUnitEntity@@@std@@V?$K2SetAllocator@PAVIUnitEntity@@@@$0A@@std@@@std@@@@QAEPAU_Node@?$_Tree_nod@V?$_Tset_traits@PAVIUnitEntity@@U?$less@PAVIUnitEntity@@@std@@V?$K2SetAllocator@PAVIUnitEntity@@@@$0A@@std@@@std@@I@Z 19154d90 f i c_clientcommander.obj
 0002:0002dde0       ??Eiterator@?$_Tree@V?$_Tset_traits@PAVIUnitEntity@@U?$less@PAVIUnitEntity@@@std@@V?$K2SetAllocator@PAVIUnitEntity@@@@$0A@@std@@@std@@QAE?AV012@H@Z 19154de0 f i c_clientcommander.obj
 0002:0002de90       ?_Dec@const_iterator@?$_Tree@V?$_Tset_traits@PAVIUnitEntity@@U?$less@PAVIUnitEntity@@@std@@V?$K2SetAllocator@PAVIUnitEntity@@@@$0A@@std@@@std@@QAEXXZ 19154e90 f i c_clientcommander.obj
 0002:0002e150       ?_Dec@const_iterator@?$_Tree@V?$_Tset_traits@USSelectionEntry@@U?$less@USSelectionEntry@@@std@@V?$K2SetAllocator@USSelectionEntry@@@@$0A@@std@@@std@@QAEXXZ 19155150 f i c_clientcommander.obj
 0002:0002e410       ??0_Node@?$_Tree_nod@V?$_Tset_traits@USSelectionEntry@@U?$less@USSelectionEntry@@@std@@V?$K2SetAllocator@USSelectionEntry@@@@$0A@@std@@@std@@QAE@PAU012@00ABUSSelectionEntry@@D@Z 19155410 f i c_clientcommander.obj
 0002:0002e480       ??0_Node@?$_Tree_nod@V?$_Tset_traits@PAVIUnitEntity@@U?$less@PAVIUnitEntity@@@std@@V?$K2SetAllocator@PAVIUnitEntity@@@@$0A@@std@@@std@@QAE@PAU012@00ABQAVIUnitEntity@@D@Z 19155480 f i c_clientcommander.obj
 0002:0002e4e0       ??0?$_List_nod@IV?$K2ListAllocator@I@@@std@@IAE@V?$K2ListAllocator@I@@@Z 191554e0 f i c_clientcommander.obj
 0002:0002e580       ?_Buynode@?$_Tree@V?$_Tset_traits@IU?$less@I@std@@V?$K2SetAllocator@I@@$0A@@std@@@std@@IAEPAU_Node@?$_Tree_nod@V?$_Tset_traits@IU?$less@I@std@@V?$K2SetAllocator@I@@$0A@@std@@@2@XZ 19155580 f i c_clientcommander.obj
 0002:0002e760       ??0?$_Tree_ptr@V?$_Tset_traits@IU?$less@I@std@@V?$K2SetAllocator@I@@$0A@@std@@@std@@QAE@ABU?$less@I@1@V?$K2SetAllocator@I@@@Z 19155760 f i c_clientcommander.obj
 0002:0002e810       ??0?$allocator@PAVIUnitEntity@@@std@@QAE@ABV01@@Z 19155810 f i c_clientcommander.obj
 0002:0002e830       ?_Buynode@?$_Tree@V?$_Tset_traits@USSelectionEntry@@U?$less@USSelectionEntry@@@std@@V?$K2SetAllocator@USSelectionEntry@@@@$0A@@std@@@std@@IAEPAU_Node@?$_Tree_nod@V?$_Tset_traits@USSelectionEntry@@U?$less@USSelectionEntry@@@std@@V?$K2SetAllocator@USSelectionEntry@@@@$0A@@std@@@2@XZ 19155830 f i c_clientcommander.obj
 0002:0002ea10       ??0?$_Tree_ptr@V?$_Tset_traits@USSelectionEntry@@U?$less@USSelectionEntry@@@std@@V?$K2SetAllocator@USSelectionEntry@@@@$0A@@std@@@std@@QAE@ABU?$less@USSelectionEntry@@@1@V?$K2SetAllocator@USSelectionEntry@@@@@Z 19155a10 f i c_clientcommander.obj
 0002:0002eac0       ??0?$allocator@USSelectionEntry@@@std@@QAE@ABV01@@Z 19155ac0 f i c_clientcommander.obj
 0002:0002eae0       ?_Erase@?$_Tree@V?$_Tset_traits@PAVIUnitEntity@@U?$less@PAVIUnitEntity@@@std@@V?$K2SetAllocator@PAVIUnitEntity@@@@$0A@@std@@@std@@IAEXPAU_Node@?$_Tree_nod@V?$_Tset_traits@PAVIUnitEntity@@U?$less@PAVIUnitEntity@@@std@@V?$K2SetAllocator@PAVIUnitEntity@@@@$0A@@std@@@2@@Z 19155ae0 f i c_clientcommander.obj
 0002:0002eb80       ?_Max@?$_Tree@V?$_Tset_traits@PAVIUnitEntity@@U?$less@PAVIUnitEntity@@@std@@V?$K2SetAllocator@PAVIUnitEntity@@@@$0A@@std@@@std@@KAPAU_Node@?$_Tree_nod@V?$_Tset_traits@PAVIUnitEntity@@U?$less@PAVIUnitEntity@@@std@@V?$K2SetAllocator@PAVIUnitEntity@@@@$0A@@std@@@2@PAU342@@Z 19155b80 f i c_clientcommander.obj
 0002:0002ebe0       ?_Orphan_ptr@?$_Tree@V?$_Tset_traits@PAVIUnitEntity@@U?$less@PAVIUnitEntity@@@std@@V?$K2SetAllocator@PAVIUnitEntity@@@@$0A@@std@@@std@@IBEXAAV12@PAU_Node@?$_Tree_nod@V?$_Tset_traits@PAVIUnitEntity@@U?$less@PAVIUnitEntity@@@std@@V?$K2SetAllocator@PAVIUnitEntity@@@@$0A@@std@@@2@@Z 19155be0 f i c_clientcommander.obj
 0002:0002ec90       ?_Buynode@?$_Tree@V?$_Tset_traits@PAVIUnitEntity@@U?$less@PAVIUnitEntity@@@std@@V?$K2SetAllocator@PAVIUnitEntity@@@@$0A@@std@@@std@@IAEPAU_Node@?$_Tree_nod@V?$_Tset_traits@PAVIUnitEntity@@U?$less@PAVIUnitEntity@@@std@@V?$K2SetAllocator@PAVIUnitEntity@@@@$0A@@std@@@2@XZ 19155c90 f i c_clientcommander.obj
 0002:0002ee70       ??0?$_Tree_ptr@V?$_Tset_traits@PAVIUnitEntity@@U?$less@PAVIUnitEntity@@@std@@V?$K2SetAllocator@PAVIUnitEntity@@@@$0A@@std@@@std@@QAE@ABU?$less@PAVIUnitEntity@@@1@V?$K2SetAllocator@PAVIUnitEntity@@@@@Z 19155e70 f i c_clientcommander.obj
 0002:0002ef20       ?destroy@?$allocator@U_Node@?$_Tree_nod@V?$_Tset_traits@PAVIUnitEntity@@U?$less@PAVIUnitEntity@@@std@@V?$K2SetAllocator@PAVIUnitEntity@@@@$0A@@std@@@std@@@std@@QAEXPAU_Node@?$_Tree_nod@V?$_Tset_traits@PAVIUnitEntity@@U?$less@PAVIUnitEntity@@@std@@V?$K2SetAllocator@PAVIUnitEntity@@@@$0A@@std@@@2@@Z 19155f20 f i c_clientcommander.obj
 0002:0002ef50       ??0?$_Tree_nod@V?$_Tset_traits@IU?$less@I@std@@V?$K2SetAllocator@I@@$0A@@std@@@std@@IAE@ABU?$less@I@1@V?$K2SetAllocator@I@@@Z 19155f50 f i c_clientcommander.obj
 0002:0002eff0       ?construct@?$allocator@PAU_Node@?$_Tree_nod@V?$_Tset_traits@IU?$less@I@std@@V?$K2SetAllocator@I@@$0A@@std@@@std@@@std@@QAEXPAPAU_Node@?$_Tree_nod@V?$_Tset_traits@IU?$less@I@std@@V?$K2SetAllocator@I@@$0A@@std@@@2@ABQAU342@@Z 19155ff0 f i c_clientcommander.obj
 0002:0002f020       ??0?$_Tree_nod@V?$_Tset_traits@USSelectionEntry@@U?$less@USSelectionEntry@@@std@@V?$K2SetAllocator@USSelectionEntry@@@@$0A@@std@@@std@@IAE@ABU?$less@USSelectionEntry@@@1@V?$K2SetAllocator@USSelectionEntry@@@@@Z 19156020 f i c_clientcommander.obj
 0002:0002f0c0       ?construct@?$allocator@PAU_Node@?$_Tree_nod@V?$_Tset_traits@USSelectionEntry@@U?$less@USSelectionEntry@@@std@@V?$K2SetAllocator@USSelectionEntry@@@@$0A@@std@@@std@@@std@@QAEXPAPAU_Node@?$_Tree_nod@V?$_Tset_traits@USSelectionEntry@@U?$less@USSelectionEntry@@@std@@V?$K2SetAllocator@USSelectionEntry@@@@$0A@@std@@@2@ABQAU342@@Z 191560c0 f i c_clientcommander.obj
 0002:0002f0f0       ??0?$_Tree_nod@V?$_Tset_traits@PAVIUnitEntity@@U?$less@PAVIUnitEntity@@@std@@V?$K2SetAllocator@PAVIUnitEntity@@@@$0A@@std@@@std@@IAE@ABU?$less@PAVIUnitEntity@@@1@V?$K2SetAllocator@PAVIUnitEntity@@@@@Z 191560f0 f i c_clientcommander.obj
 0002:0002f190       ?construct@?$allocator@PAU_Node@?$_Tree_nod@V?$_Tset_traits@PAVIUnitEntity@@U?$less@PAVIUnitEntity@@@std@@V?$K2SetAllocator@PAVIUnitEntity@@@@$0A@@std@@@std@@@std@@QAEXPAPAU_Node@?$_Tree_nod@V?$_Tset_traits@PAVIUnitEntity@@U?$less@PAVIUnitEntity@@@std@@V?$K2SetAllocator@PAVIUnitEntity@@@@$0A@@std@@@2@ABQAU342@@Z 19156190 f i c_clientcommander.obj
 0002:0002f1c0       ??0?$_Tset_traits@IU?$less@I@std@@V?$K2SetAllocator@I@@$0A@@std@@QAE@U?$less@I@1@@Z 191561c0 f i c_clientcommander.obj
 0002:0002f1f0       ??0?$_Tset_traits@USSelectionEntry@@U?$less@USSelectionEntry@@@std@@V?$K2SetAllocator@USSelectionEntry@@@@$0A@@std@@QAE@U?$less@USSelectionEntry@@@1@@Z 191561f0 f i c_clientcommander.obj
 0002:0002f220       ??0?$_Tset_traits@PAVIUnitEntity@@U?$less@PAVIUnitEntity@@@std@@V?$K2SetAllocator@PAVIUnitEntity@@@@$0A@@std@@QAE@U?$less@PAVIUnitEntity@@@1@@Z 19156220 f i c_clientcommander.obj
 0002:0002f250       ?GetSlot@ISlaveEntity@@QBEEXZ 19156250 f i c_clientcommander.obj
 0002:0002f280       ??$?8V?$_Tset_traits@IU?$less@I@std@@V?$K2SetAllocator@I@@$0A@@std@@@std@@YA_NABV?$_Tree@V?$_Tset_traits@IU?$less@I@std@@V?$K2SetAllocator@I@@$0A@@std@@@0@0@Z 19156280 f i c_clientcommander.obj
 0002:0002f390       ??$Contains@M@?$CRect@M@@QBE_NABV?$CVec2@M@@@Z 19156390 f i c_clientcommander.obj
 0002:0002f410       ?Append@?$CBufferFixed@$08@@UAE_NPBXI@Z 19156410 f i c_clientcommander.obj
 0002:0002f4c0       ?Write@?$CBufferFixed@$08@@UAE_NPBXI@Z 191564c0 f i c_clientcommander.obj
 0002:0002f590       ?Read@?$CBufferFixed@$08@@UBE_NPAXI@Z 19156590 f i c_clientcommander.obj
 0002:0002f610       ?Seek@?$CBufferFixed@$08@@UAE_NI@Z 19156610 f i c_clientcommander.obj
 0002:0002f650       ?Lock@?$CBufferFixed@$08@@UAEPADI@Z 19156650 f i c_clientcommander.obj
 0002:0002f6e0       ?Append@?$CBufferFixed@$0BA@@@UAE_NPBXI@Z 191566e0 f i c_clientcommander.obj
 0002:0002f790       ?Write@?$CBufferFixed@$0BA@@@UAE_NPBXI@Z 19156790 f i c_clientcommander.obj
 0002:0002f860       ?Read@?$CBufferFixed@$0BA@@@UBE_NPAXI@Z 19156860 f i c_clientcommander.obj
 0002:0002f8e0       ?Seek@?$CBufferFixed@$0BA@@@UAE_NI@Z 191568e0 f i c_clientcommander.obj
 0002:0002f920       ?Lock@?$CBufferFixed@$0BA@@@UAEPADI@Z 19156920 f i c_clientcommander.obj
 0002:0002f9b0       ?Append@?$CBufferFixed@$0BE@@@UAE_NPBXI@Z 191569b0 f i c_clientcommander.obj
 0002:0002fa60       ?Write@?$CBufferFixed@$0BE@@@UAE_NPBXI@Z 19156a60 f i c_clientcommander.obj
 0002:0002fb30       ?Read@?$CBufferFixed@$0BE@@@UBE_NPAXI@Z 19156b30 f i c_clientcommander.obj
 0002:0002fbb0       ?Seek@?$CBufferFixed@$0BE@@@UAE_NI@Z 19156bb0 f i c_clientcommander.obj
 0002:0002fbf0       ?Lock@?$CBufferFixed@$0BE@@@UAEPADI@Z 19156bf0 f i c_clientcommander.obj
 0002:0002fc80       ??$GetDefinition@VCShopDefinition@@@CEntityRegistry@@QAEPAVCShopDefinition@@G@Z 19156c80 f i c_clientcommander.obj
 0002:0002ffd0       ?GetBaseType@CShopDefinition@@SAIXZ 19156fd0 f i c_clientcommander.obj
 0002:0002fff0       ?GetDefinitionHandle@CDynamicEntityAllocator@@QBEIXZ 19156ff0 f i c_clientcommander.obj
 0002:00030010       ?GetBaseType@CDynamicEntityAllocator@@QBEIXZ 19157010 f i c_clientcommander.obj
 0002:00030060       ?GetBaseType@IBaseEntityAllocator@@QBEIXZ 19157060 f i c_clientcommander.obj
 0002:00030080       ?Append@?$CBufferFixed@$06@@UAE_NPBXI@Z 19157080 f i c_clientcommander.obj
 0002:00030130       ?Write@?$CBufferFixed@$06@@UAE_NPBXI@Z 19157130 f i c_clientcommander.obj
 0002:00030200       ?Read@?$CBufferFixed@$06@@UBE_NPAXI@Z 19157200 f i c_clientcommander.obj
 0002:00030280       ?Seek@?$CBufferFixed@$06@@UAE_NI@Z 19157280 f i c_clientcommander.obj
 0002:000302c0       ?Lock@?$CBufferFixed@$06@@UAEPADI@Z 191572c0 f i c_clientcommander.obj
 0002:00030350       ?Append@?$CBufferFixed@$0M@@@UAE_NPBXI@Z 19157350 f i c_clientcommander.obj
 0002:00030400       ?Write@?$CBufferFixed@$0M@@@UAE_NPBXI@Z 19157400 f i c_clientcommander.obj
 0002:000304d0       ?Read@?$CBufferFixed@$0M@@@UBE_NPAXI@Z 191574d0 f i c_clientcommander.obj
 0002:00030550       ?Seek@?$CBufferFixed@$0M@@@UAE_NI@Z 19157550 f i c_clientcommander.obj
 0002:00030590       ?Lock@?$CBufferFixed@$0M@@@UAEPADI@Z 19157590 f i c_clientcommander.obj
 0002:00030620       ?Append@?$CBufferFixed@$0BI@@@UAE_NPBXI@Z 19157620 f i c_clientcommander.obj
 0002:000306d0       ?Write@?$CBufferFixed@$0BI@@@UAE_NPBXI@Z 191576d0 f i c_clientcommander.obj
 0002:000307a0       ?Read@?$CBufferFixed@$0BI@@@UBE_NPAXI@Z 191577a0 f i c_clientcommander.obj
 0002:00030820       ?Seek@?$CBufferFixed@$0BI@@@UAE_NI@Z 19157820 f i c_clientcommander.obj
 0002:00030860       ?Lock@?$CBufferFixed@$0BI@@@UAEPADI@Z 19157860 f i c_clientcommander.obj
 0002:000308f0       ?Append@?$CBufferFixed@$04@@UAE_NPBXI@Z 191578f0 f i c_clientcommander.obj
 0002:000309a0       ?Write@?$CBufferFixed@$04@@UAE_NPBXI@Z 191579a0 f i c_clientcommander.obj
 0002:00030a70       ?Read@?$CBufferFixed@$04@@UBE_NPAXI@Z 19157a70 f i c_clientcommander.obj
 0002:00030af0       ?Seek@?$CBufferFixed@$04@@UAE_NI@Z 19157af0 f i c_clientcommander.obj
 0002:00030b30       ?Lock@?$CBufferFixed@$04@@UAEPADI@Z 19157b30 f i c_clientcommander.obj
 0002:00030bc0       ?Append@?$CBufferFixed@$02@@UAE_NPBXI@Z 19157bc0 f i c_clientcommander.obj
 0002:00030c70       ?Write@?$CBufferFixed@$02@@UAE_NPBXI@Z 19157c70 f i c_clientcommander.obj
 0002:00030d40       ?Read@?$CBufferFixed@$02@@UBE_NPAXI@Z 19157d40 f i c_clientcommander.obj
 0002:00030dc0       ?Seek@?$CBufferFixed@$02@@UAE_NI@Z 19157dc0 f i c_clientcommander.obj
 0002:00030e00       ?Lock@?$CBufferFixed@$02@@UAEPADI@Z 19157e00 f i c_clientcommander.obj
 0002:00030e90       ?Append@?$CBufferFixed@$0L@@@UAE_NPBXI@Z 19157e90 f i c_clientcommander.obj
 0002:00030f40       ?Write@?$CBufferFixed@$0L@@@UAE_NPBXI@Z 19157f40 f i c_clientcommander.obj
 0002:00031010       ?Read@?$CBufferFixed@$0L@@@UBE_NPAXI@Z 19158010 f i c_clientcommander.obj
 0002:00031090       ?Seek@?$CBufferFixed@$0L@@@UAE_NI@Z 19158090 f i c_clientcommander.obj
 0002:000310d0       ?Lock@?$CBufferFixed@$0L@@@UAEPADI@Z 191580d0 f i c_clientcommander.obj
 0002:00031160       ??$_Debug_lt_pred@U?$less@USSelectionEntry@@@std@@USSelectionEntry@@U3@@std@@YA_NU?$less@USSelectionEntry@@@0@ABUSSelectionEntry@@1PB_WI@Z 19158160 f i c_clientcommander.obj
 0002:000311e0       ??$_Distance@Viterator@?$_Tree@V?$_Tset_traits@USSelectionEntry@@U?$less@USSelectionEntry@@@std@@V?$K2SetAllocator@USSelectionEntry@@@@$0A@@std@@@std@@I@std@@YAXViterator@?$_Tree@V?$_Tset_traits@USSelectionEntry@@U?$less@USSelectionEntry@@@std@@V?$K2SetAllocator@USSelectionEntry@@@@$0A@@std@@@0@0AAI@Z 191581e0 f i c_clientcommander.obj
 0002:000312c0       ??$_Debug_lt_pred@U?$less@PAVIUnitEntity@@@std@@PAVIUnitEntity@@PAV3@@std@@YA_NU?$less@PAVIUnitEntity@@@0@ABQAVIUnitEntity@@1PB_WI@Z 191582c0 f i c_clientcommander.obj
 0002:00031340       ??$_Destroy@U_Node@?$_List_nod@IV?$K2ListAllocator@I@@@std@@@std@@YAXPAU_Node@?$_List_nod@IV?$K2ListAllocator@I@@@0@@Z 19158340 f i c_clientcommander.obj
 0002:00031360       ??$_Destroy@U_Node@?$_Tree_nod@V?$_Tset_traits@USSelectionEntry@@U?$less@USSelectionEntry@@@std@@V?$K2SetAllocator@USSelectionEntry@@@@$0A@@std@@@std@@@std@@YAXPAU_Node@?$_Tree_nod@V?$_Tset_traits@USSelectionEntry@@U?$less@USSelectionEntry@@@std@@V?$K2SetAllocator@USSelectionEntry@@@@$0A@@std@@@0@@Z 19158360 f i c_clientcommander.obj
 0002:00031380       ??$_Destroy@PAU_Node@?$_List_nod@IV?$K2ListAllocator@I@@@std@@@std@@YAXPAPAU_Node@?$_List_nod@IV?$K2ListAllocator@I@@@0@@Z 19158380 f i c_clientcommander.obj
 0002:000313a0       ??$_Destroy@PAU_Node@?$_Tree_nod@V?$_Tset_traits@IU?$less@I@std@@V?$K2SetAllocator@I@@$0A@@std@@@std@@@std@@YAXPAPAU_Node@?$_Tree_nod@V?$_Tset_traits@IU?$less@I@std@@V?$K2SetAllocator@I@@$0A@@std@@@0@@Z 191583a0 f i c_clientcommander.obj
 0002:000313c0       ??$_Destroy@PAU_Node@?$_Tree_nod@V?$_Tset_traits@USSelectionEntry@@U?$less@USSelectionEntry@@@std@@V?$K2SetAllocator@USSelectionEntry@@@@$0A@@std@@@std@@@std@@YAXPAPAU_Node@?$_Tree_nod@V?$_Tset_traits@USSelectionEntry@@U?$less@USSelectionEntry@@@std@@V?$K2SetAllocator@USSelectionEntry@@@@$0A@@std@@@0@@Z 191583c0 f i c_clientcommander.obj
 0002:000313e0       ??$_Destroy@PAU_Node@?$_Tree_nod@V?$_Tset_traits@PAVIUnitEntity@@U?$less@PAVIUnitEntity@@@std@@V?$K2SetAllocator@PAVIUnitEntity@@@@$0A@@std@@@std@@@std@@YAXPAPAU_Node@?$_Tree_nod@V?$_Tset_traits@PAVIUnitEntity@@U?$less@PAVIUnitEntity@@@std@@V?$K2SetAllocator@PAVIUnitEntity@@@@$0A@@std@@@0@@Z 191583e0 f i c_clientcommander.obj
 0002:00031400       ??$?0I@?$K2ListAllocator@PAU_Node@?$_List_nod@IV?$K2ListAllocator@I@@@std@@@@QAE@ABV?$K2ListAllocator@I@@@Z 19158400 f i c_clientcommander.obj
 0002:00031430       ??$_Construct@PAU_Node@?$_List_nod@IV?$K2ListAllocator@I@@@std@@PAU123@@std@@YAXPAPAU_Node@?$_List_nod@IV?$K2ListAllocator@I@@@0@ABQAU120@@Z 19158430 f i c_clientcommander.obj
 0002:00031490       ??$?0I@?$K2ListAllocator@U_Node@?$_List_nod@IV?$K2ListAllocator@I@@@std@@@@QAE@ABV?$K2ListAllocator@I@@@Z 19158490 f i c_clientcommander.obj
 0002:000314c0       ??$?0I@?$K2SetAllocator@PAU_Node@?$_Tree_nod@V?$_Tset_traits@IU?$less@I@std@@V?$K2SetAllocator@I@@$0A@@std@@@std@@@@QAE@ABV?$K2SetAllocator@I@@@Z 191584c0 f i c_clientcommander.obj
 0002:000314f0       ??$?0USSelectionEntry@@@?$K2SetAllocator@PAU_Node@?$_Tree_nod@V?$_Tset_traits@USSelectionEntry@@U?$less@USSelectionEntry@@@std@@V?$K2SetAllocator@USSelectionEntry@@@@$0A@@std@@@std@@@@QAE@ABV?$K2SetAllocator@USSelectionEntry@@@@@Z 191584f0 f i c_clientcommander.obj
 0002:00031520       ??$?0PAVIUnitEntity@@@?$K2SetAllocator@PAU_Node@?$_Tree_nod@V?$_Tset_traits@PAVIUnitEntity@@U?$less@PAVIUnitEntity@@@std@@V?$K2SetAllocator@PAVIUnitEntity@@@@$0A@@std@@@std@@@@QAE@ABV?$K2SetAllocator@PAVIUnitEntity@@@@@Z 19158520 f i c_clientcommander.obj
 0002:00031550       ??$_Destroy@U_Node@?$_Tree_nod@V?$_Tset_traits@PAVIUnitEntity@@U?$less@PAVIUnitEntity@@@std@@V?$K2SetAllocator@PAVIUnitEntity@@@@$0A@@std@@@std@@@std@@YAXPAU_Node@?$_Tree_nod@V?$_Tset_traits@PAVIUnitEntity@@U?$less@PAVIUnitEntity@@@std@@V?$K2SetAllocator@PAVIUnitEntity@@@@$0A@@std@@@0@@Z 19158550 f i c_clientcommander.obj
 0002:00031570       ??$?0I@?$K2SetAllocator@U_Node@?$_Tree_nod@V?$_Tset_traits@IU?$less@I@std@@V?$K2SetAllocator@I@@$0A@@std@@@std@@@@QAE@ABV?$K2SetAllocator@I@@@Z 19158570 f i c_clientcommander.obj
 0002:000315a0       ??$_Construct@PAU_Node@?$_Tree_nod@V?$_Tset_traits@IU?$less@I@std@@V?$K2SetAllocator@I@@$0A@@std@@@std@@PAU123@@std@@YAXPAPAU_Node@?$_Tree_nod@V?$_Tset_traits@IU?$less@I@std@@V?$K2SetAllocator@I@@$0A@@std@@@0@ABQAU120@@Z 191585a0 f i c_clientcommander.obj
 0002:00031600       ??$?0USSelectionEntry@@@?$K2SetAllocator@U_Node@?$_Tree_nod@V?$_Tset_traits@USSelectionEntry@@U?$less@USSelectionEntry@@@std@@V?$K2SetAllocator@USSelectionEntry@@@@$0A@@std@@@std@@@@QAE@ABV?$K2SetAllocator@USSelectionEntry@@@@@Z 19158600 f i c_clientcommander.obj
 0002:00031630       ??$_Construct@PAU_Node@?$_Tree_nod@V?$_Tset_traits@USSelectionEntry@@U?$less@USSelectionEntry@@@std@@V?$K2SetAllocator@USSelectionEntry@@@@$0A@@std@@@std@@PAU123@@std@@YAXPAPAU_Node@?$_Tree_nod@V?$_Tset_traits@USSelectionEntry@@U?$less@USSelectionEntry@@@std@@V?$K2SetAllocator@USSelectionEntry@@@@$0A@@std@@@0@ABQAU120@@Z 19158630 f i c_clientcommander.obj
 0002:00031690       ??$?0PAVIUnitEntity@@@?$K2SetAllocator@U_Node@?$_Tree_nod@V?$_Tset_traits@PAVIUnitEntity@@U?$less@PAVIUnitEntity@@@std@@V?$K2SetAllocator@PAVIUnitEntity@@@@$0A@@std@@@std@@@@QAE@ABV?$K2SetAllocator@PAVIUnitEntity@@@@@Z 19158690 f i c_clientcommander.obj
 0002:000316c0       ??$_Construct@PAU_Node@?$_Tree_nod@V?$_Tset_traits@PAVIUnitEntity@@U?$less@PAVIUnitEntity@@@std@@V?$K2SetAllocator@PAVIUnitEntity@@@@$0A@@std@@@std@@PAU123@@std@@YAXPAPAU_Node@?$_Tree_nod@V?$_Tset_traits@PAVIUnitEntity@@U?$less@PAVIUnitEntity@@@std@@V?$K2SetAllocator@PAVIUnitEntity@@@@$0A@@std@@@0@ABQAU120@@Z 191586c0 f i c_clientcommander.obj
 0002:00031720       ??1iterator@?$_Tree@V?$_Tmap_traits@GVCDynamicEntityAllocator@@U?$less@G@std@@V?$K2MapAllocator@U?$pair@$$CBGVCDynamicEntityAllocator@@@std@@@@$0A@@std@@@std@@QAE@XZ 19158720 f i c_clientcommander.obj
 0002:00031750       ??1const_iterator@?$_Tree@V?$_Tmap_traits@GVCDynamicEntityAllocator@@U?$less@G@std@@V?$K2MapAllocator@U?$pair@$$CBGVCDynamicEntityAllocator@@@std@@@@$0A@@std@@@std@@QAE@XZ 19158750 f i c_clientcommander.obj
 0002:00031780       ??1?$_Bidit@U?$pair@$$CBGVCDynamicEntityAllocator@@@std@@HPBU12@ABU12@@std@@QAE@XZ 19158780 f i c_clientcommander.obj
 0002:000317b0       ??0?$allocator@U_Node@?$_List_nod@IV?$K2ListAllocator@I@@@std@@@std@@QAE@XZ 191587b0 f i c_clientcommander.obj
 0002:000317d0       ??0?$allocator@PAU_Node@?$_List_nod@IV?$K2ListAllocator@I@@@std@@@std@@QAE@XZ 191587d0 f i c_clientcommander.obj
 0002:000317f0       ??0?$allocator@U_Node@?$_Tree_nod@V?$_Tset_traits@IU?$less@I@std@@V?$K2SetAllocator@I@@$0A@@std@@@std@@@std@@QAE@XZ 191587f0 f i c_clientcommander.obj
 0002:00031810       ??0?$allocator@PAU_Node@?$_Tree_nod@V?$_Tset_traits@IU?$less@I@std@@V?$K2SetAllocator@I@@$0A@@std@@@std@@@std@@QAE@XZ 19158810 f i c_clientcommander.obj
 0002:00031830       ?end@?$_Tree@V?$_Tmap_traits@GVCDynamicEntityAllocator@@U?$less@G@std@@V?$K2MapAllocator@U?$pair@$$CBGVCDynamicEntityAllocator@@@std@@@@$0A@@std@@@std@@QAE?AViterator@12@XZ 19158830 f i c_clientcommander.obj
 0002:00031880       ?find@?$_Tree@V?$_Tmap_traits@GVCDynamicEntityAllocator@@U?$less@G@std@@V?$K2MapAllocator@U?$pair@$$CBGVCDynamicEntityAllocator@@@std@@@@$0A@@std@@@std@@QAE?AViterator@12@ABG@Z 19158880 f i c_clientcommander.obj
 0002:00031a60       ??R?$less@USSelectionEntry@@@std@@QBE_NABUSSelectionEntry@@0@Z 19158a60 f i c_clientcommander.obj
 0002:00031a90       ??MSSelectionEntry@@QBE_NABU0@@Z 19158a90 f i c_clientcommander.obj
 0002:00031ac0       ??0?$allocator@U_Node@?$_Tree_nod@V?$_Tset_traits@USSelectionEntry@@U?$less@USSelectionEntry@@@std@@V?$K2SetAllocator@USSelectionEntry@@@@$0A@@std@@@std@@@std@@QAE@XZ 19158ac0 f i c_clientcommander.obj
 0002:00031ae0       ??0?$allocator@PAU_Node@?$_Tree_nod@V?$_Tset_traits@USSelectionEntry@@U?$less@USSelectionEntry@@@std@@V?$K2SetAllocator@USSelectionEntry@@@@$0A@@std@@@std@@@std@@QAE@XZ 19158ae0 f i c_clientcommander.obj
 0002:00031b00       ??R?$less@PAVIUnitEntity@@@std@@QBE_NABQAVIUnitEntity@@0@Z 19158b00 f i c_clientcommander.obj
 0002:00031b30       ??0?$allocator@U_Node@?$_Tree_nod@V?$_Tset_traits@PAVIUnitEntity@@U?$less@PAVIUnitEntity@@@std@@V?$K2SetAllocator@PAVIUnitEntity@@@@$0A@@std@@@std@@@std@@QAE@XZ 19158b30 f i c_clientcommander.obj
 0002:00031b50       ??0?$allocator@PAU_Node@?$_Tree_nod@V?$_Tset_traits@PAVIUnitEntity@@U?$less@PAVIUnitEntity@@@std@@V?$K2SetAllocator@PAVIUnitEntity@@@@$0A@@std@@@std@@@std@@QAE@XZ 19158b50 f i c_clientcommander.obj
 0002:00031b70       ??Citerator@?$_Tree@V?$_Tmap_traits@GVCDynamicEntityAllocator@@U?$less@G@std@@V?$K2MapAllocator@U?$pair@$$CBGVCDynamicEntityAllocator@@@std@@@@$0A@@std@@@std@@QBEPAU?$pair@$$CBGVCDynamicEntityAllocator@@@2@XZ 19158b70 f i c_clientcommander.obj
 0002:00031ba0       ??8const_iterator@?$_Tree@V?$_Tmap_traits@GVCDynamicEntityAllocator@@U?$less@G@std@@V?$K2MapAllocator@U?$pair@$$CBGVCDynamicEntityAllocator@@@std@@@@$0A@@std@@@std@@QBE_NABV012@@Z 19158ba0 f i c_clientcommander.obj
 0002:00031c60       ??0iterator@?$_Tree@V?$_Tmap_traits@GVCDynamicEntityAllocator@@U?$less@G@std@@V?$K2MapAllocator@U?$pair@$$CBGVCDynamicEntityAllocator@@@std@@@@$0A@@std@@@std@@QAE@ABV012@@Z 19158c60 f i c_clientcommander.obj
 0002:00031c90       ??0const_iterator@?$_Tree@V?$_Tmap_traits@GVCDynamicEntityAllocator@@U?$less@G@std@@V?$K2MapAllocator@U?$pair@$$CBGVCDynamicEntityAllocator@@@std@@@@$0A@@std@@@std@@QAE@ABV012@@Z 19158c90 f i c_clientcommander.obj
 0002:00031cd0       ??0?$_Bidit@U?$pair@$$CBGVCDynamicEntityAllocator@@@std@@HPBU12@ABU12@@std@@QAE@ABU01@@Z 19158cd0 f i c_clientcommander.obj
 0002:00031d00       ?_Key@?$_Tree@V?$_Tmap_traits@GVCDynamicEntityAllocator@@U?$less@G@std@@V?$K2MapAllocator@U?$pair@$$CBGVCDynamicEntityAllocator@@@std@@@@$0A@@std@@@std@@KAABGPAU_Node@?$_Tree_nod@V?$_Tmap_traits@GVCDynamicEntityAllocator@@U?$less@G@std@@V?$K2MapAllocator@U?$pair@$$CBGVCDynamicEntityAllocator@@@std@@@@$0A@@std@@@2@@Z 19158d00 f i c_clientcommander.obj
 0002:00031d30       ?lower_bound@?$_Tree@V?$_Tmap_traits@GVCDynamicEntityAllocator@@U?$less@G@std@@V?$K2MapAllocator@U?$pair@$$CBGVCDynamicEntityAllocator@@@std@@@@$0A@@std@@@std@@QAE?AViterator@12@ABG@Z 19158d30 f i c_clientcommander.obj
 0002:00031d90       ??0iterator@?$_Tree@V?$_Tmap_traits@GVCDynamicEntityAllocator@@U?$less@G@std@@V?$K2MapAllocator@U?$pair@$$CBGVCDynamicEntityAllocator@@@std@@@@$0A@@std@@@std@@QAE@PAU_Node@?$_Tree_nod@V?$_Tmap_traits@GVCDynamicEntityAllocator@@U?$less@G@std@@V?$K2MapAllocator@U?$pair@$$CBGVCDynamicEntityAllocator@@@std@@@@$0A@@std@@@2@PBV12@@Z 19158d90 f i c_clientcommander.obj
 0002:00031dd0       ??Diterator@?$_Tree@V?$_Tmap_traits@GVCDynamicEntityAllocator@@U?$less@G@std@@V?$K2MapAllocator@U?$pair@$$CBGVCDynamicEntityAllocator@@@std@@@@$0A@@std@@@std@@QBEAAU?$pair@$$CBGVCDynamicEntityAllocator@@@2@XZ 19158dd0 f i c_clientcommander.obj
 0002:00031e00       ?_Mynode@const_iterator@?$_Tree@V?$_Tmap_traits@GVCDynamicEntityAllocator@@U?$less@G@std@@V?$K2MapAllocator@U?$pair@$$CBGVCDynamicEntityAllocator@@@std@@@@$0A@@std@@@std@@QBEPAU_Node@?$_Tree_nod@V?$_Tmap_traits@GVCDynamicEntityAllocator@@U?$less@G@std@@V?$K2MapAllocator@U?$pair@$$CBGVCDynamicEntityAllocator@@@std@@@@$0A@@std@@@3@XZ 19158e00 f i c_clientcommander.obj
 0002:00031e20       ?_Myval@?$_Tree@V?$_Tmap_traits@GVCDynamicEntityAllocator@@U?$less@G@std@@V?$K2MapAllocator@U?$pair@$$CBGVCDynamicEntityAllocator@@@std@@@@$0A@@std@@@std@@KAAAU?$pair@$$CBGVCDynamicEntityAllocator@@@2@PAU_Node@?$_Tree_nod@V?$_Tmap_traits@GVCDynamicEntityAllocator@@U?$less@G@std@@V?$K2MapAllocator@U?$pair@$$CBGVCDynamicEntityAllocator@@@std@@@@$0A@@std@@@2@@Z 19158e20 f i c_clientcommander.obj
 0002:00031e40       ?_Lbound@?$_Tree@V?$_Tmap_traits@GVCDynamicEntityAllocator@@U?$less@G@std@@V?$K2MapAllocator@U?$pair@$$CBGVCDynamicEntityAllocator@@@std@@@@$0A@@std@@@std@@IBEPAU_Node@?$_Tree_nod@V?$_Tmap_traits@GVCDynamicEntityAllocator@@U?$less@G@std@@V?$K2MapAllocator@U?$pair@$$CBGVCDynamicEntityAllocator@@@std@@@@$0A@@std@@@2@ABG@Z 19158e40 f i c_clientcommander.obj
 0002:00031f10       ?_Kfn@?$_Tmap_traits@GVCDynamicEntityAllocator@@U?$less@G@std@@V?$K2MapAllocator@U?$pair@$$CBGVCDynamicEntityAllocator@@@std@@@@$0A@@std@@SAABGABU?$pair@$$CBGVCDynamicEntityAllocator@@@2@@Z 19158f10 f i c_clientcommander.obj
 0002:00031f30       ??0const_iterator@?$_Tree@V?$_Tmap_traits@GVCDynamicEntityAllocator@@U?$less@G@std@@V?$K2MapAllocator@U?$pair@$$CBGVCDynamicEntityAllocator@@@std@@@@$0A@@std@@@std@@QAE@PAU_Node@?$_Tree_nod@V?$_Tmap_traits@GVCDynamicEntityAllocator@@U?$less@G@std@@V?$K2MapAllocator@U?$pair@$$CBGVCDynamicEntityAllocator@@@std@@@@$0A@@std@@@2@PBV12@@Z 19158f30 f i c_clientcommander.obj
 0002:00031fc0       ??Dconst_iterator@?$_Tree@V?$_Tmap_traits@GVCDynamicEntityAllocator@@U?$less@G@std@@V?$K2MapAllocator@U?$pair@$$CBGVCDynamicEntityAllocator@@@std@@@@$0A@@std@@@std@@QBEABU?$pair@$$CBGVCDynamicEntityAllocator@@@2@XZ 19158fc0 f i c_clientcommander.obj
 0002:00032080       ??0?$_Bidit@U?$pair@$$CBGVCDynamicEntityAllocator@@@std@@HPBU12@ABU12@@std@@QAE@XZ 19159080 f i c_clientcommander.obj
 0002:000320b0       ?_Isnil@?$_Tree@V?$_Tmap_traits@GVCDynamicEntityAllocator@@U?$less@G@std@@V?$K2MapAllocator@U?$pair@$$CBGVCDynamicEntityAllocator@@@std@@@@$0A@@std@@@std@@KAAADPAU_Node@?$_Tree_nod@V?$_Tmap_traits@GVCDynamicEntityAllocator@@U?$less@G@std@@V?$K2MapAllocator@U?$pair@$$CBGVCDynamicEntityAllocator@@@std@@@@$0A@@std@@@2@@Z 191590b0 f i c_clientcommander.obj
 0002:000320d0       ?_Left@?$_Tree@V?$_Tmap_traits@GVCDynamicEntityAllocator@@U?$less@G@std@@V?$K2MapAllocator@U?$pair@$$CBGVCDynamicEntityAllocator@@@std@@@@$0A@@std@@@std@@KAAAPAU_Node@?$_Tree_nod@V?$_Tmap_traits@GVCDynamicEntityAllocator@@U?$less@G@std@@V?$K2MapAllocator@U?$pair@$$CBGVCDynamicEntityAllocator@@@std@@@@$0A@@std@@@2@PAU342@@Z 191590d0 f i c_clientcommander.obj
 0002:000320f0       ?_Right@?$_Tree@V?$_Tmap_traits@GVCDynamicEntityAllocator@@U?$less@G@std@@V?$K2MapAllocator@U?$pair@$$CBGVCDynamicEntityAllocator@@@std@@@@$0A@@std@@@std@@KAAAPAU_Node@?$_Tree_nod@V?$_Tmap_traits@GVCDynamicEntityAllocator@@U?$less@G@std@@V?$K2MapAllocator@U?$pair@$$CBGVCDynamicEntityAllocator@@@std@@@@$0A@@std@@@2@PAU342@@Z 191590f0 f i c_clientcommander.obj
 0002:00032110       ?_Root@?$_Tree@V?$_Tmap_traits@GVCDynamicEntityAllocator@@U?$less@G@std@@V?$K2MapAllocator@U?$pair@$$CBGVCDynamicEntityAllocator@@@std@@@@$0A@@std@@@std@@IBEAAPAU_Node@?$_Tree_nod@V?$_Tmap_traits@GVCDynamicEntityAllocator@@U?$less@G@std@@V?$K2MapAllocator@U?$pair@$$CBGVCDynamicEntityAllocator@@@std@@@@$0A@@std@@@2@XZ 19159110 f i c_clientcommander.obj
 0002:00032140       ?_Parent@?$_Tree@V?$_Tmap_traits@GVCDynamicEntityAllocator@@U?$less@G@std@@V?$K2MapAllocator@U?$pair@$$CBGVCDynamicEntityAllocator@@@std@@@@$0A@@std@@@std@@KAAAPAU_Node@?$_Tree_nod@V?$_Tmap_traits@GVCDynamicEntityAllocator@@U?$less@G@std@@V?$K2MapAllocator@U?$pair@$$CBGVCDynamicEntityAllocator@@@std@@@@$0A@@std@@@2@PAU342@@Z 19159140 f i c_clientcommander.obj
 0002:00032160       ??$equal@Vconst_iterator@?$_Tree@V?$_Tset_traits@IU?$less@I@std@@V?$K2SetAllocator@I@@$0A@@std@@@std@@V123@@std@@YA_NVconst_iterator@?$_Tree@V?$_Tset_traits@IU?$less@I@std@@V?$K2SetAllocator@I@@$0A@@std@@@0@00@Z 19159160 f i c_clientcommander.obj
 0002:000322a0       ??$GetDefinition@VCShopDefinition@@@CEntityDefinitionResource@@QBEPAVCShopDefinition@@XZ 191592a0 f i c_clientcommander.obj
 0002:000322e0       ??$_Iter_cat@Viterator@?$_Tree@V?$_Tset_traits@USSelectionEntry@@U?$less@USSelectionEntry@@@std@@V?$K2SetAllocator@USSelectionEntry@@@@$0A@@std@@@std@@@std@@YA?AUbidirectional_iterator_tag@0@ABViterator@?$_Tree@V?$_Tset_traits@USSelectionEntry@@U?$less@USSelectionEntry@@@std@@V?$K2SetAllocator@USSelectionEntry@@@@$0A@@std@@@0@@Z 191592e0 f i c_clientcommander.obj
 0002:00032300       ??$_Distance2@Viterator@?$_Tree@V?$_Tset_traits@USSelectionEntry@@U?$less@USSelectionEntry@@@std@@V?$K2SetAllocator@USSelectionEntry@@@@$0A@@std@@@std@@I@std@@YAXViterator@?$_Tree@V?$_Tset_traits@USSelectionEntry@@U?$less@USSelectionEntry@@@std@@V?$K2SetAllocator@USSelectionEntry@@@@$0A@@std@@@0@0AAIUbidirectional_iterator_tag@0@@Z 19159300 f i c_clientcommander.obj
 0002:000323b0       ??$_Debug_lt_pred@U?$less@G@std@@GG@std@@YA_NU?$less@G@0@ABG1PB_WI@Z 191593b0 f i c_clientcommander.obj
 0002:00032430       ??R?$less@G@std@@QBE_NABG0@Z 19159430 f i c_clientcommander.obj
 0002:00032470       ??$_Checked_base@Vconst_iterator@?$_Tree@V?$_Tset_traits@IU?$less@I@std@@V?$K2SetAllocator@I@@$0A@@std@@@std@@@std@@YA?AVconst_iterator@?$_Tree@V?$_Tset_traits@IU?$less@I@std@@V?$K2SetAllocator@I@@$0A@@std@@@0@AAV120@@Z 19159470 f i c_clientcommander.obj
 0002:000324c0       ??$_Iter_random@Vconst_iterator@?$_Tree@V?$_Tset_traits@IU?$less@I@std@@V?$K2SetAllocator@I@@$0A@@std@@@std@@V123@@std@@YA?AUforward_iterator_tag@0@ABVconst_iterator@?$_Tree@V?$_Tset_traits@IU?$less@I@std@@V?$K2SetAllocator@I@@$0A@@std@@@0@0@Z 191594c0 f i c_clientcommander.obj
 0002:000324e0       ??$_Equal@Vconst_iterator@?$_Tree@V?$_Tset_traits@IU?$less@I@std@@V?$K2SetAllocator@I@@$0A@@std@@@std@@V123@Uforward_iterator_tag@3@@std@@YA_NVconst_iterator@?$_Tree@V?$_Tset_traits@IU?$less@I@std@@V?$K2SetAllocator@I@@$0A@@std@@@0@00Uforward_iterator_tag@0@U_Range_checked_iterator_tag@0@@Z 191594e0 f i c_clientcommander.obj
 0002:00032640       ??1?$pair@Vconst_iterator@?$_Tree@V?$_Tset_traits@IU?$less@I@std@@V?$K2SetAllocator@I@@$0A@@std@@@std@@V123@@std@@QAE@XZ 19159640 f i c_clientcommander.obj
 0002:000326c0       ??$_Checked_base@Vconst_iterator@?$_Tree@V?$_Tset_traits@IU?$less@I@std@@V?$K2SetAllocator@I@@$0A@@std@@@std@@@std@@YA?AVconst_iterator@?$_Tree@V?$_Tset_traits@IU?$less@I@std@@V?$K2SetAllocator@I@@$0A@@std@@@0@AAV120@U_Unchanged_checked_iterator_base_type_tag@0@@Z 191596c0 f i c_clientcommander.obj
 0002:00032700       ??$_Mismatch@Vconst_iterator@?$_Tree@V?$_Tset_traits@IU?$less@I@std@@V?$K2SetAllocator@I@@$0A@@std@@@std@@V123@Uforward_iterator_tag@3@@std@@YA?AU?$pair@Vconst_iterator@?$_Tree@V?$_Tset_traits@IU?$less@I@std@@V?$K2SetAllocator@I@@$0A@@std@@@std@@V123@@0@Vconst_iterator@?$_Tree@V?$_Tset_traits@IU?$less@I@std@@V?$K2SetAllocator@I@@$0A@@std@@@0@00Uforward_iterator_tag@0@U_Range_checked_iterator_tag@0@@Z 19159700 f i c_clientcommander.obj
 0002:00032890       ??0?$pair@Vconst_iterator@?$_Tree@V?$_Tset_traits@IU?$less@I@std@@V?$K2SetAllocator@I@@$0A@@std@@@std@@V123@@std@@QAE@ABVconst_iterator@?$_Tree@V?$_Tset_traits@IU?$less@I@std@@V?$K2SetAllocator@I@@$0A@@std@@@1@0@Z 19159890 f i c_clientcommander.obj
 0002:00032920       ??$_Debug_range@Vconst_iterator@?$_Tree@V?$_Tset_traits@IU?$less@I@std@@V?$K2SetAllocator@I@@$0A@@std@@@std@@@std@@YAXVconst_iterator@?$_Tree@V?$_Tset_traits@IU?$less@I@std@@V?$K2SetAllocator@I@@$0A@@std@@@0@0PB_WI@Z 19159920 f i c_clientcommander.obj
 0002:00032a10       ??$_Debug_pointer@Vconst_iterator@?$_Tree@V?$_Tset_traits@IU?$less@I@std@@V?$K2SetAllocator@I@@$0A@@std@@@std@@@std@@YAXAAVconst_iterator@?$_Tree@V?$_Tset_traits@IU?$less@I@std@@V?$K2SetAllocator@I@@$0A@@std@@@0@PB_WI@Z 19159a10 f i c_clientcommander.obj
 0002:00032a30       ??$_Iter_cat@Vconst_iterator@?$_Tree@V?$_Tset_traits@IU?$less@I@std@@V?$K2SetAllocator@I@@$0A@@std@@@std@@@std@@YA?AUbidirectional_iterator_tag@0@ABVconst_iterator@?$_Tree@V?$_Tset_traits@IU?$less@I@std@@V?$K2SetAllocator@I@@$0A@@std@@@0@@Z 19159a30 f i c_clientcommander.obj
 0002:00032a50       ??$_Debug_range2@Vconst_iterator@?$_Tree@V?$_Tset_traits@IU?$less@I@std@@V?$K2SetAllocator@I@@$0A@@std@@@std@@@std@@YAXVconst_iterator@?$_Tree@V?$_Tset_traits@IU?$less@I@std@@V?$K2SetAllocator@I@@$0A@@std@@@0@0PB_WIUinput_iterator_tag@0@@Z 19159a50 f i c_clientcommander.obj
 0002:00032ac0       ?GetTool@IUnitEntity@@QBEPAVIEntityTool@@H@Z 19159ac0 f i c_clientcommander.obj
 0002:00032b30       ?GetAbility@IUnitEntity@@QBEPAVIEntityAbility@@H@Z 19159b30 f i c_clientcommander.obj
 0002:00032ba0       ?GetOwnerClientNumber@IUnitEntity@@QBEHXZ 19159ba0 f i c_clientcommander.obj
 0002:00032bd0       ?CanActOnOrdersFrom@IUnitEntity@@QAE_NH@Z 19159bd0 f i c_clientcommander.obj
 0002:00032c50       ?HasUnitFlags@IUnitEntity@@QBE_NG@Z 19159c50 f i c_clientcommander.obj
 0002:00032c90       ?IsIllusion@IUnitEntity@@QBE_NXZ 19159c90 f i c_clientcommander.obj
 0002:00032cc0       ?IsButtonDown@CClientSnapshot@@QBE_NI@Z 19159cc0 f i c_clientcommander.obj
 0002:00032cf0       ?SetCameraPosition@CClientSnapshot@@QAEXABV?$CVec3@M@@@Z 19159cf0 f i c_clientcommander.obj
 0002:00032d30       ?GetCameraPosition@CClientSnapshot@@QBE?AV?$CVec3@M@@XZ 19159d30 f i c_clientcommander.obj
 0002:00032d70       ?GetCurrentClientGamePointer@CGameClient@@SAPAV1@XZ 19159d70 f i c_clientcommander.obj
 0002:00032d90       ?GetMinimapHoverUnit@CGameClient@@QBE?BIXZ 19159d90 f i c_clientcommander.obj
 0002:00032dc0       ?GetInterfaceManager@CGameClient@@QAEPAVCGameInterfaceManager@@XZ 19159dc0 f i c_clientcommander.obj
 0002:00032df0       ?GetItemCursorIndex@CGameClient@@QAEIXZ 19159df0 f i c_clientcommander.obj
 0002:00032e20       ?SetItemCursorIndex@CGameClient@@QAEXI@Z 19159e20 f i c_clientcommander.obj
 0002:00032e50       ?GetActiveShop@CGameClient@@QBEABV?$basic_string@_WU?$char_traits@_W@std@@V?$K2StringAllocator@_W@@@std@@XZ 19159e50 f i c_clientcommander.obj
 0002:00032e80       ?GetActiveRecipe@CGameClient@@QBEABV?$basic_string@_WU?$char_traits@_W@std@@V?$K2StringAllocator@_W@@@std@@XZ 19159e80 f i c_clientcommander.obj
 0002:00032eb0       ?AddResourceToLoadingQueue@CGameClient@@QAEXW4EClientResource@@ABV?$basic_string@_WU?$char_traits@_W@std@@V?$K2StringAllocator@_W@@@std@@H@Z 19159eb0 f i c_clientcommander.obj
 0002:00032f60       ??0SClientResourceLoadRequest@@QAE@W4EClientResource@@ABV?$basic_string@_WU?$char_traits@_W@std@@V?$K2StringAllocator@_W@@@std@@H@Z 19159f60 f i c_clientcommander.obj
 0002:00032fb0       ?GetResource@CGameClient@@QAEIW4EClientResource@@@Z 19159fb0 f i c_clientcommander.obj
 0002:00032fe0       ?GetLastSelectedSoundTime@CGameClient@@QBEIXZ 19159fe0 f i c_clientcommander.obj
 0002:00033010       ?SetLastSelectedSoundTime@CGameClient@@QAEXI@Z 1915a010 f i c_clientcommander.obj
 0002:00033040       ?SendRemoteCommand@CGameClient@@QAEXABV?$basic_string@_WU?$char_traits@_W@std@@V?$K2StringAllocator@_W@@@std@@@Z 1915a040 f i c_clientcommander.obj
 0002:00033080       ?GetCurrentClientSnapshot@CGameClient@@QAEAAVCClientSnapshot@@XZ 1915a080 f i c_clientcommander.obj
 0002:000330b0       ??1SClientResourceLoadRequest@@QAE@XZ 1915a0b0 f i c_clientcommander.obj
 0002:000330e0       ??0?$vector@IV?$K2VectorAllocator@I@@@@QAE@XZ 1915a0e0 f i c_clientcommander.obj
 0002:00033110       ??1?$vector@IV?$K2VectorAllocator@I@@@std@@QAE@XZ 1915a110 f i c_clientcommander.obj
 0002:00033190       ?size@?$vector@IV?$K2VectorAllocator@I@@@std@@QBEIXZ 1915a190 f i c_clientcommander.obj
 0002:000331e0       ??A?$vector@IV?$K2VectorAllocator@I@@@std@@QAEAAII@Z 1915a1e0 f i c_clientcommander.obj
 0002:00033300       ??1?$vector@V?$basic_string@_WU?$char_traits@_W@std@@V?$K2StringAllocator@_W@@@std@@V?$K2VectorAllocator@V?$basic_string@_WU?$char_traits@_W@std@@V?$K2StringAllocator@_W@@@std@@@@@std@@QAE@XZ 1915a300 f i c_clientcommander.obj
 0002:00033380       ?begin@?$vector@V?$basic_string@_WU?$char_traits@_W@std@@V?$K2StringAllocator@_W@@@std@@V?$K2VectorAllocator@V?$basic_string@_WU?$char_traits@_W@std@@V?$K2StringAllocator@_W@@@std@@@@@std@@QAE?AV?$_Vector_iterator@V?$basic_string@_WU?$char_traits@_W@std@@V?$K2StringAllocator@_W@@@std@@V?$K2VectorAllocator@V?$basic_string@_WU?$char_traits@_W@std@@V?$K2StringAllocator@_W@@@std@@@@@2@XZ 1915a380 f i c_clientcommander.obj
 0002:000333d0       ?size@?$vector@V?$basic_string@_WU?$char_traits@_W@std@@V?$K2StringAllocator@_W@@@std@@V?$K2VectorAllocator@V?$basic_string@_WU?$char_traits@_W@std@@V?$K2StringAllocator@_W@@@std@@@@@std@@QBEIXZ 1915a3d0 f i c_clientcommander.obj
 0002:00033420       ??4?$_Tree@V?$_Tset_traits@IU?$less@I@std@@V?$K2SetAllocator@I@@$0A@@std@@@std@@QAEAAV01@ABV01@@Z 1915a420 f i c_clientcommander.obj
 0002:00033500       ?insert@?$_Tree@V?$_Tset_traits@IU?$less@I@std@@V?$K2SetAllocator@I@@$0A@@std@@@std@@QAE?AU?$pair@Viterator@?$_Tree@V?$_Tset_traits@IU?$less@I@std@@V?$K2SetAllocator@I@@$0A@@std@@@std@@_N@2@ABI@Z 1915a500 f i c_clientcommander.obj
 0002:00033920       ?erase@?$_Tree@V?$_Tset_traits@IU?$less@I@std@@V?$K2SetAllocator@I@@$0A@@std@@@std@@QAEIABI@Z 1915a920 f i c_clientcommander.obj
 0002:00033aa0       ?clear@?$_Tree@V?$_Tset_traits@IU?$less@I@std@@V?$K2SetAllocator@I@@$0A@@std@@@std@@QAEXXZ 1915aaa0 f i c_clientcommander.obj
 0002:00033b30       ??0?$basic_string@_WU?$char_traits@_W@std@@V?$K2StringAllocator@_W@@@std@@QAE@U_Has_debug_it@01@@Z 1915ab30 f i c_clientcommander.obj
 0002:00033be0       ??0?$basic_string@_WU?$char_traits@_W@std@@V?$K2StringAllocator@_W@@@std@@QAE@PB_W@Z 1915abe0 f i c_clientcommander.obj
 0002:00033c90       ??0?$basic_string@_WU?$char_traits@_W@std@@V?$K2StringAllocator@_W@@@std@@QAE@ABV01@@Z 1915ac90 f i c_clientcommander.obj
 0002:00033d30       ??1?$basic_string@_WU?$char_traits@_W@std@@V?$K2StringAllocator@_W@@@std@@QAE@XZ 1915ad30 f i c_clientcommander.obj
 0002:00033db0       ??4?$basic_string@_WU?$char_traits@_W@std@@V?$K2StringAllocator@_W@@@std@@QAEAAV01@ABV01@@Z 1915adb0 f i c_clientcommander.obj
 0002:00033de0       ?clear@?$basic_string@_WU?$char_traits@_W@std@@V?$K2StringAllocator@_W@@@std@@QAEXXZ 1915ade0 f i c_clientcommander.obj
 0002:00033ea0       ?empty@?$basic_string@_WU?$char_traits@_W@std@@V?$K2StringAllocator@_W@@@std@@QBE_NXZ 1915aea0 f i c_clientcommander.obj
 0002:00033ed0       ??0?$map@V?$basic_string@_WU?$char_traits@_W@std@@V?$K2StringAllocator@_W@@@std@@V12@U?$less@V?$basic_string@_WU?$char_traits@_W@std@@V?$K2StringAllocator@_W@@@std@@@2@V?$K2MapAllocator@U?$pair@$$CBV?$basic_string@_WU?$char_traits@_W@std@@V?$K2StringAllocator@_W@@@std@@V12@@std@@@@@@QAE@XZ 1915aed0 f i c_clientcommander.obj
 0002:00033f00       ??A?$map@V?$basic_string@_WU?$char_traits@_W@std@@V?$K2StringAllocator@_W@@@std@@V12@U?$less@V?$basic_string@_WU?$char_traits@_W@std@@V?$K2StringAllocator@_W@@@std@@@2@V?$K2MapAllocator@U?$pair@$$CBV?$basic_string@_WU?$char_traits@_W@std@@V?$K2StringAllocator@_W@@@std@@V12@@std@@@@@std@@QAEAAV?$basic_string@_WU?$char_traits@_W@std@@V?$K2StringAllocator@_W@@@1@ABV21@@Z 1915af00 f i c_clientcommander.obj
 0002:000341a0       ??1iterator@?$_Tree@V?$_Tmap_traits@V?$basic_string@_WU?$char_traits@_W@std@@V?$K2StringAllocator@_W@@@std@@V12@U?$less@V?$basic_string@_WU?$char_traits@_W@std@@V?$K2StringAllocator@_W@@@std@@@2@V?$K2MapAllocator@U?$pair@$$CBV?$basic_string@_WU?$char_traits@_W@std@@V?$K2StringAllocator@_W@@@std@@V12@@std@@@@$0A@@std@@@std@@QAE@XZ 1915b1a0 f i c_clientcommander.obj
 0002:000341d0       ??1const_iterator@?$_Tree@V?$_Tmap_traits@V?$basic_string@_WU?$char_traits@_W@std@@V?$K2StringAllocator@_W@@@std@@V12@U?$less@V?$basic_string@_WU?$char_traits@_W@std@@V?$K2StringAllocator@_W@@@std@@@2@V?$K2MapAllocator@U?$pair@$$CBV?$basic_string@_WU?$char_traits@_W@std@@V?$K2StringAllocator@_W@@@std@@V12@@std@@@@$0A@@std@@@std@@QAE@XZ 1915b1d0 f i c_clientcommander.obj
 0002:00034200       ??1?$_Bidit@U?$pair@$$CBV?$basic_string@_WU?$char_traits@_W@std@@V?$K2StringAllocator@_W@@@std@@V12@@std@@HPBU12@ABU12@@std@@QAE@XZ 1915b200 f i c_clientcommander.obj
 0002:00034230       ??1?$_Tree@V?$_Tmap_traits@V?$basic_string@_WU?$char_traits@_W@std@@V?$K2StringAllocator@_W@@@std@@V12@U?$less@V?$basic_string@_WU?$char_traits@_W@std@@V?$K2StringAllocator@_W@@@std@@@2@V?$K2MapAllocator@U?$pair@$$CBV?$basic_string@_WU?$char_traits@_W@std@@V?$K2StringAllocator@_W@@@std@@V12@@std@@@@$0A@@std@@@std@@QAE@XZ 1915b230 f i c_clientcommander.obj
 0002:000342b0       ?end@?$_Tree@V?$_Tmap_traits@V?$basic_string@_WU?$char_traits@_W@std@@V?$K2StringAllocator@_W@@@std@@V12@U?$less@V?$basic_string@_WU?$char_traits@_W@std@@V?$K2StringAllocator@_W@@@std@@@2@V?$K2MapAllocator@U?$pair@$$CBV?$basic_string@_WU?$char_traits@_W@std@@V?$K2StringAllocator@_W@@@std@@V12@@std@@@@$0A@@std@@@std@@QAE?AViterator@12@XZ 1915b2b0 f i c_clientcommander.obj
 0002:00034300       ??0_Has_debug_it@?$basic_string@_WU?$char_traits@_W@std@@V?$K2StringAllocator@_W@@@std@@QAE@_N@Z 1915b300 f i c_clientcommander.obj
 0002:00034330       ??1?$basic_string@DU?$char_traits@D@std@@V?$K2StringAllocator@D@@@std@@QAE@XZ 1915b330 f i c_clientcommander.obj
 0002:000343b0       ?c_str@?$basic_string@DU?$char_traits@D@std@@V?$K2StringAllocator@D@@@std@@QBEPBDXZ 1915b3b0 f i c_clientcommander.obj
 0002:000343e0       ?length@?$basic_string@DU?$char_traits@D@std@@V?$K2StringAllocator@D@@@std@@QBEIXZ 1915b3e0 f i c_clientcommander.obj
 0002:00034400       ??D?$_Vector_iterator@V?$basic_string@_WU?$char_traits@_W@std@@V?$K2StringAllocator@_W@@@std@@V?$K2VectorAllocator@V?$basic_string@_WU?$char_traits@_W@std@@V?$K2StringAllocator@_W@@@std@@@@@std@@QBEAAV?$basic_string@_WU?$char_traits@_W@std@@V?$K2StringAllocator@_W@@@1@XZ 1915b400 f i c_clientcommander.obj
 0002:00034430       ??D?$_Vector_const_iterator@V?$basic_string@_WU?$char_traits@_W@std@@V?$K2StringAllocator@_W@@@std@@V?$K2VectorAllocator@V?$basic_string@_WU?$char_traits@_W@std@@V?$K2StringAllocator@_W@@@std@@@@@std@@QBEABV?$basic_string@_WU?$char_traits@_W@std@@V?$K2StringAllocator@_W@@@1@XZ 1915b430 f i c_clientcommander.obj
 0002:000344f0       ??B?$CCvar@II@@QBEIXZ      1915b4f0 f i c_clientcommander.obj
 0002:00034520       ??B?$CCvar@MM@@QBEMXZ      1915b520 f i c_clientcommander.obj
 0002:00034550       ??B?$CCvar@_N_N@@QBE_NXZ   1915b550 f i c_clientcommander.obj
 0002:00034580       ?end@?$_Tree@V?$_Tmap_traits@IPAVCTeamInfo@@U?$less@I@std@@V?$K2MapAllocator@U?$pair@$$CBIPAVCTeamInfo@@@std@@@@$0A@@std@@@std@@QBE?AVconst_iterator@12@XZ 1915b580 f i c_clientcommander.obj
 0002:000345d0       ?find@?$_Tree@V?$_Tmap_traits@IPAVCTeamInfo@@U?$less@I@std@@V?$K2MapAllocator@U?$pair@$$CBIPAVCTeamInfo@@@std@@@@$0A@@std@@@std@@QBE?AVconst_iterator@12@ABI@Z 1915b5d0 f i c_clientcommander.obj
 0002:000347b0       ??0const_iterator@?$_Tree@V?$_Tmap_traits@IPAVCTeamInfo@@U?$less@I@std@@V?$K2MapAllocator@U?$pair@$$CBIPAVCTeamInfo@@@std@@@@$0A@@std@@@std@@QAE@ABV012@@Z 1915b7b0 f i c_clientcommander.obj
 0002:000347f0       ??0?$_Bidit@U?$pair@$$CBIPAVCTeamInfo@@@std@@HPBU12@ABU12@@std@@QAE@ABU01@@Z 1915b7f0 f i c_clientcommander.obj
 0002:00034820       ??Cconst_iterator@?$_Tree@V?$_Tmap_traits@IPAVCTeamInfo@@U?$less@I@std@@V?$K2MapAllocator@U?$pair@$$CBIPAVCTeamInfo@@@std@@@@$0A@@std@@@std@@QBEPBU?$pair@$$CBIPAVCTeamInfo@@@2@XZ 1915b820 f i c_clientcommander.obj
 0002:00034850       ??8const_iterator@?$_Tree@V?$_Tmap_traits@IPAVCTeamInfo@@U?$less@I@std@@V?$K2MapAllocator@U?$pair@$$CBIPAVCTeamInfo@@@std@@@@$0A@@std@@@std@@QBE_NABV012@@Z 1915b850 f i c_clientcommander.obj
 0002:00034910       ?push_back@?$deque@USClientResourceLoadRequest@@V?$K2DequeAllocator@USClientResourceLoadRequest@@@@@std@@QAEXABUSClientResourceLoadRequest@@@Z 1915b910 f i c_clientcommander.obj
 0002:00034a30       ??1?$_Vector_val@IV?$K2VectorAllocator@I@@@std@@QAE@XZ 1915ba30 f i c_clientcommander.obj
 0002:00034ab0       ??1?$_Vector_iterator@IV?$K2VectorAllocator@I@@@std@@QAE@XZ 1915bab0 f i c_clientcommander.obj
 0002:00034ae0       ??1?$_Vector_val@V?$basic_string@_WU?$char_traits@_W@std@@V?$K2StringAllocator@_W@@@std@@V?$K2VectorAllocator@V?$basic_string@_WU?$char_traits@_W@std@@V?$K2StringAllocator@_W@@@std@@@@@std@@QAE@XZ 1915bae0 f i c_clientcommander.obj
 0002:00034b60       ??1?$pair@Viterator@?$_Tree@V?$_Tset_traits@IU?$less@I@std@@V?$K2SetAllocator@I@@$0A@@std@@@std@@V123@@std@@QAE@XZ 1915bb60 f i c_clientcommander.obj
 0002:00034be0       ??0iterator@?$_Tree@V?$_Tset_traits@IU?$less@I@std@@V?$K2SetAllocator@I@@$0A@@std@@@std@@QAE@ABV012@@Z 1915bbe0 f i c_clientcommander.obj
 0002:00034c10       ??1?$_String_val@_WV?$K2StringAllocator@_W@@@std@@QAE@XZ 1915bc10 f i c_clientcommander.obj
 0002:00034c90       ??1?$_String_iterator@_WU?$char_traits@_W@std@@V?$K2StringAllocator@_W@@@std@@QAE@XZ 1915bc90 f i c_clientcommander.obj
 0002:00034cc0       ??1?$pair@$$CBV?$basic_string@_WU?$char_traits@_W@std@@V?$K2StringAllocator@_W@@@std@@V12@@std@@QAE@XZ 1915bcc0 f i c_clientcommander.obj
 0002:00034d40       ??0iterator@?$_Tree@V?$_Tmap_traits@V?$basic_string@_WU?$char_traits@_W@std@@V?$K2StringAllocator@_W@@@std@@V12@U?$less@V?$basic_string@_WU?$char_traits@_W@std@@V?$K2StringAllocator@_W@@@std@@@2@V?$K2MapAllocator@U?$pair@$$CBV?$basic_string@_WU?$char_traits@_W@std@@V?$K2StringAllocator@_W@@@std@@V12@@std@@@@$0A@@std@@@std@@QAE@ABV012@@Z 1915bd40 f i c_clientcommander.obj
 0002:00034d70       ??4iterator@?$_Tree@V?$_Tmap_traits@V?$basic_string@_WU?$char_traits@_W@std@@V?$K2StringAllocator@_W@@@std@@V12@U?$less@V?$basic_string@_WU?$char_traits@_W@std@@V?$K2StringAllocator@_W@@@std@@@2@V?$K2MapAllocator@U?$pair@$$CBV?$basic_string@_WU?$char_traits@_W@std@@V?$K2StringAllocator@_W@@@std@@V12@@std@@@@$0A@@std@@@std@@QAEAAV012@ABV012@@Z 1915bd70 f i c_clientcommander.obj
 0002:00034da0       ??1?$_Tree_val@V?$_Tmap_traits@V?$basic_string@_WU?$char_traits@_W@std@@V?$K2StringAllocator@_W@@@std@@V12@U?$less@V?$basic_string@_WU?$char_traits@_W@std@@V?$K2StringAllocator@_W@@@std@@@2@V?$K2MapAllocator@U?$pair@$$CBV?$basic_string@_WU?$char_traits@_W@std@@V?$K2StringAllocator@_W@@@std@@V12@@std@@@@$0A@@std@@@std@@QAE@XZ 1915bda0 f i c_clientcommander.obj
 0002:00034e20       ??0const_iterator@?$_Tree@V?$_Tmap_traits@V?$basic_string@_WU?$char_traits@_W@std@@V?$K2StringAllocator@_W@@@std@@V12@U?$less@V?$basic_string@_WU?$char_traits@_W@std@@V?$K2StringAllocator@_W@@@std@@@2@V?$K2MapAllocator@U?$pair@$$CBV?$basic_string@_WU?$char_traits@_W@std@@V?$K2StringAllocator@_W@@@std@@V12@@std@@@@$0A@@std@@@std@@QAE@ABV012@@Z 1915be20 f i c_clientcommander.obj
 0002:00034e60       ??1?$_String_val@DV?$K2StringAllocator@D@@@std@@QAE@XZ 1915be60 f i c_clientcommander.obj
 0002:00034ee0       ??1?$_Vector_const_iterator@IV?$K2VectorAllocator@I@@@std@@QAE@XZ 1915bee0 f i c_clientcommander.obj
 0002:00034f10       ??0const_iterator@?$_Tree@V?$_Tset_traits@IU?$less@I@std@@V?$K2SetAllocator@I@@$0A@@std@@@std@@QAE@ABV012@@Z 1915bf10 f i c_clientcommander.obj
 0002:00034f50       ??1?$_String_const_iterator@_WU?$char_traits@_W@std@@V?$K2StringAllocator@_W@@@std@@QAE@XZ 1915bf50 f i c_clientcommander.obj
 0002:00034f80       ??4const_iterator@?$_Tree@V?$_Tmap_traits@V?$basic_string@_WU?$char_traits@_W@std@@V?$K2StringAllocator@_W@@@std@@V12@U?$less@V?$basic_string@_WU?$char_traits@_W@std@@V?$K2StringAllocator@_W@@@std@@@2@V?$K2MapAllocator@U?$pair@$$CBV?$basic_string@_WU?$char_traits@_W@std@@V?$K2StringAllocator@_W@@@std@@V12@@std@@@@$0A@@std@@@std@@QAEAAV012@ABV012@@Z 1915bf80 f i c_clientcommander.obj
 0002:00034fc0       ??1?$_Tree_ptr@V?$_Tmap_traits@V?$basic_string@_WU?$char_traits@_W@std@@V?$K2StringAllocator@_W@@@std@@V12@U?$less@V?$basic_string@_WU?$char_traits@_W@std@@V?$K2StringAllocator@_W@@@std@@@2@V?$K2MapAllocator@U?$pair@$$CBV?$basic_string@_WU?$char_traits@_W@std@@V?$K2StringAllocator@_W@@@std@@V12@@std@@@@$0A@@std@@@std@@QAE@XZ 1915bfc0 f i c_clientcommander.obj
 0002:00035040       ??0?$_Bidit@U?$pair@$$CBV?$basic_string@_WU?$char_traits@_W@std@@V?$K2StringAllocator@_W@@@std@@V12@@std@@HPBU12@ABU12@@std@@QAE@ABU01@@Z 1915c040 f i c_clientcommander.obj
 0002:00035070       ??1?$_Ranit@IHPBIABI@std@@QAE@XZ 1915c070 f i c_clientcommander.obj
 0002:000350a0       ??0?$_Bidit@IHPBIABI@std@@QAE@ABU01@@Z 1915c0a0 f i c_clientcommander.obj
 0002:000350d0       ??1?$_Ranit_base@_WHPB_WAB_WV_Iterator_base@std@@@std@@QAE@XZ 1915c0d0 f i c_clientcommander.obj
 0002:00035100       ??4?$_Bidit@U?$pair@$$CBV?$basic_string@_WU?$char_traits@_W@std@@V?$K2StringAllocator@_W@@@std@@V12@@std@@HPBU12@ABU12@@std@@QAEAAU01@ABU01@@Z 1915c100 f i c_clientcommander.obj
 0002:00035130       ??1?$_Tree_nod@V?$_Tmap_traits@V?$basic_string@_WU?$char_traits@_W@std@@V?$K2StringAllocator@_W@@@std@@V12@U?$less@V?$basic_string@_WU?$char_traits@_W@std@@V?$K2StringAllocator@_W@@@std@@@2@V?$K2MapAllocator@U?$pair@$$CBV?$basic_string@_WU?$char_traits@_W@std@@V?$K2StringAllocator@_W@@@std@@V12@@std@@@@$0A@@std@@@std@@QAE@XZ 1915c130 f i c_clientcommander.obj
 0002:000351b0       ??1?$_Tmap_traits@V?$basic_string@_WU?$char_traits@_W@std@@V?$K2StringAllocator@_W@@@std@@V12@U?$less@V?$basic_string@_WU?$char_traits@_W@std@@V?$K2StringAllocator@_W@@@std@@@2@V?$K2MapAllocator@U?$pair@$$CBV?$basic_string@_WU?$char_traits@_W@std@@V?$K2StringAllocator@_W@@@std@@V12@@std@@@@$0A@@std@@QAE@XZ 1915c1b0 f i c_clientcommander.obj
 0002:000351e0       ??0?$vector@IV?$K2VectorAllocator@I@@@std@@QAE@XZ 1915c1e0 f i c_clientcommander.obj
 0002:00035270       ?begin@?$vector@IV?$K2VectorAllocator@I@@@std@@QAE?AV?$_Vector_iterator@IV?$K2VectorAllocator@I@@@2@XZ 1915c270 f i c_clientcommander.obj
 0002:000352c0       ?end@?$vector@IV?$K2VectorAllocator@I@@@std@@QAE?AV?$_Vector_iterator@IV?$K2VectorAllocator@I@@@2@XZ 1915c2c0 f i c_clientcommander.obj
 0002:00035310       ?_Buy@?$vector@IV?$K2VectorAllocator@I@@@std@@IAE_NI@Z 1915c310 f i c_clientcommander.obj
 0002:000353c0       ?max_size@?$vector@IV?$K2VectorAllocator@I@@@std@@QBEIXZ 1915c3c0 f i c_clientcommander.obj
 0002:000353f0       ?_Tidy@?$vector@IV?$K2VectorAllocator@I@@@std@@IAEXXZ 1915c3f0 f i c_clientcommander.obj
 0002:00035490       ?_Destroy@?$vector@IV?$K2VectorAllocator@I@@@std@@IAEXPAI0@Z 1915c490 f i c_clientcommander.obj
 0002:000354d0       ?_Xlen@?$vector@IV?$K2VectorAllocator@I@@@std@@KAXXZ 1915c4d0 f i c_clientcommander.obj
 0002:00035580       ??1?$K2VectorAllocator@I@@QAE@XZ 1915c580 f i c_clientcommander.obj
 0002:000355a0       ?allocate@?$K2VectorAllocator@I@@QAEPAII@Z 1915c5a0 f i c_clientcommander.obj
 0002:000355f0       ?deallocate@?$K2VectorAllocator@I@@QAEXPAII@Z 1915c5f0 f i c_clientcommander.obj
 0002:00035630       ?_Tidy@?$vector@V?$basic_string@_WU?$char_traits@_W@std@@V?$K2StringAllocator@_W@@@std@@V?$K2VectorAllocator@V?$basic_string@_WU?$char_traits@_W@std@@V?$K2StringAllocator@_W@@@std@@@@@std@@IAEXXZ 1915c630 f i c_clientcommander.obj
 0002:000356d0       ?_Destroy@?$vector@V?$basic_string@_WU?$char_traits@_W@std@@V?$K2StringAllocator@_W@@@std@@V?$K2VectorAllocator@V?$basic_string@_WU?$char_traits@_W@std@@V?$K2StringAllocator@_W@@@std@@@@@std@@IAEXPAV?$basic_string@_WU?$char_traits@_W@std@@V?$K2StringAllocator@_W@@@2@0@Z 1915c6d0 f i c_clientcommander.obj
 0002:00035710       ??1?$K2VectorAllocator@V?$basic_string@_WU?$char_traits@_W@std@@V?$K2StringAllocator@_W@@@std@@@@QAE@XZ 1915c710 f i c_clientcommander.obj
 0002:00035730       ?deallocate@?$K2VectorAllocator@V?$basic_string@_WU?$char_traits@_W@std@@V?$K2StringAllocator@_W@@@std@@@@QAEXPAV?$basic_string@_WU?$char_traits@_W@std@@V?$K2StringAllocator@_W@@@std@@I@Z 1915c730 f i c_clientcommander.obj
 0002:00035770       ?_Isnil@?$_Tree@V?$_Tset_traits@IU?$less@I@std@@V?$K2SetAllocator@I@@$0A@@std@@@std@@KAAADPAU_Node@?$_Tree_nod@V?$_Tset_traits@IU?$less@I@std@@V?$K2SetAllocator@I@@$0A@@std@@@2@@Z 1915c770 f i c_clientcommander.obj
 0002:00035790       ?_Key@?$_Tree@V?$_Tset_traits@IU?$less@I@std@@V?$K2SetAllocator@I@@$0A@@std@@@std@@KAABIPAU_Node@?$_Tree_nod@V?$_Tset_traits@IU?$less@I@std@@V?$K2SetAllocator@I@@$0A@@std@@@2@@Z 1915c790 f i c_clientcommander.obj
 0002:000357c0       ?_Left@?$_Tree@V?$_Tset_traits@IU?$less@I@std@@V?$K2SetAllocator@I@@$0A@@std@@@std@@KAAAPAU_Node@?$_Tree_nod@V?$_Tset_traits@IU?$less@I@std@@V?$K2SetAllocator@I@@$0A@@std@@@2@PAU342@@Z 1915c7c0 f i c_clientcommander.obj
 0002:000357e0       ?_Right@?$_Tree@V?$_Tset_traits@IU?$less@I@std@@V?$K2SetAllocator@I@@$0A@@std@@@std@@KAAAPAU_Node@?$_Tree_nod@V?$_Tset_traits@IU?$less@I@std@@V?$K2SetAllocator@I@@$0A@@std@@@2@PAU342@@Z 1915c7e0 f i c_clientcommander.obj
 0002:00035800       ?begin@?$_Tree@V?$_Tset_traits@IU?$less@I@std@@V?$K2SetAllocator@I@@$0A@@std@@@std@@QAE?AViterator@12@XZ 1915c800 f i c_clientcommander.obj
 0002:00035850       ?end@?$_Tree@V?$_Tset_traits@IU?$less@I@std@@V?$K2SetAllocator@I@@$0A@@std@@@std@@QAE?AViterator@12@XZ 1915c850 f i c_clientcommander.obj
 0002:000358a0       ?erase@?$_Tree@V?$_Tset_traits@IU?$less@I@std@@V?$K2SetAllocator@I@@$0A@@std@@@std@@QAE?AViterator@12@V312@0@Z 1915c8a0 f i c_clientcommander.obj
 0002:00035b30       ?equal_range@?$_Tree@V?$_Tset_traits@IU?$less@I@std@@V?$K2SetAllocator@I@@$0A@@std@@@std@@QAE?AU?$pair@Viterator@?$_Tree@V?$_Tset_traits@IU?$less@I@std@@V?$K2SetAllocator@I@@$0A@@std@@@std@@V123@@2@ABI@Z 1915cb30 f i c_clientcommander.obj
 0002:00035c20       ?_Copy@?$_Tree@V?$_Tset_traits@IU?$less@I@std@@V?$K2SetAllocator@I@@$0A@@std@@@std@@IAEXABV12@@Z 1915cc20 f i c_clientcommander.obj
 0002:00035d20       ?_Erase@?$_Tree@V?$_Tset_traits@IU?$less@I@std@@V?$K2SetAllocator@I@@$0A@@std@@@std@@IAEXPAU_Node@?$_Tree_nod@V?$_Tset_traits@IU?$less@I@std@@V?$K2SetAllocator@I@@$0A@@std@@@2@@Z 1915cd20 f i c_clientcommander.obj
 0002:00035dc0       ?_Insert@?$_Tree@V?$_Tset_traits@IU?$less@I@std@@V?$K2SetAllocator@I@@$0A@@std@@@std@@IAE?AViterator@12@_NPAU_Node@?$_Tree_nod@V?$_Tset_traits@IU?$less@I@std@@V?$K2SetAllocator@I@@$0A@@std@@@2@ABI@Z 1915cdc0 f i c_clientcommander.obj
 0002:00036380       ?_Lmost@?$_Tree@V?$_Tset_traits@IU?$less@I@std@@V?$K2SetAllocator@I@@$0A@@std@@@std@@IBEAAPAU_Node@?$_Tree_nod@V?$_Tset_traits@IU?$less@I@std@@V?$K2SetAllocator@I@@$0A@@std@@@2@XZ 1915d380 f i c_clientcommander.obj
 0002:000363b0       ?_Rmost@?$_Tree@V?$_Tset_traits@IU?$less@I@std@@V?$K2SetAllocator@I@@$0A@@std@@@std@@IBEAAPAU_Node@?$_Tree_nod@V?$_Tset_traits@IU?$less@I@std@@V?$K2SetAllocator@I@@$0A@@std@@@2@XZ 1915d3b0 f i c_clientcommander.obj
 0002:000363e0       ?_Root@?$_Tree@V?$_Tset_traits@IU?$less@I@std@@V?$K2SetAllocator@I@@$0A@@std@@@std@@IBEAAPAU_Node@?$_Tree_nod@V?$_Tset_traits@IU?$less@I@std@@V?$K2SetAllocator@I@@$0A@@std@@@2@XZ 1915d3e0 f i c_clientcommander.obj
 0002:00036410       ?_Orphan_ptr@?$_Tree@V?$_Tset_traits@IU?$less@I@std@@V?$K2SetAllocator@I@@$0A@@std@@@std@@IBEXAAV12@PAU_Node@?$_Tree_nod@V?$_Tset_traits@IU?$less@I@std@@V?$K2SetAllocator@I@@$0A@@std@@@2@@Z 1915d410 f i c_clientcommander.obj
 0002:000364c0       ?_Kfn@?$_Tset_traits@IU?$less@I@std@@V?$K2SetAllocator@I@@$0A@@std@@SAABIABI@Z 1915d4c0 f i c_clientcommander.obj
 0002:000364e0       ??R?$less@V?$basic_string@_WU?$char_traits@_W@std@@V?$K2StringAllocator@_W@@@std@@@std@@QBE_NABV?$basic_string@_WU?$char_traits@_W@std@@V?$K2StringAllocator@_W@@@1@0@Z 1915d4e0 f i c_clientcommander.obj
 0002:00036510       ?assign@?$basic_string@_WU?$char_traits@_W@std@@V?$K2StringAllocator@_W@@@std@@QAEAAV12@ABV12@@Z 1915d510 f i c_clientcommander.obj
 0002:00036550       ?assign@?$basic_string@_WU?$char_traits@_W@std@@V?$K2StringAllocator@_W@@@std@@QAEAAV12@ABV12@II@Z 1915d550 f i c_clientcommander.obj
 0002:00036640       ?assign@?$basic_string@_WU?$char_traits@_W@std@@V?$K2StringAllocator@_W@@@std@@QAEAAV12@PB_W@Z 1915d640 f i c_clientcommander.obj
 0002:00036680       ?erase@?$basic_string@_WU?$char_traits@_W@std@@V?$K2StringAllocator@_W@@@std@@QAE?AV?$_String_iterator@_WU?$char_traits@_W@std@@V?$K2StringAllocator@_W@@@2@V32@0@Z 1915d680 f i c_clientcommander.obj
 0002:00036840       ?begin@?$basic_string@_WU?$char_traits@_W@std@@V?$K2StringAllocator@_W@@@std@@QAE?AV?$_String_iterator@_WU?$char_traits@_W@std@@V?$K2StringAllocator@_W@@@2@XZ 1915d840 f i c_clientcommander.obj
 0002:00036890       ?end@?$basic_string@_WU?$char_traits@_W@std@@V?$K2StringAllocator@_W@@@std@@QAE?AV?$_String_iterator@_WU?$char_traits@_W@std@@V?$K2StringAllocator@_W@@@2@XZ 1915d890 f i c_clientcommander.obj
 0002:000368f0       ?_Tidy@?$basic_string@_WU?$char_traits@_W@std@@V?$K2StringAllocator@_W@@@std@@IAEX_NI@Z 1915d8f0 f i c_clientcommander.obj
 0002:00036990       ?_Myptr@?$basic_string@_WU?$char_traits@_W@std@@V?$K2StringAllocator@_W@@@std@@IAEPA_WXZ 1915d990 f i c_clientcommander.obj
 0002:000369d0       ?_Myptr@?$basic_string@_WU?$char_traits@_W@std@@V?$K2StringAllocator@_W@@@std@@IBEPB_WXZ 1915d9d0 f i c_clientcommander.obj
 0002:00036a10       ??0?$_String_val@_WV?$K2StringAllocator@_W@@@std@@IAE@V?$K2StringAllocator@_W@@@Z 1915da10 f i c_clientcommander.obj
 0002:00036ab0       ??0?$_String_val@_WV?$K2StringAllocator@_W@@@std@@QAE@ABV01@@Z 1915dab0 f i c_clientcommander.obj
 0002:00036b50       ??0?$K2StringAllocator@_W@@QAE@XZ 1915db50 f i c_clientcommander.obj
 0002:00036b80       ??1?$K2StringAllocator@_W@@QAE@XZ 1915db80 f i c_clientcommander.obj
 0002:00036ba0       ??0?$map@V?$basic_string@_WU?$char_traits@_W@std@@V?$K2StringAllocator@_W@@@std@@V12@U?$less@V?$basic_string@_WU?$char_traits@_W@std@@V?$K2StringAllocator@_W@@@std@@@2@V?$K2MapAllocator@U?$pair@$$CBV?$basic_string@_WU?$char_traits@_W@std@@V?$K2StringAllocator@_W@@@std@@V12@@std@@@@@std@@QAE@XZ 1915dba0 f i c_clientcommander.obj
 0002:00036c40       ?_Key@?$_Tree@V?$_Tmap_traits@V?$basic_string@_WU?$char_traits@_W@std@@V?$K2StringAllocator@_W@@@std@@V12@U?$less@V?$basic_string@_WU?$char_traits@_W@std@@V?$K2StringAllocator@_W@@@std@@@2@V?$K2MapAllocator@U?$pair@$$CBV?$basic_string@_WU?$char_traits@_W@std@@V?$K2StringAllocator@_W@@@std@@V12@@std@@@@$0A@@std@@@std@@KAABV?$basic_string@_WU?$char_traits@_W@std@@V?$K2StringAllocator@_W@@@2@PAU_Node@?$_Tree_nod@V?$_Tmap_traits@V?$basic_string@_WU?$char_traits@_W@std@@V?$K2StringAllocator@_W@@@std@@V12@U?$less@V?$basic_string@_WU?$char_traits@_W@std@@V?$K2StringAllocator@_W@@@std@@@2@V?$K2MapAllocator@U?$pair@$$CBV?$basic_string@_WU?$char_traits@_W@std@@V?$K2StringAllocator@_W@@@std@@V12@@std@@@@$0A@@std@@@2@@Z 1915dc40 f i c_clientcommander.obj
 0002:00036c70       ?insert@?$_Tree@V?$_Tmap_traits@V?$basic_string@_WU?$char_traits@_W@std@@V?$K2StringAllocator@_W@@@std@@V12@U?$less@V?$basic_string@_WU?$char_traits@_W@std@@V?$K2StringAllocator@_W@@@std@@@2@V?$K2MapAllocator@U?$pair@$$CBV?$basic_string@_WU?$char_traits@_W@std@@V?$K2StringAllocator@_W@@@std@@V12@@std@@@@$0A@@std@@@std@@QAE?AViterator@12@V312@ABU?$pair@$$CBV?$basic_string@_WU?$char_traits@_W@std@@V?$K2StringAllocator@_W@@@std@@V12@@2@@Z 1915dc70 f i c_clientcommander.obj
 0002:00037a30       ?begin@?$_Tree@V?$_Tmap_traits@V?$basic_string@_WU?$char_traits@_W@std@@V?$K2StringAllocator@_W@@@std@@V12@U?$less@V?$basic_string@_WU?$char_traits@_W@std@@V?$K2StringAllocator@_W@@@std@@@2@V?$K2MapAllocator@U?$pair@$$CBV?$basic_string@_WU?$char_traits@_W@std@@V?$K2StringAllocator@_W@@@std@@V12@@std@@@@$0A@@std@@@std@@QAE?AViterator@12@XZ 1915ea30 f i c_clientcommander.obj
 0002:00037a80       ?lower_bound@?$_Tree@V?$_Tmap_traits@V?$basic_string@_WU?$char_traits@_W@std@@V?$K2StringAllocator@_W@@@std@@V12@U?$less@V?$basic_string@_WU?$char_traits@_W@std@@V?$K2StringAllocator@_W@@@std@@@2@V?$K2MapAllocator@U?$pair@$$CBV?$basic_string@_WU?$char_traits@_W@std@@V?$K2StringAllocator@_W@@@std@@V12@@std@@@@$0A@@std@@@std@@QAE?AViterator@12@ABV?$basic_string@_WU?$char_traits@_W@std@@V?$K2StringAllocator@_W@@@2@@Z 1915ea80 f i c_clientcommander.obj
 0002:00037ae0       ?_Tidy@?$_Tree@V?$_Tmap_traits@V?$basic_string@_WU?$char_traits@_W@std@@V?$K2StringAllocator@_W@@@std@@V12@U?$less@V?$basic_string@_WU?$char_traits@_W@std@@V?$K2StringAllocator@_W@@@std@@@2@V?$K2MapAllocator@U?$pair@$$CBV?$basic_string@_WU?$char_traits@_W@std@@V?$K2StringAllocator@_W@@@std@@V12@@std@@@@$0A@@std@@@std@@IAEXXZ 1915eae0 f i c_clientcommander.obj
 0002:00037c30       ?erase@?$_Tree@V?$_Tmap_traits@V?$basic_string@_WU?$char_traits@_W@std@@V?$K2StringAllocator@_W@@@std@@V12@U?$less@V?$basic_string@_WU?$char_traits@_W@std@@V?$K2StringAllocator@_W@@@std@@@2@V?$K2MapAllocator@U?$pair@$$CBV?$basic_string@_WU?$char_traits@_W@std@@V?$K2StringAllocator@_W@@@std@@V12@@std@@@@$0A@@std@@@std@@QAE?AViterator@12@V312@0@Z 1915ec30 f i c_clientcommander.obj
 0002:00037ec0       ??9const_iterator@?$_Tree@V?$_Tmap_traits@V?$basic_string@_WU?$char_traits@_W@std@@V?$K2StringAllocator@_W@@@std@@V12@U?$less@V?$basic_string@_WU?$char_traits@_W@std@@V?$K2StringAllocator@_W@@@std@@@2@V?$K2MapAllocator@U?$pair@$$CBV?$basic_string@_WU?$char_traits@_W@std@@V?$K2StringAllocator@_W@@@std@@V12@@std@@@@$0A@@std@@@std@@QBE_NABV012@@Z 1915eec0 f i c_clientcommander.obj
 0002:00037f00       ??1?$K2MapAllocator@U?$pair@$$CBV?$basic_string@_WU?$char_traits@_W@std@@V?$K2StringAllocator@_W@@@std@@V12@@std@@@@QAE@XZ 1915ef00 f i c_clientcommander.obj
 0002:00037f20       ??1?$K2MapAllocator@U_Node@?$_Tree_nod@V?$_Tmap_traits@V?$basic_string@_WU?$char_traits@_W@std@@V?$K2StringAllocator@_W@@@std@@V12@U?$less@V?$basic_string@_WU?$char_traits@_W@std@@V?$K2StringAllocator@_W@@@std@@@2@V?$K2MapAllocator@U?$pair@$$CBV?$basic_string@_WU?$char_traits@_W@std@@V?$K2StringAllocator@_W@@@std@@V12@@std@@@@$0A@@std@@@std@@@@QAE@XZ 1915ef20 f i c_clientcommander.obj
 0002:00037f40       ??1?$K2MapAllocator@PAU_Node@?$_Tree_nod@V?$_Tmap_traits@V?$basic_string@_WU?$char_traits@_W@std@@V?$K2StringAllocator@_W@@@std@@V12@U?$less@V?$basic_string@_WU?$char_traits@_W@std@@V?$K2StringAllocator@_W@@@std@@@2@V?$K2MapAllocator@U?$pair@$$CBV?$basic_string@_WU?$char_traits@_W@std@@V?$K2StringAllocator@_W@@@std@@V12@@std@@@@$0A@@std@@@std@@@@QAE@XZ 1915ef40 f i c_clientcommander.obj
 0002:00037f60       ?_Tidy@?$basic_string@DU?$char_traits@D@std@@V?$K2StringAllocator@D@@@std@@IAEX_NI@Z 1915ef60 f i c_clientcommander.obj
 0002:00038000       ?_Myptr@?$basic_string@DU?$char_traits@D@std@@V?$K2StringAllocator@D@@@std@@IBEPBDXZ 1915f000 f i c_clientcommander.obj
 0002:00038040       ??1?$K2StringAllocator@D@@QAE@XZ 1915f040 f i c_clientcommander.obj
 0002:00038060       ??0?$pair@$$CBV?$basic_string@_WU?$char_traits@_W@std@@V?$K2StringAllocator@_W@@@std@@V12@@std@@QAE@ABV?$basic_string@_WU?$char_traits@_W@std@@V?$K2StringAllocator@_W@@@1@0@Z 1915f060 f i c_clientcommander.obj
 0002:000380f0       ??0?$_Vector_iterator@V?$basic_string@_WU?$char_traits@_W@std@@V?$K2StringAllocator@_W@@@std@@V?$K2VectorAllocator@V?$basic_string@_WU?$char_traits@_W@std@@V?$K2StringAllocator@_W@@@std@@@@@std@@QAE@PAV?$basic_string@_WU?$char_traits@_W@std@@V?$K2StringAllocator@_W@@@1@PBV_Container_base@1@@Z 1915f0f0 f i c_clientcommander.obj
 0002:00038130       ??0?$_Vector_const_iterator@V?$basic_string@_WU?$char_traits@_W@std@@V?$K2StringAllocator@_W@@@std@@V?$K2VectorAllocator@V?$basic_string@_WU?$char_traits@_W@std@@V?$K2StringAllocator@_W@@@std@@@@@std@@QAE@PAV?$basic_string@_WU?$char_traits@_W@std@@V?$K2StringAllocator@_W@@@1@PBV_Container_base@1@@Z 1915f130 f i c_clientcommander.obj
 0002:00038230       ??8const_iterator@?$_Tree@V?$_Tmap_traits@V?$basic_string@_WU?$char_traits@_W@std@@V?$K2StringAllocator@_W@@@std@@V12@U?$less@V?$basic_string@_WU?$char_traits@_W@std@@V?$K2StringAllocator@_W@@@std@@@2@V?$K2MapAllocator@U?$pair@$$CBV?$basic_string@_WU?$char_traits@_W@std@@V?$K2StringAllocator@_W@@@std@@V12@@std@@@@$0A@@std@@@std@@QBE_NABV012@@Z 1915f230 f i c_clientcommander.obj
 0002:000382f0       ?_Mynode@const_iterator@?$_Tree@V?$_Tmap_traits@V?$basic_string@_WU?$char_traits@_W@std@@V?$K2StringAllocator@_W@@@std@@V12@U?$less@V?$basic_string@_WU?$char_traits@_W@std@@V?$K2StringAllocator@_W@@@std@@@2@V?$K2MapAllocator@U?$pair@$$CBV?$basic_string@_WU?$char_traits@_W@std@@V?$K2StringAllocator@_W@@@std@@V12@@std@@@@$0A@@std@@@std@@QBEPAU_Node@?$_Tree_nod@V?$_Tmap_traits@V?$basic_string@_WU?$char_traits@_W@std@@V?$K2StringAllocator@_W@@@std@@V12@U?$less@V?$basic_string@_WU?$char_traits@_W@std@@V?$K2StringAllocator@_W@@@std@@@2@V?$K2MapAllocator@U?$pair@$$CBV?$basic_string@_WU?$char_traits@_W@std@@V?$K2StringAllocator@_W@@@std@@V12@@std@@@@$0A@@std@@@3@XZ 1915f2f0 f i c_clientcommander.obj
 0002:00038310       ??0iterator@?$_Tree@V?$_Tmap_traits@V?$basic_string@_WU?$char_traits@_W@std@@V?$K2StringAllocator@_W@@@std@@V12@U?$less@V?$basic_string@_WU?$char_traits@_W@std@@V?$K2StringAllocator@_W@@@std@@@2@V?$K2MapAllocator@U?$pair@$$CBV?$basic_string@_WU?$char_traits@_W@std@@V?$K2StringAllocator@_W@@@std@@V12@@std@@@@$0A@@std@@@std@@QAE@PAU_Node@?$_Tree_nod@V?$_Tmap_traits@V?$basic_string@_WU?$char_traits@_W@std@@V?$K2StringAllocator@_W@@@std@@V12@U?$less@V?$basic_string@_WU?$char_traits@_W@std@@V?$K2StringAllocator@_W@@@std@@@2@V?$K2MapAllocator@U?$pair@$$CBV?$basic_string@_WU?$char_traits@_W@std@@V?$K2StringAllocator@_W@@@std@@V12@@std@@@@$0A@@std@@@2@PBV12@@Z 1915f310 f i c_clientcommander.obj
 0002:00038350       ??0const_iterator@?$_Tree@V?$_Tmap_traits@V?$basic_string@_WU?$char_traits@_W@std@@V?$K2StringAllocator@_W@@@std@@V12@U?$less@V?$basic_string@_WU?$char_traits@_W@std@@V?$K2StringAllocator@_W@@@std@@@2@V?$K2MapAllocator@U?$pair@$$CBV?$basic_string@_WU?$char_traits@_W@std@@V?$K2StringAllocator@_W@@@std@@V12@@std@@@@$0A@@std@@@std@@QAE@PAU_Node@?$_Tree_nod@V?$_Tmap_traits@V?$basic_string@_WU?$char_traits@_W@std@@V?$K2StringAllocator@_W@@@std@@V12@U?$less@V?$basic_string@_WU?$char_traits@_W@std@@V?$K2StringAllocator@_W@@@std@@@2@V?$K2MapAllocator@U?$pair@$$CBV?$basic_string@_WU?$char_traits@_W@std@@V?$K2StringAllocator@_W@@@std@@V12@@std@@@@$0A@@std@@@2@PBV12@@Z 1915f350 f i c_clientcommander.obj
 0002:000383e0       ??Diterator@?$_Tree@V?$_Tmap_traits@V?$basic_string@_WU?$char_traits@_W@std@@V?$K2StringAllocator@_W@@@std@@V12@U?$less@V?$basic_string@_WU?$char_traits@_W@std@@V?$K2StringAllocator@_W@@@std@@@2@V?$K2MapAllocator@U?$pair@$$CBV?$basic_string@_WU?$char_traits@_W@std@@V?$K2StringAllocator@_W@@@std@@V12@@std@@@@$0A@@std@@@std@@QBEAAU?$pair@$$CBV?$basic_string@_WU?$char_traits@_W@std@@V?$K2StringAllocator@_W@@@std@@V12@@2@XZ 1915f3e0 f i c_clientcommander.obj
 0002:00038410       ??Dconst_iterator@?$_Tree@V?$_Tmap_traits@V?$basic_string@_WU?$char_traits@_W@std@@V?$K2StringAllocator@_W@@@std@@V12@U?$less@V?$basic_string@_WU?$char_traits@_W@std@@V?$K2StringAllocator@_W@@@std@@@2@V?$K2MapAllocator@U?$pair@$$CBV?$basic_string@_WU?$char_traits@_W@std@@V?$K2StringAllocator@_W@@@std@@V12@@std@@@@$0A@@std@@@std@@QBEABU?$pair@$$CBV?$basic_string@_WU?$char_traits@_W@std@@V?$K2StringAllocator@_W@@@std@@V12@@2@XZ 1915f410 f i c_clientcommander.obj
 0002:000384d0       ??0?$pair@Viterator@?$_Tree@V?$_Tset_traits@IU?$less@I@std@@V?$K2SetAllocator@I@@$0A@@std@@@std@@_N@std@@QAE@ABViterator@?$_Tree@V?$_Tset_traits@IU?$less@I@std@@V?$K2SetAllocator@I@@$0A@@std@@@1@AB_N@Z 1915f4d0 f i c_clientcommander.obj
 0002:00038510       ??0iterator@?$_Tree@V?$_Tset_traits@IU?$less@I@std@@V?$K2SetAllocator@I@@$0A@@std@@@std@@QAE@PAU_Node@?$_Tree_nod@V?$_Tset_traits@IU?$less@I@std@@V?$K2SetAllocator@I@@$0A@@std@@@2@PBV12@@Z 1915f510 f i c_clientcommander.obj
 0002:00038550       ??Fiterator@?$_Tree@V?$_Tset_traits@IU?$less@I@std@@V?$K2SetAllocator@I@@$0A@@std@@@std@@QAEAAV012@XZ 1915f550 f i c_clientcommander.obj
 0002:00038580       ??8const_iterator@?$_Tree@V?$_Tset_traits@IU?$less@I@std@@V?$K2SetAllocator@I@@$0A@@std@@@std@@QBE_NABV012@@Z 1915f580 f i c_clientcommander.obj
 0002:00038640       ?_Mynode@const_iterator@?$_Tree@V?$_Tset_traits@IU?$less@I@std@@V?$K2SetAllocator@I@@$0A@@std@@@std@@QBEPAU_Node@?$_Tree_nod@V?$_Tset_traits@IU?$less@I@std@@V?$K2SetAllocator@I@@$0A@@std@@@3@XZ 1915f640 f i c_clientcommander.obj
 0002:00038660       ?_Key@?$_Tree@V?$_Tmap_traits@IPAVCTeamInfo@@U?$less@I@std@@V?$K2MapAllocator@U?$pair@$$CBIPAVCTeamInfo@@@std@@@@$0A@@std@@@std@@KAABIPAU_Node@?$_Tree_nod@V?$_Tmap_traits@IPAVCTeamInfo@@U?$less@I@std@@V?$K2MapAllocator@U?$pair@$$CBIPAVCTeamInfo@@@std@@@@$0A@@std@@@2@@Z 1915f660 f i c_clientcommander.obj
 0002:00038690       ?lower_bound@?$_Tree@V?$_Tmap_traits@IPAVCTeamInfo@@U?$less@I@std@@V?$K2MapAllocator@U?$pair@$$CBIPAVCTeamInfo@@@std@@@@$0A@@std@@@std@@QBE?AVconst_iterator@12@ABI@Z 1915f690 f i c_clientcommander.obj
 0002:000386f0       ??0const_iterator@?$_Tree@V?$_Tmap_traits@IPAVCTeamInfo@@U?$less@I@std@@V?$K2MapAllocator@U?$pair@$$CBIPAVCTeamInfo@@@std@@@@$0A@@std@@@std@@QAE@PAU_Node@?$_Tree_nod@V?$_Tmap_traits@IPAVCTeamInfo@@U?$less@I@std@@V?$K2MapAllocator@U?$pair@$$CBIPAVCTeamInfo@@@std@@@@$0A@@std@@@2@PBV12@@Z 1915f6f0 f i c_clientcommander.obj
 0002:00038780       ??Dconst_iterator@?$_Tree@V?$_Tmap_traits@IPAVCTeamInfo@@U?$less@I@std@@V?$K2MapAllocator@U?$pair@$$CBIPAVCTeamInfo@@@std@@@@$0A@@std@@@std@@QBEABU?$pair@$$CBIPAVCTeamInfo@@@2@XZ 1915f780 f i c_clientcommander.obj
 0002:00038840       ?_Mynode@const_iterator@?$_Tree@V?$_Tmap_traits@IPAVCTeamInfo@@U?$less@I@std@@V?$K2MapAllocator@U?$pair@$$CBIPAVCTeamInfo@@@std@@@@$0A@@std@@@std@@QBEPAU_Node@?$_Tree_nod@V?$_Tmap_traits@IPAVCTeamInfo@@U?$less@I@std@@V?$K2MapAllocator@U?$pair@$$CBIPAVCTeamInfo@@@std@@@@$0A@@std@@@3@XZ 1915f840 f i c_clientcommander.obj
 0002:00038860       ?_Growmap@?$deque@USClientResourceLoadRequest@@V?$K2DequeAllocator@USClientResourceLoadRequest@@@@@std@@IAEXI@Z 1915f860 f i c_clientcommander.obj
 0002:00038b10       ?allocate@?$K2DequeAllocator@USClientResourceLoadRequest@@@@QAEPAUSClientResourceLoadRequest@@I@Z 1915fb10 f i c_clientcommander.obj
 0002:00038b60       ?construct@?$allocator@USClientResourceLoadRequest@@@std@@QAEXPAUSClientResourceLoadRequest@@ABU3@@Z 1915fb60 f i c_clientcommander.obj
 0002:00038b90       ??D?$_Vector_iterator@IV?$K2VectorAllocator@I@@@std@@QBEAAIXZ 1915fb90 f i c_clientcommander.obj
 0002:00038bc0       ??0length_error@std@@QAE@ABV01@@Z 1915fbc0 f i c_clientcommander.obj
 0002:00038c00       ??0?$_String_const_iterator@_WU?$char_traits@_W@std@@V?$K2StringAllocator@_W@@@std@@QAE@ABV01@@Z 1915fc00 f i c_clientcommander.obj
 0002:00038c40       ??1?$pair@Viterator@?$_Tree@V?$_Tmap_traits@V?$basic_string@_WU?$char_traits@_W@std@@V?$K2StringAllocator@_W@@@std@@V12@U?$less@V?$basic_string@_WU?$char_traits@_W@std@@V?$K2StringAllocator@_W@@@std@@@2@V?$K2MapAllocator@U?$pair@$$CBV?$basic_string@_WU?$char_traits@_W@std@@V?$K2StringAllocator@_W@@@std@@V12@@std@@@@$0A@@std@@@std@@_N@std@@QAE@XZ 1915fc40 f i c_clientcommander.obj
 0002:00038c70       ??0?$_Ranit@V?$basic_string@_WU?$char_traits@_W@std@@V?$K2StringAllocator@_W@@@std@@HPBV12@ABV12@@std@@QAE@XZ 1915fc70 f i c_clientcommander.obj
 0002:00038ca0       ??0?$_Bidit@U?$pair@$$CBV?$basic_string@_WU?$char_traits@_W@std@@V?$K2StringAllocator@_W@@@std@@V12@@std@@HPBU12@ABU12@@std@@QAE@XZ 1915fca0 f i c_clientcommander.obj
 0002:00038cd0       ??0?$_Bidit@U?$pair@$$CBIPAVCTeamInfo@@@std@@HPBU12@ABU12@@std@@QAE@XZ 1915fcd0 f i c_clientcommander.obj
 0002:00038d00       ??0?$_Ranit_base@_WHPB_WAB_WV_Iterator_base@std@@@std@@QAE@ABU01@@Z 1915fd00 f i c_clientcommander.obj
 0002:00038d30       ??0?$_Vector_val@IV?$K2VectorAllocator@I@@@std@@IAE@V?$K2VectorAllocator@I@@@Z 1915fd30 f i c_clientcommander.obj
 0002:00038dd0       ??0?$K2VectorAllocator@I@@QAE@XZ 1915fdd0 f i c_clientcommander.obj
 0002:00038e00       ??0?$K2VectorAllocator@I@@QAE@ABV0@@Z 1915fe00 f i c_clientcommander.obj
 0002:00038e30       ?construct@?$allocator@I@std@@QAEXPAIABI@Z 1915fe30 f i c_clientcommander.obj
 0002:00038e60       ?max_size@?$allocator@I@std@@QBEIXZ 1915fe60 f i c_clientcommander.obj
 0002:00038ea0       ?_Color@?$_Tree@V?$_Tset_traits@IU?$less@I@std@@V?$K2SetAllocator@I@@$0A@@std@@@std@@KAAADPAU_Node@?$_Tree_nod@V?$_Tset_traits@IU?$less@I@std@@V?$K2SetAllocator@I@@$0A@@std@@@2@@Z 1915fea0 f i c_clientcommander.obj
 0002:00038ec0       ?_Parent@?$_Tree@V?$_Tset_traits@IU?$less@I@std@@V?$K2SetAllocator@I@@$0A@@std@@@std@@KAAAPAU_Node@?$_Tree_nod@V?$_Tset_traits@IU?$less@I@std@@V?$K2SetAllocator@I@@$0A@@std@@@2@PAU342@@Z 1915fec0 f i c_clientcommander.obj
 0002:00038ee0       ?_Myval@?$_Tree@V?$_Tset_traits@IU?$less@I@std@@V?$K2SetAllocator@I@@$0A@@std@@@std@@KAAAIPAU_Node@?$_Tree_nod@V?$_Tset_traits@IU?$less@I@std@@V?$K2SetAllocator@I@@$0A@@std@@@2@@Z 1915fee0 f i c_clientcommander.obj
 0002:00038f00       ?size@?$_Tree@V?$_Tset_traits@IU?$less@I@std@@V?$K2SetAllocator@I@@$0A@@std@@@std@@QBEIXZ 1915ff00 f i c_clientcommander.obj
 0002:00038f20       ?max_size@?$_Tree@V?$_Tset_traits@IU?$less@I@std@@V?$K2SetAllocator@I@@$0A@@std@@@std@@QBEIXZ 1915ff20 f i c_clientcommander.obj
 0002:00038f50       ?erase@?$_Tree@V?$_Tset_traits@IU?$less@I@std@@V?$K2SetAllocator@I@@$0A@@std@@@std@@QAE?AViterator@12@V312@@Z 1915ff50 f i c_clientcommander.obj
 0002:00039930       ?lower_bound@?$_Tree@V?$_Tset_traits@IU?$less@I@std@@V?$K2SetAllocator@I@@$0A@@std@@@std@@QAE?AViterator@12@ABI@Z 19160930 f i c_clientcommander.obj
 0002:00039990       ?upper_bound@?$_Tree@V?$_Tset_traits@IU?$less@I@std@@V?$K2SetAllocator@I@@$0A@@std@@@std@@QAE?AViterator@12@ABI@Z 19160990 f i c_clientcommander.obj
 0002:000399f0       ?_Copy@?$_Tree@V?$_Tset_traits@IU?$less@I@std@@V?$K2SetAllocator@I@@$0A@@std@@@std@@IAEPAU_Node@?$_Tree_nod@V?$_Tset_traits@IU?$less@I@std@@V?$K2SetAllocator@I@@$0A@@std@@@2@PAU342@0@Z 191609f0 f i c_clientcommander.obj
 0002:00039bb0       ?_Lrotate@?$_Tree@V?$_Tset_traits@IU?$less@I@std@@V?$K2SetAllocator@I@@$0A@@std@@@std@@IAEXPAU_Node@?$_Tree_nod@V?$_Tset_traits@IU?$less@I@std@@V?$K2SetAllocator@I@@$0A@@std@@@2@@Z 19160bb0 f i c_clientcommander.obj
 0002:00039d40       ?_Max@?$_Tree@V?$_Tset_traits@IU?$less@I@std@@V?$K2SetAllocator@I@@$0A@@std@@@std@@KAPAU_Node@?$_Tree_nod@V?$_Tset_traits@IU?$less@I@std@@V?$K2SetAllocator@I@@$0A@@std@@@2@PAU342@@Z 19160d40 f i c_clientcommander.obj
 0002:00039da0       ?_Min@?$_Tree@V?$_Tset_traits@IU?$less@I@std@@V?$K2SetAllocator@I@@$0A@@std@@@std@@KAPAU_Node@?$_Tree_nod@V?$_Tset_traits@IU?$less@I@std@@V?$K2SetAllocator@I@@$0A@@std@@@2@PAU342@@Z 19160da0 f i c_clientcommander.obj
 0002:00039e00       ?_Rrotate@?$_Tree@V?$_Tset_traits@IU?$less@I@std@@V?$K2SetAllocator@I@@$0A@@std@@@std@@IAEXPAU_Node@?$_Tree_nod@V?$_Tset_traits@IU?$less@I@std@@V?$K2SetAllocator@I@@$0A@@std@@@2@@Z 19160e00 f i c_clientcommander.obj
 0002:00039f90       ?_Buynode@?$_Tree@V?$_Tset_traits@IU?$less@I@std@@V?$K2SetAllocator@I@@$0A@@std@@@std@@IAEPAU_Node@?$_Tree_nod@V?$_Tset_traits@IU?$less@I@std@@V?$K2SetAllocator@I@@$0A@@std@@@2@PAU342@00ABID@Z 19160f90 f i c_clientcommander.obj
 0002:0003a0b0       ?deallocate@?$K2SetAllocator@U_Node@?$_Tree_nod@V?$_Tset_traits@IU?$less@I@std@@V?$K2SetAllocator@I@@$0A@@std@@@std@@@@QAEXPAU_Node@?$_Tree_nod@V?$_Tset_traits@IU?$less@I@std@@V?$K2SetAllocator@I@@$0A@@std@@@std@@I@Z 191610b0 f i c_clientcommander.obj
 0002:0003a0f0       ?destroy@?$allocator@U_Node@?$_Tree_nod@V?$_Tset_traits@IU?$less@I@std@@V?$K2SetAllocator@I@@$0A@@std@@@std@@@std@@QAEXPAU_Node@?$_Tree_nod@V?$_Tset_traits@IU?$less@I@std@@V?$K2SetAllocator@I@@$0A@@std@@@2@@Z 191610f0 f i c_clientcommander.obj
 0002:0003a120       ?assign@?$basic_string@_WU?$char_traits@_W@std@@V?$K2StringAllocator@_W@@@std@@QAEAAV12@PB_WI@Z 19161120 f i c_clientcommander.obj
 0002:0003a1e0       ?erase@?$basic_string@_WU?$char_traits@_W@std@@V?$K2StringAllocator@_W@@@std@@QAEAAV12@II@Z 191611e0 f i c_clientcommander.obj
 0002:0003a2b0       ?size@?$basic_string@_WU?$char_traits@_W@std@@V?$K2StringAllocator@_W@@@std@@QBEIXZ 191612b0 f i c_clientcommander.obj
 0002:0003a2d0       ?_Eos@?$basic_string@_WU?$char_traits@_W@std@@V?$K2StringAllocator@_W@@@std@@IAEXI@Z 191612d0 f i c_clientcommander.obj
 0002:0003a320       ?_Grow@?$basic_string@_WU?$char_traits@_W@std@@V?$K2StringAllocator@_W@@@std@@IAE_NI_N@Z 19161320 f i c_clientcommander.obj
 0002:0003a3f0       ?_Pdif@?$basic_string@_WU?$char_traits@_W@std@@V?$K2StringAllocator@_W@@@std@@KAIV?$_String_const_iterator@_WU?$char_traits@_W@std@@V?$K2StringAllocator@_W@@@2@0@Z 191613f0 f i c_clientcommander.obj
 0002:0003a4a0       ??0?$K2StringAllocator@_W@@QAE@ABV0@@Z 191614a0 f i c_clientcommander.obj
 0002:0003a4d0       ?deallocate@?$K2StringAllocator@_W@@QAEXPA_WI@Z 191614d0 f i c_clientcommander.obj
 0002:0003a510       ?_Isnil@?$_Tree@V?$_Tmap_traits@V?$basic_string@_WU?$char_traits@_W@std@@V?$K2StringAllocator@_W@@@std@@V12@U?$less@V?$basic_string@_WU?$char_traits@_W@std@@V?$K2StringAllocator@_W@@@std@@@2@V?$K2MapAllocator@U?$pair@$$CBV?$basic_string@_WU?$char_traits@_W@std@@V?$K2StringAllocator@_W@@@std@@V12@@std@@@@$0A@@std@@@std@@KAAADPAU_Node@?$_Tree_nod@V?$_Tmap_traits@V?$basic_string@_WU?$char_traits@_W@std@@V?$K2StringAllocator@_W@@@std@@V12@U?$less@V?$basic_string@_WU?$char_traits@_W@std@@V?$K2StringAllocator@_W@@@std@@@2@V?$K2MapAllocator@U?$pair@$$CBV?$basic_string@_WU?$char_traits@_W@std@@V?$K2StringAllocator@_W@@@std@@V12@@std@@@@$0A@@std@@@2@@Z 19161510 f i c_clientcommander.obj
 0002:0003a530       ?_Left@?$_Tree@V?$_Tmap_traits@V?$basic_string@_WU?$char_traits@_W@std@@V?$K2StringAllocator@_W@@@std@@V12@U?$less@V?$basic_string@_WU?$char_traits@_W@std@@V?$K2StringAllocator@_W@@@std@@@2@V?$K2MapAllocator@U?$pair@$$CBV?$basic_string@_WU?$char_traits@_W@std@@V?$K2StringAllocator@_W@@@std@@V12@@std@@@@$0A@@std@@@std@@KAAAPAU_Node@?$_Tree_nod@V?$_Tmap_traits@V?$basic_string@_WU?$char_traits@_W@std@@V?$K2StringAllocator@_W@@@std@@V12@U?$less@V?$basic_string@_WU?$char_traits@_W@std@@V?$K2StringAllocator@_W@@@std@@@2@V?$K2MapAllocator@U?$pair@$$CBV?$basic_string@_WU?$char_traits@_W@std@@V?$K2StringAllocator@_W@@@std@@V12@@std@@@@$0A@@std@@@2@PAU342@@Z 19161530 f i c_clientcommander.obj
 0002:0003a550       ?_Parent@?$_Tree@V?$_Tmap_traits@V?$basic_string@_WU?$char_traits@_W@std@@V?$K2StringAllocator@_W@@@std@@V12@U?$less@V?$basic_string@_WU?$char_traits@_W@std@@V?$K2StringAllocator@_W@@@std@@@2@V?$K2MapAllocator@U?$pair@$$CBV?$basic_string@_WU?$char_traits@_W@std@@V?$K2StringAllocator@_W@@@std@@V12@@std@@@@$0A@@std@@@std@@KAAAPAU_Node@?$_Tree_nod@V?$_Tmap_traits@V?$basic_string@_WU?$char_traits@_W@std@@V?$K2StringAllocator@_W@@@std@@V12@U?$less@V?$basic_string@_WU?$char_traits@_W@std@@V?$K2StringAllocator@_W@@@std@@@2@V?$K2MapAllocator@U?$pair@$$CBV?$basic_string@_WU?$char_traits@_W@std@@V?$K2StringAllocator@_W@@@std@@V12@@std@@@@$0A@@std@@@2@PAU342@@Z 19161550 f i c_clientcommander.obj
 0002:0003a570       ?_Right@?$_Tree@V?$_Tmap_traits@V?$basic_string@_WU?$char_traits@_W@std@@V?$K2StringAllocator@_W@@@std@@V12@U?$less@V?$basic_string@_WU?$char_traits@_W@std@@V?$K2StringAllocator@_W@@@std@@@2@V?$K2MapAllocator@U?$pair@$$CBV?$basic_string@_WU?$char_traits@_W@std@@V?$K2StringAllocator@_W@@@std@@V12@@std@@@@$0A@@std@@@std@@KAAAPAU_Node@?$_Tree_nod@V?$_Tmap_traits@V?$basic_string@_WU?$char_traits@_W@std@@V?$K2StringAllocator@_W@@@std@@V12@U?$less@V?$basic_string@_WU?$char_traits@_W@std@@V?$K2StringAllocator@_W@@@std@@@2@V?$K2MapAllocator@U?$pair@$$CBV?$basic_string@_WU?$char_traits@_W@std@@V?$K2StringAllocator@_W@@@std@@V12@@std@@@@$0A@@std@@@2@PAU342@@Z 19161570 f i c_clientcommander.obj
 0002:0003a590       ?_Myval@?$_Tree@V?$_Tmap_traits@V?$basic_string@_WU?$char_traits@_W@std@@V?$K2StringAllocator@_W@@@std@@V12@U?$less@V?$basic_string@_WU?$char_traits@_W@std@@V?$K2StringAllocator@_W@@@std@@@2@V?$K2MapAllocator@U?$pair@$$CBV?$basic_string@_WU?$char_traits@_W@std@@V?$K2StringAllocator@_W@@@std@@V12@@std@@@@$0A@@std@@@std@@KAAAU?$pair@$$CBV?$basic_string@_WU?$char_traits@_W@std@@V?$K2StringAllocator@_W@@@std@@V12@@2@PAU_Node@?$_Tree_nod@V?$_Tmap_traits@V?$basic_string@_WU?$char_traits@_W@std@@V?$K2StringAllocator@_W@@@std@@V12@U?$less@V?$basic_string@_WU?$char_traits@_W@std@@V?$K2StringAllocator@_W@@@std@@@2@V?$K2MapAllocator@U?$pair@$$CBV?$basic_string@_WU?$char_traits@_W@std@@V?$K2StringAllocator@_W@@@std@@V12@@std@@@@$0A@@std@@@2@@Z 19161590 f i c_clientcommander.obj
 0002:0003a5b0       ??0?$_Tree@V?$_Tmap_traits@V?$basic_string@_WU?$char_traits@_W@std@@V?$K2StringAllocator@_W@@@std@@V12@U?$less@V?$basic_string@_WU?$char_traits@_W@std@@V?$K2StringAllocator@_W@@@std@@@2@V?$K2MapAllocator@U?$pair@$$CBV?$basic_string@_WU?$char_traits@_W@std@@V?$K2StringAllocator@_W@@@std@@V12@@std@@@@$0A@@std@@@std@@QAE@ABU?$less@V?$basic_string@_WU?$char_traits@_W@std@@V?$K2StringAllocator@_W@@@std@@@1@ABV?$K2MapAllocator@U?$pair@$$CBV?$basic_string@_WU?$char_traits@_W@std@@V?$K2StringAllocator@_W@@@std@@V12@@std@@@@@Z 191615b0 f i c_clientcommander.obj
 0002:0003a650       ?size@?$_Tree@V?$_Tmap_traits@V?$basic_string@_WU?$char_traits@_W@std@@V?$K2StringAllocator@_W@@@std@@V12@U?$less@V?$basic_string@_WU?$char_traits@_W@std@@V?$K2StringAllocator@_W@@@std@@@2@V?$K2MapAllocator@U?$pair@$$CBV?$basic_string@_WU?$char_traits@_W@std@@V?$K2StringAllocator@_W@@@std@@V12@@std@@@@$0A@@std@@@std@@QBEIXZ 19161650 f i c_clientcommander.obj
 0002:0003a670       ?insert@?$_Tree@V?$_Tmap_traits@V?$basic_string@_WU?$char_traits@_W@std@@V?$K2StringAllocator@_W@@@std@@V12@U?$less@V?$basic_string@_WU?$char_traits@_W@std@@V?$K2StringAllocator@_W@@@std@@@2@V?$K2MapAllocator@U?$pair@$$CBV?$basic_string@_WU?$char_traits@_W@std@@V?$K2StringAllocator@_W@@@std@@V12@@std@@@@$0A@@std@@@std@@QAE?AU?$pair@Viterator@?$_Tree@V?$_Tmap_traits@V?$basic_string@_WU?$char_traits@_W@std@@V?$K2StringAllocator@_W@@@std@@V12@U?$less@V?$basic_string@_WU?$char_traits@_W@std@@V?$K2StringAllocator@_W@@@std@@@2@V?$K2MapAllocator@U?$pair@$$CBV?$basic_string@_WU?$char_traits@_W@std@@V?$K2StringAllocator@_W@@@std@@V12@@std@@@@$0A@@std@@@std@@_N@2@ABU?$pair@$$CBV?$basic_string@_WU?$char_traits@_W@std@@V?$K2StringAllocator@_W@@@std@@V12@@2@@Z 19161670 f i c_clientcommander.obj
 0002:0003aa90       ?erase@?$_Tree@V?$_Tmap_traits@V?$basic_string@_WU?$char_traits@_W@std@@V?$K2StringAllocator@_W@@@std@@V12@U?$less@V?$basic_string@_WU?$char_traits@_W@std@@V?$K2StringAllocator@_W@@@std@@@2@V?$K2MapAllocator@U?$pair@$$CBV?$basic_string@_WU?$char_traits@_W@std@@V?$K2StringAllocator@_W@@@std@@V12@@std@@@@$0A@@std@@@std@@QAE?AViterator@12@V312@@Z 19161a90 f i c_clientcommander.obj
 0002:0003b470       ?clear@?$_Tree@V?$_Tmap_traits@V?$basic_string@_WU?$char_traits@_W@std@@V?$K2StringAllocator@_W@@@std@@V12@U?$less@V?$basic_string@_WU?$char_traits@_W@std@@V?$K2StringAllocator@_W@@@std@@@2@V?$K2MapAllocator@U?$pair@$$CBV?$basic_string@_WU?$char_traits@_W@std@@V?$K2StringAllocator@_W@@@std@@V12@@std@@@@$0A@@std@@@std@@QAEXXZ 19162470 f i c_clientcommander.obj
 0002:0003b500       ?_Insert@?$_Tree@V?$_Tmap_traits@V?$basic_string@_WU?$char_traits@_W@std@@V?$K2StringAllocator@_W@@@std@@V12@U?$less@V?$basic_string@_WU?$char_traits@_W@std@@V?$K2StringAllocator@_W@@@std@@@2@V?$K2MapAllocator@U?$pair@$$CBV?$basic_string@_WU?$char_traits@_W@std@@V?$K2StringAllocator@_W@@@std@@V12@@std@@@@$0A@@std@@@std@@IAE?AViterator@12@_NPAU_Node@?$_Tree_nod@V?$_Tmap_traits@V?$basic_string@_WU?$char_traits@_W@std@@V?$K2StringAllocator@_W@@@std@@V12@U?$less@V?$basic_string@_WU?$char_traits@_W@std@@V?$K2StringAllocator@_W@@@std@@@2@V?$K2MapAllocator@U?$pair@$$CBV?$basic_string@_WU?$char_traits@_W@std@@V?$K2StringAllocator@_W@@@std@@V12@@std@@@@$0A@@std@@@2@ABU?$pair@$$CBV?$basic_string@_WU?$char_traits@_W@std@@V?$K2StringAllocator@_W@@@std@@V12@@2@@Z 19162500 f i c_clientcommander.obj
 0002:0003bac0       ?_Lbound@?$_Tree@V?$_Tmap_traits@V?$basic_string@_WU?$char_traits@_W@std@@V?$K2StringAllocator@_W@@@std@@V12@U?$less@V?$basic_string@_WU?$char_traits@_W@std@@V?$K2StringAllocator@_W@@@std@@@2@V?$K2MapAllocator@U?$pair@$$CBV?$basic_string@_WU?$char_traits@_W@std@@V?$K2StringAllocator@_W@@@std@@V12@@std@@@@$0A@@std@@@std@@IBEPAU_Node@?$_Tree_nod@V?$_Tmap_traits@V?$basic_string@_WU?$char_traits@_W@std@@V?$K2StringAllocator@_W@@@std@@V12@U?$less@V?$basic_string@_WU?$char_traits@_W@std@@V?$K2StringAllocator@_W@@@std@@@2@V?$K2MapAllocator@U?$pair@$$CBV?$basic_string@_WU?$char_traits@_W@std@@V?$K2StringAllocator@_W@@@std@@V12@@std@@@@$0A@@std@@@2@ABV?$basic_string@_WU?$char_traits@_W@std@@V?$K2StringAllocator@_W@@@2@@Z 19162ac0 f i c_clientcommander.obj
 0002:0003bb90       ?_Lmost@?$_Tree@V?$_Tmap_traits@V?$basic_string@_WU?$char_traits@_W@std@@V?$K2StringAllocator@_W@@@std@@V12@U?$less@V?$basic_string@_WU?$char_traits@_W@std@@V?$K2StringAllocator@_W@@@std@@@2@V?$K2MapAllocator@U?$pair@$$CBV?$basic_string@_WU?$char_traits@_W@std@@V?$K2StringAllocator@_W@@@std@@V12@@std@@@@$0A@@std@@@std@@IBEAAPAU_Node@?$_Tree_nod@V?$_Tmap_traits@V?$basic_string@_WU?$char_traits@_W@std@@V?$K2StringAllocator@_W@@@std@@V12@U?$less@V?$basic_string@_WU?$char_traits@_W@std@@V?$K2StringAllocator@_W@@@std@@@2@V?$K2MapAllocator@U?$pair@$$CBV?$basic_string@_WU?$char_traits@_W@std@@V?$K2StringAllocator@_W@@@std@@V12@@std@@@@$0A@@std@@@2@XZ 19162b90 f i c_clientcommander.obj
 0002:0003bbc0       ?_Max@?$_Tree@V?$_Tmap_traits@V?$basic_string@_WU?$char_traits@_W@std@@V?$K2StringAllocator@_W@@@std@@V12@U?$less@V?$basic_string@_WU?$char_traits@_W@std@@V?$K2StringAllocator@_W@@@std@@@2@V?$K2MapAllocator@U?$pair@$$CBV?$basic_string@_WU?$char_traits@_W@std@@V?$K2StringAllocator@_W@@@std@@V12@@std@@@@$0A@@std@@@std@@KAPAU_Node@?$_Tree_nod@V?$_Tmap_traits@V?$basic_string@_WU?$char_traits@_W@std@@V?$K2StringAllocator@_W@@@std@@V12@U?$less@V?$basic_string@_WU?$char_traits@_W@std@@V?$K2StringAllocator@_W@@@std@@@2@V?$K2MapAllocator@U?$pair@$$CBV?$basic_string@_WU?$char_traits@_W@std@@V?$K2StringAllocator@_W@@@std@@V12@@std@@@@$0A@@std@@@2@PAU342@@Z 19162bc0 f i c_clientcommander.obj
 0002:0003bc20       ?_Min@?$_Tree@V?$_Tmap_traits@V?$basic_string@_WU?$char_traits@_W@std@@V?$K2StringAllocator@_W@@@std@@V12@U?$less@V?$basic_string@_WU?$char_traits@_W@std@@V?$K2StringAllocator@_W@@@std@@@2@V?$K2MapAllocator@U?$pair@$$CBV?$basic_string@_WU?$char_traits@_W@std@@V?$K2StringAllocator@_W@@@std@@V12@@std@@@@$0A@@std@@@std@@KAPAU_Node@?$_Tree_nod@V?$_Tmap_traits@V?$basic_string@_WU?$char_traits@_W@std@@V?$K2StringAllocator@_W@@@std@@V12@U?$less@V?$basic_string@_WU?$char_traits@_W@std@@V?$K2StringAllocator@_W@@@std@@@2@V?$K2MapAllocator@U?$pair@$$CBV?$basic_string@_WU?$char_traits@_W@std@@V?$K2StringAllocator@_W@@@std@@V12@@std@@@@$0A@@std@@@2@PAU342@@Z 19162c20 f i c_clientcommander.obj
 0002:0003bc80       ?_Rmost@?$_Tree@V?$_Tmap_traits@V?$basic_string@_WU?$char_traits@_W@std@@V?$K2StringAllocator@_W@@@std@@V12@U?$less@V?$basic_string@_WU?$char_traits@_W@std@@V?$K2StringAllocator@_W@@@std@@@2@V?$K2MapAllocator@U?$pair@$$CBV?$basic_string@_WU?$char_traits@_W@std@@V?$K2StringAllocator@_W@@@std@@V12@@std@@@@$0A@@std@@@std@@IBEAAPAU_Node@?$_Tree_nod@V?$_Tmap_traits@V?$basic_string@_WU?$char_traits@_W@std@@V?$K2StringAllocator@_W@@@std@@V12@U?$less@V?$basic_string@_WU?$char_traits@_W@std@@V?$K2StringAllocator@_W@@@std@@@2@V?$K2MapAllocator@U?$pair@$$CBV?$basic_string@_WU?$char_traits@_W@std@@V?$K2StringAllocator@_W@@@std@@V12@@std@@@@$0A@@std@@@2@XZ 19162c80 f i c_clientcommander.obj
 0002:0003bcb0       ?_Root@?$_Tree@V?$_Tmap_traits@V?$basic_string@_WU?$char_traits@_W@std@@V?$K2StringAllocator@_W@@@std@@V12@U?$less@V?$basic_string@_WU?$char_traits@_W@std@@V?$K2StringAllocator@_W@@@std@@@2@V?$K2MapAllocator@U?$pair@$$CBV?$basic_string@_WU?$char_traits@_W@std@@V?$K2StringAllocator@_W@@@std@@V12@@std@@@@$0A@@std@@@std@@IBEAAPAU_Node@?$_Tree_nod@V?$_Tmap_traits@V?$basic_string@_WU?$char_traits@_W@std@@V?$K2StringAllocator@_W@@@std@@V12@U?$less@V?$basic_string@_WU?$char_traits@_W@std@@V?$K2StringAllocator@_W@@@std@@@2@V?$K2MapAllocator@U?$pair@$$CBV?$basic_string@_WU?$char_traits@_W@std@@V?$K2StringAllocator@_W@@@std@@V12@@std@@@@$0A@@std@@@2@XZ 19162cb0 f i c_clientcommander.obj
 0002:0003bce0       ?_Kfn@?$_Tmap_traits@V?$basic_string@_WU?$char_traits@_W@std@@V?$K2StringAllocator@_W@@@std@@V12@U?$less@V?$basic_string@_WU?$char_traits@_W@std@@V?$K2StringAllocator@_W@@@std@@@2@V?$K2MapAllocator@U?$pair@$$CBV?$basic_string@_WU?$char_traits@_W@std@@V?$K2StringAllocator@_W@@@std@@V12@@std@@@@$0A@@std@@SAABV?$basic_string@_WU?$char_traits@_W@std@@V?$K2StringAllocator@_W@@@2@ABU?$pair@$$CBV?$basic_string@_WU?$char_traits@_W@std@@V?$K2StringAllocator@_W@@@std@@V12@@2@@Z 19162ce0 f i c_clientcommander.obj
 0002:0003bd00       ??0?$K2MapAllocator@U?$pair@$$CBV?$basic_string@_WU?$char_traits@_W@std@@V?$K2StringAllocator@_W@@@std@@V12@@std@@@@QAE@XZ 19162d00 f i c_clientcommander.obj
 0002:0003bd30       ?deallocate@?$K2MapAllocator@U_Node@?$_Tree_nod@V?$_Tmap_traits@V?$basic_string@_WU?$char_traits@_W@std@@V?$K2StringAllocator@_W@@@std@@V12@U?$less@V?$basic_string@_WU?$char_traits@_W@std@@V?$K2StringAllocator@_W@@@std@@@2@V?$K2MapAllocator@U?$pair@$$CBV?$basic_string@_WU?$char_traits@_W@std@@V?$K2StringAllocator@_W@@@std@@V12@@std@@@@$0A@@std@@@std@@@@QAEXPAU_Node@?$_Tree_nod@V?$_Tmap_traits@V?$basic_string@_WU?$char_traits@_W@std@@V?$K2StringAllocator@_W@@@std@@V12@U?$less@V?$basic_string@_WU?$char_traits@_W@std@@V?$K2StringAllocator@_W@@@std@@@2@V?$K2MapAllocator@U?$pair@$$CBV?$basic_string@_WU?$char_traits@_W@std@@V?$K2StringAllocator@_W@@@std@@V12@@std@@@@$0A@@std@@@std@@I@Z 19162d30 f i c_clientcommander.obj
 0002:0003bd70       ?destroy@?$allocator@PAU_Node@?$_Tree_nod@V?$_Tmap_traits@V?$basic_string@_WU?$char_traits@_W@std@@V?$K2StringAllocator@_W@@@std@@V12@U?$less@V?$basic_string@_WU?$char_traits@_W@std@@V?$K2StringAllocator@_W@@@std@@@2@V?$K2MapAllocator@U?$pair@$$CBV?$basic_string@_WU?$char_traits@_W@std@@V?$K2StringAllocator@_W@@@std@@V12@@std@@@@$0A@@std@@@std@@@std@@QAEXPAPAU_Node@?$_Tree_nod@V?$_Tmap_traits@V?$basic_string@_WU?$char_traits@_W@std@@V?$K2StringAllocator@_W@@@std@@V12@U?$less@V?$basic_string@_WU?$char_traits@_W@std@@V?$K2StringAllocator@_W@@@std@@@2@V?$K2MapAllocator@U?$pair@$$CBV?$basic_string@_WU?$char_traits@_W@std@@V?$K2StringAllocator@_W@@@std@@V12@@std@@@@$0A@@std@@@2@@Z 19162d70 f i c_clientcommander.obj
 0002:0003bda0       ?_Eos@?$basic_string@DU?$char_traits@D@std@@V?$K2StringAllocator@D@@@std@@IAEXI@Z 19162da0 f i c_clientcommander.obj
 0002:0003bdf0       ?_Myptr@?$basic_string@DU?$char_traits@D@std@@V?$K2StringAllocator@D@@@std@@IAEPADXZ 19162df0 f i c_clientcommander.obj
 0002:0003be30       ?deallocate@?$K2StringAllocator@D@@QAEXPADI@Z 19162e30 f i c_clientcommander.obj
 0002:0003be70       ??0iterator@?$_Tree@V?$_Tmap_traits@V?$basic_string@_WU?$char_traits@_W@std@@V?$K2StringAllocator@_W@@@std@@V12@U?$less@V?$basic_string@_WU?$char_traits@_W@std@@V?$K2StringAllocator@_W@@@std@@@2@V?$K2MapAllocator@U?$pair@$$CBV?$basic_string@_WU?$char_traits@_W@std@@V?$K2StringAllocator@_W@@@std@@V12@@std@@@@$0A@@std@@@std@@QAE@XZ 19162e70 f i c_clientcommander.obj
 0002:0003bea0       ??Eiterator@?$_Tree@V?$_Tmap_traits@V?$basic_string@_WU?$char_traits@_W@std@@V?$K2StringAllocator@_W@@@std@@V12@U?$less@V?$basic_string@_WU?$char_traits@_W@std@@V?$K2StringAllocator@_W@@@std@@@2@V?$K2MapAllocator@U?$pair@$$CBV?$basic_string@_WU?$char_traits@_W@std@@V?$K2StringAllocator@_W@@@std@@V12@@std@@@@$0A@@std@@@std@@QAEAAV012@XZ 19162ea0 f i c_clientcommander.obj
 0002:0003bed0       ??Eiterator@?$_Tree@V?$_Tmap_traits@V?$basic_string@_WU?$char_traits@_W@std@@V?$K2StringAllocator@_W@@@std@@V12@U?$less@V?$basic_string@_WU?$char_traits@_W@std@@V?$K2StringAllocator@_W@@@std@@@2@V?$K2MapAllocator@U?$pair@$$CBV?$basic_string@_WU?$char_traits@_W@std@@V?$K2StringAllocator@_W@@@std@@V12@@std@@@@$0A@@std@@@std@@QAE?AV012@H@Z 19162ed0 f i c_clientcommander.obj
 0002:0003bf80       ??Fiterator@?$_Tree@V?$_Tmap_traits@V?$basic_string@_WU?$char_traits@_W@std@@V?$K2StringAllocator@_W@@@std@@V12@U?$less@V?$basic_string@_WU?$char_traits@_W@std@@V?$K2StringAllocator@_W@@@std@@@2@V?$K2MapAllocator@U?$pair@$$CBV?$basic_string@_WU?$char_traits@_W@std@@V?$K2StringAllocator@_W@@@std@@V12@@std@@@@$0A@@std@@@std@@QAEAAV012@XZ 19162f80 f i c_clientcommander.obj
 0002:0003bfb0       ??Eiterator@?$_Tree@V?$_Tset_traits@IU?$less@I@std@@V?$K2SetAllocator@I@@$0A@@std@@@std@@QAE?AV012@H@Z 19162fb0 f i c_clientcommander.obj
 0002:0003c060       ??0const_iterator@?$_Tree@V?$_Tset_traits@IU?$less@I@std@@V?$K2SetAllocator@I@@$0A@@std@@@std@@QAE@PAU_Node@?$_Tree_nod@V?$_Tset_traits@IU?$less@I@std@@V?$K2SetAllocator@I@@$0A@@std@@@2@PBV12@@Z 19163060 f i c_clientcommander.obj
 0002:0003c0f0       ??Fconst_iterator@?$_Tree@V?$_Tset_traits@IU?$less@I@std@@V?$K2SetAllocator@I@@$0A@@std@@@std@@QAEAAV012@XZ 191630f0 f i c_clientcommander.obj
 0002:0003c120       ??9const_iterator@?$_Tree@V?$_Tset_traits@IU?$less@I@std@@V?$K2SetAllocator@I@@$0A@@std@@@std@@QBE_NABV012@@Z 19163120 f i c_clientcommander.obj
 0002:0003c160       ?_Myval@?$_Tree@V?$_Tmap_traits@IPAVCTeamInfo@@U?$less@I@std@@V?$K2MapAllocator@U?$pair@$$CBIPAVCTeamInfo@@@std@@@@$0A@@std@@@std@@KAAAU?$pair@$$CBIPAVCTeamInfo@@@2@PAU_Node@?$_Tree_nod@V?$_Tmap_traits@IPAVCTeamInfo@@U?$less@I@std@@V?$K2MapAllocator@U?$pair@$$CBIPAVCTeamInfo@@@std@@@@$0A@@std@@@2@@Z 19163160 f i c_clientcommander.obj
 0002:0003c180       ?_Lbound@?$_Tree@V?$_Tmap_traits@IPAVCTeamInfo@@U?$less@I@std@@V?$K2MapAllocator@U?$pair@$$CBIPAVCTeamInfo@@@std@@@@$0A@@std@@@std@@IBEPAU_Node@?$_Tree_nod@V?$_Tmap_traits@IPAVCTeamInfo@@U?$less@I@std@@V?$K2MapAllocator@U?$pair@$$CBIPAVCTeamInfo@@@std@@@@$0A@@std@@@2@ABI@Z 19163180 f i c_clientcommander.obj
 0002:0003c250       ?_Isnil@?$_Tree@V?$_Tmap_traits@IPAVCTeamInfo@@U?$less@I@std@@V?$K2MapAllocator@U?$pair@$$CBIPAVCTeamInfo@@@std@@@@$0A@@std@@@std@@KAAADPAU_Node@?$_Tree_nod@V?$_Tmap_traits@IPAVCTeamInfo@@U?$less@I@std@@V?$K2MapAllocator@U?$pair@$$CBIPAVCTeamInfo@@@std@@@@$0A@@std@@@2@@Z 19163250 f i c_clientcommander.obj
 0002:0003c270       ?_Left@?$_Tree@V?$_Tmap_traits@IPAVCTeamInfo@@U?$less@I@std@@V?$K2MapAllocator@U?$pair@$$CBIPAVCTeamInfo@@@std@@@@$0A@@std@@@std@@KAAAPAU_Node@?$_Tree_nod@V?$_Tmap_traits@IPAVCTeamInfo@@U?$less@I@std@@V?$K2MapAllocator@U?$pair@$$CBIPAVCTeamInfo@@@std@@@@$0A@@std@@@2@PAU342@@Z 19163270 f i c_clientcommander.obj
 0002:0003c290       ?_Right@?$_Tree@V?$_Tmap_traits@IPAVCTeamInfo@@U?$less@I@std@@V?$K2MapAllocator@U?$pair@$$CBIPAVCTeamInfo@@@std@@@@$0A@@std@@@std@@KAAAPAU_Node@?$_Tree_nod@V?$_Tmap_traits@IPAVCTeamInfo@@U?$less@I@std@@V?$K2MapAllocator@U?$pair@$$CBIPAVCTeamInfo@@@std@@@@$0A@@std@@@2@PAU342@@Z 19163290 f i c_clientcommander.obj
 0002:0003c2b0       ?_Root@?$_Tree@V?$_Tmap_traits@IPAVCTeamInfo@@U?$less@I@std@@V?$K2MapAllocator@U?$pair@$$CBIPAVCTeamInfo@@@std@@@@$0A@@std@@@std@@IBEAAPAU_Node@?$_Tree_nod@V?$_Tmap_traits@IPAVCTeamInfo@@U?$less@I@std@@V?$K2MapAllocator@U?$pair@$$CBIPAVCTeamInfo@@@std@@@@$0A@@std@@@2@XZ 191632b0 f i c_clientcommander.obj
 0002:0003c2e0       ?_Parent@?$_Tree@V?$_Tmap_traits@IPAVCTeamInfo@@U?$less@I@std@@V?$K2MapAllocator@U?$pair@$$CBIPAVCTeamInfo@@@std@@@@$0A@@std@@@std@@KAAAPAU_Node@?$_Tree_nod@V?$_Tmap_traits@IPAVCTeamInfo@@U?$less@I@std@@V?$K2MapAllocator@U?$pair@$$CBIPAVCTeamInfo@@@std@@@@$0A@@std@@@2@PAU342@@Z 191632e0 f i c_clientcommander.obj
 0002:0003c300       ?_Kfn@?$_Tmap_traits@IPAVCTeamInfo@@U?$less@I@std@@V?$K2MapAllocator@U?$pair@$$CBIPAVCTeamInfo@@@std@@@@$0A@@std@@SAABIABU?$pair@$$CBIPAVCTeamInfo@@@2@@Z 19163300 f i c_clientcommander.obj
 0002:0003c320       ?max_size@?$deque@USClientResourceLoadRequest@@V?$K2DequeAllocator@USClientResourceLoadRequest@@@@@std@@QBEIXZ 19163320 f i c_clientcommander.obj
 0002:0003c350       ?_Xlen@?$deque@USClientResourceLoadRequest@@V?$K2DequeAllocator@USClientResourceLoadRequest@@@@@std@@KAXXZ 19163350 f i c_clientcommander.obj
 0002:0003c400       ?allocate@?$K2DequeAllocator@PAUSClientResourceLoadRequest@@@@QAEPAPAUSClientResourceLoadRequest@@I@Z 19163400 f i c_clientcommander.obj
 0002:0003c450       ?deallocate@?$K2DequeAllocator@PAUSClientResourceLoadRequest@@@@QAEXPAPAUSClientResourceLoadRequest@@I@Z 19163450 f i c_clientcommander.obj
 0002:0003c490       ??0?$_Vector_iterator@IV?$K2VectorAllocator@I@@@std@@QAE@PAIPBV_Container_base@1@@Z 19163490 f i c_clientcommander.obj
 0002:0003c4d0       ??G?$_Vector_iterator@IV?$K2VectorAllocator@I@@@std@@QBEHABV?$_Vector_const_iterator@IV?$K2VectorAllocator@I@@@1@@Z 191634d0 f i c_clientcommander.obj
 0002:0003c500       ??D?$_Vector_const_iterator@IV?$K2VectorAllocator@I@@@std@@QBEABIXZ 19163500 f i c_clientcommander.obj
 0002:0003c5c0       ??9?$_Vector_const_iterator@IV?$K2VectorAllocator@I@@@std@@QBE_NABV01@@Z 191635c0 f i c_clientcommander.obj
 0002:0003c600       ??0?$pair@Viterator@?$_Tree@V?$_Tset_traits@IU?$less@I@std@@V?$K2SetAllocator@I@@$0A@@std@@@std@@V123@@std@@QAE@ABViterator@?$_Tree@V?$_Tset_traits@IU?$less@I@std@@V?$K2SetAllocator@I@@$0A@@std@@@1@0@Z 19163600 f i c_clientcommander.obj
 0002:0003c690       ??0?$_String_iterator@_WU?$char_traits@_W@std@@V?$K2StringAllocator@_W@@@std@@QAE@PA_WPBV_Container_base@1@@Z 19163690 f i c_clientcommander.obj
 0002:0003c6d0       ??0?$_Bidit@IHPBIABI@std@@QAE@XZ 191636d0 f i c_clientcommander.obj
 0002:0003c700       ??0?$allocator@I@std@@QAE@XZ 19163700 f i c_clientcommander.obj
 0002:0003c720       ??0?$allocator@I@std@@QAE@ABV01@@Z 19163720 f i c_clientcommander.obj
 0002:0003c740       ?_Lbound@?$_Tree@V?$_Tset_traits@IU?$less@I@std@@V?$K2SetAllocator@I@@$0A@@std@@@std@@IBEPAU_Node@?$_Tree_nod@V?$_Tset_traits@IU?$less@I@std@@V?$K2SetAllocator@I@@$0A@@std@@@2@ABI@Z 19163740 f i c_clientcommander.obj
 0002:0003c810       ?_Ubound@?$_Tree@V?$_Tset_traits@IU?$less@I@std@@V?$K2SetAllocator@I@@$0A@@std@@@std@@IBEPAU_Node@?$_Tree_nod@V?$_Tset_traits@IU?$less@I@std@@V?$K2SetAllocator@I@@$0A@@std@@@2@ABI@Z 19163810 f i c_clientcommander.obj
 0002:0003c8e0       ?allocate@?$K2SetAllocator@U_Node@?$_Tree_nod@V?$_Tset_traits@IU?$less@I@std@@V?$K2SetAllocator@I@@$0A@@std@@@std@@@@QAEPAU_Node@?$_Tree_nod@V?$_Tset_traits@IU?$less@I@std@@V?$K2SetAllocator@I@@$0A@@std@@@std@@I@Z 191638e0 f i c_clientcommander.obj
 0002:0003c930       ?max_size@?$basic_string@_WU?$char_traits@_W@std@@V?$K2StringAllocator@_W@@@std@@QBEIXZ 19163930 f i c_clientcommander.obj
 0002:0003c980       ?_Copy@?$basic_string@_WU?$char_traits@_W@std@@V?$K2StringAllocator@_W@@@std@@IAEXII@Z 19163980 f i c_clientcommander.obj
 0002:0003cb70       ?_Inside@?$basic_string@_WU?$char_traits@_W@std@@V?$K2StringAllocator@_W@@@std@@IAE_NPB_W@Z 19163b70 f i c_clientcommander.obj
 0002:0003cbe0       ?_Color@?$_Tree@V?$_Tmap_traits@V?$basic_string@_WU?$char_traits@_W@std@@V?$K2StringAllocator@_W@@@std@@V12@U?$less@V?$basic_string@_WU?$char_traits@_W@std@@V?$K2StringAllocator@_W@@@std@@@2@V?$K2MapAllocator@U?$pair@$$CBV?$basic_string@_WU?$char_traits@_W@std@@V?$K2StringAllocator@_W@@@std@@V12@@std@@@@$0A@@std@@@std@@KAAADPAU_Node@?$_Tree_nod@V?$_Tmap_traits@V?$basic_string@_WU?$char_traits@_W@std@@V?$K2StringAllocator@_W@@@std@@V12@U?$less@V?$basic_string@_WU?$char_traits@_W@std@@V?$K2StringAllocator@_W@@@std@@@2@V?$K2MapAllocator@U?$pair@$$CBV?$basic_string@_WU?$char_traits@_W@std@@V?$K2StringAllocator@_W@@@std@@V12@@std@@@@$0A@@std@@@2@@Z 19163be0 f i c_clientcommander.obj
 0002:0003cc00       ?max_size@?$_Tree@V?$_Tmap_traits@V?$basic_string@_WU?$char_traits@_W@std@@V?$K2StringAllocator@_W@@@std@@V12@U?$less@V?$basic_string@_WU?$char_traits@_W@std@@V?$K2StringAllocator@_W@@@std@@@2@V?$K2MapAllocator@U?$pair@$$CBV?$basic_string@_WU?$char_traits@_W@std@@V?$K2StringAllocator@_W@@@std@@V12@@std@@@@$0A@@std@@@std@@QBEIXZ 19163c00 f i c_clientcommander.obj
 0002:0003cc30       ?_Erase@?$_Tree@V?$_Tmap_traits@V?$basic_string@_WU?$char_traits@_W@std@@V?$K2StringAllocator@_W@@@std@@V12@U?$less@V?$basic_string@_WU?$char_traits@_W@std@@V?$K2StringAllocator@_W@@@std@@@2@V?$K2MapAllocator@U?$pair@$$CBV?$basic_string@_WU?$char_traits@_W@std@@V?$K2StringAllocator@_W@@@std@@V12@@std@@@@$0A@@std@@@std@@IAEXPAU_Node@?$_Tree_nod@V?$_Tmap_traits@V?$basic_string@_WU?$char_traits@_W@std@@V?$K2StringAllocator@_W@@@std@@V12@U?$less@V?$basic_string@_WU?$char_traits@_W@std@@V?$K2StringAllocator@_W@@@std@@@2@V?$K2MapAllocator@U?$pair@$$CBV?$basic_string@_WU?$char_traits@_W@std@@V?$K2StringAllocator@_W@@@std@@V12@@std@@@@$0A@@std@@@2@@Z 19163c30 f i c_clientcommander.obj
 0002:0003ccd0       ?_Init@?$_Tree@V?$_Tmap_traits@V?$basic_string@_WU?$char_traits@_W@std@@V?$K2StringAllocator@_W@@@std@@V12@U?$less@V?$basic_string@_WU?$char_traits@_W@std@@V?$K2StringAllocator@_W@@@std@@@2@V?$K2MapAllocator@U?$pair@$$CBV?$basic_string@_WU?$char_traits@_W@std@@V?$K2StringAllocator@_W@@@std@@V12@@std@@@@$0A@@std@@@std@@IAEXXZ 19163cd0 f i c_clientcommander.obj
 0002:0003cd60       ?_Lrotate@?$_Tree@V?$_Tmap_traits@V?$basic_string@_WU?$char_traits@_W@std@@V?$K2StringAllocator@_W@@@std@@V12@U?$less@V?$basic_string@_WU?$char_traits@_W@std@@V?$K2StringAllocator@_W@@@std@@@2@V?$K2MapAllocator@U?$pair@$$CBV?$basic_string@_WU?$char_traits@_W@std@@V?$K2StringAllocator@_W@@@std@@V12@@std@@@@$0A@@std@@@std@@IAEXPAU_Node@?$_Tree_nod@V?$_Tmap_traits@V?$basic_string@_WU?$char_traits@_W@std@@V?$K2StringAllocator@_W@@@std@@V12@U?$less@V?$basic_string@_WU?$char_traits@_W@std@@V?$K2StringAllocator@_W@@@std@@@2@V?$K2MapAllocator@U?$pair@$$CBV?$basic_string@_WU?$char_traits@_W@std@@V?$K2StringAllocator@_W@@@std@@V12@@std@@@@$0A@@std@@@2@@Z 19163d60 f i c_clientcommander.obj
 0002:0003cef0       ?_Rrotate@?$_Tree@V?$_Tmap_traits@V?$basic_string@_WU?$char_traits@_W@std@@V?$K2StringAllocator@_W@@@std@@V12@U?$less@V?$basic_string@_WU?$char_traits@_W@std@@V?$K2StringAllocator@_W@@@std@@@2@V?$K2MapAllocator@U?$pair@$$CBV?$basic_string@_WU?$char_traits@_W@std@@V?$K2StringAllocator@_W@@@std@@V12@@std@@@@$0A@@std@@@std@@IAEXPAU_Node@?$_Tree_nod@V?$_Tmap_traits@V?$basic_string@_WU?$char_traits@_W@std@@V?$K2StringAllocator@_W@@@std@@V12@U?$less@V?$basic_string@_WU?$char_traits@_W@std@@V?$K2StringAllocator@_W@@@std@@@2@V?$K2MapAllocator@U?$pair@$$CBV?$basic_string@_WU?$char_traits@_W@std@@V?$K2StringAllocator@_W@@@std@@V12@@std@@@@$0A@@std@@@2@@Z 19163ef0 f i c_clientcommander.obj
 0002:0003d080       ?_Orphan_ptr@?$_Tree@V?$_Tmap_traits@V?$basic_string@_WU?$char_traits@_W@std@@V?$K2StringAllocator@_W@@@std@@V12@U?$less@V?$basic_string@_WU?$char_traits@_W@std@@V?$K2StringAllocator@_W@@@std@@@2@V?$K2MapAllocator@U?$pair@$$CBV?$basic_string@_WU?$char_traits@_W@std@@V?$K2StringAllocator@_W@@@std@@V12@@std@@@@$0A@@std@@@std@@IBEXAAV12@PAU_Node@?$_Tree_nod@V?$_Tmap_traits@V?$basic_string@_WU?$char_traits@_W@std@@V?$K2StringAllocator@_W@@@std@@V12@U?$less@V?$basic_string@_WU?$char_traits@_W@std@@V?$K2StringAllocator@_W@@@std@@@2@V?$K2MapAllocator@U?$pair@$$CBV?$basic_string@_WU?$char_traits@_W@std@@V?$K2StringAllocator@_W@@@std@@V12@@std@@@@$0A@@std@@@2@@Z 19164080 f i c_clientcommander.obj
 0002:0003d130       ?_Buynode@?$_Tree@V?$_Tmap_traits@V?$basic_string@_WU?$char_traits@_W@std@@V?$K2StringAllocator@_W@@@std@@V12@U?$less@V?$basic_string@_WU?$char_traits@_W@std@@V?$K2StringAllocator@_W@@@std@@@2@V?$K2MapAllocator@U?$pair@$$CBV?$basic_string@_WU?$char_traits@_W@std@@V?$K2StringAllocator@_W@@@std@@V12@@std@@@@$0A@@std@@@std@@IAEPAU_Node@?$_Tree_nod@V?$_Tmap_traits@V?$basic_string@_WU?$char_traits@_W@std@@V?$K2StringAllocator@_W@@@std@@V12@U?$less@V?$basic_string@_WU?$char_traits@_W@std@@V?$K2StringAllocator@_W@@@std@@@2@V?$K2MapAllocator@U?$pair@$$CBV?$basic_string@_WU?$char_traits@_W@std@@V?$K2StringAllocator@_W@@@std@@V12@@std@@@@$0A@@std@@@2@PAU342@00ABU?$pair@$$CBV?$basic_string@_WU?$char_traits@_W@std@@V?$K2StringAllocator@_W@@@std@@V12@@2@D@Z 19164130 f i c_clientcommander.obj
 0002:0003d250       ??0?$_Tree_val@V?$_Tmap_traits@V?$basic_string@_WU?$char_traits@_W@std@@V?$K2StringAllocator@_W@@@std@@V12@U?$less@V?$basic_string@_WU?$char_traits@_W@std@@V?$K2StringAllocator@_W@@@std@@@2@V?$K2MapAllocator@U?$pair@$$CBV?$basic_string@_WU?$char_traits@_W@std@@V?$K2StringAllocator@_W@@@std@@V12@@std@@@@$0A@@std@@@std@@IAE@ABU?$less@V?$basic_string@_WU?$char_traits@_W@std@@V?$K2StringAllocator@_W@@@std@@@1@V?$K2MapAllocator@U?$pair@$$CBV?$basic_string@_WU?$char_traits@_W@std@@V?$K2StringAllocator@_W@@@std@@V12@@std@@@@@Z 19164250 f i c_clientcommander.obj
 0002:0003d300       ??0?$K2MapAllocator@U?$pair@$$CBV?$basic_string@_WU?$char_traits@_W@std@@V?$K2StringAllocator@_W@@@std@@V12@@std@@@@QAE@ABV0@@Z 19164300 f i c_clientcommander.obj
 0002:0003d330       ??0?$allocator@U?$pair@$$CBV?$basic_string@_WU?$char_traits@_W@std@@V?$K2StringAllocator@_W@@@std@@V12@@std@@@std@@QAE@XZ 19164330 f i c_clientcommander.obj
 0002:0003d350       ?destroy@?$allocator@U_Node@?$_Tree_nod@V?$_Tmap_traits@V?$basic_string@_WU?$char_traits@_W@std@@V?$K2StringAllocator@_W@@@std@@V12@U?$less@V?$basic_string@_WU?$char_traits@_W@std@@V?$K2StringAllocator@_W@@@std@@@2@V?$K2MapAllocator@U?$pair@$$CBV?$basic_string@_WU?$char_traits@_W@std@@V?$K2StringAllocator@_W@@@std@@V12@@std@@@@$0A@@std@@@std@@@std@@QAEXPAU_Node@?$_Tree_nod@V?$_Tmap_traits@V?$basic_string@_WU?$char_traits@_W@std@@V?$K2StringAllocator@_W@@@std@@V12@U?$less@V?$basic_string@_WU?$char_traits@_W@std@@V?$K2StringAllocator@_W@@@std@@@2@V?$K2MapAllocator@U?$pair@$$CBV?$basic_string@_WU?$char_traits@_W@std@@V?$K2StringAllocator@_W@@@std@@V12@@std@@@@$0A@@std@@@2@@Z 19164350 f i c_clientcommander.obj
 0002:0003d380       ??0?$_String_const_iterator@_WU?$char_traits@_W@std@@V?$K2StringAllocator@_W@@@std@@QAE@PB_WPBV_Container_base@1@@Z 19164380 f i c_clientcommander.obj
 0002:0003d4a0       ??G?$_String_const_iterator@_WU?$char_traits@_W@std@@V?$K2StringAllocator@_W@@@std@@QBEHABV01@@Z 191644a0 f i c_clientcommander.obj
 0002:0003d4e0       ??0const_iterator@?$_Tree@V?$_Tmap_traits@V?$basic_string@_WU?$char_traits@_W@std@@V?$K2StringAllocator@_W@@@std@@V12@U?$less@V?$basic_string@_WU?$char_traits@_W@std@@V?$K2StringAllocator@_W@@@std@@@2@V?$K2MapAllocator@U?$pair@$$CBV?$basic_string@_WU?$char_traits@_W@std@@V?$K2StringAllocator@_W@@@std@@V12@@std@@@@$0A@@std@@@std@@QAE@XZ 191644e0 f i c_clientcommander.obj
 0002:0003d520       ??Econst_iterator@?$_Tree@V?$_Tmap_traits@V?$basic_string@_WU?$char_traits@_W@std@@V?$K2StringAllocator@_W@@@std@@V12@U?$less@V?$basic_string@_WU?$char_traits@_W@std@@V?$K2StringAllocator@_W@@@std@@@2@V?$K2MapAllocator@U?$pair@$$CBV?$basic_string@_WU?$char_traits@_W@std@@V?$K2StringAllocator@_W@@@std@@V12@@std@@@@$0A@@std@@@std@@QAEAAV012@XZ 19164520 f i c_clientcommander.obj
 0002:0003d550       ??Fconst_iterator@?$_Tree@V?$_Tmap_traits@V?$basic_string@_WU?$char_traits@_W@std@@V?$K2StringAllocator@_W@@@std@@V12@U?$less@V?$basic_string@_WU?$char_traits@_W@std@@V?$K2StringAllocator@_W@@@std@@@2@V?$K2MapAllocator@U?$pair@$$CBV?$basic_string@_WU?$char_traits@_W@std@@V?$K2StringAllocator@_W@@@std@@V12@@std@@@@$0A@@std@@@std@@QAEAAV012@XZ 19164550 f i c_clientcommander.obj
 0002:0003d580       ??Eiterator@?$_Tree@V?$_Tset_traits@IU?$less@I@std@@V?$K2SetAllocator@I@@$0A@@std@@@std@@QAEAAV012@XZ 19164580 f i c_clientcommander.obj
 0002:0003d5b0       ?_Dec@const_iterator@?$_Tree@V?$_Tset_traits@IU?$less@I@std@@V?$K2SetAllocator@I@@$0A@@std@@@std@@QAEXXZ 191645b0 f i c_clientcommander.obj
 0002:0003d870       ?max_size@?$allocator@USClientResourceLoadRequest@@@std@@QBEIXZ 19164870 f i c_clientcommander.obj
 0002:0003d8b0       ??0?$_Vector_const_iterator@IV?$K2VectorAllocator@I@@@std@@QAE@PAIPBV_Container_base@1@@Z 191648b0 f i c_clientcommander.obj
 0002:0003d9b0       ??G?$_Vector_const_iterator@IV?$K2VectorAllocator@I@@@std@@QBEHABV01@@Z 191649b0 f i c_clientcommander.obj
 0002:0003d9f0       ??8?$_Vector_const_iterator@IV?$K2VectorAllocator@I@@@std@@QBE_NABV01@@Z 191649f0 f i c_clientcommander.obj
 0002:0003da30       ?_Compat@?$_Vector_const_iterator@IV?$K2VectorAllocator@I@@@std@@QBEXABV12@@Z 19164a30 f i c_clientcommander.obj
 0002:0003dae0       ??0_Node@?$_Tree_nod@V?$_Tset_traits@IU?$less@I@std@@V?$K2SetAllocator@I@@$0A@@std@@@std@@QAE@PAU012@00ABID@Z 19164ae0 f i c_clientcommander.obj
 0002:0003db40       ??0?$pair@Viterator@?$_Tree@V?$_Tmap_traits@V?$basic_string@_WU?$char_traits@_W@std@@V?$K2StringAllocator@_W@@@std@@V12@U?$less@V?$basic_string@_WU?$char_traits@_W@std@@V?$K2StringAllocator@_W@@@std@@@2@V?$K2MapAllocator@U?$pair@$$CBV?$basic_string@_WU?$char_traits@_W@std@@V?$K2StringAllocator@_W@@@std@@V12@@std@@@@$0A@@std@@@std@@_N@std@@QAE@ABViterator@?$_Tree@V?$_Tmap_traits@V?$basic_string@_WU?$char_traits@_W@std@@V?$K2StringAllocator@_W@@@std@@V12@U?$less@V?$basic_string@_WU?$char_traits@_W@std@@V?$K2StringAllocator@_W@@@std@@@2@V?$K2MapAllocator@U?$pair@$$CBV?$basic_string@_WU?$char_traits@_W@std@@V?$K2StringAllocator@_W@@@std@@V12@@std@@@@$0A@@std@@@1@AB_N@Z 19164b40 f i c_clientcommander.obj
 0002:0003db80       ??0?$_Ranit_base@_WHPB_WAB_WV_Iterator_base@std@@@std@@QAE@XZ 19164b80 f i c_clientcommander.obj
 0002:0003dbb0       ??0?$_Ranit@IHPBIABI@std@@QAE@XZ 19164bb0 f i c_clientcommander.obj
 0002:0003dbe0       ?allocate@?$K2StringAllocator@_W@@QAEPA_WI@Z 19164be0 f i c_clientcommander.obj
 0002:0003dc30       ?_Buynode@?$_Tree@V?$_Tmap_traits@V?$basic_string@_WU?$char_traits@_W@std@@V?$K2StringAllocator@_W@@@std@@V12@U?$less@V?$basic_string@_WU?$char_traits@_W@std@@V?$K2StringAllocator@_W@@@std@@@2@V?$K2MapAllocator@U?$pair@$$CBV?$basic_string@_WU?$char_traits@_W@std@@V?$K2StringAllocator@_W@@@std@@V12@@std@@@@$0A@@std@@@std@@IAEPAU_Node@?$_Tree_nod@V?$_Tmap_traits@V?$basic_string@_WU?$char_traits@_W@std@@V?$K2StringAllocator@_W@@@std@@V12@U?$less@V?$basic_string@_WU?$char_traits@_W@std@@V?$K2StringAllocator@_W@@@std@@@2@V?$K2MapAllocator@U?$pair@$$CBV?$basic_string@_WU?$char_traits@_W@std@@V?$K2StringAllocator@_W@@@std@@V12@@std@@@@$0A@@std@@@2@XZ 19164c30 f i c_clientcommander.obj
 0002:0003de10       ??0?$_Tree_ptr@V?$_Tmap_traits@V?$basic_string@_WU?$char_traits@_W@std@@V?$K2StringAllocator@_W@@@std@@V12@U?$less@V?$basic_string@_WU?$char_traits@_W@std@@V?$K2StringAllocator@_W@@@std@@@2@V?$K2MapAllocator@U?$pair@$$CBV?$basic_string@_WU?$char_traits@_W@std@@V?$K2StringAllocator@_W@@@std@@V12@@std@@@@$0A@@std@@@std@@QAE@ABU?$less@V?$basic_string@_WU?$char_traits@_W@std@@V?$K2StringAllocator@_W@@@std@@@1@V?$K2MapAllocator@U?$pair@$$CBV?$basic_string@_WU?$char_traits@_W@std@@V?$K2StringAllocator@_W@@@std@@V12@@std@@@@@Z 19164e10 f i c_clientcommander.obj
 0002:0003dec0       ??0?$allocator@U?$pair@$$CBV?$basic_string@_WU?$char_traits@_W@std@@V?$K2StringAllocator@_W@@@std@@V12@@std@@@std@@QAE@ABV01@@Z 19164ec0 f i c_clientcommander.obj
 0002:0003dee0       ?max_size@?$allocator@U?$pair@$$CBV?$basic_string@_WU?$char_traits@_W@std@@V?$K2StringAllocator@_W@@@std@@V12@@std@@@std@@QBEIXZ 19164ee0 f i c_clientcommander.obj
 0002:0003df20       ?allocate@?$K2MapAllocator@U_Node@?$_Tree_nod@V?$_Tmap_traits@V?$basic_string@_WU?$char_traits@_W@std@@V?$K2StringAllocator@_W@@@std@@V12@U?$less@V?$basic_string@_WU?$char_traits@_W@std@@V?$K2StringAllocator@_W@@@std@@@2@V?$K2MapAllocator@U?$pair@$$CBV?$basic_string@_WU?$char_traits@_W@std@@V?$K2StringAllocator@_W@@@std@@V12@@std@@@@$0A@@std@@@std@@@@QAEPAU_Node@?$_Tree_nod@V?$_Tmap_traits@V?$basic_string@_WU?$char_traits@_W@std@@V?$K2StringAllocator@_W@@@std@@V12@U?$less@V?$basic_string@_WU?$char_traits@_W@std@@V?$K2StringAllocator@_W@@@std@@@2@V?$K2MapAllocator@U?$pair@$$CBV?$basic_string@_WU?$char_traits@_W@std@@V?$K2StringAllocator@_W@@@std@@V12@@std@@@@$0A@@std@@@std@@I@Z 19164f20 f i c_clientcommander.obj
 0002:0003df70       ?_Compat@?$_String_const_iterator@_WU?$char_traits@_W@std@@V?$K2StringAllocator@_W@@@std@@QBEXABV12@@Z 19164f70 f i c_clientcommander.obj
 0002:0003e020       ?_Dec@const_iterator@?$_Tree@V?$_Tmap_traits@V?$basic_string@_WU?$char_traits@_W@std@@V?$K2StringAllocator@_W@@@std@@V12@U?$less@V?$basic_string@_WU?$char_traits@_W@std@@V?$K2StringAllocator@_W@@@std@@@2@V?$K2MapAllocator@U?$pair@$$CBV?$basic_string@_WU?$char_traits@_W@std@@V?$K2StringAllocator@_W@@@std@@V12@@std@@@@$0A@@std@@@std@@QAEXXZ 19165020 f i c_clientcommander.obj
 0002:0003e2e0       ?_Inc@const_iterator@?$_Tree@V?$_Tmap_traits@V?$basic_string@_WU?$char_traits@_W@std@@V?$K2StringAllocator@_W@@@std@@V12@U?$less@V?$basic_string@_WU?$char_traits@_W@std@@V?$K2StringAllocator@_W@@@std@@@2@V?$K2MapAllocator@U?$pair@$$CBV?$basic_string@_WU?$char_traits@_W@std@@V?$K2StringAllocator@_W@@@std@@V12@@std@@@@$0A@@std@@@std@@QAEXXZ 191652e0 f i c_clientcommander.obj
 0002:0003e450       ??Econst_iterator@?$_Tree@V?$_Tset_traits@IU?$less@I@std@@V?$K2SetAllocator@I@@$0A@@std@@@std@@QAEAAV012@XZ 19165450 f i c_clientcommander.obj
 0002:0003e480       ??0_Node@?$_Tree_nod@V?$_Tmap_traits@V?$basic_string@_WU?$char_traits@_W@std@@V?$K2StringAllocator@_W@@@std@@V12@U?$less@V?$basic_string@_WU?$char_traits@_W@std@@V?$K2StringAllocator@_W@@@std@@@2@V?$K2MapAllocator@U?$pair@$$CBV?$basic_string@_WU?$char_traits@_W@std@@V?$K2StringAllocator@_W@@@std@@V12@@std@@@@$0A@@std@@@std@@QAE@PAU012@00ABU?$pair@$$CBV?$basic_string@_WU?$char_traits@_W@std@@V?$K2StringAllocator@_W@@@std@@V12@@2@D@Z 19165480 f i c_clientcommander.obj
 0002:0003e4f0       ??0?$pair@$$CBV?$basic_string@_WU?$char_traits@_W@std@@V?$K2StringAllocator@_W@@@std@@V12@@std@@QAE@ABU01@@Z 191654f0 f i c_clientcommander.obj
 0002:0003e580       ??0?$_Tree_nod@V?$_Tmap_traits@V?$basic_string@_WU?$char_traits@_W@std@@V?$K2StringAllocator@_W@@@std@@V12@U?$less@V?$basic_string@_WU?$char_traits@_W@std@@V?$K2StringAllocator@_W@@@std@@@2@V?$K2MapAllocator@U?$pair@$$CBV?$basic_string@_WU?$char_traits@_W@std@@V?$K2StringAllocator@_W@@@std@@V12@@std@@@@$0A@@std@@@std@@IAE@ABU?$less@V?$basic_string@_WU?$char_traits@_W@std@@V?$K2StringAllocator@_W@@@std@@@1@V?$K2MapAllocator@U?$pair@$$CBV?$basic_string@_WU?$char_traits@_W@std@@V?$K2StringAllocator@_W@@@std@@V12@@std@@@@@Z 19165580 f i c_clientcommander.obj
 0002:0003e620       ?construct@?$allocator@PAU_Node@?$_Tree_nod@V?$_Tmap_traits@V?$basic_string@_WU?$char_traits@_W@std@@V?$K2StringAllocator@_W@@@std@@V12@U?$less@V?$basic_string@_WU?$char_traits@_W@std@@V?$K2StringAllocator@_W@@@std@@@2@V?$K2MapAllocator@U?$pair@$$CBV?$basic_string@_WU?$char_traits@_W@std@@V?$K2StringAllocator@_W@@@std@@V12@@std@@@@$0A@@std@@@std@@@std@@QAEXPAPAU_Node@?$_Tree_nod@V?$_Tmap_traits@V?$basic_string@_WU?$char_traits@_W@std@@V?$K2StringAllocator@_W@@@std@@V12@U?$less@V?$basic_string@_WU?$char_traits@_W@std@@V?$K2StringAllocator@_W@@@std@@@2@V?$K2MapAllocator@U?$pair@$$CBV?$basic_string@_WU?$char_traits@_W@std@@V?$K2StringAllocator@_W@@@std@@V12@@std@@@@$0A@@std@@@2@ABQAU342@@Z 19165620 f i c_clientcommander.obj
 0002:0003e650       ?_Inc@const_iterator@?$_Tree@V?$_Tset_traits@IU?$less@I@std@@V?$K2SetAllocator@I@@$0A@@std@@@std@@QAEXXZ 19165650 f i c_clientcommander.obj
 0002:0003e7c0       ??0?$_Tmap_traits@V?$basic_string@_WU?$char_traits@_W@std@@V?$K2StringAllocator@_W@@@std@@V12@U?$less@V?$basic_string@_WU?$char_traits@_W@std@@V?$K2StringAllocator@_W@@@std@@@2@V?$K2MapAllocator@U?$pair@$$CBV?$basic_string@_WU?$char_traits@_W@std@@V?$K2StringAllocator@_W@@@std@@V12@@std@@@@$0A@@std@@QAE@U?$less@V?$basic_string@_WU?$char_traits@_W@std@@V?$K2StringAllocator@_W@@@std@@@1@@Z 191657c0 f i c_clientcommander.obj
 0002:0003e7f0       ??$DistanceSq@M@@YAMABV?$CVec2@M@@0@Z 191657f0 f i c_clientcommander.obj
 0002:0003e840       ??$?H_WU?$char_traits@_W@std@@V?$K2StringAllocator@_W@@@std@@YA?AV?$basic_string@_WU?$char_traits@_W@std@@V?$K2StringAllocator@_W@@@0@PB_WABV10@@Z 19165840 f i c_clientcommander.obj
 0002:0003e8f0       ??Y?$basic_string@_WU?$char_traits@_W@std@@V?$K2StringAllocator@_W@@@std@@QAEAAV01@ABV01@@Z 191658f0 f i c_clientcommander.obj
 0002:0003e920       ?append@?$basic_string@_WU?$char_traits@_W@std@@V?$K2StringAllocator@_W@@@std@@QAEAAV12@ABV12@@Z 19165920 f i c_clientcommander.obj
 0002:0003e960       ?append@?$basic_string@_WU?$char_traits@_W@std@@V?$K2StringAllocator@_W@@@std@@QAEAAV12@ABV12@II@Z 19165960 f i c_clientcommander.obj
 0002:0003ea80       ??$?H_WU?$char_traits@_W@std@@V?$K2StringAllocator@_W@@@std@@YA?AV?$basic_string@_WU?$char_traits@_W@std@@V?$K2StringAllocator@_W@@@0@ABV10@PB_W@Z 19165a80 f i c_clientcommander.obj
 0002:0003eb30       ??Y?$basic_string@_WU?$char_traits@_W@std@@V?$K2StringAllocator@_W@@@std@@QAEAAV01@PB_W@Z 19165b30 f i c_clientcommander.obj
 0002:0003eb60       ?append@?$basic_string@_WU?$char_traits@_W@std@@V?$K2StringAllocator@_W@@@std@@QAEAAV12@PB_W@Z 19165b60 f i c_clientcommander.obj
 0002:0003eba0       ?append@?$basic_string@_WU?$char_traits@_W@std@@V?$K2StringAllocator@_W@@@std@@QAEAAV12@PB_WI@Z 19165ba0 f i c_clientcommander.obj
 0002:0003ecb0       ??$?H_WU?$char_traits@_W@std@@V?$K2StringAllocator@_W@@@std@@YA?AV?$basic_string@_WU?$char_traits@_W@std@@V?$K2StringAllocator@_W@@@0@ABV10@0@Z 19165cb0 f i c_clientcommander.obj
 0002:0003ed60       ??$?8_WU?$char_traits@_W@std@@V?$K2StringAllocator@_W@@@std@@YA_NABV?$basic_string@_WU?$char_traits@_W@std@@V?$K2StringAllocator@_W@@@0@0@Z 19165d60 f i c_clientcommander.obj
 0002:0003ed90       ?compare@?$basic_string@_WU?$char_traits@_W@std@@V?$K2StringAllocator@_W@@@std@@QBEHABV12@@Z 19165d90 f i c_clientcommander.obj
 0002:0003ede0       ?compare@?$basic_string@_WU?$char_traits@_W@std@@V?$K2StringAllocator@_W@@@std@@QBEHIIPB_WI@Z 19165de0 f i c_clientcommander.obj
 0002:0003eee0       ??$?M_WU?$char_traits@_W@std@@V?$K2StringAllocator@_W@@@std@@YA_NABV?$basic_string@_WU?$char_traits@_W@std@@V?$K2StringAllocator@_W@@@0@0@Z 19165ee0 f i c_clientcommander.obj
 0002:0003ef10       ??$MAX@I@@YAABIABI0@Z      19165f10 f i c_clientcommander.obj
 0002:0003ef50       ??$MAX@M@@YAABMABM0@Z      19165f50 f i c_clientcommander.obj
 0002:0003efa0       ??$SQR@M@@YAMM@Z           19165fa0 f i c_clientcommander.obj
 0002:0003efd0       ??$MIN@M@@YAABMABM0@Z      19165fd0 f i c_clientcommander.obj
 0002:0003f020       ??$Distance@M@@YAMABV?$CVec2@M@@0@Z 19166020 f i c_clientcommander.obj
 0002:0003f080       ?sqrt@@YAMM@Z              19166080 f i c_clientcommander.obj
 0002:0003f0b0       _sqrtf                     191660b0 f i c_clientcommander.obj
 0002:0003f0e0       ??$copy_s@U?$char_traits@D@std@@@_Traits_helper@std@@YAPADPADIPBDI@Z 191660e0 f i c_clientcommander.obj
 0002:0003f130       ??$_Char_traits_cat@U?$char_traits@D@std@@@std@@YA?AU_Secure_char_traits_tag@0@XZ 19166130 f i c_clientcommander.obj
 0002:0003f150       ??$copy_s@U?$char_traits@D@std@@@_Traits_helper@std@@YAPADPADIPBDIU_Secure_char_traits_tag@1@@Z 19166150 f i c_clientcommander.obj
 0002:0003f190       ??$copy_s@U?$char_traits@_W@std@@@_Traits_helper@std@@YAPA_WPA_WIPB_WI@Z 19166190 f i c_clientcommander.obj
 0002:0003f1e0       ??$_Char_traits_cat@U?$char_traits@_W@std@@@std@@YA?AU_Secure_char_traits_tag@0@XZ 191661e0 f i c_clientcommander.obj
 0002:0003f200       ??$copy_s@U?$char_traits@_W@std@@@_Traits_helper@std@@YAPA_WPA_WIPB_WIU_Secure_char_traits_tag@1@@Z 19166200 f i c_clientcommander.obj
 0002:0003f240       ??$_Debug_lt_pred@U?$less@I@std@@II@std@@YA_NU?$less@I@0@ABI1PB_WI@Z 19166240 f i c_clientcommander.obj
 0002:0003f2c0       ??R?$less@I@std@@QBE_NABI0@Z 191662c0 f i c_clientcommander.obj
 0002:0003f2f0       ??$_Distance@Viterator@?$_Tree@V?$_Tset_traits@IU?$less@I@std@@V?$K2SetAllocator@I@@$0A@@std@@@std@@I@std@@YAXViterator@?$_Tree@V?$_Tset_traits@IU?$less@I@std@@V?$K2SetAllocator@I@@$0A@@std@@@0@0AAI@Z 191662f0 f i c_clientcommander.obj
 0002:0003f3d0       ??$_Iter_cat@Viterator@?$_Tree@V?$_Tset_traits@IU?$less@I@std@@V?$K2SetAllocator@I@@$0A@@std@@@std@@@std@@YA?AUbidirectional_iterator_tag@0@ABViterator@?$_Tree@V?$_Tset_traits@IU?$less@I@std@@V?$K2SetAllocator@I@@$0A@@std@@@0@@Z 191663d0 f i c_clientcommander.obj
 0002:0003f3f0       ??$_Distance2@Viterator@?$_Tree@V?$_Tset_traits@IU?$less@I@std@@V?$K2SetAllocator@I@@$0A@@std@@@std@@I@std@@YAXViterator@?$_Tree@V?$_Tset_traits@IU?$less@I@std@@V?$K2SetAllocator@I@@$0A@@std@@@0@0AAIUbidirectional_iterator_tag@0@@Z 191663f0 f i c_clientcommander.obj
 0002:0003f4a0       ??$_Debug_pointer@_W@std@@YAXPB_W0I@Z 191664a0 f i c_clientcommander.obj
 0002:0003f4e0       ??$_Debug_lt_pred@U?$less@V?$basic_string@_WU?$char_traits@_W@std@@V?$K2StringAllocator@_W@@@std@@@std@@V?$basic_string@_WU?$char_traits@_W@std@@V?$K2StringAllocator@_W@@@2@V32@@std@@YA_NU?$less@V?$basic_string@_WU?$char_traits@_W@std@@V?$K2StringAllocator@_W@@@std@@@0@ABV?$basic_string@_WU?$char_traits@_W@std@@V?$K2StringAllocator@_W@@@0@1PB_WI@Z 191664e0 f i c_clientcommander.obj
 0002:0003f560       ??$swap@D@std@@YAXAAD0@Z   19166560 f i c_clientcommander.obj
 0002:0003f5a0       ??$_Destroy_range@IV?$K2VectorAllocator@I@@@std@@YAXPAI0AAV?$K2VectorAllocator@I@@@Z 191665a0 f i c_clientcommander.obj
 0002:0003f5f0       ??$_Ptr_cat@PAIPAI@std@@YA?AU_Scalar_ptr_iterator_tag@0@AAPAI0@Z 191665f0 f i c_clientcommander.obj
 0002:0003f610       ??$_Destroy_range@IV?$K2VectorAllocator@I@@@std@@YAXPAI0AAV?$K2VectorAllocator@I@@U_Scalar_ptr_iterator_tag@0@@Z 19166610 f i c_clientcommander.obj
 0002:0003f630       ??$_Destroy_range@V?$basic_string@_WU?$char_traits@_W@std@@V?$K2StringAllocator@_W@@@std@@V?$K2VectorAllocator@V?$basic_string@_WU?$char_traits@_W@std@@V?$K2StringAllocator@_W@@@std@@@@@std@@YAXPAV?$basic_string@_WU?$char_traits@_W@std@@V?$K2StringAllocator@_W@@@0@0AAV?$K2VectorAllocator@V?$basic_string@_WU?$char_traits@_W@std@@V?$K2StringAllocator@_W@@@std@@@@@Z 19166630 f i c_clientcommander.obj
 0002:0003f680       ??$_Ptr_cat@PAV?$basic_string@_WU?$char_traits@_W@std@@V?$K2StringAllocator@_W@@@std@@PAV12@@std@@YA?AU_Nonscalar_ptr_iterator_tag@0@AAPAV?$basic_string@_WU?$char_traits@_W@std@@V?$K2StringAllocator@_W@@@0@0@Z 19166680 f i c_clientcommander.obj
 0002:0003f6a0       ??$_Destroy_range@V?$basic_string@_WU?$char_traits@_W@std@@V?$K2StringAllocator@_W@@@std@@V?$K2VectorAllocator@V?$basic_string@_WU?$char_traits@_W@std@@V?$K2StringAllocator@_W@@@std@@@@@std@@YAXPAV?$basic_string@_WU?$char_traits@_W@std@@V?$K2StringAllocator@_W@@@0@0AAV?$K2VectorAllocator@V?$basic_string@_WU?$char_traits@_W@std@@V?$K2StringAllocator@_W@@@std@@@@U_Nonscalar_ptr_iterator_tag@0@@Z 191666a0 f i c_clientcommander.obj
 0002:0003f6e0       ?destroy@?$allocator@V?$basic_string@_WU?$char_traits@_W@std@@V?$K2StringAllocator@_W@@@std@@@std@@QAEXPAV?$basic_string@_WU?$char_traits@_W@std@@V?$K2StringAllocator@_W@@@2@@Z 191666e0 f i c_clientcommander.obj
 0002:0003f710       ??$unchecked_uninitialized_copy@PAPAUSClientResourceLoadRequest@@PAPAU1@V?$K2DequeAllocator@PAUSClientResourceLoadRequest@@@@@stdext@@YAPAPAUSClientResourceLoadRequest@@PAPAU1@00AAV?$K2DequeAllocator@PAUSClientResourceLoadRequest@@@@@Z 19166710 f i c_clientcommander.obj
 0002:0003f780       ??$_Checked_base@PAPAUSClientResourceLoadRequest@@@std@@YAPAPAUSClientResourceLoadRequest@@AAPAPAU1@@Z 19166780 f i c_clientcommander.obj
 0002:0003f7b0       ??$_Ptr_cat@PAPAUSClientResourceLoadRequest@@PAPAU1@@std@@YA?AU_Scalar_ptr_iterator_tag@0@AAPAPAUSClientResourceLoadRequest@@0@Z 191667b0 f i c_clientcommander.obj
 0002:0003f7d0       ??$_Uninit_copy@PAPAUSClientResourceLoadRequest@@PAPAU1@V?$K2DequeAllocator@PAUSClientResourceLoadRequest@@@@@std@@YAPAPAUSClientResourceLoadRequest@@PAPAU1@00AAV?$K2DequeAllocator@PAUSClientResourceLoadRequest@@@@U_Scalar_ptr_iterator_tag@0@U_Range_checked_iterator_tag@0@@Z 191667d0 f i c_clientcommander.obj
 0002:0003f870       ??$_Checked_base@PAPAUSClientResourceLoadRequest@@@std@@YAPAPAUSClientResourceLoadRequest@@AAPAPAU1@U_Unchanged_checked_iterator_base_type_tag@0@@Z 19166870 f i c_clientcommander.obj
 0002:0003f890       ??$_Debug_range@PAPAUSClientResourceLoadRequest@@@std@@YAXPAPAUSClientResourceLoadRequest@@0PB_WI@Z 19166890 f i c_clientcommander.obj
 0002:0003f8e0       ??$_Debug_pointer@PAUSClientResourceLoadRequest@@@std@@YAXPAPAUSClientResourceLoadRequest@@PB_WI@Z 191668e0 f i c_clientcommander.obj
 0002:0003f920       ??$_Iter_cat@PAPAUSClientResourceLoadRequest@@@std@@YA?AUrandom_access_iterator_tag@0@ABQAPAUSClientResourceLoadRequest@@@Z 19166920 f i c_clientcommander.obj
 0002:0003f940       ??$_Debug_range2@PAPAUSClientResourceLoadRequest@@@std@@YAXPAPAUSClientResourceLoadRequest@@0PB_WIUrandom_access_iterator_tag@0@@Z 19166940 f i c_clientcommander.obj
 0002:0003f9c0       ??$unchecked_uninitialized_fill_n@PAPAUSClientResourceLoadRequest@@IPAU1@V?$K2DequeAllocator@PAUSClientResourceLoadRequest@@@@@stdext@@YAXPAPAUSClientResourceLoadRequest@@IABQAU1@AAV?$K2DequeAllocator@PAUSClientResourceLoadRequest@@@@@Z 191669c0 f i c_clientcommander.obj
 0002:0003fa20       ??$_Uninit_fill_n@PAPAUSClientResourceLoadRequest@@IPAU1@V?$K2DequeAllocator@PAUSClientResourceLoadRequest@@@@@std@@YAXPAPAUSClientResourceLoadRequest@@IABQAU1@AAV?$K2DequeAllocator@PAUSClientResourceLoadRequest@@@@U_Scalar_ptr_iterator_tag@0@U_Range_checked_iterator_tag@0@@Z 19166a20 f i c_clientcommander.obj
 0002:0003fa50       ??$unchecked_fill_n@PAPAUSClientResourceLoadRequest@@IPAU1@@stdext@@YAXPAPAUSClientResourceLoadRequest@@IABQAU1@@Z 19166a50 f i c_clientcommander.obj
 0002:0003faa0       ??$_Fill_n@PAPAUSClientResourceLoadRequest@@IPAU1@@std@@YAXPAPAUSClientResourceLoadRequest@@IABQAU1@Urandom_access_iterator_tag@0@U_Range_checked_iterator_tag@0@@Z 19166aa0 f i c_clientcommander.obj
 0002:0003fb00       ??$_Fill_n@PAPAUSClientResourceLoadRequest@@IPAU1@@std@@YAXPAPAUSClientResourceLoadRequest@@IABQAU1@U_Range_checked_iterator_tag@0@@Z 19166b00 f i c_clientcommander.obj
 0002:0003fb50       ??$_Destroy_range@PAUSClientResourceLoadRequest@@V?$K2DequeAllocator@PAUSClientResourceLoadRequest@@@@@std@@YAXPAPAUSClientResourceLoadRequest@@0AAV?$K2DequeAllocator@PAUSClientResourceLoadRequest@@@@@Z 19166b50 f i c_clientcommander.obj
 0002:0003fba0       ??$_Destroy_range@PAUSClientResourceLoadRequest@@V?$K2DequeAllocator@PAUSClientResourceLoadRequest@@@@@std@@YAXPAPAUSClientResourceLoadRequest@@0AAV?$K2DequeAllocator@PAUSClientResourceLoadRequest@@@@U_Scalar_ptr_iterator_tag@0@@Z 19166ba0 f i c_clientcommander.obj
 0002:0003fbc0       ??$_Construct@USClientResourceLoadRequest@@U1@@std@@YAXPAUSClientResourceLoadRequest@@ABU1@@Z 19166bc0 f i c_clientcommander.obj
 0002:0003fc70       ??$_Construct@II@std@@YAXPAIABI@Z 19166c70 f i c_clientcommander.obj
 0002:0003fcd0       ??$_Destroy@U_Node@?$_Tree_nod@V?$_Tset_traits@IU?$less@I@std@@V?$K2SetAllocator@I@@$0A@@std@@@std@@@std@@YAXPAU_Node@?$_Tree_nod@V?$_Tset_traits@IU?$less@I@std@@V?$K2SetAllocator@I@@$0A@@std@@@0@@Z 19166cd0 f i c_clientcommander.obj
 0002:0003fcf0       ??$move_s@U?$char_traits@_W@std@@@_Traits_helper@std@@YAPA_WPA_WIPB_WI@Z 19166cf0 f i c_clientcommander.obj
 0002:0003fd40       ??$move_s@U?$char_traits@_W@std@@@_Traits_helper@std@@YAPA_WPA_WIPB_WIU_Secure_char_traits_tag@1@@Z 19166d40 f i c_clientcommander.obj
 0002:0003fd80       ??$_Destroy@PAU_Node@?$_Tree_nod@V?$_Tmap_traits@V?$basic_string@_WU?$char_traits@_W@std@@V?$K2StringAllocator@_W@@@std@@V12@U?$less@V?$basic_string@_WU?$char_traits@_W@std@@V?$K2StringAllocator@_W@@@std@@@2@V?$K2MapAllocator@U?$pair@$$CBV?$basic_string@_WU?$char_traits@_W@std@@V?$K2StringAllocator@_W@@@std@@V12@@std@@@@$0A@@std@@@std@@@std@@YAXPAPAU_Node@?$_Tree_nod@V?$_Tmap_traits@V?$basic_string@_WU?$char_traits@_W@std@@V?$K2StringAllocator@_W@@@std@@V12@U?$less@V?$basic_string@_WU?$char_traits@_W@std@@V?$K2StringAllocator@_W@@@std@@@2@V?$K2MapAllocator@U?$pair@$$CBV?$basic_string@_WU?$char_traits@_W@std@@V?$K2StringAllocator@_W@@@std@@V12@@std@@@@$0A@@std@@@0@@Z 19166d80 f i c_clientcommander.obj
 0002:0003fda0       ??$_Destroy@V?$basic_string@_WU?$char_traits@_W@std@@V?$K2StringAllocator@_W@@@std@@@std@@YAXPAV?$basic_string@_WU?$char_traits@_W@std@@V?$K2StringAllocator@_W@@@0@@Z 19166da0 f i c_clientcommander.obj
 0002:0003fdc0       ??$_Destroy@U_Node@?$_Tree_nod@V?$_Tmap_traits@V?$basic_string@_WU?$char_traits@_W@std@@V?$K2StringAllocator@_W@@@std@@V12@U?$less@V?$basic_string@_WU?$char_traits@_W@std@@V?$K2StringAllocator@_W@@@std@@@2@V?$K2MapAllocator@U?$pair@$$CBV?$basic_string@_WU?$char_traits@_W@std@@V?$K2StringAllocator@_W@@@std@@V12@@std@@@@$0A@@std@@@std@@@std@@YAXPAU_Node@?$_Tree_nod@V?$_Tmap_traits@V?$basic_string@_WU?$char_traits@_W@std@@V?$K2StringAllocator@_W@@@std@@V12@U?$less@V?$basic_string@_WU?$char_traits@_W@std@@V?$K2StringAllocator@_W@@@std@@@2@V?$K2MapAllocator@U?$pair@$$CBV?$basic_string@_WU?$char_traits@_W@std@@V?$K2StringAllocator@_W@@@std@@V12@@std@@@@$0A@@std@@@0@@Z 19166dc0 f i c_clientcommander.obj
 0002:0003fde0       ??$?0U?$pair@$$CBV?$basic_string@_WU?$char_traits@_W@std@@V?$K2StringAllocator@_W@@@std@@V12@@std@@@?$K2MapAllocator@PAU_Node@?$_Tree_nod@V?$_Tmap_traits@V?$basic_string@_WU?$char_traits@_W@std@@V?$K2StringAllocator@_W@@@std@@V12@U?$less@V?$basic_string@_WU?$char_traits@_W@std@@V?$K2StringAllocator@_W@@@std@@@2@V?$K2MapAllocator@U?$pair@$$CBV?$basic_string@_WU?$char_traits@_W@std@@V?$K2StringAllocator@_W@@@std@@V12@@std@@@@$0A@@std@@@std@@@@QAE@ABV?$K2MapAllocator@U?$pair@$$CBV?$basic_string@_WU?$char_traits@_W@std@@V?$K2StringAllocator@_W@@@std@@V12@@std@@@@@Z 19166de0 f i c_clientcommander.obj
 0002:0003fe10       ??0?$allocator@PAU_Node@?$_Tree_nod@V?$_Tmap_traits@V?$basic_string@_WU?$char_traits@_W@std@@V?$K2StringAllocator@_W@@@std@@V12@U?$less@V?$basic_string@_WU?$char_traits@_W@std@@V?$K2StringAllocator@_W@@@std@@@2@V?$K2MapAllocator@U?$pair@$$CBV?$basic_string@_WU?$char_traits@_W@std@@V?$K2StringAllocator@_W@@@std@@V12@@std@@@@$0A@@std@@@std@@@std@@QAE@XZ 19166e10 f i c_clientcommander.obj
 0002:0003fe30       ??$?0U?$pair@$$CBV?$basic_string@_WU?$char_traits@_W@std@@V?$K2StringAllocator@_W@@@std@@V12@@std@@@?$K2MapAllocator@U_Node@?$_Tree_nod@V?$_Tmap_traits@V?$basic_string@_WU?$char_traits@_W@std@@V?$K2StringAllocator@_W@@@std@@V12@U?$less@V?$basic_string@_WU?$char_traits@_W@std@@V?$K2StringAllocator@_W@@@std@@@2@V?$K2MapAllocator@U?$pair@$$CBV?$basic_string@_WU?$char_traits@_W@std@@V?$K2StringAllocator@_W@@@std@@V12@@std@@@@$0A@@std@@@std@@@@QAE@ABV?$K2MapAllocator@U?$pair@$$CBV?$basic_string@_WU?$char_traits@_W@std@@V?$K2StringAllocator@_W@@@std@@V12@@std@@@@@Z 19166e30 f i c_clientcommander.obj
 0002:0003fe60       ??0?$allocator@U_Node@?$_Tree_nod@V?$_Tmap_traits@V?$basic_string@_WU?$char_traits@_W@std@@V?$K2StringAllocator@_W@@@std@@V12@U?$less@V?$basic_string@_WU?$char_traits@_W@std@@V?$K2StringAllocator@_W@@@std@@@2@V?$K2MapAllocator@U?$pair@$$CBV?$basic_string@_WU?$char_traits@_W@std@@V?$K2StringAllocator@_W@@@std@@V12@@std@@@@$0A@@std@@@std@@@std@@QAE@XZ 19166e60 f i c_clientcommander.obj
 0002:0003fe80       ??$_Construct@PAU_Node@?$_Tree_nod@V?$_Tmap_traits@V?$basic_string@_WU?$char_traits@_W@std@@V?$K2StringAllocator@_W@@@std@@V12@U?$less@V?$basic_string@_WU?$char_traits@_W@std@@V?$K2StringAllocator@_W@@@std@@@2@V?$K2MapAllocator@U?$pair@$$CBV?$basic_string@_WU?$char_traits@_W@std@@V?$K2StringAllocator@_W@@@std@@V12@@std@@@@$0A@@std@@@std@@PAU123@@std@@YAXPAPAU_Node@?$_Tree_nod@V?$_Tmap_traits@V?$basic_string@_WU?$char_traits@_W@std@@V?$K2StringAllocator@_W@@@std@@V12@U?$less@V?$basic_string@_WU?$char_traits@_W@std@@V?$K2StringAllocator@_W@@@std@@@2@V?$K2MapAllocator@U?$pair@$$CBV?$basic_string@_WU?$char_traits@_W@std@@V?$K2StringAllocator@_W@@@std@@V12@@std@@@@$0A@@std@@@0@ABQAU120@@Z 19166e80 f i c_clientcommander.obj
 0002:0003fee0       ??0SClientResourceLoadRequest@@QAE@ABU0@@Z 19166ee0 f i c_clientcommander.obj
 0002:0003ff30       ??_G?$basic_string@_WU?$char_traits@_W@std@@V?$K2StringAllocator@_W@@@std@@QAEPAXI@Z 19166f30 f i c_clientcommander.obj
 0002:0003ff80       ??_G_Node@?$_Tree_nod@V?$_Tmap_traits@V?$basic_string@_WU?$char_traits@_W@std@@V?$K2StringAllocator@_W@@@std@@V12@U?$less@V?$basic_string@_WU?$char_traits@_W@std@@V?$K2StringAllocator@_W@@@std@@@2@V?$K2MapAllocator@U?$pair@$$CBV?$basic_string@_WU?$char_traits@_W@std@@V?$K2StringAllocator@_W@@@std@@V12@@std@@@@$0A@@std@@@std@@QAEPAXI@Z 19166f80 f i c_clientcommander.obj
 0002:0003ffd0       ??1_Node@?$_Tree_nod@V?$_Tmap_traits@V?$basic_string@_WU?$char_traits@_W@std@@V?$K2StringAllocator@_W@@@std@@V12@U?$less@V?$basic_string@_WU?$char_traits@_W@std@@V?$K2StringAllocator@_W@@@std@@@2@V?$K2MapAllocator@U?$pair@$$CBV?$basic_string@_WU?$char_traits@_W@std@@V?$K2StringAllocator@_W@@@std@@V12@@std@@@@$0A@@std@@@std@@QAE@XZ 19166fd0 f i c_clientcommander.obj
 0002:00040000       ??0?$CCvar@II@@QAE@ABV?$basic_string@_WU?$char_traits@_W@std@@V?$K2StringAllocator@_W@@@std@@IHP6A_NPAVCConsoleElement@@ABV?$vector@V?$basic_string@_WU?$char_traits@_W@std@@V?$K2StringAllocator@_W@@@std@@V?$K2VectorAllocator@V?$basic_string@_WU?$char_traits@_W@std@@V?$K2StringAllocator@_W@@@std@@@@@@@Z@Z 19167000 f i c_clientcommander.obj
 0002:00040110       ??_G?$CCvar@II@@UAEPAXI@Z  19167110 f i c_clientcommander.obj
 0002:00040110       ??_E?$CCvar@II@@UAEPAXI@Z  19167110 f i c_clientcommander.obj
 0002:00040160       ??0?$vector@V?$basic_string@_WU?$char_traits@_W@std@@V?$K2StringAllocator@_W@@@std@@V?$K2VectorAllocator@V?$basic_string@_WU?$char_traits@_W@std@@V?$K2StringAllocator@_W@@@std@@@@@@QAE@XZ 19167160 f i c_clientcommander.obj
 0002:00040190       ?push_back@?$vector@V?$basic_string@_WU?$char_traits@_W@std@@V?$K2StringAllocator@_W@@@std@@V?$K2VectorAllocator@V?$basic_string@_WU?$char_traits@_W@std@@V?$K2StringAllocator@_W@@@std@@@@@std@@QAEXABV?$basic_string@_WU?$char_traits@_W@std@@V?$K2StringAllocator@_W@@@2@@Z 19167190 f i c_clientcommander.obj
 0002:00040240       ?end@?$vector@V?$basic_string@_WU?$char_traits@_W@std@@V?$K2StringAllocator@_W@@@std@@V?$K2VectorAllocator@V?$basic_string@_WU?$char_traits@_W@std@@V?$K2StringAllocator@_W@@@std@@@@@std@@QAE?AV?$_Vector_iterator@V?$basic_string@_WU?$char_traits@_W@std@@V?$K2StringAllocator@_W@@@std@@V?$K2VectorAllocator@V?$basic_string@_WU?$char_traits@_W@std@@V?$K2StringAllocator@_W@@@std@@@@@2@XZ 19167240 f i c_clientcommander.obj
 0002:00040290       ??1?$CCvar@II@@UAE@XZ      19167290 f i c_clientcommander.obj
 0002:000402c0       ?Reset@?$CCvar@II@@UAEXXZ  191672c0 f i c_clientcommander.obj
 0002:00040320       ?IsDefault@?$CCvar@II@@UBE_NXZ 19167320 f i c_clientcommander.obj
 0002:00040360       ?StoreValue@?$CCvar@II@@UAEXXZ 19167360 f i c_clientcommander.obj
 0002:00040390       ?RestoreStored@?$CCvar@II@@UAEXXZ 19167390 f i c_clientcommander.obj
 0002:000403c0       ?GetString@?$CCvar@II@@UBE?AV?$basic_string@_WU?$char_traits@_W@std@@V?$K2StringAllocator@_W@@@std@@XZ 191673c0 f i c_clientcommander.obj
 0002:00040420       ?XtoW@@YA?AV?$basic_string@_WU?$char_traits@_W@std@@V?$K2StringAllocator@_W@@@std@@IHHH@Z 19167420 f i c_clientcommander.obj
 0002:00040470       ?SetIndex@?$CCvar@II@@UAEXIABV?$basic_string@_WU?$char_traits@_W@std@@V?$K2StringAllocator@_W@@@std@@@Z 19167470 f i c_clientcommander.obj
 0002:00040490       ?Inc@?$CCvar@II@@UAEXABV?$basic_string@_WU?$char_traits@_W@std@@V?$K2StringAllocator@_W@@@std@@@Z 19167490 f i c_clientcommander.obj
 0002:000404b0       ?Toggle@?$CCvar@II@@UAEXXZ 191674b0 f i c_clientcommander.obj
 0002:000404d0       ??0?$vector@V?$basic_string@_WU?$char_traits@_W@std@@V?$K2StringAllocator@_W@@@std@@V?$K2VectorAllocator@V?$basic_string@_WU?$char_traits@_W@std@@V?$K2StringAllocator@_W@@@std@@@@@std@@QAE@XZ 191674d0 f i c_clientcommander.obj
 0002:00040560       ?capacity@?$vector@V?$basic_string@_WU?$char_traits@_W@std@@V?$K2StringAllocator@_W@@@std@@V?$K2VectorAllocator@V?$basic_string@_WU?$char_traits@_W@std@@V?$K2StringAllocator@_W@@@std@@@@@std@@QBEIXZ 19167560 f i c_clientcommander.obj
 0002:000405b0       ?insert@?$vector@V?$basic_string@_WU?$char_traits@_W@std@@V?$K2StringAllocator@_W@@@std@@V?$K2VectorAllocator@V?$basic_string@_WU?$char_traits@_W@std@@V?$K2StringAllocator@_W@@@std@@@@@std@@QAE?AV?$_Vector_iterator@V?$basic_string@_WU?$char_traits@_W@std@@V?$K2StringAllocator@_W@@@std@@V?$K2VectorAllocator@V?$basic_string@_WU?$char_traits@_W@std@@V?$K2StringAllocator@_W@@@std@@@@@2@V32@ABV?$basic_string@_WU?$char_traits@_W@std@@V?$K2StringAllocator@_W@@@2@@Z 191675b0 f i c_clientcommander.obj
 0002:00040720       ??H?$_Vector_iterator@V?$basic_string@_WU?$char_traits@_W@std@@V?$K2StringAllocator@_W@@@std@@V?$K2VectorAllocator@V?$basic_string@_WU?$char_traits@_W@std@@V?$K2StringAllocator@_W@@@std@@@@@std@@QBE?AV01@H@Z 19167720 f i c_clientcommander.obj
 0002:000407d0       ??0?$_Vector_iterator@V?$basic_string@_WU?$char_traits@_W@std@@V?$K2StringAllocator@_W@@@std@@V?$K2VectorAllocator@V?$basic_string@_WU?$char_traits@_W@std@@V?$K2StringAllocator@_W@@@std@@@@@std@@QAE@ABV01@@Z 191677d0 f i c_clientcommander.obj
 0002:00040800       ??0?$_Vector_const_iterator@V?$basic_string@_WU?$char_traits@_W@std@@V?$K2StringAllocator@_W@@@std@@V?$K2VectorAllocator@V?$basic_string@_WU?$char_traits@_W@std@@V?$K2StringAllocator@_W@@@std@@@@@std@@QAE@ABV01@@Z 19167800 f i c_clientcommander.obj
 0002:00040840       ??0?$_Ranit@V?$basic_string@_WU?$char_traits@_W@std@@V?$K2StringAllocator@_W@@@std@@HPBV12@ABV12@@std@@QAE@ABU01@@Z 19167840 f i c_clientcommander.obj
 0002:00040870       ?_Buy@?$vector@V?$basic_string@_WU?$char_traits@_W@std@@V?$K2StringAllocator@_W@@@std@@V?$K2VectorAllocator@V?$basic_string@_WU?$char_traits@_W@std@@V?$K2StringAllocator@_W@@@std@@@@@std@@IAE_NI@Z 19167870 f i c_clientcommander.obj
 0002:00040920       ?_Ufill@?$vector@V?$basic_string@_WU?$char_traits@_W@std@@V?$K2StringAllocator@_W@@@std@@V?$K2VectorAllocator@V?$basic_string@_WU?$char_traits@_W@std@@V?$K2StringAllocator@_W@@@std@@@@@std@@IAEPAV?$basic_string@_WU?$char_traits@_W@std@@V?$K2StringAllocator@_W@@@2@PAV32@IABV32@@Z 19167920 f i c_clientcommander.obj
 0002:00040970       ?_Orphan_range@?$vector@V?$basic_string@_WU?$char_traits@_W@std@@V?$K2StringAllocator@_W@@@std@@V?$K2VectorAllocator@V?$basic_string@_WU?$char_traits@_W@std@@V?$K2StringAllocator@_W@@@std@@@@@std@@IBEXPAV?$basic_string@_WU?$char_traits@_W@std@@V?$K2StringAllocator@_W@@@2@0@Z 19167970 f i c_clientcommander.obj
 0002:00040a10       ??Y?$_Vector_iterator@V?$basic_string@_WU?$char_traits@_W@std@@V?$K2StringAllocator@_W@@@std@@V?$K2VectorAllocator@V?$basic_string@_WU?$char_traits@_W@std@@V?$K2StringAllocator@_W@@@std@@@@@std@@QAEAAV01@H@Z 19167a10 f i c_clientcommander.obj
 0002:00040a40       ?max_size@?$vector@V?$basic_string@_WU?$char_traits@_W@std@@V?$K2StringAllocator@_W@@@std@@V?$K2VectorAllocator@V?$basic_string@_WU?$char_traits@_W@std@@V?$K2StringAllocator@_W@@@std@@@@@std@@QBEIXZ 19167a40 f i c_clientcommander.obj
 0002:00040a70       ?_Insert_n@?$vector@V?$basic_string@_WU?$char_traits@_W@std@@V?$K2StringAllocator@_W@@@std@@V?$K2VectorAllocator@V?$basic_string@_WU?$char_traits@_W@std@@V?$K2StringAllocator@_W@@@std@@@@@std@@IAEXV?$_Vector_iterator@V?$basic_string@_WU?$char_traits@_W@std@@V?$K2StringAllocator@_W@@@std@@V?$K2VectorAllocator@V?$basic_string@_WU?$char_traits@_W@std@@V?$K2StringAllocator@_W@@@std@@@@@2@IABV?$basic_string@_WU?$char_traits@_W@std@@V?$K2StringAllocator@_W@@@2@@Z 19167a70 f i c_clientcommander.obj
 0002:00040f60       ?_Xlen@?$vector@V?$basic_string@_WU?$char_traits@_W@std@@V?$K2StringAllocator@_W@@@std@@V?$K2VectorAllocator@V?$basic_string@_WU?$char_traits@_W@std@@V?$K2StringAllocator@_W@@@std@@@@@std@@KAXXZ 19167f60 f i c_clientcommander.obj
 0002:00041010       ??0?$_Vector_val@V?$basic_string@_WU?$char_traits@_W@std@@V?$K2StringAllocator@_W@@@std@@V?$K2VectorAllocator@V?$basic_string@_WU?$char_traits@_W@std@@V?$K2StringAllocator@_W@@@std@@@@@std@@IAE@V?$K2VectorAllocator@V?$basic_string@_WU?$char_traits@_W@std@@V?$K2StringAllocator@_W@@@std@@@@@Z 19168010 f i c_clientcommander.obj
 0002:000410b0       ??0?$K2VectorAllocator@V?$basic_string@_WU?$char_traits@_W@std@@V?$K2StringAllocator@_W@@@std@@@@QAE@XZ 191680b0 f i c_clientcommander.obj
 0002:000410e0       ??0?$K2VectorAllocator@V?$basic_string@_WU?$char_traits@_W@std@@V?$K2StringAllocator@_W@@@std@@@@QAE@ABV0@@Z 191680e0 f i c_clientcommander.obj
 0002:00041110       ?allocate@?$K2VectorAllocator@V?$basic_string@_WU?$char_traits@_W@std@@V?$K2StringAllocator@_W@@@std@@@@QAEPAV?$basic_string@_WU?$char_traits@_W@std@@V?$K2StringAllocator@_W@@@std@@I@Z 19168110 f i c_clientcommander.obj
 0002:00041160       ??G?$_Vector_iterator@V?$basic_string@_WU?$char_traits@_W@std@@V?$K2StringAllocator@_W@@@std@@V?$K2VectorAllocator@V?$basic_string@_WU?$char_traits@_W@std@@V?$K2StringAllocator@_W@@@std@@@@@std@@QBEHABV?$_Vector_const_iterator@V?$basic_string@_WU?$char_traits@_W@std@@V?$K2StringAllocator@_W@@@std@@V?$K2VectorAllocator@V?$basic_string@_WU?$char_traits@_W@std@@V?$K2StringAllocator@_W@@@std@@@@@1@@Z 19168160 f i c_clientcommander.obj
 0002:00041190       ??Y?$_Vector_const_iterator@V?$basic_string@_WU?$char_traits@_W@std@@V?$K2StringAllocator@_W@@@std@@V?$K2VectorAllocator@V?$basic_string@_WU?$char_traits@_W@std@@V?$K2StringAllocator@_W@@@std@@@@@std@@QAEAAV01@H@Z 19168190 f i c_clientcommander.obj
 0002:000412c0       ??0?$allocator@V?$basic_string@_WU?$char_traits@_W@std@@V?$K2StringAllocator@_W@@@std@@@std@@QAE@XZ 191682c0 f i c_clientcommander.obj
 0002:000412e0       ??0?$allocator@V?$basic_string@_WU?$char_traits@_W@std@@V?$K2StringAllocator@_W@@@std@@@std@@QAE@ABV01@@Z 191682e0 f i c_clientcommander.obj
 0002:00041300       ?max_size@?$allocator@V?$basic_string@_WU?$char_traits@_W@std@@V?$K2StringAllocator@_W@@@std@@@std@@QBEIXZ 19168300 f i c_clientcommander.obj
 0002:00041340       ??G?$_Vector_const_iterator@V?$basic_string@_WU?$char_traits@_W@std@@V?$K2StringAllocator@_W@@@std@@V?$K2VectorAllocator@V?$basic_string@_WU?$char_traits@_W@std@@V?$K2StringAllocator@_W@@@std@@@@@std@@QBEHABV01@@Z 19168340 f i c_clientcommander.obj
 0002:00041380       ?_Compat@?$_Vector_const_iterator@V?$basic_string@_WU?$char_traits@_W@std@@V?$K2StringAllocator@_W@@@std@@V?$K2VectorAllocator@V?$basic_string@_WU?$char_traits@_W@std@@V?$K2StringAllocator@_W@@@std@@@@@std@@QBEXABV12@@Z 19168380 f i c_clientcommander.obj
 0002:00041430       ??$_UItoW@I@@YA?AV?$basic_string@_WU?$char_traits@_W@std@@V?$K2StringAllocator@_W@@@std@@IHHH@Z 19168430 f i c_clientcommander.obj
 0002:00041510       ?Set@?$CCvar@II@@UAEXABV?$basic_string@_WU?$char_traits@_W@std@@V?$K2StringAllocator@_W@@@std@@@Z 19168510 f i c_clientcommander.obj
 0002:00041570       ?AtoX@@YAAAIABV?$basic_string@_WU?$char_traits@_W@std@@V?$K2StringAllocator@_W@@@std@@AAI@Z 19168570 f i c_clientcommander.obj
 0002:000415b0       ?c_str@?$basic_string@_WU?$char_traits@_W@std@@V?$K2StringAllocator@_W@@@std@@QBEPB_WXZ 191685b0 f i c_clientcommander.obj
 0002:000415e0       ?GetRangeString@?$CCvar@II@@UBE?AV?$basic_string@_WU?$char_traits@_W@std@@V?$K2StringAllocator@_W@@@std@@XZ 191685e0 f i c_clientcommander.obj
 0002:00041840       ??$unchecked_uninitialized_fill_n@PAV?$basic_string@_WU?$char_traits@_W@std@@V?$K2StringAllocator@_W@@@std@@IV12@V?$K2VectorAllocator@V?$basic_string@_WU?$char_traits@_W@std@@V?$K2StringAllocator@_W@@@std@@@@@stdext@@YAXPAV?$basic_string@_WU?$char_traits@_W@std@@V?$K2StringAllocator@_W@@@std@@IABV12@AAV?$K2VectorAllocator@V?$basic_string@_WU?$char_traits@_W@std@@V?$K2StringAllocator@_W@@@std@@@@@Z 19168840 f i c_clientcommander.obj
 0002:000418a0       ??$_Uninit_fill_n@PAV?$basic_string@_WU?$char_traits@_W@std@@V?$K2StringAllocator@_W@@@std@@IV12@V?$K2VectorAllocator@V?$basic_string@_WU?$char_traits@_W@std@@V?$K2StringAllocator@_W@@@std@@@@@std@@YAXPAV?$basic_string@_WU?$char_traits@_W@std@@V?$K2StringAllocator@_W@@@0@IABV10@AAV?$K2VectorAllocator@V?$basic_string@_WU?$char_traits@_W@std@@V?$K2StringAllocator@_W@@@std@@@@U_Nonscalar_ptr_iterator_tag@0@U_Range_checked_iterator_tag@0@@Z 191688a0 f i c_clientcommander.obj
 0002:00041990       ?construct@?$allocator@V?$basic_string@_WU?$char_traits@_W@std@@V?$K2StringAllocator@_W@@@std@@@std@@QAEXPAV?$basic_string@_WU?$char_traits@_W@std@@V?$K2StringAllocator@_W@@@2@ABV32@@Z 19168990 f i c_clientcommander.obj
 0002:000419c0       ??$_Construct@V?$basic_string@_WU?$char_traits@_W@std@@V?$K2StringAllocator@_W@@@std@@V12@@std@@YAXPAV?$basic_string@_WU?$char_traits@_W@std@@V?$K2StringAllocator@_W@@@0@ABV10@@Z 191689c0 f i c_clientcommander.obj
 0002:00041a70       ??$_Umove@PAV?$basic_string@_WU?$char_traits@_W@std@@V?$K2StringAllocator@_W@@@std@@@?$vector@V?$basic_string@_WU?$char_traits@_W@std@@V?$K2StringAllocator@_W@@@std@@V?$K2VectorAllocator@V?$basic_string@_WU?$char_traits@_W@std@@V?$K2StringAllocator@_W@@@std@@@@@std@@IAEPAV?$basic_string@_WU?$char_traits@_W@std@@V?$K2StringAllocator@_W@@@1@PAV21@00@Z 19168a70 f i c_clientcommander.obj
 0002:00041ab0       ??$_Unchecked_uninitialized_move@PAV?$basic_string@_WU?$char_traits@_W@std@@V?$K2StringAllocator@_W@@@std@@PAV12@V?$K2VectorAllocator@V?$basic_string@_WU?$char_traits@_W@std@@V?$K2StringAllocator@_W@@@std@@@@@stdext@@YAPAV?$basic_string@_WU?$char_traits@_W@std@@V?$K2StringAllocator@_W@@@std@@PAV12@00AAV?$K2VectorAllocator@V?$basic_string@_WU?$char_traits@_W@std@@V?$K2StringAllocator@_W@@@std@@@@@Z 19168ab0 f i c_clientcommander.obj
 0002:00041b20       ??$_Checked_base@PAV?$basic_string@_WU?$char_traits@_W@std@@V?$K2StringAllocator@_W@@@std@@@std@@YAPAV?$basic_string@_WU?$char_traits@_W@std@@V?$K2StringAllocator@_W@@@0@AAPAV10@@Z 19168b20 f i c_clientcommander.obj
 0002:00041b50       ??$_Move_cat@PAV?$basic_string@_WU?$char_traits@_W@std@@V?$K2StringAllocator@_W@@@std@@@std@@YA?AU_Swap_move_tag@0@ABQAV?$basic_string@_WU?$char_traits@_W@std@@V?$K2StringAllocator@_W@@@0@@Z 19168b50 f i c_clientcommander.obj
 0002:00041b70       ??$_Checked_base@PAV?$basic_string@_WU?$char_traits@_W@std@@V?$K2StringAllocator@_W@@@std@@@std@@YAPAV?$basic_string@_WU?$char_traits@_W@std@@V?$K2StringAllocator@_W@@@0@AAPAV10@U_Unchanged_checked_iterator_base_type_tag@0@@Z 19168b70 f i c_clientcommander.obj
 0002:00041b90       ??$_Uninit_move@PAV?$basic_string@_WU?$char_traits@_W@std@@V?$K2StringAllocator@_W@@@std@@PAV12@V?$K2VectorAllocator@V?$basic_string@_WU?$char_traits@_W@std@@V?$K2StringAllocator@_W@@@std@@@@@std@@YAPAV?$basic_string@_WU?$char_traits@_W@std@@V?$K2StringAllocator@_W@@@0@PAV10@00AAV?$K2VectorAllocator@V?$basic_string@_WU?$char_traits@_W@std@@V?$K2StringAllocator@_W@@@std@@@@U_Swap_move_tag@0@U_Range_checked_iterator_tag@0@@Z 19168b90 f i c_clientcommander.obj
 0002:00041d20       ??$_Debug_range@PAV?$basic_string@_WU?$char_traits@_W@std@@V?$K2StringAllocator@_W@@@std@@@std@@YAXPAV?$basic_string@_WU?$char_traits@_W@std@@V?$K2StringAllocator@_W@@@0@0PB_WI@Z 19168d20 f i c_clientcommander.obj
 0002:00041d70       ??$_Debug_pointer@V?$basic_string@_WU?$char_traits@_W@std@@V?$K2StringAllocator@_W@@@std@@@std@@YAXPAV?$basic_string@_WU?$char_traits@_W@std@@V?$K2StringAllocator@_W@@@0@PB_WI@Z 19168d70 f i c_clientcommander.obj
 0002:00041db0       ??$swap@_WU?$char_traits@_W@std@@V?$K2StringAllocator@_W@@@std@@YAXAAV?$basic_string@_WU?$char_traits@_W@std@@V?$K2StringAllocator@_W@@@0@0@Z 19168db0 f i c_clientcommander.obj
 0002:00041de0       ??$_Iter_cat@PAV?$basic_string@_WU?$char_traits@_W@std@@V?$K2StringAllocator@_W@@@std@@@std@@YA?AUrandom_access_iterator_tag@0@ABQAV?$basic_string@_WU?$char_traits@_W@std@@V?$K2StringAllocator@_W@@@0@@Z 19168de0 f i c_clientcommander.obj
 0002:00041e00       ??$_Debug_range2@PAV?$basic_string@_WU?$char_traits@_W@std@@V?$K2StringAllocator@_W@@@std@@@std@@YAXPAV?$basic_string@_WU?$char_traits@_W@std@@V?$K2StringAllocator@_W@@@0@0PB_WIUrandom_access_iterator_tag@0@@Z 19168e00 f i c_clientcommander.obj
 0002:00041e80       ?swap@?$basic_string@_WU?$char_traits@_W@std@@V?$K2StringAllocator@_W@@@std@@QAEXAAV12@@Z 19168e80 f i c_clientcommander.obj
 0002:00042030       ??$?8_W_W@std@@YA_NABV?$allocator@_W@0@0@Z 19169030 f i c_clientcommander.obj
 0002:00042050       ??$fill@PAV?$basic_string@_WU?$char_traits@_W@std@@V?$K2StringAllocator@_W@@@std@@V12@@std@@YAXPAV?$basic_string@_WU?$char_traits@_W@std@@V?$K2StringAllocator@_W@@@0@0ABV10@@Z 19169050 f i c_clientcommander.obj
 0002:000420a0       ??$_Fill@PAV?$basic_string@_WU?$char_traits@_W@std@@V?$K2StringAllocator@_W@@@std@@V12@@std@@YAXPAV?$basic_string@_WU?$char_traits@_W@std@@V?$K2StringAllocator@_W@@@0@0ABV10@@Z 191690a0 f i c_clientcommander.obj
 0002:00042100       ??$_Unchecked_move_backward@PAV?$basic_string@_WU?$char_traits@_W@std@@V?$K2StringAllocator@_W@@@std@@PAV12@@stdext@@YAPAV?$basic_string@_WU?$char_traits@_W@std@@V?$K2StringAllocator@_W@@@std@@PAV12@00@Z 19169100 f i c_clientcommander.obj
 0002:00042190       ??$_Iter_random@PAV?$basic_string@_WU?$char_traits@_W@std@@V?$K2StringAllocator@_W@@@std@@PAV12@@std@@YA?AUrandom_access_iterator_tag@0@ABQAV?$basic_string@_WU?$char_traits@_W@std@@V?$K2StringAllocator@_W@@@0@0@Z 19169190 f i c_clientcommander.obj
 0002:000421b0       ??$_Move_backward_opt@PAV?$basic_string@_WU?$char_traits@_W@std@@V?$K2StringAllocator@_W@@@std@@PAV12@@std@@YAPAV?$basic_string@_WU?$char_traits@_W@std@@V?$K2StringAllocator@_W@@@0@PAV10@00Urandom_access_iterator_tag@0@U_Swap_move_tag@0@U_Range_checked_iterator_tag@0@@Z 191691b0 f i c_clientcommander.obj
 0002:00042220       ??$_Move_backward_opt@PAV?$basic_string@_WU?$char_traits@_W@std@@V?$K2StringAllocator@_W@@@std@@PAV12@Uforward_iterator_tag@2@@std@@YAPAV?$basic_string@_WU?$char_traits@_W@std@@V?$K2StringAllocator@_W@@@0@PAV10@00Uforward_iterator_tag@0@U_Swap_move_tag@0@U_Range_checked_iterator_tag@0@@Z 19169220 f i c_clientcommander.obj
 0002:00042290       ??0?$CCvar@MM@@QAE@ABV?$basic_string@_WU?$char_traits@_W@std@@V?$K2StringAllocator@_W@@@std@@MHP6A_NPAVCConsoleElement@@ABV?$vector@V?$basic_string@_WU?$char_traits@_W@std@@V?$K2StringAllocator@_W@@@std@@V?$K2VectorAllocator@V?$basic_string@_WU?$char_traits@_W@std@@V?$K2StringAllocator@_W@@@std@@@@@@@Z@Z 19169290 f i c_clientcommander.obj
 0002:000423b0       ??_G?$CCvar@MM@@UAEPAXI@Z  191693b0 f i c_clientcommander.obj
 0002:000423b0       ??_E?$CCvar@MM@@UAEPAXI@Z  191693b0 f i c_clientcommander.obj
 0002:00042400       ?Set@?$CCvar@MM@@UAEXABV?$basic_string@_WU?$char_traits@_W@std@@V?$K2StringAllocator@_W@@@std@@@Z 19169400 f i c_clientcommander.obj
 0002:00042600       ?AtoF@@YAMABV?$basic_string@_WU?$char_traits@_W@std@@V?$K2StringAllocator@_W@@@std@@@Z 19169600 f i c_clientcommander.obj
 0002:00042630       ?WTOF@@YANABV?$basic_string@_WU?$char_traits@_W@std@@V?$K2StringAllocator@_W@@@std@@@Z 19169630 f i c_clientcommander.obj
 0002:00042660       ??6CConsoleStream@@QAEAAV0@M@Z 19169660 f i c_clientcommander.obj
 0002:00042710       ?Inc@?$CCvar@MM@@UAEXABV?$basic_string@_WU?$char_traits@_W@std@@V?$K2StringAllocator@_W@@@std@@@Z 19169710 f i c_clientcommander.obj
 0002:00042780       ?Toggle@?$CCvar@MM@@UAEXXZ 19169780 f i c_clientcommander.obj
 0002:00042800       ??1?$CCvar@MM@@UAE@XZ      19169800 f i c_clientcommander.obj
 0002:00042830       ?Reset@?$CCvar@MM@@UAEXXZ  19169830 f i c_clientcommander.obj
 0002:000428a0       ?IsDefault@?$CCvar@MM@@UBE_NXZ 191698a0 f i c_clientcommander.obj
 0002:00042900       ?StoreValue@?$CCvar@MM@@UAEXXZ 19169900 f i c_clientcommander.obj
 0002:00042930       ?RestoreStored@?$CCvar@MM@@UAEXXZ 19169930 f i c_clientcommander.obj
 0002:00042960       ?GetString@?$CCvar@MM@@UBE?AV?$basic_string@_WU?$char_traits@_W@std@@V?$K2StringAllocator@_W@@@std@@XZ 19169960 f i c_clientcommander.obj
 0002:000429c0       ?SetIndex@?$CCvar@MM@@UAEXIABV?$basic_string@_WU?$char_traits@_W@std@@V?$K2StringAllocator@_W@@@std@@@Z 191699c0 f i c_clientcommander.obj
 0002:000429e0       ?SetValueIndex@?$CCvar@V?$CVec3@M@@M@@QAEXIM@Z 191699e0 f i c_clientcommander.obj
 0002:00042a30       ?SetValueIndex@?$CCvar@V?$CVec4@M@@M@@QAEXIM@Z 19169a30 f i c_clientcommander.obj
 0002:00042a80       ?GetRangeString@?$CCvar@MM@@UBE?AV?$basic_string@_WU?$char_traits@_W@std@@V?$K2StringAllocator@_W@@@std@@XZ 19169a80 f i c_clientcommander.obj
 0002:00042cf0       ??0?$CCvar@_N_N@@QAE@ABV?$basic_string@_WU?$char_traits@_W@std@@V?$K2StringAllocator@_W@@@std@@_NHP6A_NPAVCConsoleElement@@ABV?$vector@V?$basic_string@_WU?$char_traits@_W@std@@V?$K2StringAllocator@_W@@@std@@V?$K2VectorAllocator@V?$basic_string@_WU?$char_traits@_W@std@@V?$K2StringAllocator@_W@@@std@@@@@@@Z@Z 19169cf0 f i c_clientcommander.obj
 0002:00042e00       ??_E?$CCvar@_N_N@@UAEPAXI@Z 19169e00 f i c_clientcommander.obj
 0002:00042e00       ??_G?$CCvar@_N_N@@UAEPAXI@Z 19169e00 f i c_clientcommander.obj
 0002:00042e50       ?Toggle@?$CCvar@_N_N@@UAEXXZ 19169e50 f i c_clientcommander.obj
 0002:00042ea0       ??1?$CCvar@_N_N@@UAE@XZ    19169ea0 f i c_clientcommander.obj
 0002:00042ed0       ?Reset@?$CCvar@_N_N@@UAEXXZ 19169ed0 f i c_clientcommander.obj
 0002:00042f30       ?IsDefault@?$CCvar@_N_N@@UBE_NXZ 19169f30 f i c_clientcommander.obj
 0002:00042f70       ?StoreValue@?$CCvar@_N_N@@UAEXXZ 19169f70 f i c_clientcommander.obj
 0002:00042fa0       ?RestoreStored@?$CCvar@_N_N@@UAEXXZ 19169fa0 f i c_clientcommander.obj
 0002:00042fd0       ?GetString@?$CCvar@_N_N@@UBE?AV?$basic_string@_WU?$char_traits@_W@std@@V?$K2StringAllocator@_W@@@std@@XZ 19169fd0 f i c_clientcommander.obj
 0002:00043020       ?SetIndex@?$CCvar@_N_N@@UAEXIABV?$basic_string@_WU?$char_traits@_W@std@@V?$K2StringAllocator@_W@@@std@@@Z 1916a020 f i c_clientcommander.obj
 0002:00043040       ?Inc@?$CCvar@_N_N@@UAEXABV?$basic_string@_WU?$char_traits@_W@std@@V?$K2StringAllocator@_W@@@std@@@Z 1916a040 f i c_clientcommander.obj
 0002:00043060       ?Set@?$CCvar@_N_N@@UAEXABV?$basic_string@_WU?$char_traits@_W@std@@V?$K2StringAllocator@_W@@@std@@@Z 1916a060 f i c_clientcommander.obj
 0002:000430c0       ?AtoX@@YAAA_NABV?$basic_string@_WU?$char_traits@_W@std@@V?$K2StringAllocator@_W@@@std@@AA_N@Z 1916a0c0 f i c_clientcommander.obj
 0002:000431b0       ?CompareNoCase@@YAHABV?$basic_string@_WU?$char_traits@_W@std@@V?$K2StringAllocator@_W@@@std@@0@Z 1916a1b0 f i c_clientcommander.obj
 0002:000431e0       ??$_CompareNoCase@V?$basic_string@_WU?$char_traits@_W@std@@V?$K2StringAllocator@_W@@@std@@@@YAHABV?$basic_string@_WU?$char_traits@_W@std@@V?$K2StringAllocator@_W@@@std@@0@Z 1916a1e0 f i c_clientcommander.obj
 0002:000434a0       ?begin@?$basic_string@_WU?$char_traits@_W@std@@V?$K2StringAllocator@_W@@@std@@QBE?AV?$_String_const_iterator@_WU?$char_traits@_W@std@@V?$K2StringAllocator@_W@@@2@XZ 1916a4a0 f i c_clientcommander.obj
 0002:000434f0       ?end@?$basic_string@_WU?$char_traits@_W@std@@V?$K2StringAllocator@_W@@@std@@QBE?AV?$_String_const_iterator@_WU?$char_traits@_W@std@@V?$K2StringAllocator@_W@@@2@XZ 1916a4f0 f i c_clientcommander.obj
 0002:00043550       ??D?$_String_const_iterator@_WU?$char_traits@_W@std@@V?$K2StringAllocator@_W@@@std@@QBEAB_WXZ 1916a550 f i c_clientcommander.obj
 0002:00043630       ??E?$_String_const_iterator@_WU?$char_traits@_W@std@@V?$K2StringAllocator@_W@@@std@@QAEAAV01@XZ 1916a630 f i c_clientcommander.obj
 0002:00043750       ??8?$_String_const_iterator@_WU?$char_traits@_W@std@@V?$K2StringAllocator@_W@@@std@@QBE_NABV01@@Z 1916a750 f i c_clientcommander.obj
 0002:00043790       ??9?$_String_const_iterator@_WU?$char_traits@_W@std@@V?$K2StringAllocator@_W@@@std@@QBE_NABV01@@Z 1916a790 f i c_clientcommander.obj
 0002:000437d0       ?GetRangeString@?$CCvar@_N_N@@UBE?AV?$basic_string@_WU?$char_traits@_W@std@@V?$K2StringAllocator@_W@@@std@@XZ 1916a7d0 f i c_clientcommander.obj
 0002:00043a30       ??0?$CInputState@_N@@QAE@ABV?$basic_string@_WU?$char_traits@_W@std@@V?$K2StringAllocator@_W@@@std@@H@Z 1916aa30 f i c_clientcommander.obj
 0002:00043a80       ?Do@?$CInputState@_N@@UAEXMMABV?$CVec2@M@@ABV?$basic_string@_WU?$char_traits@_W@std@@V?$K2StringAllocator@_W@@@std@@@Z 1916aa80 f i c_clientcommander.obj
 0002:00043ad0       ??_G?$CInputState@_N@@UAEPAXI@Z 1916aad0 f i c_clientcommander.obj
 0002:00043ad0       ??_E?$CInputState@_N@@UAEPAXI@Z 1916aad0 f i c_clientcommander.obj
 0002:00043b20       ??1?$CInputState@_N@@UAE@XZ 1916ab20 f i c_clientcommander.obj
 0002:00043b50       ??R?$CInputState@_N@@UAEXMMABV?$CVec2@M@@ABV?$basic_string@_WU?$char_traits@_W@std@@V?$K2StringAllocator@_W@@@std@@@Z 1916ab50 f i c_clientcommander.obj
 0002:00043ba0       ??1CClientEntity@@QAE@XZ   1916aba0 f   c_cliententity.obj
 0002:00043bd0       ??0CClientEntity@@QAE@XZ   1916abd0 f   c_cliententity.obj
 0002:00043de0       ?SetIndex@CClientEntity@@QAEXI@Z 1916ade0 f   c_cliententity.obj
 0002:00043e80       ?SetType@CClientEntity@@QAEXG@Z 1916ae80 f   c_cliententity.obj
 0002:00043f30       ?SetSkeleton@CClientEntity@@QAEXPAVCSkeleton@@@Z 1916af30 f   c_cliententity.obj
 0002:00044070       ?SetDefaultAnim@CSkeleton@@QAEXABV?$basic_string@_WU?$char_traits@_W@std@@V?$K2StringAllocator@_W@@@std@@@Z 1916b070 f i c_cliententity.obj
 0002:000440a0       ?GetWorldIndex@CClientEntity@@QBEIXZ 1916b0a0 f   c_cliententity.obj
 0002:000440d0       ?GetClientID@CClientEntity@@QBEHXZ 1916b0d0 f   c_cliententity.obj
 0002:00044160       ?Free@CClientEntity@@QAEXXZ 1916b160 f   c_cliententity.obj
 0002:000449a0       ?GetMountIndex@IGadgetEntity@@QBEIXZ 1916b9a0 f i c_cliententity.obj
 0002:000449d0       ?Initialize@CClientEntity@@QAEXPAVIVisualEntity@@@Z 1916b9d0 f   c_cliententity.obj
 0002:00045800       ?CopyNextToPrev@CClientEntity@@QAEXXZ 1916c800 f   c_cliententity.obj
 0002:00045850       ?CopyNextToCurrent@CClientEntity@@QAEXXZ 1916c850 f   c_cliententity.obj
 0002:000458a0       ?Interpolate@CClientEntity@@QAEXM@Z 1916c8a0 f   c_cliententity.obj
 0002:00045bd0       ?Frame@CClientEntity@@QAEXXZ 1916cbd0 f   c_cliententity.obj
 0002:00045bf0       ?AddToScene@CClientEntity@@QAEXXZ 1916cbf0 f   c_cliententity.obj
 0002:00048720       ?GetSourceEntityIndex@CEntityEffect@@QAEIXZ 1916f720 f i c_cliententity.obj
 0002:00048750       ?IsTeamTarget@CTeamInfo@@QBE_NI@Z 1916f750 f i c_cliententity.obj
 0002:00048780       ?GetOriginTime@IProjectile@@QBEIXZ 1916f780 f i c_cliententity.obj
 0002:000487b0       ?GetInstances@CEffectThread@@QBEABV?$map@V?$basic_string@_WU?$char_traits@_W@std@@V?$K2StringAllocator@_W@@@std@@PAVIEffectInstance@@U?$less@V?$basic_string@_WU?$char_traits@_W@std@@V?$K2StringAllocator@_W@@@std@@@2@V?$K2MapAllocator@U?$pair@$$CBV?$basic_string@_WU?$char_traits@_W@std@@V?$K2StringAllocator@_W@@@std@@PAVIEffectInstance@@@std@@@@@@XZ 1916f7b0 f i c_cliententity.obj
 0002:000487d0       ?SetActive@CEffectThread@@QAEX_N@Z 1916f7d0 f i c_cliententity.obj
 0002:00048800       ?SetCamera@CEffectThread@@QAEXPAVCCamera@@@Z 1916f800 f i c_cliententity.obj
 0002:00048830       ?SetWorld@CEffectThread@@QAEXPAVCWorld@@@Z 1916f830 f i c_cliententity.obj
 0002:00048860       ?GetCameraOffset@CEffectThread@@QBEABV?$CVec3@M@@XZ 1916f860 f i c_cliententity.obj
 0002:00048880       ?GetCameraAngleOffset@CEffectThread@@QBEABV?$CVec3@M@@XZ 1916f880 f i c_cliententity.obj
 0002:000488b0       ?SetSourceSkeleton@CEffectThread@@QAEXPAVCSkeleton@@@Z 1916f8b0 f i c_cliententity.obj
 0002:000488e0       ?SetSourceModel@CEffectThread@@QAEXPAVCModel@@@Z 1916f8e0 f i c_cliententity.obj
 0002:00048910       ?SetTargetSkeleton@CEffectThread@@QAEXPAVCSkeleton@@@Z 1916f910 f i c_cliententity.obj
 0002:00048940       ?SetTargetModel@CEffectThread@@QAEXPAVCModel@@@Z 1916f940 f i c_cliententity.obj
 0002:00048970       ?SetCustomVisibility@CEffectThread@@QAEX_N@Z 1916f970 f i c_cliententity.obj
 0002:000489a0       ?HasActiveOverlay@CEffectThread@@QBE_NXZ 1916f9a0 f i c_cliententity.obj
 0002:000489d0       ?GetOverlayColor@CEffectThread@@QBE?AV?$CVec4@M@@XZ 1916f9d0 f i c_cliententity.obj
 0002:00048a20       ?GetOverlayMaterial@CEffectThread@@QBEIXZ 1916fa20 f i c_cliententity.obj
 0002:00048a50       ?GetEntityList@CSceneManager@@QAEAAV?$vector@PAUSSceneEntityEntry@@V?$K2VectorAllocator@PAUSSceneEntityEntry@@@@@@XZ 1916fa50 f i c_cliententity.obj
 0002:00048a80       ?GetType@IModel@@QBE?AW4EModelType@@XZ 1916fa80 f i c_cliententity.obj
 0002:00048aa0       ?GetNumAnims@CK2Model@@QBEIXZ 1916faa0 f i c_cliententity.obj
 0002:00048ad0       ?GetModel@CSkeleton@@QAEIXZ 1916fad0 f i c_cliententity.obj
 0002:00048af0       ?GetCurrentAnimStartTime@CSkeleton@@QAEIH@Z 1916faf0 f i c_cliententity.obj
 0002:00048b20       ?GetCurrentAnimSpeed@CSkeleton@@QAEMH@Z 1916fb20 f i c_cliententity.obj
 0002:00048b50       ?GetModelFile@CModel@@QAEPAVIModel@@XZ 1916fb50 f i c_cliententity.obj
 0002:00048b80       ?IsTalking@CVoiceManager@@QAE_NH@Z 1916fb80 f i c_cliententity.obj
 0002:00048c60       ??1iterator@?$_Tree@V?$_Tset_traits@HU?$less@H@std@@V?$K2SetAllocator@H@@$0A@@std@@@std@@QAE@XZ 1916fc60 f i c_cliententity.obj
 0002:00048c90       ??1const_iterator@?$_Tree@V?$_Tset_traits@HU?$less@H@std@@V?$K2SetAllocator@H@@$0A@@std@@@std@@QAE@XZ 1916fc90 f i c_cliententity.obj
 0002:00048cc0       ??1?$_Bidit@HHPBHABH@std@@QAE@XZ 1916fcc0 f i c_cliententity.obj
 0002:00048cf0       ??_F?$basic_string@_WU?$char_traits@_W@std@@V?$K2StringAllocator@_W@@@std@@QAEXXZ 1916fcf0 f i c_cliententity.obj
 0002:00048d30       ??1const_iterator@?$_Tree@V?$_Tmap_traits@V?$basic_string@_WU?$char_traits@_W@std@@V?$K2StringAllocator@_W@@@std@@PAVIEffectInstance@@U?$less@V?$basic_string@_WU?$char_traits@_W@std@@V?$K2StringAllocator@_W@@@std@@@2@V?$K2MapAllocator@U?$pair@$$CBV?$basic_string@_WU?$char_traits@_W@std@@V?$K2StringAllocator@_W@@@std@@PAVIEffectInstance@@@std@@@@$0A@@std@@@std@@QAE@XZ 1916fd30 f i c_cliententity.obj
 0002:00048d60       ??1?$_Vector_iterator@PAUSSceneEntityEntry@@V?$K2VectorAllocator@PAUSSceneEntityEntry@@@@@std@@QAE@XZ 1916fd60 f i c_cliententity.obj
 0002:00048d90       ??1?$_Bidit@U?$pair@$$CBV?$basic_string@_WU?$char_traits@_W@std@@V?$K2StringAllocator@_W@@@std@@PAVIEffectInstance@@@std@@HPBU12@ABU12@@std@@QAE@XZ 1916fd90 f i c_cliententity.obj
 0002:00048dc0       ??1?$_Vector_const_iterator@PAUSSceneEntityEntry@@V?$K2VectorAllocator@PAUSSceneEntityEntry@@@@@std@@QAE@XZ 1916fdc0 f i c_cliententity.obj
 0002:00048df0       ??1?$_Ranit@PAUSSceneEntityEntry@@HPBQAU1@ABQAU1@@std@@QAE@XZ 1916fdf0 f i c_cliententity.obj
 0002:00048e20       ?StartEffect@CClientEntity@@QAEHIHH@Z 1916fe20 f   c_cliententity.obj
 0002:00049150       ?StartEffect@CClientEntity@@QAEHABV?$basic_string@_WU?$char_traits@_W@std@@V?$K2StringAllocator@_W@@@std@@HH@Z 19170150 f   c_cliententity.obj
 0002:00049250       ??0CResourceScope@@QAE@ABV?$basic_string@_WU?$char_traits@_W@std@@V?$K2StringAllocator@_W@@@std@@@Z 19170250 f i c_cliententity.obj
 0002:000494e0       ??1CResourceScope@@QAE@XZ  191704e0 f i c_cliententity.obj
 0002:00049680       ??BCResourceScope@@QBE_NXZ 19170680 f i c_cliententity.obj
 0002:000496a0       ??1iterator@?$_Tree@V?$_Tmap_traits@V?$basic_string@_WU?$char_traits@_W@std@@V?$K2StringAllocator@_W@@@std@@USResContext@CResourceInfo@@U?$less@V?$basic_string@_WU?$char_traits@_W@std@@V?$K2StringAllocator@_W@@@std@@@2@V?$K2MapAllocator@U?$pair@$$CBV?$basic_string@_WU?$char_traits@_W@std@@V?$K2StringAllocator@_W@@@std@@USResContext@CResourceInfo@@@std@@@@$0A@@std@@@std@@QAE@XZ 191706a0 f i c_cliententity.obj
 0002:000496d0       ??4iterator@?$_Tree@V?$_Tmap_traits@V?$basic_string@_WU?$char_traits@_W@std@@V?$K2StringAllocator@_W@@@std@@USResContext@CResourceInfo@@U?$less@V?$basic_string@_WU?$char_traits@_W@std@@V?$K2StringAllocator@_W@@@std@@@2@V?$K2MapAllocator@U?$pair@$$CBV?$basic_string@_WU?$char_traits@_W@std@@V?$K2StringAllocator@_W@@@std@@USResContext@CResourceInfo@@@std@@@@$0A@@std@@@std@@QAEAAV012@ABV012@@Z 191706d0 f i c_cliententity.obj
 0002:00049700       ??1const_iterator@?$_Tree@V?$_Tmap_traits@V?$basic_string@_WU?$char_traits@_W@std@@V?$K2StringAllocator@_W@@@std@@USResContext@CResourceInfo@@U?$less@V?$basic_string@_WU?$char_traits@_W@std@@V?$K2StringAllocator@_W@@@std@@@2@V?$K2MapAllocator@U?$pair@$$CBV?$basic_string@_WU?$char_traits@_W@std@@V?$K2StringAllocator@_W@@@std@@USResContext@CResourceInfo@@@std@@@@$0A@@std@@@std@@QAE@XZ 19170700 f i c_cliententity.obj
 0002:00049730       ??4const_iterator@?$_Tree@V?$_Tmap_traits@V?$basic_string@_WU?$char_traits@_W@std@@V?$K2StringAllocator@_W@@@std@@USResContext@CResourceInfo@@U?$less@V?$basic_string@_WU?$char_traits@_W@std@@V?$K2StringAllocator@_W@@@std@@@2@V?$K2MapAllocator@U?$pair@$$CBV?$basic_string@_WU?$char_traits@_W@std@@V?$K2StringAllocator@_W@@@std@@USResContext@CResourceInfo@@@std@@@@$0A@@std@@@std@@QAEAAV012@ABV012@@Z 19170730 f i c_cliententity.obj
 0002:00049770       ??1?$_Bidit@U?$pair@$$CBV?$basic_string@_WU?$char_traits@_W@std@@V?$K2StringAllocator@_W@@@std@@USResContext@CResourceInfo@@@std@@HPBU12@ABU12@@std@@QAE@XZ 19170770 f i c_cliententity.obj
 0002:000497a0       ??4?$_Bidit@U?$pair@$$CBV?$basic_string@_WU?$char_traits@_W@std@@V?$K2StringAllocator@_W@@@std@@USResContext@CResourceInfo@@@std@@HPBU12@ABU12@@std@@QAEAAU01@ABU01@@Z 191707a0 f i c_cliententity.obj
 0002:000497d0       ?StopEffect@CClientEntity@@QAEXH@Z 191707d0 f   c_cliententity.obj
 0002:00049810       ?ExpireEffect@CClientEntity@@QAEXAAPAVCEffectThread@@@Z 19170810 f   c_cliententity.obj
 0002:00049a30       ?PassEffects@CClientEntity@@QAEXXZ 19170a30 f   c_cliententity.obj
 0002:00049e70       ?PlaySound@CClientEntity@@QAEHIMMHHHHHH_NHMMHM@Z 19170e70 f   c_cliententity.obj
 0002:0004a000       ?StopSound@CClientEntity@@QAEXH@Z 19171000 f   c_cliententity.obj
 0002:0004a070       ?StopAllSounds@CClientEntity@@QAEXXZ 19171070 f   c_cliententity.obj
 0002:0004a0e0       ?Rewind@CClientEntity@@QAEXXZ 191710e0 f   c_cliententity.obj
 0002:0004a140       ?end@?$_Tree@V?$_Tset_traits@HU?$less@H@std@@V?$K2SetAllocator@H@@$0A@@std@@@std@@QAE?AViterator@12@XZ 19171140 f i c_cliententity.obj
 0002:0004a190       ?find@?$_Tree@V?$_Tset_traits@HU?$less@H@std@@V?$K2SetAllocator@H@@$0A@@std@@@std@@QAE?AViterator@12@ABH@Z 19171190 f i c_cliententity.obj
 0002:0004a370       ?find@?$basic_string@_WU?$char_traits@_W@std@@V?$K2StringAllocator@_W@@@std@@QBEIPB_WI@Z 19171370 f i c_cliententity.obj
 0002:0004a3b0       ??9const_iterator@?$_Tree@V?$_Tset_traits@HU?$less@H@std@@V?$K2SetAllocator@H@@$0A@@std@@@std@@QBE_NABV012@@Z 191713b0 f i c_cliententity.obj
 0002:0004a3f0       ?begin@?$_Tree@V?$_Tmap_traits@V?$basic_string@_WU?$char_traits@_W@std@@V?$K2StringAllocator@_W@@@std@@PAVIEffectInstance@@U?$less@V?$basic_string@_WU?$char_traits@_W@std@@V?$K2StringAllocator@_W@@@std@@@2@V?$K2MapAllocator@U?$pair@$$CBV?$basic_string@_WU?$char_traits@_W@std@@V?$K2StringAllocator@_W@@@std@@PAVIEffectInstance@@@std@@@@$0A@@std@@@std@@QBE?AVconst_iterator@12@XZ 191713f0 f i c_cliententity.obj
 0002:0004a440       ?end@?$_Tree@V?$_Tmap_traits@V?$basic_string@_WU?$char_traits@_W@std@@V?$K2StringAllocator@_W@@@std@@PAVIEffectInstance@@U?$less@V?$basic_string@_WU?$char_traits@_W@std@@V?$K2StringAllocator@_W@@@std@@@2@V?$K2MapAllocator@U?$pair@$$CBV?$basic_string@_WU?$char_traits@_W@std@@V?$K2StringAllocator@_W@@@std@@PAVIEffectInstance@@@std@@@@$0A@@std@@@std@@QBE?AVconst_iterator@12@XZ 19171440 f i c_cliententity.obj
 0002:0004a490       ?begin@?$vector@PAUSSceneEntityEntry@@V?$K2VectorAllocator@PAUSSceneEntityEntry@@@@@std@@QAE?AV?$_Vector_iterator@PAUSSceneEntityEntry@@V?$K2VectorAllocator@PAUSSceneEntityEntry@@@@@2@XZ 19171490 f i c_cliententity.obj
 0002:0004a4e0       ?end@?$vector@PAUSSceneEntityEntry@@V?$K2VectorAllocator@PAUSSceneEntityEntry@@@@@std@@QAE?AV?$_Vector_iterator@PAUSSceneEntityEntry@@V?$K2VectorAllocator@PAUSSceneEntityEntry@@@@@2@XZ 191714e0 f i c_cliententity.obj
 0002:0004a530       ?size@?$vector@PAUSSceneEntityEntry@@V?$K2VectorAllocator@PAUSSceneEntityEntry@@@@@std@@QBEIXZ 19171530 f i c_cliententity.obj
 0002:0004a580       ?size@?$_Tree@V?$_Tmap_traits@V?$basic_string@_WU?$char_traits@_W@std@@V?$K2StringAllocator@_W@@@std@@PAVCAnim@@U?$less@V?$basic_string@_WU?$char_traits@_W@std@@V?$K2StringAllocator@_W@@@std@@@2@V?$K2MapAllocator@U?$pair@$$CBV?$basic_string@_WU?$char_traits@_W@std@@V?$K2StringAllocator@_W@@@std@@PAVCAnim@@@std@@@@$0A@@std@@@std@@QBEIXZ 19171580 f i c_cliententity.obj
 0002:0004a5a0       ?end@?$_Tree@V?$_Tmap_traits@V?$basic_string@_WU?$char_traits@_W@std@@V?$K2StringAllocator@_W@@@std@@USResContext@CResourceInfo@@U?$less@V?$basic_string@_WU?$char_traits@_W@std@@V?$K2StringAllocator@_W@@@std@@@2@V?$K2MapAllocator@U?$pair@$$CBV?$basic_string@_WU?$char_traits@_W@std@@V?$K2StringAllocator@_W@@@std@@USResContext@CResourceInfo@@@std@@@@$0A@@std@@@std@@QAE?AViterator@12@XZ 191715a0 f i c_cliententity.obj
 0002:0004a5f0       ?find@?$_Tree@V?$_Tmap_traits@V?$basic_string@_WU?$char_traits@_W@std@@V?$K2StringAllocator@_W@@@std@@USResContext@CResourceInfo@@U?$less@V?$basic_string@_WU?$char_traits@_W@std@@V?$K2StringAllocator@_W@@@std@@@2@V?$K2MapAllocator@U?$pair@$$CBV?$basic_string@_WU?$char_traits@_W@std@@V?$K2StringAllocator@_W@@@std@@USResContext@CResourceInfo@@@std@@@@$0A@@std@@@std@@QAE?AViterator@12@ABV?$basic_string@_WU?$char_traits@_W@std@@V?$K2StringAllocator@_W@@@2@@Z 191715f0 f i c_cliententity.obj
 0002:0004a7d0       ??0iterator@?$_Tree@V?$_Tmap_traits@V?$basic_string@_WU?$char_traits@_W@std@@V?$K2StringAllocator@_W@@@std@@USResContext@CResourceInfo@@U?$less@V?$basic_string@_WU?$char_traits@_W@std@@V?$K2StringAllocator@_W@@@std@@@2@V?$K2MapAllocator@U?$pair@$$CBV?$basic_string@_WU?$char_traits@_W@std@@V?$K2StringAllocator@_W@@@std@@USResContext@CResourceInfo@@@std@@@@$0A@@std@@@std@@QAE@XZ 191717d0 f i c_cliententity.obj
 0002:0004a800       ??Citerator@?$_Tree@V?$_Tmap_traits@V?$basic_string@_WU?$char_traits@_W@std@@V?$K2StringAllocator@_W@@@std@@USResContext@CResourceInfo@@U?$less@V?$basic_string@_WU?$char_traits@_W@std@@V?$K2StringAllocator@_W@@@std@@@2@V?$K2MapAllocator@U?$pair@$$CBV?$basic_string@_WU?$char_traits@_W@std@@V?$K2StringAllocator@_W@@@std@@USResContext@CResourceInfo@@@std@@@@$0A@@std@@@std@@QBEPAU?$pair@$$CBV?$basic_string@_WU?$char_traits@_W@std@@V?$K2StringAllocator@_W@@@std@@USResContext@CResourceInfo@@@2@XZ 19171800 f i c_cliententity.obj
 0002:0004a830       ??8const_iterator@?$_Tree@V?$_Tmap_traits@V?$basic_string@_WU?$char_traits@_W@std@@V?$K2StringAllocator@_W@@@std@@USResContext@CResourceInfo@@U?$less@V?$basic_string@_WU?$char_traits@_W@std@@V?$K2StringAllocator@_W@@@std@@@2@V?$K2MapAllocator@U?$pair@$$CBV?$basic_string@_WU?$char_traits@_W@std@@V?$K2StringAllocator@_W@@@std@@USResContext@CResourceInfo@@@std@@@@$0A@@std@@@std@@QBE_NABV012@@Z 19171830 f i c_cliententity.obj
 0002:0004a8f0       ??9const_iterator@?$_Tree@V?$_Tmap_traits@V?$basic_string@_WU?$char_traits@_W@std@@V?$K2StringAllocator@_W@@@std@@USResContext@CResourceInfo@@U?$less@V?$basic_string@_WU?$char_traits@_W@std@@V?$K2StringAllocator@_W@@@std@@@2@V?$K2MapAllocator@U?$pair@$$CBV?$basic_string@_WU?$char_traits@_W@std@@V?$K2StringAllocator@_W@@@std@@USResContext@CResourceInfo@@@std@@@@$0A@@std@@@std@@QBE_NABV012@@Z 191718f0 f i c_cliententity.obj
 0002:0004a930       ??Cconst_iterator@?$_Tree@V?$_Tmap_traits@V?$basic_string@_WU?$char_traits@_W@std@@V?$K2StringAllocator@_W@@@std@@PAVIEffectInstance@@U?$less@V?$basic_string@_WU?$char_traits@_W@std@@V?$K2StringAllocator@_W@@@std@@@2@V?$K2MapAllocator@U?$pair@$$CBV?$basic_string@_WU?$char_traits@_W@std@@V?$K2StringAllocator@_W@@@std@@PAVIEffectInstance@@@std@@@@$0A@@std@@@std@@QBEPBU?$pair@$$CBV?$basic_string@_WU?$char_traits@_W@std@@V?$K2StringAllocator@_W@@@std@@PAVIEffectInstance@@@2@XZ 19171930 f i c_cliententity.obj
 0002:0004a960       ??Econst_iterator@?$_Tree@V?$_Tmap_traits@V?$basic_string@_WU?$char_traits@_W@std@@V?$K2StringAllocator@_W@@@std@@PAVIEffectInstance@@U?$less@V?$basic_string@_WU?$char_traits@_W@std@@V?$K2StringAllocator@_W@@@std@@@2@V?$K2MapAllocator@U?$pair@$$CBV?$basic_string@_WU?$char_traits@_W@std@@V?$K2StringAllocator@_W@@@std@@PAVIEffectInstance@@@std@@@@$0A@@std@@@std@@QAEAAV012@XZ 19171960 f i c_cliententity.obj
 0002:0004a990       ??9const_iterator@?$_Tree@V?$_Tmap_traits@V?$basic_string@_WU?$char_traits@_W@std@@V?$K2StringAllocator@_W@@@std@@PAVIEffectInstance@@U?$less@V?$basic_string@_WU?$char_traits@_W@std@@V?$K2StringAllocator@_W@@@std@@@2@V?$K2MapAllocator@U?$pair@$$CBV?$basic_string@_WU?$char_traits@_W@std@@V?$K2StringAllocator@_W@@@std@@PAVIEffectInstance@@@std@@@@$0A@@std@@@std@@QBE_NABV012@@Z 19171990 f i c_cliententity.obj
 0002:0004a9d0       ??D?$_Vector_iterator@PAUSSceneEntityEntry@@V?$K2VectorAllocator@PAUSSceneEntityEntry@@@@@std@@QBEAAPAUSSceneEntityEntry@@XZ 191719d0 f i c_cliententity.obj
 0002:0004aa00       ??E?$_Vector_iterator@PAUSSceneEntityEntry@@V?$K2VectorAllocator@PAUSSceneEntityEntry@@@@@std@@QAEAAV01@XZ 19171a00 f i c_cliententity.obj
 0002:0004aa30       ??H?$_Vector_iterator@PAUSSceneEntityEntry@@V?$K2VectorAllocator@PAUSSceneEntityEntry@@@@@std@@QBE?AV01@H@Z 19171a30 f i c_cliententity.obj
 0002:0004aae0       ??9?$_Vector_const_iterator@PAUSSceneEntityEntry@@V?$K2VectorAllocator@PAUSSceneEntityEntry@@@@@std@@QBE_NABV01@@Z 19171ae0 f i c_cliententity.obj
 0002:0004ab20       ??0iterator@?$_Tree@V?$_Tset_traits@HU?$less@H@std@@V?$K2SetAllocator@H@@$0A@@std@@@std@@QAE@ABV012@@Z 19171b20 f i c_cliententity.obj
 0002:0004ab50       ??0iterator@?$_Tree@V?$_Tmap_traits@V?$basic_string@_WU?$char_traits@_W@std@@V?$K2StringAllocator@_W@@@std@@USResContext@CResourceInfo@@U?$less@V?$basic_string@_WU?$char_traits@_W@std@@V?$K2StringAllocator@_W@@@std@@@2@V?$K2MapAllocator@U?$pair@$$CBV?$basic_string@_WU?$char_traits@_W@std@@V?$K2StringAllocator@_W@@@std@@USResContext@CResourceInfo@@@std@@@@$0A@@std@@@std@@QAE@ABV012@@Z 19171b50 f i c_cliententity.obj
 0002:0004ab80       ??0?$_Vector_iterator@PAUSSceneEntityEntry@@V?$K2VectorAllocator@PAUSSceneEntityEntry@@@@@std@@QAE@ABV01@@Z 19171b80 f i c_cliententity.obj
 0002:0004abb0       ??0const_iterator@?$_Tree@V?$_Tset_traits@HU?$less@H@std@@V?$K2SetAllocator@H@@$0A@@std@@@std@@QAE@ABV012@@Z 19171bb0 f i c_cliententity.obj
 0002:0004abf0       ??0const_iterator@?$_Tree@V?$_Tmap_traits@V?$basic_string@_WU?$char_traits@_W@std@@V?$K2StringAllocator@_W@@@std@@USResContext@CResourceInfo@@U?$less@V?$basic_string@_WU?$char_traits@_W@std@@V?$K2StringAllocator@_W@@@std@@@2@V?$K2MapAllocator@U?$pair@$$CBV?$basic_string@_WU?$char_traits@_W@std@@V?$K2StringAllocator@_W@@@std@@USResContext@CResourceInfo@@@std@@@@$0A@@std@@@std@@QAE@ABV012@@Z 19171bf0 f i c_cliententity.obj
 0002:0004ac30       ??0?$_Vector_const_iterator@PAUSSceneEntityEntry@@V?$K2VectorAllocator@PAUSSceneEntityEntry@@@@@std@@QAE@ABV01@@Z 19171c30 f i c_cliententity.obj
 0002:0004ac70       ??0?$_Bidit@HHPBHABH@std@@QAE@ABU01@@Z 19171c70 f i c_cliententity.obj
 0002:0004aca0       ??0?$_Bidit@U?$pair@$$CBV?$basic_string@_WU?$char_traits@_W@std@@V?$K2StringAllocator@_W@@@std@@USResContext@CResourceInfo@@@std@@HPBU12@ABU12@@std@@QAE@ABU01@@Z 19171ca0 f i c_cliententity.obj
 0002:0004acd0       ??0?$_Ranit@PAUSSceneEntityEntry@@HPBQAU1@ABQAU1@@std@@QAE@ABU01@@Z 19171cd0 f i c_cliententity.obj
 0002:0004ad00       ?_Key@?$_Tree@V?$_Tset_traits@HU?$less@H@std@@V?$K2SetAllocator@H@@$0A@@std@@@std@@KAABHPAU_Node@?$_Tree_nod@V?$_Tset_traits@HU?$less@H@std@@V?$K2SetAllocator@H@@$0A@@std@@@2@@Z 19171d00 f i c_cliententity.obj
 0002:0004ad30       ?lower_bound@?$_Tree@V?$_Tset_traits@HU?$less@H@std@@V?$K2SetAllocator@H@@$0A@@std@@@std@@QAE?AViterator@12@ABH@Z 19171d30 f i c_cliententity.obj
 0002:0004ad90       ?_Kfn@?$_Tset_traits@HU?$less@H@std@@V?$K2SetAllocator@H@@$0A@@std@@SAABHABH@Z 19171d90 f i c_cliententity.obj
 0002:0004adb0       ??0iterator@?$_Tree@V?$_Tset_traits@HU?$less@H@std@@V?$K2SetAllocator@H@@$0A@@std@@@std@@QAE@PAU_Node@?$_Tree_nod@V?$_Tset_traits@HU?$less@H@std@@V?$K2SetAllocator@H@@$0A@@std@@@2@PBV12@@Z 19171db0 f i c_cliententity.obj
 0002:0004adf0       ??8const_iterator@?$_Tree@V?$_Tset_traits@HU?$less@H@std@@V?$K2SetAllocator@H@@$0A@@std@@@std@@QBE_NABV012@@Z 19171df0 f i c_cliententity.obj
 0002:0004aeb0       ?_Mynode@const_iterator@?$_Tree@V?$_Tset_traits@HU?$less@H@std@@V?$K2SetAllocator@H@@$0A@@std@@@std@@QBEPAU_Node@?$_Tree_nod@V?$_Tset_traits@HU?$less@H@std@@V?$K2SetAllocator@H@@$0A@@std@@@3@XZ 19171eb0 f i c_cliententity.obj
 0002:0004aed0       ?_Lmost@?$_Tree@V?$_Tmap_traits@V?$basic_string@_WU?$char_traits@_W@std@@V?$K2StringAllocator@_W@@@std@@PAVIEffectInstance@@U?$less@V?$basic_string@_WU?$char_traits@_W@std@@V?$K2StringAllocator@_W@@@std@@@2@V?$K2MapAllocator@U?$pair@$$CBV?$basic_string@_WU?$char_traits@_W@std@@V?$K2StringAllocator@_W@@@std@@PAVIEffectInstance@@@std@@@@$0A@@std@@@std@@IBEAAPAU_Node@?$_Tree_nod@V?$_Tmap_traits@V?$basic_string@_WU?$char_traits@_W@std@@V?$K2StringAllocator@_W@@@std@@PAVIEffectInstance@@U?$less@V?$basic_string@_WU?$char_traits@_W@std@@V?$K2StringAllocator@_W@@@std@@@2@V?$K2MapAllocator@U?$pair@$$CBV?$basic_string@_WU?$char_traits@_W@std@@V?$K2StringAllocator@_W@@@std@@PAVIEffectInstance@@@std@@@@$0A@@std@@@2@XZ 19171ed0 f i c_cliententity.obj
 0002:0004af00       ?_Key@?$_Tree@V?$_Tmap_traits@V?$basic_string@_WU?$char_traits@_W@std@@V?$K2StringAllocator@_W@@@std@@USResContext@CResourceInfo@@U?$less@V?$basic_string@_WU?$char_traits@_W@std@@V?$K2StringAllocator@_W@@@std@@@2@V?$K2MapAllocator@U?$pair@$$CBV?$basic_string@_WU?$char_traits@_W@std@@V?$K2StringAllocator@_W@@@std@@USResContext@CResourceInfo@@@std@@@@$0A@@std@@@std@@KAABV?$basic_string@_WU?$char_traits@_W@std@@V?$K2StringAllocator@_W@@@2@PAU_Node@?$_Tree_nod@V?$_Tmap_traits@V?$basic_string@_WU?$char_traits@_W@std@@V?$K2StringAllocator@_W@@@std@@USResContext@CResourceInfo@@U?$less@V?$basic_string@_WU?$char_traits@_W@std@@V?$K2StringAllocator@_W@@@std@@@2@V?$K2MapAllocator@U?$pair@$$CBV?$basic_string@_WU?$char_traits@_W@std@@V?$K2StringAllocator@_W@@@std@@USResContext@CResourceInfo@@@std@@@@$0A@@std@@@2@@Z 19171f00 f i c_cliententity.obj
 0002:0004af30       ?lower_bound@?$_Tree@V?$_Tmap_traits@V?$basic_string@_WU?$char_traits@_W@std@@V?$K2StringAllocator@_W@@@std@@USResContext@CResourceInfo@@U?$less@V?$basic_string@_WU?$char_traits@_W@std@@V?$K2StringAllocator@_W@@@std@@@2@V?$K2MapAllocator@U?$pair@$$CBV?$basic_string@_WU?$char_traits@_W@std@@V?$K2StringAllocator@_W@@@std@@USResContext@CResourceInfo@@@std@@@@$0A@@std@@@std@@QAE?AViterator@12@ABV?$basic_string@_WU?$char_traits@_W@std@@V?$K2StringAllocator@_W@@@2@@Z 19171f30 f i c_cliententity.obj
 0002:0004af90       ??0iterator@?$_Tree@V?$_Tmap_traits@V?$basic_string@_WU?$char_traits@_W@std@@V?$K2StringAllocator@_W@@@std@@USResContext@CResourceInfo@@U?$less@V?$basic_string@_WU?$char_traits@_W@std@@V?$K2StringAllocator@_W@@@std@@@2@V?$K2MapAllocator@U?$pair@$$CBV?$basic_string@_WU?$char_traits@_W@std@@V?$K2StringAllocator@_W@@@std@@USResContext@CResourceInfo@@@std@@@@$0A@@std@@@std@@QAE@PAU_Node@?$_Tree_nod@V?$_Tmap_traits@V?$basic_string@_WU?$char_traits@_W@std@@V?$K2StringAllocator@_W@@@std@@USResContext@CResourceInfo@@U?$less@V?$basic_string@_WU?$char_traits@_W@std@@V?$K2StringAllocator@_W@@@std@@@2@V?$K2MapAllocator@U?$pair@$$CBV?$basic_string@_WU?$char_traits@_W@std@@V?$K2StringAllocator@_W@@@std@@USResContext@CResourceInfo@@@std@@@@$0A@@std@@@2@PBV12@@Z 19171f90 f i c_cliententity.obj
 0002:0004afd0       ??Diterator@?$_Tree@V?$_Tmap_traits@V?$basic_string@_WU?$char_traits@_W@std@@V?$K2StringAllocator@_W@@@std@@USResContext@CResourceInfo@@U?$less@V?$basic_string@_WU?$char_traits@_W@std@@V?$K2StringAllocator@_W@@@std@@@2@V?$K2MapAllocator@U?$pair@$$CBV?$basic_string@_WU?$char_traits@_W@std@@V?$K2StringAllocator@_W@@@std@@USResContext@CResourceInfo@@@std@@@@$0A@@std@@@std@@QBEAAU?$pair@$$CBV?$basic_string@_WU?$char_traits@_W@std@@V?$K2StringAllocator@_W@@@std@@USResContext@CResourceInfo@@@2@XZ 19171fd0 f i c_cliententity.obj
 0002:0004b000       ??0const_iterator@?$_Tree@V?$_Tmap_traits@V?$basic_string@_WU?$char_traits@_W@std@@V?$K2StringAllocator@_W@@@std@@USResContext@CResourceInfo@@U?$less@V?$basic_string@_WU?$char_traits@_W@std@@V?$K2StringAllocator@_W@@@std@@@2@V?$K2MapAllocator@U?$pair@$$CBV?$basic_string@_WU?$char_traits@_W@std@@V?$K2StringAllocator@_W@@@std@@USResContext@CResourceInfo@@@std@@@@$0A@@std@@@std@@QAE@XZ 19172000 f i c_cliententity.obj
 0002:0004b040       ?_Mynode@const_iterator@?$_Tree@V?$_Tmap_traits@V?$basic_string@_WU?$char_traits@_W@std@@V?$K2StringAllocator@_W@@@std@@USResContext@CResourceInfo@@U?$less@V?$basic_string@_WU?$char_traits@_W@std@@V?$K2StringAllocator@_W@@@std@@@2@V?$K2MapAllocator@U?$pair@$$CBV?$basic_string@_WU?$char_traits@_W@std@@V?$K2StringAllocator@_W@@@std@@USResContext@CResourceInfo@@@std@@@@$0A@@std@@@std@@QBEPAU_Node@?$_Tree_nod@V?$_Tmap_traits@V?$basic_string@_WU?$char_traits@_W@std@@V?$K2StringAllocator@_W@@@std@@USResContext@CResourceInfo@@U?$less@V?$basic_string@_WU?$char_traits@_W@std@@V?$K2StringAllocator@_W@@@std@@@2@V?$K2MapAllocator@U?$pair@$$CBV?$basic_string@_WU?$char_traits@_W@std@@V?$K2StringAllocator@_W@@@std@@USResContext@CResourceInfo@@@std@@@@$0A@@std@@@3@XZ 19172040 f i c_cliententity.obj
 0002:0004b060       ??0const_iterator@?$_Tree@V?$_Tmap_traits@V?$basic_string@_WU?$char_traits@_W@std@@V?$K2StringAllocator@_W@@@std@@PAVIEffectInstance@@U?$less@V?$basic_string@_WU?$char_traits@_W@std@@V?$K2StringAllocator@_W@@@std@@@2@V?$K2MapAllocator@U?$pair@$$CBV?$basic_string@_WU?$char_traits@_W@std@@V?$K2StringAllocator@_W@@@std@@PAVIEffectInstance@@@std@@@@$0A@@std@@@std@@QAE@PAU_Node@?$_Tree_nod@V?$_Tmap_traits@V?$basic_string@_WU?$char_traits@_W@std@@V?$K2StringAllocator@_W@@@std@@PAVIEffectInstance@@U?$less@V?$basic_string@_WU?$char_traits@_W@std@@V?$K2StringAllocator@_W@@@std@@@2@V?$K2MapAllocator@U?$pair@$$CBV?$basic_string@_WU?$char_traits@_W@std@@V?$K2StringAllocator@_W@@@std@@PAVIEffectInstance@@@std@@@@$0A@@std@@@2@PBV12@@Z 19172060 f i c_cliententity.obj
 0002:0004b0f0       ??Dconst_iterator@?$_Tree@V?$_Tmap_traits@V?$basic_string@_WU?$char_traits@_W@std@@V?$K2StringAllocator@_W@@@std@@PAVIEffectInstance@@U?$less@V?$basic_string@_WU?$char_traits@_W@std@@V?$K2StringAllocator@_W@@@std@@@2@V?$K2MapAllocator@U?$pair@$$CBV?$basic_string@_WU?$char_traits@_W@std@@V?$K2StringAllocator@_W@@@std@@PAVIEffectInstance@@@std@@@@$0A@@std@@@std@@QBEABU?$pair@$$CBV?$basic_string@_WU?$char_traits@_W@std@@V?$K2StringAllocator@_W@@@std@@PAVIEffectInstance@@@2@XZ 191720f0 f i c_cliententity.obj
 0002:0004b1b0       ??8const_iterator@?$_Tree@V?$_Tmap_traits@V?$basic_string@_WU?$char_traits@_W@std@@V?$K2StringAllocator@_W@@@std@@PAVIEffectInstance@@U?$less@V?$basic_string@_WU?$char_traits@_W@std@@V?$K2StringAllocator@_W@@@std@@@2@V?$K2MapAllocator@U?$pair@$$CBV?$basic_string@_WU?$char_traits@_W@std@@V?$K2StringAllocator@_W@@@std@@PAVIEffectInstance@@@std@@@@$0A@@std@@@std@@QBE_NABV012@@Z 191721b0 f i c_cliententity.obj
 0002:0004b270       ?_Inc@const_iterator@?$_Tree@V?$_Tmap_traits@V?$basic_string@_WU?$char_traits@_W@std@@V?$K2StringAllocator@_W@@@std@@PAVIEffectInstance@@U?$less@V?$basic_string@_WU?$char_traits@_W@std@@V?$K2StringAllocator@_W@@@std@@@2@V?$K2MapAllocator@U?$pair@$$CBV?$basic_string@_WU?$char_traits@_W@std@@V?$K2StringAllocator@_W@@@std@@PAVIEffectInstance@@@std@@@@$0A@@std@@@std@@QAEXXZ 19172270 f i c_cliententity.obj
 0002:0004b3e0       ??0?$_Vector_iterator@PAUSSceneEntityEntry@@V?$K2VectorAllocator@PAUSSceneEntityEntry@@@@@std@@QAE@PAPAUSSceneEntityEntry@@PBV_Container_base@1@@Z 191723e0 f i c_cliententity.obj
 0002:0004b420       ??Y?$_Vector_iterator@PAUSSceneEntityEntry@@V?$K2VectorAllocator@PAUSSceneEntityEntry@@@@@std@@QAEAAV01@H@Z 19172420 f i c_cliententity.obj
 0002:0004b450       ??D?$_Vector_const_iterator@PAUSSceneEntityEntry@@V?$K2VectorAllocator@PAUSSceneEntityEntry@@@@@std@@QBEABQAUSSceneEntityEntry@@XZ 19172450 f i c_cliententity.obj
 0002:0004b510       ??E?$_Vector_const_iterator@PAUSSceneEntityEntry@@V?$K2VectorAllocator@PAUSSceneEntityEntry@@@@@std@@QAEAAV01@XZ 19172510 f i c_cliententity.obj
 0002:0004b600       ??8?$_Vector_const_iterator@PAUSSceneEntityEntry@@V?$K2VectorAllocator@PAUSSceneEntityEntry@@@@@std@@QBE_NABV01@@Z 19172600 f i c_cliententity.obj
 0002:0004b640       ??0?$_Bidit@U?$pair@$$CBV?$basic_string@_WU?$char_traits@_W@std@@V?$K2StringAllocator@_W@@@std@@USResContext@CResourceInfo@@@std@@HPBU12@ABU12@@std@@QAE@XZ 19172640 f i c_cliententity.obj
 0002:0004b670       ??0?$_Bidit@U?$pair@$$CBV?$basic_string@_WU?$char_traits@_W@std@@V?$K2StringAllocator@_W@@@std@@PAVIEffectInstance@@@std@@HPBU12@ABU12@@std@@QAE@XZ 19172670 f i c_cliententity.obj
 0002:0004b6a0       ?_Myval@?$_Tree@V?$_Tset_traits@HU?$less@H@std@@V?$K2SetAllocator@H@@$0A@@std@@@std@@KAAAHPAU_Node@?$_Tree_nod@V?$_Tset_traits@HU?$less@H@std@@V?$K2SetAllocator@H@@$0A@@std@@@2@@Z 191726a0 f i c_cliententity.obj
 0002:0004b6c0       ?_Lbound@?$_Tree@V?$_Tset_traits@HU?$less@H@std@@V?$K2SetAllocator@H@@$0A@@std@@@std@@IBEPAU_Node@?$_Tree_nod@V?$_Tset_traits@HU?$less@H@std@@V?$K2SetAllocator@H@@$0A@@std@@@2@ABH@Z 191726c0 f i c_cliententity.obj
 0002:0004b790       ?_Isnil@?$_Tree@V?$_Tset_traits@HU?$less@H@std@@V?$K2SetAllocator@H@@$0A@@std@@@std@@KAAADPAU_Node@?$_Tree_nod@V?$_Tset_traits@HU?$less@H@std@@V?$K2SetAllocator@H@@$0A@@std@@@2@@Z 19172790 f i c_cliententity.obj
 0002:0004b7b0       ?_Left@?$_Tree@V?$_Tset_traits@HU?$less@H@std@@V?$K2SetAllocator@H@@$0A@@std@@@std@@KAAAPAU_Node@?$_Tree_nod@V?$_Tset_traits@HU?$less@H@std@@V?$K2SetAllocator@H@@$0A@@std@@@2@PAU342@@Z 191727b0 f i c_cliententity.obj
 0002:0004b7d0       ?_Right@?$_Tree@V?$_Tset_traits@HU?$less@H@std@@V?$K2SetAllocator@H@@$0A@@std@@@std@@KAAAPAU_Node@?$_Tree_nod@V?$_Tset_traits@HU?$less@H@std@@V?$K2SetAllocator@H@@$0A@@std@@@2@PAU342@@Z 191727d0 f i c_cliententity.obj
 0002:0004b7f0       ?_Root@?$_Tree@V?$_Tset_traits@HU?$less@H@std@@V?$K2SetAllocator@H@@$0A@@std@@@std@@IBEAAPAU_Node@?$_Tree_nod@V?$_Tset_traits@HU?$less@H@std@@V?$K2SetAllocator@H@@$0A@@std@@@2@XZ 191727f0 f i c_cliententity.obj
 0002:0004b820       ?_Parent@?$_Tree@V?$_Tset_traits@HU?$less@H@std@@V?$K2SetAllocator@H@@$0A@@std@@@std@@KAAAPAU_Node@?$_Tree_nod@V?$_Tset_traits@HU?$less@H@std@@V?$K2SetAllocator@H@@$0A@@std@@@2@PAU342@@Z 19172820 f i c_cliententity.obj
 0002:0004b840       ?SetSourceAngles@CGameEvent@@QAEXABV?$CVec3@M@@@Z 19172840 f i c_cliententity.obj
 0002:0004b890       ?SetSourceScale@CGameEvent@@QAEXM@Z 19172890 f i c_cliententity.obj
 0002:0004b8d0       ?SetSourceEffectScale@CGameEvent@@QAEXM@Z 191728d0 f i c_cliententity.obj
 0002:0004b920       ?SetEffect@CGameEvent@@QAEXPAVCEffectThread@@@Z 19172920 f i c_cliententity.obj
 0002:0004b950       ?SetEffectActive@CGameEvent@@QAEX_N@Z 19172950 f i c_cliententity.obj
 0002:0004b980       ?SetCull@CGameEvent@@QAEX_N@Z 19172980 f i c_cliententity.obj
 0002:0004b9b0       ??0const_iterator@?$_Tree@V?$_Tset_traits@HU?$less@H@std@@V?$K2SetAllocator@H@@$0A@@std@@@std@@QAE@PAU_Node@?$_Tree_nod@V?$_Tset_traits@HU?$less@H@std@@V?$K2SetAllocator@H@@$0A@@std@@@2@PBV12@@Z 191729b0 f i c_cliententity.obj
 0002:0004ba40       ?_Isnil@?$_Tree@V?$_Tmap_traits@V?$basic_string@_WU?$char_traits@_W@std@@V?$K2StringAllocator@_W@@@std@@PAVIEffectInstance@@U?$less@V?$basic_string@_WU?$char_traits@_W@std@@V?$K2StringAllocator@_W@@@std@@@2@V?$K2MapAllocator@U?$pair@$$CBV?$basic_string@_WU?$char_traits@_W@std@@V?$K2StringAllocator@_W@@@std@@PAVIEffectInstance@@@std@@@@$0A@@std@@@std@@KAAADPAU_Node@?$_Tree_nod@V?$_Tmap_traits@V?$basic_string@_WU?$char_traits@_W@std@@V?$K2StringAllocator@_W@@@std@@PAVIEffectInstance@@U?$less@V?$basic_string@_WU?$char_traits@_W@std@@V?$K2StringAllocator@_W@@@std@@@2@V?$K2MapAllocator@U?$pair@$$CBV?$basic_string@_WU?$char_traits@_W@std@@V?$K2StringAllocator@_W@@@std@@PAVIEffectInstance@@@std@@@@$0A@@std@@@2@@Z 19172a40 f i c_cliententity.obj
 0002:0004ba60       ?_Left@?$_Tree@V?$_Tmap_traits@V?$basic_string@_WU?$char_traits@_W@std@@V?$K2StringAllocator@_W@@@std@@PAVIEffectInstance@@U?$less@V?$basic_string@_WU?$char_traits@_W@std@@V?$K2StringAllocator@_W@@@std@@@2@V?$K2MapAllocator@U?$pair@$$CBV?$basic_string@_WU?$char_traits@_W@std@@V?$K2StringAllocator@_W@@@std@@PAVIEffectInstance@@@std@@@@$0A@@std@@@std@@KAAAPAU_Node@?$_Tree_nod@V?$_Tmap_traits@V?$basic_string@_WU?$char_traits@_W@std@@V?$K2StringAllocator@_W@@@std@@PAVIEffectInstance@@U?$less@V?$basic_string@_WU?$char_traits@_W@std@@V?$K2StringAllocator@_W@@@std@@@2@V?$K2MapAllocator@U?$pair@$$CBV?$basic_string@_WU?$char_traits@_W@std@@V?$K2StringAllocator@_W@@@std@@PAVIEffectInstance@@@std@@@@$0A@@std@@@2@PAU342@@Z 19172a60 f i c_cliententity.obj
 0002:0004ba80       ?_Parent@?$_Tree@V?$_Tmap_traits@V?$basic_string@_WU?$char_traits@_W@std@@V?$K2StringAllocator@_W@@@std@@PAVIEffectInstance@@U?$less@V?$basic_string@_WU?$char_traits@_W@std@@V?$K2StringAllocator@_W@@@std@@@2@V?$K2MapAllocator@U?$pair@$$CBV?$basic_string@_WU?$char_traits@_W@std@@V?$K2StringAllocator@_W@@@std@@PAVIEffectInstance@@@std@@@@$0A@@std@@@std@@KAAAPAU_Node@?$_Tree_nod@V?$_Tmap_traits@V?$basic_string@_WU?$char_traits@_W@std@@V?$K2StringAllocator@_W@@@std@@PAVIEffectInstance@@U?$less@V?$basic_string@_WU?$char_traits@_W@std@@V?$K2StringAllocator@_W@@@std@@@2@V?$K2MapAllocator@U?$pair@$$CBV?$basic_string@_WU?$char_traits@_W@std@@V?$K2StringAllocator@_W@@@std@@PAVIEffectInstance@@@std@@@@$0A@@std@@@2@PAU342@@Z 19172a80 f i c_cliententity.obj
 0002:0004baa0       ?_Right@?$_Tree@V?$_Tmap_traits@V?$basic_string@_WU?$char_traits@_W@std@@V?$K2StringAllocator@_W@@@std@@PAVIEffectInstance@@U?$less@V?$basic_string@_WU?$char_traits@_W@std@@V?$K2StringAllocator@_W@@@std@@@2@V?$K2MapAllocator@U?$pair@$$CBV?$basic_string@_WU?$char_traits@_W@std@@V?$K2StringAllocator@_W@@@std@@PAVIEffectInstance@@@std@@@@$0A@@std@@@std@@KAAAPAU_Node@?$_Tree_nod@V?$_Tmap_traits@V?$basic_string@_WU?$char_traits@_W@std@@V?$K2StringAllocator@_W@@@std@@PAVIEffectInstance@@U?$less@V?$basic_string@_WU?$char_traits@_W@std@@V?$K2StringAllocator@_W@@@std@@@2@V?$K2MapAllocator@U?$pair@$$CBV?$basic_string@_WU?$char_traits@_W@std@@V?$K2StringAllocator@_W@@@std@@PAVIEffectInstance@@@std@@@@$0A@@std@@@2@PAU342@@Z 19172aa0 f i c_cliententity.obj
 0002:0004bac0       ?_Myval@?$_Tree@V?$_Tmap_traits@V?$basic_string@_WU?$char_traits@_W@std@@V?$K2StringAllocator@_W@@@std@@PAVIEffectInstance@@U?$less@V?$basic_string@_WU?$char_traits@_W@std@@V?$K2StringAllocator@_W@@@std@@@2@V?$K2MapAllocator@U?$pair@$$CBV?$basic_string@_WU?$char_traits@_W@std@@V?$K2StringAllocator@_W@@@std@@PAVIEffectInstance@@@std@@@@$0A@@std@@@std@@KAAAU?$pair@$$CBV?$basic_string@_WU?$char_traits@_W@std@@V?$K2StringAllocator@_W@@@std@@PAVIEffectInstance@@@2@PAU_Node@?$_Tree_nod@V?$_Tmap_traits@V?$basic_string@_WU?$char_traits@_W@std@@V?$K2StringAllocator@_W@@@std@@PAVIEffectInstance@@U?$less@V?$basic_string@_WU?$char_traits@_W@std@@V?$K2StringAllocator@_W@@@std@@@2@V?$K2MapAllocator@U?$pair@$$CBV?$basic_string@_WU?$char_traits@_W@std@@V?$K2StringAllocator@_W@@@std@@PAVIEffectInstance@@@std@@@@$0A@@std@@@2@@Z 19172ac0 f i c_cliententity.obj
 0002:0004bae0       ?_Min@?$_Tree@V?$_Tmap_traits@V?$basic_string@_WU?$char_traits@_W@std@@V?$K2StringAllocator@_W@@@std@@PAVIEffectInstance@@U?$less@V?$basic_string@_WU?$char_traits@_W@std@@V?$K2StringAllocator@_W@@@std@@@2@V?$K2MapAllocator@U?$pair@$$CBV?$basic_string@_WU?$char_traits@_W@std@@V?$K2StringAllocator@_W@@@std@@PAVIEffectInstance@@@std@@@@$0A@@std@@@std@@KAPAU_Node@?$_Tree_nod@V?$_Tmap_traits@V?$basic_string@_WU?$char_traits@_W@std@@V?$K2StringAllocator@_W@@@std@@PAVIEffectInstance@@U?$less@V?$basic_string@_WU?$char_traits@_W@std@@V?$K2StringAllocator@_W@@@std@@@2@V?$K2MapAllocator@U?$pair@$$CBV?$basic_string@_WU?$char_traits@_W@std@@V?$K2StringAllocator@_W@@@std@@PAVIEffectInstance@@@std@@@@$0A@@std@@@2@PAU342@@Z 19172ae0 f i c_cliententity.obj
 0002:0004bb40       ?_Myval@?$_Tree@V?$_Tmap_traits@V?$basic_string@_WU?$char_traits@_W@std@@V?$K2StringAllocator@_W@@@std@@USResContext@CResourceInfo@@U?$less@V?$basic_string@_WU?$char_traits@_W@std@@V?$K2StringAllocator@_W@@@std@@@2@V?$K2MapAllocator@U?$pair@$$CBV?$basic_string@_WU?$char_traits@_W@std@@V?$K2StringAllocator@_W@@@std@@USResContext@CResourceInfo@@@std@@@@$0A@@std@@@std@@KAAAU?$pair@$$CBV?$basic_string@_WU?$char_traits@_W@std@@V?$K2StringAllocator@_W@@@std@@USResContext@CResourceInfo@@@2@PAU_Node@?$_Tree_nod@V?$_Tmap_traits@V?$basic_string@_WU?$char_traits@_W@std@@V?$K2StringAllocator@_W@@@std@@USResContext@CResourceInfo@@U?$less@V?$basic_string@_WU?$char_traits@_W@std@@V?$K2StringAllocator@_W@@@std@@@2@V?$K2MapAllocator@U?$pair@$$CBV?$basic_string@_WU?$char_traits@_W@std@@V?$K2StringAllocator@_W@@@std@@USResContext@CResourceInfo@@@std@@@@$0A@@std@@@2@@Z 19172b40 f i c_cliententity.obj
 0002:0004bb60       ?_Lbound@?$_Tree@V?$_Tmap_traits@V?$basic_string@_WU?$char_traits@_W@std@@V?$K2StringAllocator@_W@@@std@@USResContext@CResourceInfo@@U?$less@V?$basic_string@_WU?$char_traits@_W@std@@V?$K2StringAllocator@_W@@@std@@@2@V?$K2MapAllocator@U?$pair@$$CBV?$basic_string@_WU?$char_traits@_W@std@@V?$K2StringAllocator@_W@@@std@@USResContext@CResourceInfo@@@std@@@@$0A@@std@@@std@@IBEPAU_Node@?$_Tree_nod@V?$_Tmap_traits@V?$basic_string@_WU?$char_traits@_W@std@@V?$K2StringAllocator@_W@@@std@@USResContext@CResourceInfo@@U?$less@V?$basic_string@_WU?$char_traits@_W@std@@V?$K2StringAllocator@_W@@@std@@@2@V?$K2MapAllocator@U?$pair@$$CBV?$basic_string@_WU?$char_traits@_W@std@@V?$K2StringAllocator@_W@@@std@@USResContext@CResourceInfo@@@std@@@@$0A@@std@@@2@ABV?$basic_string@_WU?$char_traits@_W@std@@V?$K2StringAllocator@_W@@@2@@Z 19172b60 f i c_cliententity.obj
 0002:0004bc30       ?_Kfn@?$_Tmap_traits@V?$basic_string@_WU?$char_traits@_W@std@@V?$K2StringAllocator@_W@@@std@@USResContext@CResourceInfo@@U?$less@V?$basic_string@_WU?$char_traits@_W@std@@V?$K2StringAllocator@_W@@@std@@@2@V?$K2MapAllocator@U?$pair@$$CBV?$basic_string@_WU?$char_traits@_W@std@@V?$K2StringAllocator@_W@@@std@@USResContext@CResourceInfo@@@std@@@@$0A@@std@@SAABV?$basic_string@_WU?$char_traits@_W@std@@V?$K2StringAllocator@_W@@@2@ABU?$pair@$$CBV?$basic_string@_WU?$char_traits@_W@std@@V?$K2StringAllocator@_W@@@std@@USResContext@CResourceInfo@@@2@@Z 19172c30 f i c_cliententity.obj
 0002:0004bc50       ??0const_iterator@?$_Tree@V?$_Tmap_traits@V?$basic_string@_WU?$char_traits@_W@std@@V?$K2StringAllocator@_W@@@std@@USResContext@CResourceInfo@@U?$less@V?$basic_string@_WU?$char_traits@_W@std@@V?$K2StringAllocator@_W@@@std@@@2@V?$K2MapAllocator@U?$pair@$$CBV?$basic_string@_WU?$char_traits@_W@std@@V?$K2StringAllocator@_W@@@std@@USResContext@CResourceInfo@@@std@@@@$0A@@std@@@std@@QAE@PAU_Node@?$_Tree_nod@V?$_Tmap_traits@V?$basic_string@_WU?$char_traits@_W@std@@V?$K2StringAllocator@_W@@@std@@USResContext@CResourceInfo@@U?$less@V?$basic_string@_WU?$char_traits@_W@std@@V?$K2StringAllocator@_W@@@std@@@2@V?$K2MapAllocator@U?$pair@$$CBV?$basic_string@_WU?$char_traits@_W@std@@V?$K2StringAllocator@_W@@@std@@USResContext@CResourceInfo@@@std@@@@$0A@@std@@@2@PBV12@@Z 19172c50 f i c_cliententity.obj
 0002:0004bce0       ??Dconst_iterator@?$_Tree@V?$_Tmap_traits@V?$basic_string@_WU?$char_traits@_W@std@@V?$K2StringAllocator@_W@@@std@@USResContext@CResourceInfo@@U?$less@V?$basic_string@_WU?$char_traits@_W@std@@V?$K2StringAllocator@_W@@@std@@@2@V?$K2MapAllocator@U?$pair@$$CBV?$basic_string@_WU?$char_traits@_W@std@@V?$K2StringAllocator@_W@@@std@@USResContext@CResourceInfo@@@std@@@@$0A@@std@@@std@@QBEABU?$pair@$$CBV?$basic_string@_WU?$char_traits@_W@std@@V?$K2StringAllocator@_W@@@std@@USResContext@CResourceInfo@@@2@XZ 19172ce0 f i c_cliententity.obj
 0002:0004bda0       ??0?$_Vector_const_iterator@PAUSSceneEntityEntry@@V?$K2VectorAllocator@PAUSSceneEntityEntry@@@@@std@@QAE@PAPAUSSceneEntityEntry@@PBV_Container_base@1@@Z 19172da0 f i c_cliententity.obj
 0002:0004bea0       ??Y?$_Vector_const_iterator@PAUSSceneEntityEntry@@V?$K2VectorAllocator@PAUSSceneEntityEntry@@@@@std@@QAEAAV01@H@Z 19172ea0 f i c_cliententity.obj
 0002:0004bfd0       ?_Compat@?$_Vector_const_iterator@PAUSSceneEntityEntry@@V?$K2VectorAllocator@PAUSSceneEntityEntry@@@@@std@@QBEXABV12@@Z 19172fd0 f i c_cliententity.obj
 0002:0004c080       ??0?$_Bidit@HHPBHABH@std@@QAE@XZ 19173080 f i c_cliententity.obj
 0002:0004c0b0       ??0?$_Ranit@PAUSSceneEntityEntry@@HPBQAU1@ABQAU1@@std@@QAE@XZ 191730b0 f i c_cliententity.obj
 0002:0004c0e0       ?SetType@IGameEntity@@QAEXG@Z 191730e0 f i c_cliententity.obj
 0002:0004c110       ?Validate@IGameEntity@@QAEXXZ 19173110 f i c_cliententity.obj
 0002:0004c130       ?SetIndex@IGameEntity@@QAEXI@Z 19173130 f i c_cliententity.obj
 0002:0004c160       ?_Isnil@?$_Tree@V?$_Tmap_traits@V?$basic_string@_WU?$char_traits@_W@std@@V?$K2StringAllocator@_W@@@std@@USResContext@CResourceInfo@@U?$less@V?$basic_string@_WU?$char_traits@_W@std@@V?$K2StringAllocator@_W@@@std@@@2@V?$K2MapAllocator@U?$pair@$$CBV?$basic_string@_WU?$char_traits@_W@std@@V?$K2StringAllocator@_W@@@std@@USResContext@CResourceInfo@@@std@@@@$0A@@std@@@std@@KAAADPAU_Node@?$_Tree_nod@V?$_Tmap_traits@V?$basic_string@_WU?$char_traits@_W@std@@V?$K2StringAllocator@_W@@@std@@USResContext@CResourceInfo@@U?$less@V?$basic_string@_WU?$char_traits@_W@std@@V?$K2StringAllocator@_W@@@std@@@2@V?$K2MapAllocator@U?$pair@$$CBV?$basic_string@_WU?$char_traits@_W@std@@V?$K2StringAllocator@_W@@@std@@USResContext@CResourceInfo@@@std@@@@$0A@@std@@@2@@Z 19173160 f i c_cliententity.obj
 0002:0004c180       ?_Left@?$_Tree@V?$_Tmap_traits@V?$basic_string@_WU?$char_traits@_W@std@@V?$K2StringAllocator@_W@@@std@@USResContext@CResourceInfo@@U?$less@V?$basic_string@_WU?$char_traits@_W@std@@V?$K2StringAllocator@_W@@@std@@@2@V?$K2MapAllocator@U?$pair@$$CBV?$basic_string@_WU?$char_traits@_W@std@@V?$K2StringAllocator@_W@@@std@@USResContext@CResourceInfo@@@std@@@@$0A@@std@@@std@@KAAAPAU_Node@?$_Tree_nod@V?$_Tmap_traits@V?$basic_string@_WU?$char_traits@_W@std@@V?$K2StringAllocator@_W@@@std@@USResContext@CResourceInfo@@U?$less@V?$basic_string@_WU?$char_traits@_W@std@@V?$K2StringAllocator@_W@@@std@@@2@V?$K2MapAllocator@U?$pair@$$CBV?$basic_string@_WU?$char_traits@_W@std@@V?$K2StringAllocator@_W@@@std@@USResContext@CResourceInfo@@@std@@@@$0A@@std@@@2@PAU342@@Z 19173180 f i c_cliententity.obj
 0002:0004c1a0       ?_Right@?$_Tree@V?$_Tmap_traits@V?$basic_string@_WU?$char_traits@_W@std@@V?$K2StringAllocator@_W@@@std@@USResContext@CResourceInfo@@U?$less@V?$basic_string@_WU?$char_traits@_W@std@@V?$K2StringAllocator@_W@@@std@@@2@V?$K2MapAllocator@U?$pair@$$CBV?$basic_string@_WU?$char_traits@_W@std@@V?$K2StringAllocator@_W@@@std@@USResContext@CResourceInfo@@@std@@@@$0A@@std@@@std@@KAAAPAU_Node@?$_Tree_nod@V?$_Tmap_traits@V?$basic_string@_WU?$char_traits@_W@std@@V?$K2StringAllocator@_W@@@std@@USResContext@CResourceInfo@@U?$less@V?$basic_string@_WU?$char_traits@_W@std@@V?$K2StringAllocator@_W@@@std@@@2@V?$K2MapAllocator@U?$pair@$$CBV?$basic_string@_WU?$char_traits@_W@std@@V?$K2StringAllocator@_W@@@std@@USResContext@CResourceInfo@@@std@@@@$0A@@std@@@2@PAU342@@Z 191731a0 f i c_cliententity.obj
 0002:0004c1c0       ?_Root@?$_Tree@V?$_Tmap_traits@V?$basic_string@_WU?$char_traits@_W@std@@V?$K2StringAllocator@_W@@@std@@USResContext@CResourceInfo@@U?$less@V?$basic_string@_WU?$char_traits@_W@std@@V?$K2StringAllocator@_W@@@std@@@2@V?$K2MapAllocator@U?$pair@$$CBV?$basic_string@_WU?$char_traits@_W@std@@V?$K2StringAllocator@_W@@@std@@USResContext@CResourceInfo@@@std@@@@$0A@@std@@@std@@IBEAAPAU_Node@?$_Tree_nod@V?$_Tmap_traits@V?$basic_string@_WU?$char_traits@_W@std@@V?$K2StringAllocator@_W@@@std@@USResContext@CResourceInfo@@U?$less@V?$basic_string@_WU?$char_traits@_W@std@@V?$K2StringAllocator@_W@@@std@@@2@V?$K2MapAllocator@U?$pair@$$CBV?$basic_string@_WU?$char_traits@_W@std@@V?$K2StringAllocator@_W@@@std@@USResContext@CResourceInfo@@@std@@@@$0A@@std@@@2@XZ 191731c0 f i c_cliententity.obj
 0002:0004c1f0       ?GetWorldPointer@IGame@@QBEPAVCWorld@@XZ 191731f0 f i c_cliententity.obj
 0002:0004c210       ?WorldEntityExists@IGame@@QAE_NI@Z 19173210 f i c_cliententity.obj
 0002:0004c240       ?EntityExists@CWorld@@QBE_NI@Z 19173240 f i c_cliententity.obj
 0002:0004c280       ?UnlinkEntity@IGame@@QAEXI@Z 19173280 f i c_cliententity.obj
 0002:0004c2b0       ?UnlinkEntity@CWorld@@QBEXI@Z 191732b0 f i c_cliententity.obj
 0002:0004c2f0       ?GetPlayer@IGame@@QAEPAVCPlayer@@H@Z 191732f0 f i c_cliententity.obj
 0002:0004c400       ?_Parent@?$_Tree@V?$_Tmap_traits@V?$basic_string@_WU?$char_traits@_W@std@@V?$K2StringAllocator@_W@@@std@@USResContext@CResourceInfo@@U?$less@V?$basic_string@_WU?$char_traits@_W@std@@V?$K2StringAllocator@_W@@@std@@@2@V?$K2MapAllocator@U?$pair@$$CBV?$basic_string@_WU?$char_traits@_W@std@@V?$K2StringAllocator@_W@@@std@@USResContext@CResourceInfo@@@std@@@@$0A@@std@@@std@@KAAAPAU_Node@?$_Tree_nod@V?$_Tmap_traits@V?$basic_string@_WU?$char_traits@_W@std@@V?$K2StringAllocator@_W@@@std@@USResContext@CResourceInfo@@U?$less@V?$basic_string@_WU?$char_traits@_W@std@@V?$K2StringAllocator@_W@@@std@@@2@V?$K2MapAllocator@U?$pair@$$CBV?$basic_string@_WU?$char_traits@_W@std@@V?$K2StringAllocator@_W@@@std@@USResContext@CResourceInfo@@@std@@@@$0A@@std@@@2@PAU342@@Z 19173400 f i c_cliententity.obj
 0002:0004c420       ??1iterator@?$_Tree@V?$_Tmap_traits@HPAVCPlayer@@U?$less@H@std@@V?$K2MapAllocator@U?$pair@$$CBHPAVCPlayer@@@std@@@@$0A@@std@@@std@@QAE@XZ 19173420 f i c_cliententity.obj
 0002:0004c450       ??1const_iterator@?$_Tree@V?$_Tmap_traits@HPAVCPlayer@@U?$less@H@std@@V?$K2MapAllocator@U?$pair@$$CBHPAVCPlayer@@@std@@@@$0A@@std@@@std@@QAE@XZ 19173450 f i c_cliententity.obj
 0002:0004c480       ??1?$_Bidit@U?$pair@$$CBHPAVCPlayer@@@std@@HPBU12@ABU12@@std@@QAE@XZ 19173480 f i c_cliententity.obj
 0002:0004c4b0       ?HasFlags@CCamera@@QBE_NH@Z 191734b0 f i c_cliententity.obj
 0002:0004c4e0       ?GetTeamInfo@CPlayer@@QBEPAVCTeamInfo@@XZ 191734e0 f i c_cliententity.obj
 0002:0004c520       ?IsDisconnected@CPlayer@@QBE_NXZ 19173520 f i c_cliententity.obj
 0002:0004c550       ?HasFlags@CPlayer@@QBE_NG@Z 19173550 f i c_cliententity.obj
 0002:0004c590       ?GetAngles@IVisualEntity@@QBEABV?$CVec3@M@@XZ 19173590 f i c_cliententity.obj
 0002:0004c5c0       ?GetVelocity@IVisualEntity@@QBEABV?$CVec3@M@@XZ 191735c0 f i c_cliententity.obj
 0002:0004c5f0       ?SetSkeleton@IVisualEntity@@QAEXPAVCSkeleton@@@Z 191735f0 f i c_cliententity.obj
 0002:0004c620       ?GetEffect@IVisualEntity@@QAEIH@Z 19173620 f i c_cliententity.obj
 0002:0004c650       ?GetEffectSequence@IVisualEntity@@QAEEH@Z 19173650 f i c_cliententity.obj
 0002:0004c680       ?GetBounds@IVisualEntity@@QAEABV?$CBoundingBox@M@@XZ 19173680 f i c_cliententity.obj
 0002:0004c6b0       ?GetSkeleton@IVisualEntity@@QAEPAVCSkeleton@@XZ 191736b0 f i c_cliententity.obj
 0002:0004c6e0       ?SetShowEffects@IVisualEntity@@QAEX_N@Z 191736e0 f i c_cliententity.obj
 0002:0004c740       ?GetShowEffects@IVisualEntity@@QBE_NXZ 19173740 f i c_cliententity.obj
 0002:0004c770       ??$SWAP@I@@YAXAAI0@Z       19173770 f i c_cliententity.obj
 0002:0004c7b0       ??$SWAP@E@@YAXAAE0@Z       191737b0 f i c_cliententity.obj
 0002:0004c7f0       ??$SWAP@PAVCEffectThread@@@@YAXAAPAVCEffectThread@@0@Z 191737f0 f i c_cliententity.obj
 0002:0004c830       ?GetEffectSequence@ISlaveEntity@@QAEEXZ 19173830 f i c_cliententity.obj
 0002:0004c850       ?GetInflictor@IEntityState@@QBEPAVIUnitEntity@@XZ 19173850 f i c_cliententity.obj
 0002:0004c890       ?IsFrozen@IUnitEntity@@QBE_NXZ 19173890 f i c_cliententity.obj
 0002:0004c940       ?SetInventorySlot@IUnitEntity@@QAEXHPAVISlaveEntity@@@Z 19173940 f i c_cliententity.obj
 0002:0004c980       ?GetInventorySlot@IUnitEntity@@QAEPAVISlaveEntity@@H@Z 19173980 f i c_cliententity.obj
 0002:0004c9d0       ?SetMount@IUnitEntity@@QAEXPAVIGadgetEntity@@@Z 191739d0 f i c_cliententity.obj
 0002:0004ca00       ?GetMount@IUnitEntity@@QAEPAVIGadgetEntity@@XZ 19173a00 f i c_cliententity.obj
 0002:0004ca30       ?IsStatic@CClientEntity@@QBE_NXZ 19173a30 f i c_cliententity.obj
 0002:0004ca60       ?GetNextEntity@CClientEntity@@QAEPAVIVisualEntity@@XZ 19173a60 f i c_cliententity.obj
 0002:0004ca90       ?GetPrevEntity@CClientEntity@@QAEPAVIVisualEntity@@XZ 19173a90 f i c_cliententity.obj
 0002:0004cac0       ?GetCurrentEntity@CClientEntity@@QAEPAVIVisualEntity@@XZ 19173ac0 f i c_cliententity.obj
 0002:0004caf0       ?IsValid@CClientEntity@@QBE_NXZ 19173af0 f i c_cliententity.obj
 0002:0004cb70       ?IsValid@IGameEntity@@QBE_NXZ 19173b70 f i c_cliententity.obj
 0002:0004cb90       ?GetLocalPlayerIndex@CGameClient@@QBEIXZ 19173b90 f i c_cliententity.obj
 0002:0004cbe0       ?GetCameraCenter@CGameClient@@QBEABV?$CVec3@M@@XZ 19173be0 f i c_cliententity.obj
 0002:0004cc10       ?end@?$_Tree@V?$_Tmap_traits@HPAVCPlayer@@U?$less@H@std@@V?$K2MapAllocator@U?$pair@$$CBHPAVCPlayer@@@std@@@@$0A@@std@@@std@@QAE?AViterator@12@XZ 19173c10 f i c_cliententity.obj
 0002:0004cc60       ?find@?$_Tree@V?$_Tmap_traits@HPAVCPlayer@@U?$less@H@std@@V?$K2MapAllocator@U?$pair@$$CBHPAVCPlayer@@@std@@@@$0A@@std@@@std@@QAE?AViterator@12@ABH@Z 19173c60 f i c_cliententity.obj
 0002:0004ce40       ??Citerator@?$_Tree@V?$_Tmap_traits@HPAVCPlayer@@U?$less@H@std@@V?$K2MapAllocator@U?$pair@$$CBHPAVCPlayer@@@std@@@@$0A@@std@@@std@@QBEPAU?$pair@$$CBHPAVCPlayer@@@2@XZ 19173e40 f i c_cliententity.obj
 0002:0004ce70       ??8const_iterator@?$_Tree@V?$_Tmap_traits@HPAVCPlayer@@U?$less@H@std@@V?$K2MapAllocator@U?$pair@$$CBHPAVCPlayer@@@std@@@@$0A@@std@@@std@@QBE_NABV012@@Z 19173e70 f i c_cliententity.obj
 0002:0004cf30       ??1?$const_string@_WU?$char_traits@_W@std@@V?$K2StringAllocator@_W@@@@QAE@XZ 19173f30 f i c_cliententity.obj
 0002:0004cf60       ??0?$const_string@_WU?$char_traits@_W@std@@V?$K2StringAllocator@_W@@@@QAE@QB_WI@Z 19173f60 f i c_cliententity.obj
 0002:0004cfc0       ??0iterator@?$_Tree@V?$_Tmap_traits@HPAVCPlayer@@U?$less@H@std@@V?$K2MapAllocator@U?$pair@$$CBHPAVCPlayer@@@std@@@@$0A@@std@@@std@@QAE@ABV012@@Z 19173fc0 f i c_cliententity.obj
 0002:0004cff0       ??0const_iterator@?$_Tree@V?$_Tmap_traits@HPAVCPlayer@@U?$less@H@std@@V?$K2MapAllocator@U?$pair@$$CBHPAVCPlayer@@@std@@@@$0A@@std@@@std@@QAE@ABV012@@Z 19173ff0 f i c_cliententity.obj
 0002:0004d030       ??0?$_Bidit@U?$pair@$$CBHPAVCPlayer@@@std@@HPBU12@ABU12@@std@@QAE@ABU01@@Z 19174030 f i c_cliententity.obj
 0002:0004d060       ?find@?$basic_string@_WU?$char_traits@_W@std@@V?$K2StringAllocator@_W@@@std@@QBEIPB_WII@Z 19174060 f i c_cliententity.obj
 0002:0004d1a0       ?_Key@?$_Tree@V?$_Tmap_traits@HPAVCPlayer@@U?$less@H@std@@V?$K2MapAllocator@U?$pair@$$CBHPAVCPlayer@@@std@@@@$0A@@std@@@std@@KAABHPAU_Node@?$_Tree_nod@V?$_Tmap_traits@HPAVCPlayer@@U?$less@H@std@@V?$K2MapAllocator@U?$pair@$$CBHPAVCPlayer@@@std@@@@$0A@@std@@@2@@Z 191741a0 f i c_cliententity.obj
 0002:0004d1d0       ?lower_bound@?$_Tree@V?$_Tmap_traits@HPAVCPlayer@@U?$less@H@std@@V?$K2MapAllocator@U?$pair@$$CBHPAVCPlayer@@@std@@@@$0A@@std@@@std@@QAE?AViterator@12@ABH@Z 191741d0 f i c_cliententity.obj
 0002:0004d230       ??0iterator@?$_Tree@V?$_Tmap_traits@HPAVCPlayer@@U?$less@H@std@@V?$K2MapAllocator@U?$pair@$$CBHPAVCPlayer@@@std@@@@$0A@@std@@@std@@QAE@PAU_Node@?$_Tree_nod@V?$_Tmap_traits@HPAVCPlayer@@U?$less@H@std@@V?$K2MapAllocator@U?$pair@$$CBHPAVCPlayer@@@std@@@@$0A@@std@@@2@PBV12@@Z 19174230 f i c_cliententity.obj
 0002:0004d270       ??Diterator@?$_Tree@V?$_Tmap_traits@HPAVCPlayer@@U?$less@H@std@@V?$K2MapAllocator@U?$pair@$$CBHPAVCPlayer@@@std@@@@$0A@@std@@@std@@QBEAAU?$pair@$$CBHPAVCPlayer@@@2@XZ 19174270 f i c_cliententity.obj
 0002:0004d2a0       ?_Mynode@const_iterator@?$_Tree@V?$_Tmap_traits@HPAVCPlayer@@U?$less@H@std@@V?$K2MapAllocator@U?$pair@$$CBHPAVCPlayer@@@std@@@@$0A@@std@@@std@@QBEPAU_Node@?$_Tree_nod@V?$_Tmap_traits@HPAVCPlayer@@U?$less@H@std@@V?$K2MapAllocator@U?$pair@$$CBHPAVCPlayer@@@std@@@@$0A@@std@@@3@XZ 191742a0 f i c_cliententity.obj
 0002:0004d2c0       ?_Myval@?$_Tree@V?$_Tmap_traits@HPAVCPlayer@@U?$less@H@std@@V?$K2MapAllocator@U?$pair@$$CBHPAVCPlayer@@@std@@@@$0A@@std@@@std@@KAAAU?$pair@$$CBHPAVCPlayer@@@2@PAU_Node@?$_Tree_nod@V?$_Tmap_traits@HPAVCPlayer@@U?$less@H@std@@V?$K2MapAllocator@U?$pair@$$CBHPAVCPlayer@@@std@@@@$0A@@std@@@2@@Z 191742c0 f i c_cliententity.obj
 0002:0004d2e0       ?_Lbound@?$_Tree@V?$_Tmap_traits@HPAVCPlayer@@U?$less@H@std@@V?$K2MapAllocator@U?$pair@$$CBHPAVCPlayer@@@std@@@@$0A@@std@@@std@@IBEPAU_Node@?$_Tree_nod@V?$_Tmap_traits@HPAVCPlayer@@U?$less@H@std@@V?$K2MapAllocator@U?$pair@$$CBHPAVCPlayer@@@std@@@@$0A@@std@@@2@ABH@Z 191742e0 f i c_cliententity.obj
 0002:0004d3b0       ?_Left@?$_Tree@V?$_Tmap_traits@HPAVCPlayer@@U?$less@H@std@@V?$K2MapAllocator@U?$pair@$$CBHPAVCPlayer@@@std@@@@$0A@@std@@@std@@KAAAPAU_Node@?$_Tree_nod@V?$_Tmap_traits@HPAVCPlayer@@U?$less@H@std@@V?$K2MapAllocator@U?$pair@$$CBHPAVCPlayer@@@std@@@@$0A@@std@@@2@PAU342@@Z 191743b0 f i c_cliententity.obj
 0002:0004d3d0       ?_Right@?$_Tree@V?$_Tmap_traits@HPAVCPlayer@@U?$less@H@std@@V?$K2MapAllocator@U?$pair@$$CBHPAVCPlayer@@@std@@@@$0A@@std@@@std@@KAAAPAU_Node@?$_Tree_nod@V?$_Tmap_traits@HPAVCPlayer@@U?$less@H@std@@V?$K2MapAllocator@U?$pair@$$CBHPAVCPlayer@@@std@@@@$0A@@std@@@2@PAU342@@Z 191743d0 f i c_cliententity.obj
 0002:0004d3f0       ?_Kfn@?$_Tmap_traits@HPAVCPlayer@@U?$less@H@std@@V?$K2MapAllocator@U?$pair@$$CBHPAVCPlayer@@@std@@@@$0A@@std@@SAABHABU?$pair@$$CBHPAVCPlayer@@@2@@Z 191743f0 f i c_cliententity.obj
 0002:0004d410       ??0const_iterator@?$_Tree@V?$_Tmap_traits@HPAVCPlayer@@U?$less@H@std@@V?$K2MapAllocator@U?$pair@$$CBHPAVCPlayer@@@std@@@@$0A@@std@@@std@@QAE@PAU_Node@?$_Tree_nod@V?$_Tmap_traits@HPAVCPlayer@@U?$less@H@std@@V?$K2MapAllocator@U?$pair@$$CBHPAVCPlayer@@@std@@@@$0A@@std@@@2@PBV12@@Z 19174410 f i c_cliententity.obj
 0002:0004d4a0       ??Dconst_iterator@?$_Tree@V?$_Tmap_traits@HPAVCPlayer@@U?$less@H@std@@V?$K2MapAllocator@U?$pair@$$CBHPAVCPlayer@@@std@@@@$0A@@std@@@std@@QBEABU?$pair@$$CBHPAVCPlayer@@@2@XZ 191744a0 f i c_cliententity.obj
 0002:0004d560       ??0?$_Bidit@U?$pair@$$CBHPAVCPlayer@@@std@@HPBU12@ABU12@@std@@QAE@XZ 19174560 f i c_cliententity.obj
 0002:0004d590       ?_Isnil@?$_Tree@V?$_Tmap_traits@HPAVCPlayer@@U?$less@H@std@@V?$K2MapAllocator@U?$pair@$$CBHPAVCPlayer@@@std@@@@$0A@@std@@@std@@KAAADPAU_Node@?$_Tree_nod@V?$_Tmap_traits@HPAVCPlayer@@U?$less@H@std@@V?$K2MapAllocator@U?$pair@$$CBHPAVCPlayer@@@std@@@@$0A@@std@@@2@@Z 19174590 f i c_cliententity.obj
 0002:0004d5b0       ?_Root@?$_Tree@V?$_Tmap_traits@HPAVCPlayer@@U?$less@H@std@@V?$K2MapAllocator@U?$pair@$$CBHPAVCPlayer@@@std@@@@$0A@@std@@@std@@IBEAAPAU_Node@?$_Tree_nod@V?$_Tmap_traits@HPAVCPlayer@@U?$less@H@std@@V?$K2MapAllocator@U?$pair@$$CBHPAVCPlayer@@@std@@@@$0A@@std@@@2@XZ 191745b0 f i c_cliententity.obj
 0002:0004d5e0       ?_Parent@?$_Tree@V?$_Tmap_traits@HPAVCPlayer@@U?$less@H@std@@V?$K2MapAllocator@U?$pair@$$CBHPAVCPlayer@@@std@@@@$0A@@std@@@std@@KAAAPAU_Node@?$_Tree_nod@V?$_Tmap_traits@HPAVCPlayer@@U?$less@H@std@@V?$K2MapAllocator@U?$pair@$$CBHPAVCPlayer@@@std@@@@$0A@@std@@@2@PAU342@@Z 191745e0 f i c_cliententity.obj
 0002:0004d600       ??$MIN@I@@YAABIABI0@Z      19174600 f i c_cliententity.obj
 0002:0004d640       ??$_Debug_lt_pred@U?$less@H@std@@HH@std@@YA_NU?$less@H@0@ABH1PB_WI@Z 19174640 f i c_cliententity.obj
 0002:0004d6c0       ??R?$less@H@std@@QBE_NABH0@Z 191746c0 f i c_cliententity.obj
 0002:0004d6f0       ??0?$CCvar@V?$basic_string@_WU?$char_traits@_W@std@@V?$K2StringAllocator@_W@@@std@@V12@@@QAE@ABV?$basic_string@_WU?$char_traits@_W@std@@V?$K2StringAllocator@_W@@@std@@0HP6A_NPAVCConsoleElement@@ABV?$vector@V?$basic_string@_WU?$char_traits@_W@std@@V?$K2StringAllocator@_W@@@std@@V?$K2VectorAllocator@V?$basic_string@_WU?$char_traits@_W@std@@V?$K2StringAllocator@_W@@@std@@@@@@@Z@Z 191746f0 f i c_cliententity.obj
 0002:0004d830       ?Reset@?$CCvar@V?$basic_string@_WU?$char_traits@_W@std@@V?$K2StringAllocator@_W@@@std@@V12@@@UAEXXZ 19174830 f i c_cliententity.obj
 0002:0004d8a0       ?IsDefault@?$CCvar@V?$basic_string@_WU?$char_traits@_W@std@@V?$K2StringAllocator@_W@@@std@@V12@@@UBE_NXZ 191748a0 f i c_cliententity.obj
 0002:0004d8e0       ?StoreValue@?$CCvar@V?$basic_string@_WU?$char_traits@_W@std@@V?$K2StringAllocator@_W@@@std@@V12@@@UAEXXZ 191748e0 f i c_cliententity.obj
 0002:0004d920       ?RestoreStored@?$CCvar@V?$basic_string@_WU?$char_traits@_W@std@@V?$K2StringAllocator@_W@@@std@@V12@@@UAEXXZ 19174920 f i c_cliententity.obj
 0002:0004d960       ?GetString@?$CCvar@V?$basic_string@_WU?$char_traits@_W@std@@V?$K2StringAllocator@_W@@@std@@V12@@@UBE?AV?$basic_string@_WU?$char_traits@_W@std@@V?$K2StringAllocator@_W@@@std@@XZ 19174960 f i c_cliententity.obj
 0002:0004d9b0       ?SetIndex@?$CCvar@V?$basic_string@_WU?$char_traits@_W@std@@V?$K2StringAllocator@_W@@@std@@V12@@@UAEXIABV?$basic_string@_WU?$char_traits@_W@std@@V?$K2StringAllocator@_W@@@std@@@Z 191749b0 f i c_cliententity.obj
 0002:0004d9d0       ?GetRangeString@?$CCvar@V?$basic_string@_WU?$char_traits@_W@std@@V?$K2StringAllocator@_W@@@std@@V12@@@UBE?AV?$basic_string@_WU?$char_traits@_W@std@@V?$K2StringAllocator@_W@@@std@@XZ 191749d0 f i c_cliententity.obj
 0002:0004da20       ??_E?$CCvar@V?$basic_string@_WU?$char_traits@_W@std@@V?$K2StringAllocator@_W@@@std@@V12@@@UAEPAXI@Z 19174a20 f i c_cliententity.obj
 0002:0004da20       ??_G?$CCvar@V?$basic_string@_WU?$char_traits@_W@std@@V?$K2StringAllocator@_W@@@std@@V12@@@UAEPAXI@Z 19174a20 f i c_cliententity.obj
 0002:0004da70       ??1?$CCvar@V?$basic_string@_WU?$char_traits@_W@std@@V?$K2StringAllocator@_W@@@std@@V12@@@UAE@XZ 19174a70 f i c_cliententity.obj
 0002:0004db30       ?Set@?$CCvar@V?$basic_string@_WU?$char_traits@_W@std@@V?$K2StringAllocator@_W@@@std@@V12@@@UAEXABV?$basic_string@_WU?$char_traits@_W@std@@V?$K2StringAllocator@_W@@@std@@@Z 19174b30 f i c_cliententity.obj
 0002:0004dc20       ?Inc@?$CCvar@V?$basic_string@_WU?$char_traits@_W@std@@V?$K2StringAllocator@_W@@@std@@V12@@@UAEXABV?$basic_string@_WU?$char_traits@_W@std@@V?$K2StringAllocator@_W@@@std@@@Z 19174c20 f i c_cliententity.obj
 0002:0004dde0       ??6CConsoleStream@@QAEAAV0@PBD@Z 19174de0 f i c_cliententity.obj
 0002:0004de70       ?AddOutputHistory@CConsoleStream@@AAEXABV?$basic_string@DU?$char_traits@D@std@@V?$K2StringAllocator@D@@@std@@@Z 19174e70 f i c_cliententity.obj
 0002:0004df10       ?Toggle@?$CCvar@V?$basic_string@_WU?$char_traits@_W@std@@V?$K2StringAllocator@_W@@@std@@V12@@@UAEXXZ 19174f10 f i c_cliententity.obj
 0002:0004df60       ??0?$basic_string@DU?$char_traits@D@std@@V?$K2StringAllocator@D@@@std@@QAE@PBD@Z 19174f60 f i c_cliententity.obj
 0002:0004e010       ?assign@?$basic_string@DU?$char_traits@D@std@@V?$K2StringAllocator@D@@@std@@QAEAAV12@PBD@Z 19175010 f i c_cliententity.obj
 0002:0004e050       ??0?$_String_val@DV?$K2StringAllocator@D@@@std@@IAE@V?$K2StringAllocator@D@@@Z 19175050 f i c_cliententity.obj
 0002:0004e0f0       ??0?$K2StringAllocator@D@@QAE@XZ 191750f0 f i c_cliententity.obj
 0002:0004e120       ?assign@?$basic_string@DU?$char_traits@D@std@@V?$K2StringAllocator@D@@@std@@QAEAAV12@PBDI@Z 19175120 f i c_cliententity.obj
 0002:0004e1d0       ?assign@?$basic_string@DU?$char_traits@D@std@@V?$K2StringAllocator@D@@@std@@QAEAAV12@ABV12@II@Z 191751d0 f i c_cliententity.obj
 0002:0004e2c0       ?erase@?$basic_string@DU?$char_traits@D@std@@V?$K2StringAllocator@D@@@std@@QAEAAV12@II@Z 191752c0 f i c_cliententity.obj
 0002:0004e390       ?size@?$basic_string@DU?$char_traits@D@std@@V?$K2StringAllocator@D@@@std@@QBEIXZ 19175390 f i c_cliententity.obj
 0002:0004e3b0       ?_Grow@?$basic_string@DU?$char_traits@D@std@@V?$K2StringAllocator@D@@@std@@IAE_NI_N@Z 191753b0 f i c_cliententity.obj
 0002:0004e480       ??0?$K2StringAllocator@D@@QAE@ABV0@@Z 19175480 f i c_cliententity.obj
 0002:0004e4b0       ?max_size@?$basic_string@DU?$char_traits@D@std@@V?$K2StringAllocator@D@@@std@@QBEIXZ 191754b0 f i c_cliententity.obj
 0002:0004e500       ?_Copy@?$basic_string@DU?$char_traits@D@std@@V?$K2StringAllocator@D@@@std@@IAEXII@Z 19175500 f i c_cliententity.obj
 0002:0004e6f0       ?_Inside@?$basic_string@DU?$char_traits@D@std@@V?$K2StringAllocator@D@@@std@@IAE_NPBD@Z 191756f0 f i c_cliententity.obj
 0002:0004e760       ?allocate@?$K2StringAllocator@D@@QAEPADI@Z 19175760 f i c_cliententity.obj
 0002:0004e7b0       ??$_Debug_pointer@D@std@@YAXPBDPB_WI@Z 191757b0 f i c_cliententity.obj
 0002:0004e7f0       ??$?9_WU?$char_traits@_W@std@@V?$K2StringAllocator@_W@@@std@@YA_NABV?$basic_string@_WU?$char_traits@_W@std@@V?$K2StringAllocator@_W@@@0@0@Z 191757f0 f i c_cliententity.obj
 0002:0004e830       ??$move_s@U?$char_traits@D@std@@@_Traits_helper@std@@YAPADPADIPBDI@Z 19175830 f i c_cliententity.obj
 0002:0004e880       ??$move_s@U?$char_traits@D@std@@@_Traits_helper@std@@YAPADPADIPBDIU_Secure_char_traits_tag@1@@Z 19175880 f i c_cliententity.obj
 0002:0004e8c0       ?Clear@CClientEntityDirectory@@UAEXXZ 191758c0 f   c_cliententitydirectory.obj
 0002:0004eb80       ?GetByHandle@CClientEntityDirectory@@SAPAVCClientEntity@@I@Z 19175b80 f i c_cliententitydirectory.obj
 0002:0004ebb0       ?DeleteByHandle@CClientEntityDirectory@@SAXI@Z 19175bb0 f i c_cliententitydirectory.obj
 0002:0004ebe0       ??1iterator@?$_Tree@V?$_Tmap_traits@IPAVIGameEntity@@U?$less@I@std@@V?$K2MapAllocator@U?$pair@$$CBIPAVIGameEntity@@@std@@@@$0A@@std@@@std@@QAE@XZ 19175be0 f i c_cliententitydirectory.obj
 0002:0004ec10       ??1const_iterator@?$_Tree@V?$_Tmap_traits@IPAVIGameEntity@@U?$less@I@std@@V?$K2MapAllocator@U?$pair@$$CBIPAVIGameEntity@@@std@@@@$0A@@std@@@std@@QAE@XZ 19175c10 f i c_cliententitydirectory.obj
 0002:0004ec40       ??1?$_Bidit@U?$pair@$$CBIPAVIGameEntity@@@std@@HPBU12@ABU12@@std@@QAE@XZ 19175c40 f i c_cliententitydirectory.obj
 0002:0004ec70       ?ClearBitEntities@CClientEntityDirectory@@QAEXXZ 19175c70 f   c_cliententitydirectory.obj
 0002:0004ecb0       ?Allocate@CClientEntityDirectory@@QAEPAVIGameEntity@@IG@Z 19175cb0 f   c_cliententitydirectory.obj
 0002:0004f960       ?IsLocalEntity@CClientEntityDirectory@@SA_NI@Z 19176960 f i c_cliententitydirectory.obj
 0002:0004f990       ?Allocate@CClientEntityDirectory@@SAIABVCClientEntity@@@Z 19176990 f i c_cliententitydirectory.obj
 0002:0004f9c0       ??6CConsoleStream@@QAEAAV0@I@Z 191769c0 f i c_cliententitydirectory.obj
 0002:0004fa70       ?Allocate@CClientEntityDirectory@@QAEPAVIGameEntity@@IABV?$basic_string@_WU?$char_traits@_W@std@@V?$K2StringAllocator@_W@@@std@@@Z 19176a70 f   c_cliententitydirectory.obj
 0002:0004fac0       ?AllocateLocal@CClientEntityDirectory@@QAEPAVIGameEntity@@G@Z 19176ac0 f   c_cliententitydirectory.obj
 0002:0004fd60       ?AllocateLocal@CClientEntityDirectory@@QAEPAVIGameEntity@@ABV?$basic_string@_WU?$char_traits@_W@std@@V?$K2StringAllocator@_W@@@std@@@Z 19176d60 f   c_cliententitydirectory.obj
 0002:0004fda0       ?Delete@CClientEntityDirectory@@QAEXI@Z 19176da0 f   c_cliententitydirectory.obj
 0002:00050bf0       ?GetHandle@CClientEntityDirectory@@SAIPAVCClientEntity@@@Z 19177bf0 f i c_cliententitydirectory.obj
 0002:00050c20       ??0iterator@?$_Tree@V?$_Tmap_traits@IPAVIGameEntity@@U?$less@I@std@@V?$K2MapAllocator@U?$pair@$$CBIPAVIGameEntity@@@std@@@@$0A@@std@@@std@@QAE@ABV012@@Z 19177c20 f i c_cliententitydirectory.obj
 0002:00050c50       ??0const_iterator@?$_Tree@V?$_Tmap_traits@IPAVIGameEntity@@U?$less@I@std@@V?$K2MapAllocator@U?$pair@$$CBIPAVIGameEntity@@@std@@@@$0A@@std@@@std@@QAE@ABV012@@Z 19177c50 f i c_cliententitydirectory.obj
 0002:00050c90       ??0?$_Bidit@U?$pair@$$CBIPAVIGameEntity@@@std@@HPBU12@ABU12@@std@@QAE@ABU01@@Z 19177c90 f i c_cliententitydirectory.obj
 0002:00050cc0       ?GetClientEntity@CClientEntityDirectory@@QAEPAVCClientEntity@@I@Z 19177cc0 f   c_cliententitydirectory.obj
 0002:00050de0       ?GetClientEntityCurrent@CClientEntityDirectory@@QAEPAVIVisualEntity@@I@Z 19177de0 f   c_cliententitydirectory.obj
 0002:00050f00       ?GetClientEntityPrev@CClientEntityDirectory@@QAEPAVIVisualEntity@@I@Z 19177f00 f   c_cliententitydirectory.obj
 0002:00051020       ?GetClientEntityNext@CClientEntityDirectory@@QAEPAVIVisualEntity@@I@Z 19178020 f   c_cliententitydirectory.obj
 0002:00051140       ?GetEntity@CClientEntityDirectory@@UAEPAVIGameEntity@@I@Z 19178140 f   c_cliententitydirectory.obj
 0002:00051280       ?GetEntityNext@CClientEntityDirectory@@QAEPAVIGameEntity@@I@Z 19178280 f   c_cliententitydirectory.obj
 0002:000513c0       ?GetFirstEntity@CClientEntityDirectory@@UAEPAVIGameEntity@@XZ 191783c0 f   c_cliententitydirectory.obj
 0002:000514e0       ?GetNextEntity@CClientEntityDirectory@@UAEPAVIGameEntity@@PAV2@@Z 191784e0 f   c_cliententitydirectory.obj
 0002:000516d0       ?GetEntities@CClientEntityDirectory@@UAEXAAV?$vector@IV?$K2VectorAllocator@I@@@@G@Z 191786d0 f   c_cliententitydirectory.obj
 0002:00051700       ?PrepForSnapshot@CClientEntityDirectory@@QAEXXZ 19178700 f   c_cliententitydirectory.obj
 0002:00051a50       ?GetFirstClientEntity@CClientEntityDirectory@@QAEPAVCClientEntity@@XZ 19178a50 f i c_cliententitydirectory.obj
 0002:00051a80       ?GetFirstLocalClientEntity@CClientEntityDirectory@@QAEPAVCClientEntity@@XZ 19178a80 f i c_cliententitydirectory.obj
 0002:00051ab0       ?GetBitEntityBuffer@CClientEntityDirectory@@QAEAAV?$vector@IV?$K2VectorAllocator@I@@@@XZ 19178ab0 f i c_cliententitydirectory.obj
 0002:00051ad0       ?GetBitEntities@CClientEntityDirectory@@QAEAAV?$vector@PAVIBitEntity@@V?$K2VectorAllocator@PAVIBitEntity@@@@@@XZ 19178ad0 f i c_cliententitydirectory.obj
 0002:00051af0       ??1?$_Iterator@$00@?$list@PAVIGameEntity@@V?$K2ListAllocator@PAVIGameEntity@@@@@std@@QAE@XZ 19178af0 f i c_cliententitydirectory.obj
 0002:00051b20       ??1?$_Const_iterator@$00@?$list@PAVIGameEntity@@V?$K2ListAllocator@PAVIGameEntity@@@@@std@@QAE@XZ 19178b20 f i c_cliententitydirectory.obj
 0002:00051b50       ??1?$_Bidit@PAVIGameEntity@@HPBQAV1@ABQAV1@@std@@QAE@XZ 19178b50 f i c_cliententitydirectory.obj
 0002:00051b80       ?CleanupEntities@CClientEntityDirectory@@QAEXXZ 19178b80 f   c_cliententitydirectory.obj
 0002:00051f60       ?Frame@CClientEntityDirectory@@QAEXM@Z 19178f60 f   c_cliententitydirectory.obj
 0002:000520b0       ?PopulateScene@CClientEntityDirectory@@QAEXXZ 191790b0 f   c_cliententitydirectory.obj
 0002:00052110       ?DrawScreen@CClientEntityDirectory@@QAEXXZ 19179110 f   c_cliententitydirectory.obj
 0002:00052460       ?ROUND@@YAMM@Z             19179460 f i c_cliententitydirectory.obj
 0002:000524a0       ?floor@@YAMM@Z             191794a0 f i c_cliententitydirectory.obj
 0002:000524d0       _floorf                    191794d0 f i c_cliententitydirectory.obj
 0002:00052510       ?GetMaxHeight@CFontMap@@QBEMXZ 19179510 f i c_cliententitydirectory.obj
 0002:00052540       ?AddBitEntity@CClientEntityDirectory@@QAEXPAVIBitEntity@@@Z 19179540 f   c_cliententitydirectory.obj
 0002:000525c0       ?UpdateDefinitions@CClientEntityDirectory@@UAEXG@Z 191795c0 f   c_cliententitydirectory.obj
 0002:000528d0       ?Rewind@CClientEntityDirectory@@QAEXXZ 191798d0 f   c_cliententitydirectory.obj
 0002:00052940       ??A?$map@IIU?$less@I@std@@V?$K2MapAllocator@U?$pair@$$CBII@std@@@@@std@@QAEAAIABI@Z 19179940 f i c_cliententitydirectory.obj
 0002:00052b50       ?find@?$_Tree@V?$_Tmap_traits@IIU?$less@I@std@@V?$K2MapAllocator@U?$pair@$$CBII@std@@@@$0A@@std@@@std@@QAE?AViterator@12@ABI@Z 19179b50 f i c_cliententitydirectory.obj
 0002:00052d30       ??A?$map@IPAVIGameEntity@@U?$less@I@std@@V?$K2MapAllocator@U?$pair@$$CBIPAVIGameEntity@@@std@@@@@std@@QAEAAPAVIGameEntity@@ABI@Z 19179d30 f i c_cliententitydirectory.obj
 0002:00052f40       ?begin@?$_Tree@V?$_Tmap_traits@IPAVIGameEntity@@U?$less@I@std@@V?$K2MapAllocator@U?$pair@$$CBIPAVIGameEntity@@@std@@@@$0A@@std@@@std@@QAE?AViterator@12@XZ 19179f40 f i c_cliententitydirectory.obj
 0002:00052f90       ?end@?$_Tree@V?$_Tmap_traits@IPAVIGameEntity@@U?$less@I@std@@V?$K2MapAllocator@U?$pair@$$CBIPAVIGameEntity@@@std@@@@$0A@@std@@@std@@QAE?AViterator@12@XZ 19179f90 f i c_cliententitydirectory.obj
 0002:00052fe0       ?erase@?$_Tree@V?$_Tmap_traits@IPAVIGameEntity@@U?$less@I@std@@V?$K2MapAllocator@U?$pair@$$CBIPAVIGameEntity@@@std@@@@$0A@@std@@@std@@QAE?AViterator@12@V312@@Z 19179fe0 f i c_cliententitydirectory.obj
 0002:000539c0       ?clear@?$_Tree@V?$_Tmap_traits@IPAVIGameEntity@@U?$less@I@std@@V?$K2MapAllocator@U?$pair@$$CBIPAVIGameEntity@@@std@@@@$0A@@std@@@std@@QAEXXZ 1917a9c0 f i c_cliententitydirectory.obj
 0002:00053a50       ?find@?$_Tree@V?$_Tmap_traits@IPAVIGameEntity@@U?$less@I@std@@V?$K2MapAllocator@U?$pair@$$CBIPAVIGameEntity@@@std@@@@$0A@@std@@@std@@QAE?AViterator@12@ABI@Z 1917aa50 f i c_cliententitydirectory.obj
 0002:00053c30       ?begin@?$list@PAVIGameEntity@@V?$K2ListAllocator@PAVIGameEntity@@@@@std@@QAE?AV?$_Iterator@$00@12@XZ 1917ac30 f i c_cliententitydirectory.obj
 0002:00053c90       ?end@?$list@PAVIGameEntity@@V?$K2ListAllocator@PAVIGameEntity@@@@@std@@QAE?AV?$_Iterator@$00@12@XZ 1917ac90 f i c_cliententitydirectory.obj
 0002:00053ce0       ?push_back@?$list@PAVIGameEntity@@V?$K2ListAllocator@PAVIGameEntity@@@@@std@@QAEXABQAVIGameEntity@@@Z 1917ace0 f i c_cliententitydirectory.obj
 0002:00053d30       ?clear@?$list@PAVIGameEntity@@V?$K2ListAllocator@PAVIGameEntity@@@@@std@@QAEXXZ 1917ad30 f i c_cliententitydirectory.obj
 0002:00053e10       ?remove@?$list@PAVIGameEntity@@V?$K2ListAllocator@PAVIGameEntity@@@@@std@@QAEXABQAVIGameEntity@@@Z 1917ae10 f i c_cliententitydirectory.obj
 0002:00053f60       ??Citerator@?$_Tree@V?$_Tmap_traits@IIU?$less@I@std@@V?$K2MapAllocator@U?$pair@$$CBII@std@@@@$0A@@std@@@std@@QBEPAU?$pair@$$CBII@2@XZ 1917af60 f i c_cliententitydirectory.obj
 0002:00053f90       ??Fiterator@?$_Tree@V?$_Tmap_traits@IIU?$less@I@std@@V?$K2MapAllocator@U?$pair@$$CBII@std@@@@$0A@@std@@@std@@QAEAAV012@XZ 1917af90 f i c_cliententitydirectory.obj
 0002:00053fc0       ?size@?$vector@PAVIBitEntity@@V?$K2VectorAllocator@PAVIBitEntity@@@@@std@@QBEIXZ 1917afc0 f i c_cliententitydirectory.obj
 0002:00054010       ??A?$vector@PAVIBitEntity@@V?$K2VectorAllocator@PAVIBitEntity@@@@@std@@QAEAAPAVIBitEntity@@I@Z 1917b010 f i c_cliententitydirectory.obj
 0002:00054130       ?push_back@?$vector@PAVIBitEntity@@V?$K2VectorAllocator@PAVIBitEntity@@@@@std@@QAEXABQAVIBitEntity@@@Z 1917b130 f i c_cliententitydirectory.obj
 0002:000541e0       ?clear@?$vector@PAVIBitEntity@@V?$K2VectorAllocator@PAVIBitEntity@@@@@std@@QAEXXZ 1917b1e0 f i c_cliententitydirectory.obj
 0002:000542a0       ?New@?$CRecyclePool@VCClientEntity@@@@QAEIABVCClientEntity@@@Z 1917b2a0 f i c_cliententitydirectory.obj
 0002:00054390       ?GetReferenceByHandle@?$CRecyclePool@VCClientEntity@@@@QBEPAVCClientEntity@@I@Z 1917b390 f i c_cliententitydirectory.obj
 0002:000543d0       ?GetHandleByReference@?$CRecyclePool@VCClientEntity@@@@QAEHPAVCClientEntity@@@Z 1917b3d0 f i c_cliententitydirectory.obj
 0002:00054410       ?Free@?$CRecyclePool@VCClientEntity@@@@QAEXI@Z 1917b410 f i c_cliententitydirectory.obj
 0002:00054540       ??Citerator@?$_Tree@V?$_Tmap_traits@IPAVIGameEntity@@U?$less@I@std@@V?$K2MapAllocator@U?$pair@$$CBIPAVIGameEntity@@@std@@@@$0A@@std@@@std@@QBEPAU?$pair@$$CBIPAVIGameEntity@@@2@XZ 1917b540 f i c_cliententitydirectory.obj
 0002:00054570       ??Eiterator@?$_Tree@V?$_Tmap_traits@IPAVIGameEntity@@U?$less@I@std@@V?$K2MapAllocator@U?$pair@$$CBIPAVIGameEntity@@@std@@@@$0A@@std@@@std@@QAEAAV012@XZ 1917b570 f i c_cliententitydirectory.obj
 0002:000545a0       ??8const_iterator@?$_Tree@V?$_Tmap_traits@IPAVIGameEntity@@U?$less@I@std@@V?$K2MapAllocator@U?$pair@$$CBIPAVIGameEntity@@@std@@@@$0A@@std@@@std@@QBE_NABV012@@Z 1917b5a0 f i c_cliententitydirectory.obj
 0002:00054660       ??9const_iterator@?$_Tree@V?$_Tmap_traits@IPAVIGameEntity@@U?$less@I@std@@V?$K2MapAllocator@U?$pair@$$CBIPAVIGameEntity@@@std@@@@$0A@@std@@@std@@QBE_NABV012@@Z 1917b660 f i c_cliententitydirectory.obj
 0002:000546a0       ??D?$_Iterator@$00@?$list@PAVIGameEntity@@V?$K2ListAllocator@PAVIGameEntity@@@@@std@@QBEAAPAVIGameEntity@@XZ 1917b6a0 f i c_cliententitydirectory.obj
 0002:000546d0       ??E?$_Iterator@$00@?$list@PAVIGameEntity@@V?$K2ListAllocator@PAVIGameEntity@@@@@std@@QAEAAV012@XZ 1917b6d0 f i c_cliententitydirectory.obj
 0002:00054700       ??9?$_Const_iterator@$00@?$list@PAVIGameEntity@@V?$K2ListAllocator@PAVIGameEntity@@@@@std@@QBE_NABV012@@Z 1917b700 f i c_cliententitydirectory.obj
 0002:00054740       ??4iterator@?$_Tree@V?$_Tmap_traits@IIU?$less@I@std@@V?$K2MapAllocator@U?$pair@$$CBII@std@@@@$0A@@std@@@std@@QAEAAV012@ABV012@@Z 1917b740 f i c_cliententitydirectory.obj
 0002:00054770       ??4iterator@?$_Tree@V?$_Tmap_traits@IPAVIGameEntity@@U?$less@I@std@@V?$K2MapAllocator@U?$pair@$$CBIPAVIGameEntity@@@std@@@@$0A@@std@@@std@@QAEAAV012@ABV012@@Z 1917b770 f i c_cliententitydirectory.obj
 0002:000547a0       ??0?$_Iterator@$00@?$list@PAVIGameEntity@@V?$K2ListAllocator@PAVIGameEntity@@@@@std@@QAE@ABV012@@Z 1917b7a0 f i c_cliententitydirectory.obj
 0002:000547d0       ??4?$_Iterator@$00@?$list@PAVIGameEntity@@V?$K2ListAllocator@PAVIGameEntity@@@@@std@@QAEAAV012@ABV012@@Z 1917b7d0 f i c_cliententitydirectory.obj
 0002:00054800       ??1?$_Vector_iterator@PAVIBitEntity@@V?$K2VectorAllocator@PAVIBitEntity@@@@@std@@QAE@XZ 1917b800 f i c_cliententitydirectory.obj
 0002:00054830       ??_ECClientEntity@@QAEPAXI@Z 1917b830 f i c_cliententitydirectory.obj
 0002:000548d0       ??4const_iterator@?$_Tree@V?$_Tmap_traits@IIU?$less@I@std@@V?$K2MapAllocator@U?$pair@$$CBII@std@@@@$0A@@std@@@std@@QAEAAV012@ABV012@@Z 1917b8d0 f i c_cliententitydirectory.obj
 0002:00054910       ??4const_iterator@?$_Tree@V?$_Tmap_traits@IPAVIGameEntity@@U?$less@I@std@@V?$K2MapAllocator@U?$pair@$$CBIPAVIGameEntity@@@std@@@@$0A@@std@@@std@@QAEAAV012@ABV012@@Z 1917b910 f i c_cliententitydirectory.obj
 0002:00054950       ??0?$_Const_iterator@$00@?$list@PAVIGameEntity@@V?$K2ListAllocator@PAVIGameEntity@@@@@std@@QAE@ABV012@@Z 1917b950 f i c_cliententitydirectory.obj
 0002:00054990       ??4?$_Const_iterator@$00@?$list@PAVIGameEntity@@V?$K2ListAllocator@PAVIGameEntity@@@@@std@@QAEAAV012@ABV012@@Z 1917b990 f i c_cliententitydirectory.obj
 0002:000549d0       ??1?$_Vector_const_iterator@PAVIBitEntity@@V?$K2VectorAllocator@PAVIBitEntity@@@@@std@@QAE@XZ 1917b9d0 f i c_cliententitydirectory.obj
 0002:00054a00       ??4?$_Bidit@U?$pair@$$CBII@std@@HPBU12@ABU12@@std@@QAEAAU01@ABU01@@Z 1917ba00 f i c_cliententitydirectory.obj
 0002:00054a30       ??4?$_Bidit@U?$pair@$$CBIPAVIGameEntity@@@std@@HPBU12@ABU12@@std@@QAEAAU01@ABU01@@Z 1917ba30 f i c_cliententitydirectory.obj
 0002:00054a60       ??0?$_Bidit@PAVIGameEntity@@HPBQAV1@ABQAV1@@std@@QAE@ABU01@@Z 1917ba60 f i c_cliententitydirectory.obj
 0002:00054a90       ??4?$_Bidit@PAVIGameEntity@@HPBQAV1@ABQAV1@@std@@QAEAAU01@ABU01@@Z 1917ba90 f i c_cliententitydirectory.obj
 0002:00054ac0       ??1?$_Ranit@PAVIBitEntity@@HPBQAV1@ABQAV1@@std@@QAE@XZ 1917bac0 f i c_cliententitydirectory.obj
 0002:00054af0       ?_Key@?$_Tree@V?$_Tmap_traits@IIU?$less@I@std@@V?$K2MapAllocator@U?$pair@$$CBII@std@@@@$0A@@std@@@std@@KAABIPAU_Node@?$_Tree_nod@V?$_Tmap_traits@IIU?$less@I@std@@V?$K2MapAllocator@U?$pair@$$CBII@std@@@@$0A@@std@@@2@@Z 1917baf0 f i c_cliententitydirectory.obj
 0002:00054b20       ?insert@?$_Tree@V?$_Tmap_traits@IIU?$less@I@std@@V?$K2MapAllocator@U?$pair@$$CBII@std@@@@$0A@@std@@@std@@QAE?AViterator@12@V312@ABU?$pair@$$CBII@2@@Z 1917bb20 f i c_cliententitydirectory.obj
 0002:000558e0       ?lower_bound@?$_Tree@V?$_Tmap_traits@IIU?$less@I@std@@V?$K2MapAllocator@U?$pair@$$CBII@std@@@@$0A@@std@@@std@@QAE?AViterator@12@ABI@Z 1917c8e0 f i c_cliententitydirectory.obj
 0002:00055940       ?_Color@?$_Tree@V?$_Tmap_traits@IPAVIGameEntity@@U?$less@I@std@@V?$K2MapAllocator@U?$pair@$$CBIPAVIGameEntity@@@std@@@@$0A@@std@@@std@@KAAADPAU_Node@?$_Tree_nod@V?$_Tmap_traits@IPAVIGameEntity@@U?$less@I@std@@V?$K2MapAllocator@U?$pair@$$CBIPAVIGameEntity@@@std@@@@$0A@@std@@@2@@Z 1917c940 f i c_cliententitydirectory.obj
 0002:00055960       ?_Isnil@?$_Tree@V?$_Tmap_traits@IPAVIGameEntity@@U?$less@I@std@@V?$K2MapAllocator@U?$pair@$$CBIPAVIGameEntity@@@std@@@@$0A@@std@@@std@@KAAADPAU_Node@?$_Tree_nod@V?$_Tmap_traits@IPAVIGameEntity@@U?$less@I@std@@V?$K2MapAllocator@U?$pair@$$CBIPAVIGameEntity@@@std@@@@$0A@@std@@@2@@Z 1917c960 f i c_cliententitydirectory.obj
 0002:00055980       ?_Key@?$_Tree@V?$_Tmap_traits@IPAVIGameEntity@@U?$less@I@std@@V?$K2MapAllocator@U?$pair@$$CBIPAVIGameEntity@@@std@@@@$0A@@std@@@std@@KAABIPAU_Node@?$_Tree_nod@V?$_Tmap_traits@IPAVIGameEntity@@U?$less@I@std@@V?$K2MapAllocator@U?$pair@$$CBIPAVIGameEntity@@@std@@@@$0A@@std@@@2@@Z 1917c980 f i c_cliententitydirectory.obj
 0002:000559b0       ?_Left@?$_Tree@V?$_Tmap_traits@IPAVIGameEntity@@U?$less@I@std@@V?$K2MapAllocator@U?$pair@$$CBIPAVIGameEntity@@@std@@@@$0A@@std@@@std@@KAAAPAU_Node@?$_Tree_nod@V?$_Tmap_traits@IPAVIGameEntity@@U?$less@I@std@@V?$K2MapAllocator@U?$pair@$$CBIPAVIGameEntity@@@std@@@@$0A@@std@@@2@PAU342@@Z 1917c9b0 f i c_cliententitydirectory.obj
 0002:000559d0       ?_Parent@?$_Tree@V?$_Tmap_traits@IPAVIGameEntity@@U?$less@I@std@@V?$K2MapAllocator@U?$pair@$$CBIPAVIGameEntity@@@std@@@@$0A@@std@@@std@@KAAAPAU_Node@?$_Tree_nod@V?$_Tmap_traits@IPAVIGameEntity@@U?$less@I@std@@V?$K2MapAllocator@U?$pair@$$CBIPAVIGameEntity@@@std@@@@$0A@@std@@@2@PAU342@@Z 1917c9d0 f i c_cliententitydirectory.obj
 0002:000559f0       ?_Right@?$_Tree@V?$_Tmap_traits@IPAVIGameEntity@@U?$less@I@std@@V?$K2MapAllocator@U?$pair@$$CBIPAVIGameEntity@@@std@@@@$0A@@std@@@std@@KAAAPAU_Node@?$_Tree_nod@V?$_Tmap_traits@IPAVIGameEntity@@U?$less@I@std@@V?$K2MapAllocator@U?$pair@$$CBIPAVIGameEntity@@@std@@@@$0A@@std@@@2@PAU342@@Z 1917c9f0 f i c_cliententitydirectory.obj
 0002:00055a10       ?insert@?$_Tree@V?$_Tmap_traits@IPAVIGameEntity@@U?$less@I@std@@V?$K2MapAllocator@U?$pair@$$CBIPAVIGameEntity@@@std@@@@$0A@@std@@@std@@QAE?AViterator@12@V312@ABU?$pair@$$CBIPAVIGameEntity@@@2@@Z 1917ca10 f i c_cliententitydirectory.obj
 0002:000567d0       ?lower_bound@?$_Tree@V?$_Tmap_traits@IPAVIGameEntity@@U?$less@I@std@@V?$K2MapAllocator@U?$pair@$$CBIPAVIGameEntity@@@std@@@@$0A@@std@@@std@@QAE?AViterator@12@ABI@Z 1917d7d0 f i c_cliententitydirectory.obj
 0002:00056830       ?_Erase@?$_Tree@V?$_Tmap_traits@IPAVIGameEntity@@U?$less@I@std@@V?$K2MapAllocator@U?$pair@$$CBIPAVIGameEntity@@@std@@@@$0A@@std@@@std@@IAEXPAU_Node@?$_Tree_nod@V?$_Tmap_traits@IPAVIGameEntity@@U?$less@I@std@@V?$K2MapAllocator@U?$pair@$$CBIPAVIGameEntity@@@std@@@@$0A@@std@@@2@@Z 1917d830 f i c_cliententitydirectory.obj
 0002:000568d0       ?_Lmost@?$_Tree@V?$_Tmap_traits@IPAVIGameEntity@@U?$less@I@std@@V?$K2MapAllocator@U?$pair@$$CBIPAVIGameEntity@@@std@@@@$0A@@std@@@std@@IBEAAPAU_Node@?$_Tree_nod@V?$_Tmap_traits@IPAVIGameEntity@@U?$less@I@std@@V?$K2MapAllocator@U?$pair@$$CBIPAVIGameEntity@@@std@@@@$0A@@std@@@2@XZ 1917d8d0 f i c_cliententitydirectory.obj
 0002:00056900       ?_Lrotate@?$_Tree@V?$_Tmap_traits@IPAVIGameEntity@@U?$less@I@std@@V?$K2MapAllocator@U?$pair@$$CBIPAVIGameEntity@@@std@@@@$0A@@std@@@std@@IAEXPAU_Node@?$_Tree_nod@V?$_Tmap_traits@IPAVIGameEntity@@U?$less@I@std@@V?$K2MapAllocator@U?$pair@$$CBIPAVIGameEntity@@@std@@@@$0A@@std@@@2@@Z 1917d900 f i c_cliententitydirectory.obj
 0002:00056a90       ?_Max@?$_Tree@V?$_Tmap_traits@IPAVIGameEntity@@U?$less@I@std@@V?$K2MapAllocator@U?$pair@$$CBIPAVIGameEntity@@@std@@@@$0A@@std@@@std@@KAPAU_Node@?$_Tree_nod@V?$_Tmap_traits@IPAVIGameEntity@@U?$less@I@std@@V?$K2MapAllocator@U?$pair@$$CBIPAVIGameEntity@@@std@@@@$0A@@std@@@2@PAU342@@Z 1917da90 f i c_cliententitydirectory.obj
 0002:00056af0       ?_Min@?$_Tree@V?$_Tmap_traits@IPAVIGameEntity@@U?$less@I@std@@V?$K2MapAllocator@U?$pair@$$CBIPAVIGameEntity@@@std@@@@$0A@@std@@@std@@KAPAU_Node@?$_Tree_nod@V?$_Tmap_traits@IPAVIGameEntity@@U?$less@I@std@@V?$K2MapAllocator@U?$pair@$$CBIPAVIGameEntity@@@std@@@@$0A@@std@@@2@PAU342@@Z 1917daf0 f i c_cliententitydirectory.obj
 0002:00056b50       ?_Rmost@?$_Tree@V?$_Tmap_traits@IPAVIGameEntity@@U?$less@I@std@@V?$K2MapAllocator@U?$pair@$$CBIPAVIGameEntity@@@std@@@@$0A@@std@@@std@@IBEAAPAU_Node@?$_Tree_nod@V?$_Tmap_traits@IPAVIGameEntity@@U?$less@I@std@@V?$K2MapAllocator@U?$pair@$$CBIPAVIGameEntity@@@std@@@@$0A@@std@@@2@XZ 1917db50 f i c_cliententitydirectory.obj
 0002:00056b80       ?_Root@?$_Tree@V?$_Tmap_traits@IPAVIGameEntity@@U?$less@I@std@@V?$K2MapAllocator@U?$pair@$$CBIPAVIGameEntity@@@std@@@@$0A@@std@@@std@@IBEAAPAU_Node@?$_Tree_nod@V?$_Tmap_traits@IPAVIGameEntity@@U?$less@I@std@@V?$K2MapAllocator@U?$pair@$$CBIPAVIGameEntity@@@std@@@@$0A@@std@@@2@XZ 1917db80 f i c_cliententitydirectory.obj
 0002:00056bb0       ?_Rrotate@?$_Tree@V?$_Tmap_traits@IPAVIGameEntity@@U?$less@I@std@@V?$K2MapAllocator@U?$pair@$$CBIPAVIGameEntity@@@std@@@@$0A@@std@@@std@@IAEXPAU_Node@?$_Tree_nod@V?$_Tmap_traits@IPAVIGameEntity@@U?$less@I@std@@V?$K2MapAllocator@U?$pair@$$CBIPAVIGameEntity@@@std@@@@$0A@@std@@@2@@Z 1917dbb0 f i c_cliententitydirectory.obj
 0002:00056d40       ?_Orphan_ptr@?$_Tree@V?$_Tmap_traits@IPAVIGameEntity@@U?$less@I@std@@V?$K2MapAllocator@U?$pair@$$CBIPAVIGameEntity@@@std@@@@$0A@@std@@@std@@IBEXAAV12@PAU_Node@?$_Tree_nod@V?$_Tmap_traits@IPAVIGameEntity@@U?$less@I@std@@V?$K2MapAllocator@U?$pair@$$CBIPAVIGameEntity@@@std@@@@$0A@@std@@@2@@Z 1917dd40 f i c_cliententitydirectory.obj
 0002:00056df0       ?deallocate@?$K2MapAllocator@U_Node@?$_Tree_nod@V?$_Tmap_traits@IPAVIGameEntity@@U?$less@I@std@@V?$K2MapAllocator@U?$pair@$$CBIPAVIGameEntity@@@std@@@@$0A@@std@@@std@@@@QAEXPAU_Node@?$_Tree_nod@V?$_Tmap_traits@IPAVIGameEntity@@U?$less@I@std@@V?$K2MapAllocator@U?$pair@$$CBIPAVIGameEntity@@@std@@@@$0A@@std@@@std@@I@Z 1917ddf0 f i c_cliententitydirectory.obj
 0002:00056e30       ?destroy@?$allocator@U_Node@?$_Tree_nod@V?$_Tmap_traits@IPAVIGameEntity@@U?$less@I@std@@V?$K2MapAllocator@U?$pair@$$CBIPAVIGameEntity@@@std@@@@$0A@@std@@@std@@@std@@QAEXPAU_Node@?$_Tree_nod@V?$_Tmap_traits@IPAVIGameEntity@@U?$less@I@std@@V?$K2MapAllocator@U?$pair@$$CBIPAVIGameEntity@@@std@@@@$0A@@std@@@2@@Z 1917de30 f i c_cliententitydirectory.obj
 0002:00056e60       ?_Nextnode@?$list@PAVIGameEntity@@V?$K2ListAllocator@PAVIGameEntity@@@@@std@@KAAAPAU_Node@?$_List_nod@PAVIGameEntity@@V?$K2ListAllocator@PAVIGameEntity@@@@@2@PAU342@@Z 1917de60 f i c_cliententitydirectory.obj
 0002:00056e80       ?_Prevnode@?$list@PAVIGameEntity@@V?$K2ListAllocator@PAVIGameEntity@@@@@std@@KAAAPAU_Node@?$_List_nod@PAVIGameEntity@@V?$K2ListAllocator@PAVIGameEntity@@@@@2@PAU342@@Z 1917de80 f i c_cliententitydirectory.obj
 0002:00056ea0       ?_Insert@?$list@PAVIGameEntity@@V?$K2ListAllocator@PAVIGameEntity@@@@@std@@QAEXV?$_Iterator@$00@12@ABQAVIGameEntity@@@Z 1917dea0 f i c_cliententitydirectory.obj
 0002:00056fb0       ?erase@?$list@PAVIGameEntity@@V?$K2ListAllocator@PAVIGameEntity@@@@@std@@QAE?AV?$_Iterator@$00@12@V312@@Z 1917dfb0 f i c_cliententitydirectory.obj
 0002:00057180       ?_Orphan_ptr@?$list@PAVIGameEntity@@V?$K2ListAllocator@PAVIGameEntity@@@@@std@@IBEXAAV12@PAU_Node@?$_List_nod@PAVIGameEntity@@V?$K2ListAllocator@PAVIGameEntity@@@@@2@@Z 1917e180 f i c_cliententitydirectory.obj
 0002:00057230       ?deallocate@?$K2ListAllocator@U_Node@?$_List_nod@PAVIGameEntity@@V?$K2ListAllocator@PAVIGameEntity@@@@@std@@@@QAEXPAU_Node@?$_List_nod@PAVIGameEntity@@V?$K2ListAllocator@PAVIGameEntity@@@@@std@@I@Z 1917e230 f i c_cliententitydirectory.obj
 0002:00057270       ?destroy@?$allocator@U_Node@?$_List_nod@PAVIGameEntity@@V?$K2ListAllocator@PAVIGameEntity@@@@@std@@@std@@QAEXPAU_Node@?$_List_nod@PAVIGameEntity@@V?$K2ListAllocator@PAVIGameEntity@@@@@2@@Z 1917e270 f i c_cliententitydirectory.obj
 0002:000572a0       ??Diterator@?$_Tree@V?$_Tmap_traits@IIU?$less@I@std@@V?$K2MapAllocator@U?$pair@$$CBII@std@@@@$0A@@std@@@std@@QBEAAU?$pair@$$CBII@2@XZ 1917e2a0 f i c_cliententitydirectory.obj
 0002:000572d0       ??Dconst_iterator@?$_Tree@V?$_Tmap_traits@IIU?$less@I@std@@V?$K2MapAllocator@U?$pair@$$CBII@std@@@@$0A@@std@@@std@@QBEABU?$pair@$$CBII@2@XZ 1917e2d0 f i c_cliententitydirectory.obj
 0002:00057390       ??Fconst_iterator@?$_Tree@V?$_Tmap_traits@IIU?$less@I@std@@V?$K2MapAllocator@U?$pair@$$CBII@std@@@@$0A@@std@@@std@@QAEAAV012@XZ 1917e390 f i c_cliententitydirectory.obj
 0002:000573c0       ??0?$pair@$$CBII@std@@QAE@ABI0@Z 1917e3c0 f i c_cliententitydirectory.obj
 0002:00057400       ?capacity@?$vector@PAVIBitEntity@@V?$K2VectorAllocator@PAVIBitEntity@@@@@std@@QBEIXZ 1917e400 f i c_cliententitydirectory.obj
 0002:00057450       ?begin@?$vector@PAVIBitEntity@@V?$K2VectorAllocator@PAVIBitEntity@@@@@std@@QAE?AV?$_Vector_iterator@PAVIBitEntity@@V?$K2VectorAllocator@PAVIBitEntity@@@@@2@XZ 1917e450 f i c_cliententitydirectory.obj
 0002:000574a0       ?end@?$vector@PAVIBitEntity@@V?$K2VectorAllocator@PAVIBitEntity@@@@@std@@QAE?AV?$_Vector_iterator@PAVIBitEntity@@V?$K2VectorAllocator@PAVIBitEntity@@@@@2@XZ 1917e4a0 f i c_cliententitydirectory.obj
 0002:000574f0       ?insert@?$vector@PAVIBitEntity@@V?$K2VectorAllocator@PAVIBitEntity@@@@@std@@QAE?AV?$_Vector_iterator@PAVIBitEntity@@V?$K2VectorAllocator@PAVIBitEntity@@@@@2@V32@ABQAVIBitEntity@@@Z 1917e4f0 f i c_cliententitydirectory.obj
 0002:00057660       ?erase@?$vector@PAVIBitEntity@@V?$K2VectorAllocator@PAVIBitEntity@@@@@std@@QAE?AV?$_Vector_iterator@PAVIBitEntity@@V?$K2VectorAllocator@PAVIBitEntity@@@@@2@V32@0@Z 1917e660 f i c_cliententitydirectory.obj
 0002:000577e0       ?_Ufill@?$vector@PAVIBitEntity@@V?$K2VectorAllocator@PAVIBitEntity@@@@@std@@IAEPAPAVIBitEntity@@PAPAV3@IABQAV3@@Z 1917e7e0 f i c_cliententitydirectory.obj
 0002:00057830       ?_Orphan_range@?$vector@PAVIBitEntity@@V?$K2VectorAllocator@PAVIBitEntity@@@@@std@@IBEXPAPAVIBitEntity@@0@Z 1917e830 f i c_cliententitydirectory.obj
 0002:000578d0       ?CheckForResize@?$CRecyclePool@VCClientEntity@@@@AAEXXZ 1917e8d0 f i c_cliententitydirectory.obj
 0002:00057b80       ?GetAvailableHandle@?$CRecyclePool@VCClientEntity@@@@AAEIXZ 1917eb80 f i c_cliententitydirectory.obj
 0002:00057c10       ??0iterator@?$_Tree@V?$_Tmap_traits@IPAVIGameEntity@@U?$less@I@std@@V?$K2MapAllocator@U?$pair@$$CBIPAVIGameEntity@@@std@@@@$0A@@std@@@std@@QAE@PAU_Node@?$_Tree_nod@V?$_Tmap_traits@IPAVIGameEntity@@U?$less@I@std@@V?$K2MapAllocator@U?$pair@$$CBIPAVIGameEntity@@@std@@@@$0A@@std@@@2@PBV12@@Z 1917ec10 f i c_cliententitydirectory.obj
 0002:00057c50       ??Diterator@?$_Tree@V?$_Tmap_traits@IPAVIGameEntity@@U?$less@I@std@@V?$K2MapAllocator@U?$pair@$$CBIPAVIGameEntity@@@std@@@@$0A@@std@@@std@@QBEAAU?$pair@$$CBIPAVIGameEntity@@@2@XZ 1917ec50 f i c_cliententitydirectory.obj
 0002:00057c80       ??Econst_iterator@?$_Tree@V?$_Tmap_traits@IPAVIGameEntity@@U?$less@I@std@@V?$K2MapAllocator@U?$pair@$$CBIPAVIGameEntity@@@std@@@@$0A@@std@@@std@@QAEAAV012@XZ 1917ec80 f i c_cliententitydirectory.obj
 0002:00057cb0       ?_Mynode@const_iterator@?$_Tree@V?$_Tmap_traits@IPAVIGameEntity@@U?$less@I@std@@V?$K2MapAllocator@U?$pair@$$CBIPAVIGameEntity@@@std@@@@$0A@@std@@@std@@QBEPAU_Node@?$_Tree_nod@V?$_Tmap_traits@IPAVIGameEntity@@U?$less@I@std@@V?$K2MapAllocator@U?$pair@$$CBIPAVIGameEntity@@@std@@@@$0A@@std@@@3@XZ 1917ecb0 f i c_cliententitydirectory.obj
 0002:00057cd0       ??0?$pair@$$CBIPAVIGameEntity@@@std@@QAE@ABIABQAVIGameEntity@@@Z 1917ecd0 f i c_cliententitydirectory.obj
 0002:00057d10       ??0?$_Iterator@$00@?$list@PAVIGameEntity@@V?$K2ListAllocator@PAVIGameEntity@@@@@std@@QAE@PAU_Node@?$_List_nod@PAVIGameEntity@@V?$K2ListAllocator@PAVIGameEntity@@@@@2@PBV12@@Z 1917ed10 f i c_cliententitydirectory.obj
 0002:00057d50       ??D?$_Const_iterator@$00@?$list@PAVIGameEntity@@V?$K2ListAllocator@PAVIGameEntity@@@@@std@@QBEABQAVIGameEntity@@XZ 1917ed50 f i c_cliententitydirectory.obj
 0002:00057e20       ??E?$_Const_iterator@$00@?$list@PAVIGameEntity@@V?$K2ListAllocator@PAVIGameEntity@@@@@std@@QAEAAV012@XZ 1917ee20 f i c_cliententitydirectory.obj
 0002:00057f00       ??8?$_Const_iterator@$00@?$list@PAVIGameEntity@@V?$K2ListAllocator@PAVIGameEntity@@@@@std@@QBE_NABV012@@Z 1917ef00 f i c_cliententitydirectory.obj
 0002:00057f40       ??1?$pair@Viterator@?$_Tree@V?$_Tmap_traits@IIU?$less@I@std@@V?$K2MapAllocator@U?$pair@$$CBII@std@@@@$0A@@std@@@std@@_N@std@@QAE@XZ 1917ef40 f i c_cliententitydirectory.obj
 0002:00057f70       ??1?$pair@Viterator@?$_Tree@V?$_Tmap_traits@IPAVIGameEntity@@U?$less@I@std@@V?$K2MapAllocator@U?$pair@$$CBIPAVIGameEntity@@@std@@@@$0A@@std@@@std@@_N@std@@QAE@XZ 1917ef70 f i c_cliententitydirectory.obj
 0002:00057fa0       ??0?$_Vector_iterator@PAVIBitEntity@@V?$K2VectorAllocator@PAVIBitEntity@@@@@std@@QAE@ABV01@@Z 1917efa0 f i c_cliententitydirectory.obj
 0002:00057fd0       ??0?$_Vector_const_iterator@PAVIBitEntity@@V?$K2VectorAllocator@PAVIBitEntity@@@@@std@@QAE@ABV01@@Z 1917efd0 f i c_cliententitydirectory.obj
 0002:00058010       ??0?$_Ranit@PAVIBitEntity@@HPBQAV1@ABQAV1@@std@@QAE@ABU01@@Z 1917f010 f i c_cliententitydirectory.obj
 0002:00058040       ?_Myval@?$_Tree@V?$_Tmap_traits@IIU?$less@I@std@@V?$K2MapAllocator@U?$pair@$$CBII@std@@@@$0A@@std@@@std@@KAAAU?$pair@$$CBII@2@PAU_Node@?$_Tree_nod@V?$_Tmap_traits@IIU?$less@I@std@@V?$K2MapAllocator@U?$pair@$$CBII@std@@@@$0A@@std@@@2@@Z 1917f040 f i c_cliententitydirectory.obj
 0002:00058060       ?size@?$_Tree@V?$_Tmap_traits@IIU?$less@I@std@@V?$K2MapAllocator@U?$pair@$$CBII@std@@@@$0A@@std@@@std@@QBEIXZ 1917f060 f i c_cliententitydirectory.obj
 0002:00058080       ?insert@?$_Tree@V?$_Tmap_traits@IIU?$less@I@std@@V?$K2MapAllocator@U?$pair@$$CBII@std@@@@$0A@@std@@@std@@QAE?AU?$pair@Viterator@?$_Tree@V?$_Tmap_traits@IIU?$less@I@std@@V?$K2MapAllocator@U?$pair@$$CBII@std@@@@$0A@@std@@@std@@_N@2@ABU?$pair@$$CBII@2@@Z 1917f080 f i c_cliententitydirectory.obj
 0002:000584a0       ?_Insert@?$_Tree@V?$_Tmap_traits@IIU?$less@I@std@@V?$K2MapAllocator@U?$pair@$$CBII@std@@@@$0A@@std@@@std@@IAE?AViterator@12@_NPAU_Node@?$_Tree_nod@V?$_Tmap_traits@IIU?$less@I@std@@V?$K2MapAllocator@U?$pair@$$CBII@std@@@@$0A@@std@@@2@ABU?$pair@$$CBII@2@@Z 1917f4a0 f i c_cliententitydirectory.obj
 0002:00058a60       ?_Lbound@?$_Tree@V?$_Tmap_traits@IIU?$less@I@std@@V?$K2MapAllocator@U?$pair@$$CBII@std@@@@$0A@@std@@@std@@IBEPAU_Node@?$_Tree_nod@V?$_Tmap_traits@IIU?$less@I@std@@V?$K2MapAllocator@U?$pair@$$CBII@std@@@@$0A@@std@@@2@ABI@Z 1917fa60 f i c_cliententitydirectory.obj
 0002:00058b30       ?_Kfn@?$_Tmap_traits@IIU?$less@I@std@@V?$K2MapAllocator@U?$pair@$$CBII@std@@@@$0A@@std@@SAABIABU?$pair@$$CBII@2@@Z 1917fb30 f i c_cliententitydirectory.obj
 0002:00058b50       ?_Myval@?$_Tree@V?$_Tmap_traits@IPAVIGameEntity@@U?$less@I@std@@V?$K2MapAllocator@U?$pair@$$CBIPAVIGameEntity@@@std@@@@$0A@@std@@@std@@KAAAU?$pair@$$CBIPAVIGameEntity@@@2@PAU_Node@?$_Tree_nod@V?$_Tmap_traits@IPAVIGameEntity@@U?$less@I@std@@V?$K2MapAllocator@U?$pair@$$CBIPAVIGameEntity@@@std@@@@$0A@@std@@@2@@Z 1917fb50 f i c_cliententitydirectory.obj
 0002:00058b70       ?size@?$_Tree@V?$_Tmap_traits@IPAVIGameEntity@@U?$less@I@std@@V?$K2MapAllocator@U?$pair@$$CBIPAVIGameEntity@@@std@@@@$0A@@std@@@std@@QBEIXZ 1917fb70 f i c_cliententitydirectory.obj
 0002:00058b90       ?insert@?$_Tree@V?$_Tmap_traits@IPAVIGameEntity@@U?$less@I@std@@V?$K2MapAllocator@U?$pair@$$CBIPAVIGameEntity@@@std@@@@$0A@@std@@@std@@QAE?AU?$pair@Viterator@?$_Tree@V?$_Tmap_traits@IPAVIGameEntity@@U?$less@I@std@@V?$K2MapAllocator@U?$pair@$$CBIPAVIGameEntity@@@std@@@@$0A@@std@@@std@@_N@2@ABU?$pair@$$CBIPAVIGameEntity@@@2@@Z 1917fb90 f i c_cliententitydirectory.obj
 0002:00058fb0       ?_Insert@?$_Tree@V?$_Tmap_traits@IPAVIGameEntity@@U?$less@I@std@@V?$K2MapAllocator@U?$pair@$$CBIPAVIGameEntity@@@std@@@@$0A@@std@@@std@@IAE?AViterator@12@_NPAU_Node@?$_Tree_nod@V?$_Tmap_traits@IPAVIGameEntity@@U?$less@I@std@@V?$K2MapAllocator@U?$pair@$$CBIPAVIGameEntity@@@std@@@@$0A@@std@@@2@ABU?$pair@$$CBIPAVIGameEntity@@@2@@Z 1917ffb0 f i c_cliententitydirectory.obj
 0002:00059570       ?_Lbound@?$_Tree@V?$_Tmap_traits@IPAVIGameEntity@@U?$less@I@std@@V?$K2MapAllocator@U?$pair@$$CBIPAVIGameEntity@@@std@@@@$0A@@std@@@std@@IBEPAU_Node@?$_Tree_nod@V?$_Tmap_traits@IPAVIGameEntity@@U?$less@I@std@@V?$K2MapAllocator@U?$pair@$$CBIPAVIGameEntity@@@std@@@@$0A@@std@@@2@ABI@Z 19180570 f i c_cliententitydirectory.obj
 0002:00059640       ?_Kfn@?$_Tmap_traits@IPAVIGameEntity@@U?$less@I@std@@V?$K2MapAllocator@U?$pair@$$CBIPAVIGameEntity@@@std@@@@$0A@@std@@SAABIABU?$pair@$$CBIPAVIGameEntity@@@2@@Z 19180640 f i c_cliententitydirectory.obj
 0002:00059660       ?_Myval@?$list@PAVIGameEntity@@V?$K2ListAllocator@PAVIGameEntity@@@@@std@@KAAAPAVIGameEntity@@PAU_Node@?$_List_nod@PAVIGameEntity@@V?$K2ListAllocator@PAVIGameEntity@@@@@2@@Z 19180660 f i c_cliententitydirectory.obj
 0002:00059680       ?_Buynode@?$list@PAVIGameEntity@@V?$K2ListAllocator@PAVIGameEntity@@@@@std@@IAEPAU_Node@?$_List_nod@PAVIGameEntity@@V?$K2ListAllocator@PAVIGameEntity@@@@@2@PAU342@0ABQAVIGameEntity@@@Z 19180680 f i c_cliententitydirectory.obj
 0002:00059820       ?_Incsize@?$list@PAVIGameEntity@@V?$K2ListAllocator@PAVIGameEntity@@@@@std@@IAEXI@Z 19180820 f i c_cliententitydirectory.obj
 0002:00059900       ?destroy@?$allocator@PAU_Node@?$_List_nod@PAVIGameEntity@@V?$K2ListAllocator@PAVIGameEntity@@@@@std@@@std@@QAEXPAPAU_Node@?$_List_nod@PAVIGameEntity@@V?$K2ListAllocator@PAVIGameEntity@@@@@2@@Z 19180900 f i c_cliententitydirectory.obj
 0002:00059930       ??0iterator@?$_Tree@V?$_Tmap_traits@IIU?$less@I@std@@V?$K2MapAllocator@U?$pair@$$CBII@std@@@@$0A@@std@@@std@@QAE@XZ 19180930 f i c_cliententitydirectory.obj
 0002:00059960       ?_Dec@const_iterator@?$_Tree@V?$_Tmap_traits@IIU?$less@I@std@@V?$K2MapAllocator@U?$pair@$$CBII@std@@@@$0A@@std@@@std@@QAEXXZ 19180960 f i c_cliententitydirectory.obj
 0002:00059c20       ?_Destroy@?$vector@PAVIBitEntity@@V?$K2VectorAllocator@PAVIBitEntity@@@@@std@@IAEXPAPAVIBitEntity@@0@Z 19180c20 f i c_cliententitydirectory.obj
 0002:00059c60       ?_Insert_n@?$vector@PAVIBitEntity@@V?$K2VectorAllocator@PAVIBitEntity@@@@@std@@IAEXV?$_Vector_iterator@PAVIBitEntity@@V?$K2VectorAllocator@PAVIBitEntity@@@@@2@IABQAVIBitEntity@@@Z 19180c60 f i c_cliententitydirectory.obj
 0002:0005a110       ?deallocate@?$K2VectorAllocator@PAVIBitEntity@@@@QAEXPAPAVIBitEntity@@I@Z 19181110 f i c_cliententitydirectory.obj
 0002:0005a150       ??0iterator@?$_Tree@V?$_Tmap_traits@IPAVIGameEntity@@U?$less@I@std@@V?$K2MapAllocator@U?$pair@$$CBIPAVIGameEntity@@@std@@@@$0A@@std@@@std@@QAE@XZ 19181150 f i c_cliententitydirectory.obj
 0002:0005a180       ??Fiterator@?$_Tree@V?$_Tmap_traits@IPAVIGameEntity@@U?$less@I@std@@V?$K2MapAllocator@U?$pair@$$CBIPAVIGameEntity@@@std@@@@$0A@@std@@@std@@QAEAAV012@XZ 19181180 f i c_cliententitydirectory.obj
 0002:0005a1b0       ??0const_iterator@?$_Tree@V?$_Tmap_traits@IPAVIGameEntity@@U?$less@I@std@@V?$K2MapAllocator@U?$pair@$$CBIPAVIGameEntity@@@std@@@@$0A@@std@@@std@@QAE@PAU_Node@?$_Tree_nod@V?$_Tmap_traits@IPAVIGameEntity@@U?$less@I@std@@V?$K2MapAllocator@U?$pair@$$CBIPAVIGameEntity@@@std@@@@$0A@@std@@@2@PBV12@@Z 191811b0 f i c_cliententitydirectory.obj
 0002:0005a240       ??Dconst_iterator@?$_Tree@V?$_Tmap_traits@IPAVIGameEntity@@U?$less@I@std@@V?$K2MapAllocator@U?$pair@$$CBIPAVIGameEntity@@@std@@@@$0A@@std@@@std@@QBEABU?$pair@$$CBIPAVIGameEntity@@@2@XZ 19181240 f i c_cliententitydirectory.obj
 0002:0005a300       ?_Inc@const_iterator@?$_Tree@V?$_Tmap_traits@IPAVIGameEntity@@U?$less@I@std@@V?$K2MapAllocator@U?$pair@$$CBIPAVIGameEntity@@@std@@@@$0A@@std@@@std@@QAEXXZ 19181300 f i c_cliententitydirectory.obj
 0002:0005a470       ??E?$_Iterator@$00@?$list@PAVIGameEntity@@V?$K2ListAllocator@PAVIGameEntity@@@@@std@@QAE?AV012@H@Z 19181470 f i c_cliententitydirectory.obj
 0002:0005a520       ??0?$_Const_iterator@$00@?$list@PAVIGameEntity@@V?$K2ListAllocator@PAVIGameEntity@@@@@std@@QAE@PAU_Node@?$_List_nod@PAVIGameEntity@@V?$K2ListAllocator@PAVIGameEntity@@@@@2@PBV12@@Z 19181520 f i c_cliententitydirectory.obj
 0002:0005a5b0       ?_Mynode@?$_Const_iterator@$00@?$list@PAVIGameEntity@@V?$K2ListAllocator@PAVIGameEntity@@@@@std@@QBEPAU_Node@?$_List_nod@PAVIGameEntity@@V?$K2ListAllocator@PAVIGameEntity@@@@@3@XZ 191815b0 f i c_cliententitydirectory.obj
 0002:0005a5d0       ?_Compat@?$_Const_iterator@$00@?$list@PAVIGameEntity@@V?$K2ListAllocator@PAVIGameEntity@@@@@std@@QBEXABV123@@Z 191815d0 f i c_cliententitydirectory.obj
 0002:0005a690       ??0?$_Vector_iterator@PAVIBitEntity@@V?$K2VectorAllocator@PAVIBitEntity@@@@@std@@QAE@PAPAVIBitEntity@@PBV_Container_base@1@@Z 19181690 f i c_cliententitydirectory.obj
 0002:0005a6d0       ??H?$_Vector_iterator@PAVIBitEntity@@V?$K2VectorAllocator@PAVIBitEntity@@@@@std@@QBE?AV01@H@Z 191816d0 f i c_cliententitydirectory.obj
 0002:0005a780       ??G?$_Vector_iterator@PAVIBitEntity@@V?$K2VectorAllocator@PAVIBitEntity@@@@@std@@QBEHABV?$_Vector_const_iterator@PAVIBitEntity@@V?$K2VectorAllocator@PAVIBitEntity@@@@@1@@Z 19181780 f i c_cliententitydirectory.obj
 0002:0005a7b0       ??9?$_Vector_const_iterator@PAVIBitEntity@@V?$K2VectorAllocator@PAVIBitEntity@@@@@std@@QBE_NABV01@@Z 191817b0 f i c_cliententitydirectory.obj
 0002:0005a7f0       ??M?$_Vector_const_iterator@PAVIBitEntity@@V?$K2VectorAllocator@PAVIBitEntity@@@@@std@@QBE_NABV01@@Z 191817f0 f i c_cliententitydirectory.obj
 0002:0005a830       ??0?$_Bidit@U?$pair@$$CBIPAVIGameEntity@@@std@@HPBU12@ABU12@@std@@QAE@XZ 19181830 f i c_cliententitydirectory.obj
 0002:0005a860       ??0?$_Bidit@PAVIGameEntity@@HPBQAV1@ABQAV1@@std@@QAE@XZ 19181860 f i c_cliententitydirectory.obj
 0002:0005a890       ?max_size@?$_Tree@V?$_Tmap_traits@IIU?$less@I@std@@V?$K2MapAllocator@U?$pair@$$CBII@std@@@@$0A@@std@@@std@@QBEIXZ 19181890 f i c_cliententitydirectory.obj
 0002:0005a8c0       ?_Buynode@?$_Tree@V?$_Tmap_traits@IIU?$less@I@std@@V?$K2MapAllocator@U?$pair@$$CBII@std@@@@$0A@@std@@@std@@IAEPAU_Node@?$_Tree_nod@V?$_Tmap_traits@IIU?$less@I@std@@V?$K2MapAllocator@U?$pair@$$CBII@std@@@@$0A@@std@@@2@PAU342@00ABU?$pair@$$CBII@2@D@Z 191818c0 f i c_cliententitydirectory.obj
 0002:0005a9e0       ?GetFrame@IGameEntity@@QBEIXZ 191819e0 f i c_cliententitydirectory.obj
 0002:0005aa00       ?Invalidate@IGameEntity@@QAEXXZ 19181a00 f i c_cliententitydirectory.obj
 0002:0005aa20       ?max_size@?$_Tree@V?$_Tmap_traits@IPAVIGameEntity@@U?$less@I@std@@V?$K2MapAllocator@U?$pair@$$CBIPAVIGameEntity@@@std@@@@$0A@@std@@@std@@QBEIXZ 19181a20 f i c_cliententitydirectory.obj
 0002:0005aa50       ?_Buynode@?$_Tree@V?$_Tmap_traits@IPAVIGameEntity@@U?$less@I@std@@V?$K2MapAllocator@U?$pair@$$CBIPAVIGameEntity@@@std@@@@$0A@@std@@@std@@IAEPAU_Node@?$_Tree_nod@V?$_Tmap_traits@IPAVIGameEntity@@U?$less@I@std@@V?$K2MapAllocator@U?$pair@$$CBIPAVIGameEntity@@@std@@@@$0A@@std@@@2@PAU342@00ABU?$pair@$$CBIPAVIGameEntity@@@2@D@Z 19181a50 f i c_cliententitydirectory.obj
 0002:0005ab70       ?max_size@?$list@PAVIGameEntity@@V?$K2ListAllocator@PAVIGameEntity@@@@@std@@QBEIXZ 19181b70 f i c_cliententitydirectory.obj
 0002:0005aba0       ?construct@?$allocator@PAVIGameEntity@@@std@@QAEXPAPAVIGameEntity@@ABQAV3@@Z 19181ba0 f i c_cliententitydirectory.obj
 0002:0005abd0       ?allocate@?$K2ListAllocator@U_Node@?$_List_nod@PAVIGameEntity@@V?$K2ListAllocator@PAVIGameEntity@@@@@std@@@@QAEPAU_Node@?$_List_nod@PAVIGameEntity@@V?$K2ListAllocator@PAVIGameEntity@@@@@std@@I@Z 19181bd0 f i c_cliententitydirectory.obj
 0002:0005ac20       ?construct@?$allocator@PAU_Node@?$_List_nod@PAVIGameEntity@@V?$K2ListAllocator@PAVIGameEntity@@@@@std@@@std@@QAEXPAPAU_Node@?$_List_nod@PAVIGameEntity@@V?$K2ListAllocator@PAVIGameEntity@@@@@2@ABQAU342@@Z 19181c20 f i c_cliententitydirectory.obj
 0002:0005ac50       ??0const_iterator@?$_Tree@V?$_Tmap_traits@IIU?$less@I@std@@V?$K2MapAllocator@U?$pair@$$CBII@std@@@@$0A@@std@@@std@@QAE@XZ 19181c50 f i c_cliententitydirectory.obj
 0002:0005ac90       ?max_size@?$vector@PAVIBitEntity@@V?$K2VectorAllocator@PAVIBitEntity@@@@@std@@QBEIXZ 19181c90 f i c_cliententitydirectory.obj
 0002:0005acc0       ?_Xlen@?$vector@PAVIBitEntity@@V?$K2VectorAllocator@PAVIBitEntity@@@@@std@@KAXXZ 19181cc0 f i c_cliententitydirectory.obj
 0002:0005ad70       ?allocate@?$K2VectorAllocator@PAVIBitEntity@@@@QAEPAPAVIBitEntity@@I@Z 19181d70 f i c_cliententitydirectory.obj
 0002:0005adc0       ??0const_iterator@?$_Tree@V?$_Tmap_traits@IPAVIGameEntity@@U?$less@I@std@@V?$K2MapAllocator@U?$pair@$$CBIPAVIGameEntity@@@std@@@@$0A@@std@@@std@@QAE@XZ 19181dc0 f i c_cliententitydirectory.obj
 0002:0005ae00       ??Fconst_iterator@?$_Tree@V?$_Tmap_traits@IPAVIGameEntity@@U?$less@I@std@@V?$K2MapAllocator@U?$pair@$$CBIPAVIGameEntity@@@std@@@@$0A@@std@@@std@@QAEAAV012@XZ 19181e00 f i c_cliententitydirectory.obj
 0002:0005ae30       ??Y?$_Vector_iterator@PAVIBitEntity@@V?$K2VectorAllocator@PAVIBitEntity@@@@@std@@QAEAAV01@H@Z 19181e30 f i c_cliententitydirectory.obj
 0002:0005ae60       ??0?$_Vector_const_iterator@PAVIBitEntity@@V?$K2VectorAllocator@PAVIBitEntity@@@@@std@@QAE@PAPAVIBitEntity@@PBV_Container_base@1@@Z 19181e60 f i c_cliententitydirectory.obj
 0002:0005af60       ??G?$_Vector_const_iterator@PAVIBitEntity@@V?$K2VectorAllocator@PAVIBitEntity@@@@@std@@QBEHABV01@@Z 19181f60 f i c_cliententitydirectory.obj
 0002:0005afa0       ??8?$_Vector_const_iterator@PAVIBitEntity@@V?$K2VectorAllocator@PAVIBitEntity@@@@@std@@QBE_NABV01@@Z 19181fa0 f i c_cliententitydirectory.obj
 0002:0005afe0       ?_Compat@?$_Vector_const_iterator@PAVIBitEntity@@V?$K2VectorAllocator@PAVIBitEntity@@@@@std@@QBEXABV12@@Z 19181fe0 f i c_cliententitydirectory.obj
 0002:0005b090       ??0?$pair@Viterator@?$_Tree@V?$_Tmap_traits@IIU?$less@I@std@@V?$K2MapAllocator@U?$pair@$$CBII@std@@@@$0A@@std@@@std@@_N@std@@QAE@ABViterator@?$_Tree@V?$_Tmap_traits@IIU?$less@I@std@@V?$K2MapAllocator@U?$pair@$$CBII@std@@@@$0A@@std@@@1@AB_N@Z 19182090 f i c_cliententitydirectory.obj
 0002:0005b0d0       ??0?$pair@Viterator@?$_Tree@V?$_Tmap_traits@IPAVIGameEntity@@U?$less@I@std@@V?$K2MapAllocator@U?$pair@$$CBIPAVIGameEntity@@@std@@@@$0A@@std@@@std@@_N@std@@QAE@ABViterator@?$_Tree@V?$_Tmap_traits@IPAVIGameEntity@@U?$less@I@std@@V?$K2MapAllocator@U?$pair@$$CBIPAVIGameEntity@@@std@@@@$0A@@std@@@1@AB_N@Z 191820d0 f i c_cliententitydirectory.obj
 0002:0005b110       ??0?$_Ranit@PAVIBitEntity@@HPBQAV1@ABQAV1@@std@@QAE@XZ 19182110 f i c_cliententitydirectory.obj
 0002:0005b140       ?max_size@?$allocator@U?$pair@$$CBII@std@@@std@@QBEIXZ 19182140 f i c_cliententitydirectory.obj
 0002:0005b180       ?allocate@?$K2MapAllocator@U_Node@?$_Tree_nod@V?$_Tmap_traits@IIU?$less@I@std@@V?$K2MapAllocator@U?$pair@$$CBII@std@@@@$0A@@std@@@std@@@@QAEPAU_Node@?$_Tree_nod@V?$_Tmap_traits@IIU?$less@I@std@@V?$K2MapAllocator@U?$pair@$$CBII@std@@@@$0A@@std@@@std@@I@Z 19182180 f i c_cliententitydirectory.obj
 0002:0005b1d0       ?max_size@?$allocator@U?$pair@$$CBIPAVIGameEntity@@@std@@@std@@QBEIXZ 191821d0 f i c_cliententitydirectory.obj
 0002:0005b210       ?allocate@?$K2MapAllocator@U_Node@?$_Tree_nod@V?$_Tmap_traits@IPAVIGameEntity@@U?$less@I@std@@V?$K2MapAllocator@U?$pair@$$CBIPAVIGameEntity@@@std@@@@$0A@@std@@@std@@@@QAEPAU_Node@?$_Tree_nod@V?$_Tmap_traits@IPAVIGameEntity@@U?$less@I@std@@V?$K2MapAllocator@U?$pair@$$CBIPAVIGameEntity@@@std@@@@$0A@@std@@@std@@I@Z 19182210 f i c_cliententitydirectory.obj
 0002:0005b260       ?max_size@?$allocator@PAVIGameEntity@@@std@@QBEIXZ 19182260 f i c_cliententitydirectory.obj
 0002:0005b2a0       ??0_Node@?$_Tree_nod@V?$_Tmap_traits@IIU?$less@I@std@@V?$K2MapAllocator@U?$pair@$$CBII@std@@@@$0A@@std@@@std@@QAE@PAU012@00ABU?$pair@$$CBII@2@D@Z 191822a0 f i c_cliententitydirectory.obj
 0002:0005b310       ?max_size@?$allocator@PAVIBitEntity@@@std@@QBEIXZ 19182310 f i c_cliententitydirectory.obj
 0002:0005b350       ?_Dec@const_iterator@?$_Tree@V?$_Tmap_traits@IPAVIGameEntity@@U?$less@I@std@@V?$K2MapAllocator@U?$pair@$$CBIPAVIGameEntity@@@std@@@@$0A@@std@@@std@@QAEXXZ 19182350 f i c_cliententitydirectory.obj
 0002:0005b610       ??Y?$_Vector_const_iterator@PAVIBitEntity@@V?$K2VectorAllocator@PAVIBitEntity@@@@@std@@QAEAAV01@H@Z 19182610 f i c_cliententitydirectory.obj
 0002:0005b740       ??0_Node@?$_Tree_nod@V?$_Tmap_traits@IPAVIGameEntity@@U?$less@I@std@@V?$K2MapAllocator@U?$pair@$$CBIPAVIGameEntity@@@std@@@@$0A@@std@@@std@@QAE@PAU012@00ABU?$pair@$$CBIPAVIGameEntity@@@2@D@Z 19182740 f i c_cliententitydirectory.obj
 0002:0005b7b0       ??$ParenStr@V?$basic_string@_WU?$char_traits@_W@std@@V?$K2StringAllocator@_W@@@std@@@@YA?AV?$basic_string@_WU?$char_traits@_W@std@@V?$K2StringAllocator@_W@@@std@@V01@@Z 191827b0 f i c_cliententitydirectory.obj
 0002:0005b890       ?XtoW@@YAABV?$basic_string@_WU?$char_traits@_W@std@@V?$K2StringAllocator@_W@@@std@@ABV12@@Z 19182890 f i c_cliententitydirectory.obj
 0002:0005b8b0       ??$_Destroy@U_Node@?$_Tree_nod@V?$_Tmap_traits@IPAVIGameEntity@@U?$less@I@std@@V?$K2MapAllocator@U?$pair@$$CBIPAVIGameEntity@@@std@@@@$0A@@std@@@std@@@std@@YAXPAU_Node@?$_Tree_nod@V?$_Tmap_traits@IPAVIGameEntity@@U?$less@I@std@@V?$K2MapAllocator@U?$pair@$$CBIPAVIGameEntity@@@std@@@@$0A@@std@@@0@@Z 191828b0 f i c_cliententitydirectory.obj
 0002:0005b8d0       ??$_Destroy@U_Node@?$_List_nod@PAVIGameEntity@@V?$K2ListAllocator@PAVIGameEntity@@@@@std@@@std@@YAXPAU_Node@?$_List_nod@PAVIGameEntity@@V?$K2ListAllocator@PAVIGameEntity@@@@@0@@Z 191828d0 f i c_cliententitydirectory.obj
 0002:0005b8f0       ??$unchecked_copy@PAPAVIBitEntity@@PAPAV1@@stdext@@YAPAPAVIBitEntity@@PAPAV1@00@Z 191828f0 f i c_cliententitydirectory.obj
 0002:0005b980       ??$unchecked_uninitialized_fill_n@PAPAVIBitEntity@@IPAV1@V?$K2VectorAllocator@PAVIBitEntity@@@@@stdext@@YAXPAPAVIBitEntity@@IABQAV1@AAV?$K2VectorAllocator@PAVIBitEntity@@@@@Z 19182980 f i c_cliententitydirectory.obj
 0002:0005b9e0       ??$_Destroy@PAU_Node@?$_List_nod@PAVIGameEntity@@V?$K2ListAllocator@PAVIGameEntity@@@@@std@@@std@@YAXPAPAU_Node@?$_List_nod@PAVIGameEntity@@V?$K2ListAllocator@PAVIGameEntity@@@@@0@@Z 191829e0 f i c_cliententitydirectory.obj
 0002:0005ba00       ??$_Destroy_range@PAVIBitEntity@@V?$K2VectorAllocator@PAVIBitEntity@@@@@std@@YAXPAPAVIBitEntity@@0AAV?$K2VectorAllocator@PAVIBitEntity@@@@@Z 19182a00 f i c_cliententitydirectory.obj
 0002:0005ba50       ??$_Umove@PAPAVIBitEntity@@@?$vector@PAVIBitEntity@@V?$K2VectorAllocator@PAVIBitEntity@@@@@std@@IAEPAPAVIBitEntity@@PAPAV2@00@Z 19182a50 f i c_cliententitydirectory.obj
 0002:0005ba90       ??$fill@PAPAVIBitEntity@@PAV1@@std@@YAXPAPAVIBitEntity@@0ABQAV1@@Z 19182a90 f i c_cliententitydirectory.obj
 0002:0005bae0       ??$_Unchecked_move_backward@PAPAVIBitEntity@@PAPAV1@@stdext@@YAPAPAVIBitEntity@@PAPAV1@00@Z 19182ae0 f i c_cliententitydirectory.obj
 0002:0005bb70       ??$_Construct@PAVIGameEntity@@PAV1@@std@@YAXPAPAVIGameEntity@@ABQAV1@@Z 19182b70 f i c_cliententitydirectory.obj
 0002:0005bbd0       ??$_Construct@PAU_Node@?$_List_nod@PAVIGameEntity@@V?$K2ListAllocator@PAVIGameEntity@@@@@std@@PAU123@@std@@YAXPAPAU_Node@?$_List_nod@PAVIGameEntity@@V?$K2ListAllocator@PAVIGameEntity@@@@@0@ABQAU120@@Z 19182bd0 f i c_cliententitydirectory.obj
 0002:0005bc30       ?GetClientNumber@CPlayer@@QBEHXZ 19182c30 f i c_cliententitydirectory.obj
 0002:0005bc50       ??$_Checked_base@PAPAVIBitEntity@@@std@@YAPAPAVIBitEntity@@AAPAPAV1@@Z 19182c50 f i c_cliententitydirectory.obj
 0002:0005bc80       ??$_Iter_random@PAPAVIBitEntity@@PAPAV1@@std@@YA?AUrandom_access_iterator_tag@0@ABQAPAVIBitEntity@@0@Z 19182c80 f i c_cliententitydirectory.obj
 0002:0005bca0       ??$_Ptr_cat@PAPAVIBitEntity@@PAPAV1@@std@@YA?AU_Scalar_ptr_iterator_tag@0@AAPAPAVIBitEntity@@0@Z 19182ca0 f i c_cliententitydirectory.obj
 0002:0005bcc0       ??$_Copy_opt@PAPAVIBitEntity@@PAPAV1@Urandom_access_iterator_tag@std@@@std@@YAPAPAVIBitEntity@@PAPAV1@00Urandom_access_iterator_tag@0@U_Scalar_ptr_iterator_tag@0@U_Range_checked_iterator_tag@0@@Z 19182cc0 f i c_cliententitydirectory.obj
 0002:0005bd70       ??$_Uninit_fill_n@PAPAVIBitEntity@@IPAV1@V?$K2VectorAllocator@PAVIBitEntity@@@@@std@@YAXPAPAVIBitEntity@@IABQAV1@AAV?$K2VectorAllocator@PAVIBitEntity@@@@U_Scalar_ptr_iterator_tag@0@U_Range_checked_iterator_tag@0@@Z 19182d70 f i c_cliententitydirectory.obj
 0002:0005bda0       ??$_Destroy_range@PAVIBitEntity@@V?$K2VectorAllocator@PAVIBitEntity@@@@@std@@YAXPAPAVIBitEntity@@0AAV?$K2VectorAllocator@PAVIBitEntity@@@@U_Scalar_ptr_iterator_tag@0@@Z 19182da0 f i c_cliententitydirectory.obj
 0002:0005bdc0       ??$_Unchecked_uninitialized_move@PAPAVIBitEntity@@PAPAV1@V?$K2VectorAllocator@PAVIBitEntity@@@@@stdext@@YAPAPAVIBitEntity@@PAPAV1@00AAV?$K2VectorAllocator@PAVIBitEntity@@@@@Z 19182dc0 f i c_cliententitydirectory.obj
 0002:0005be30       ??$_Fill@PAPAVIBitEntity@@PAV1@@std@@YAXPAPAVIBitEntity@@0ABQAV1@@Z 19182e30 f i c_cliententitydirectory.obj
 0002:0005be90       ??$_Move_cat@PAPAVIBitEntity@@@std@@YA?AU_Undefined_move_tag@0@ABQAPAVIBitEntity@@@Z 19182e90 f i c_cliententitydirectory.obj
 0002:0005beb0       ??$_Move_backward_opt@PAPAVIBitEntity@@PAPAV1@Urandom_access_iterator_tag@std@@U_Undefined_move_tag@3@@std@@YAPAPAVIBitEntity@@PAPAV1@00Urandom_access_iterator_tag@0@U_Undefined_move_tag@0@U_Range_checked_iterator_tag@0@@Z 19182eb0 f i c_cliententitydirectory.obj
 0002:0005bf10       ??$_Checked_base@PAPAVIBitEntity@@@std@@YAPAPAVIBitEntity@@AAPAPAV1@U_Unchanged_checked_iterator_base_type_tag@0@@Z 19182f10 f i c_cliententitydirectory.obj
 0002:0005bf30       ??$_Debug_range@PAPAVIBitEntity@@@std@@YAXPAPAVIBitEntity@@0PB_WI@Z 19182f30 f i c_cliententitydirectory.obj
 0002:0005bf80       ??$_Debug_pointer@PAVIBitEntity@@@std@@YAXPAPAVIBitEntity@@PB_WI@Z 19182f80 f i c_cliententitydirectory.obj
 0002:0005bfc0       ??$unchecked_fill_n@PAPAVIBitEntity@@IPAV1@@stdext@@YAXPAPAVIBitEntity@@IABQAV1@@Z 19182fc0 f i c_cliententitydirectory.obj
 0002:0005c010       ??$_Uninit_move@PAPAVIBitEntity@@PAPAV1@V?$K2VectorAllocator@PAVIBitEntity@@@@U_Undefined_move_tag@std@@@std@@YAPAPAVIBitEntity@@PAPAV1@00AAV?$K2VectorAllocator@PAVIBitEntity@@@@U_Undefined_move_tag@0@U_Range_checked_iterator_tag@0@@Z 19183010 f i c_cliententitydirectory.obj
 0002:0005c050       ??$_Copy_backward_opt@PAPAVIBitEntity@@PAPAV1@Urandom_access_iterator_tag@std@@@std@@YAPAPAVIBitEntity@@PAPAV1@00Urandom_access_iterator_tag@0@U_Scalar_ptr_iterator_tag@0@U_Range_checked_iterator_tag@0@@Z 19183050 f i c_cliententitydirectory.obj
 0002:0005c100       ??$_Iter_cat@PAPAVIBitEntity@@@std@@YA?AUrandom_access_iterator_tag@0@ABQAPAVIBitEntity@@@Z 19183100 f i c_cliententitydirectory.obj
 0002:0005c120       ??$_Debug_range2@PAPAVIBitEntity@@@std@@YAXPAPAVIBitEntity@@0PB_WIUrandom_access_iterator_tag@0@@Z 19183120 f i c_cliententitydirectory.obj
 0002:0005c1a0       ??$_Fill_n@PAPAVIBitEntity@@IPAV1@@std@@YAXPAPAVIBitEntity@@IABQAV1@Urandom_access_iterator_tag@0@U_Range_checked_iterator_tag@0@@Z 191831a0 f i c_cliententitydirectory.obj
 0002:0005c200       ??$unchecked_uninitialized_copy@PAPAVIBitEntity@@PAPAV1@V?$K2VectorAllocator@PAVIBitEntity@@@@@stdext@@YAPAPAVIBitEntity@@PAPAV1@00AAV?$K2VectorAllocator@PAVIBitEntity@@@@@Z 19183200 f i c_cliententitydirectory.obj
 0002:0005c270       ??$_Fill_n@PAPAVIBitEntity@@IPAV1@@std@@YAXPAPAVIBitEntity@@IABQAV1@U_Range_checked_iterator_tag@0@@Z 19183270 f i c_cliententitydirectory.obj
 0002:0005c2c0       ??$_Uninit_copy@PAPAVIBitEntity@@PAPAV1@V?$K2VectorAllocator@PAVIBitEntity@@@@@std@@YAPAPAVIBitEntity@@PAPAV1@00AAV?$K2VectorAllocator@PAVIBitEntity@@@@U_Scalar_ptr_iterator_tag@0@U_Range_checked_iterator_tag@0@@Z 191832c0 f i c_cliententitydirectory.obj
 0002:0005c360       ?GetOwnerIndex@ISlaveEntity@@QBEIXZ 19183360 f i c_cliententitydirectory.obj
 0002:0005c380       ?GetType@CClientEntity@@QBEGXZ 19183380 f i c_cliententitydirectory.obj
 0002:0005c3a0       ?GetIndex@CClientEntity@@QBEIXZ 191833a0 f i c_cliententitydirectory.obj
 0002:0005c3c0       ?SetNextClientEntity@CClientEntity@@QAEXPAV1@@Z 191833c0 f i c_cliententitydirectory.obj
 0002:0005c420       ?GetNextClientEntity@CClientEntity@@QAEPAV1@XZ 19183420 f i c_cliententitydirectory.obj
 0002:0005c470       ?GetState@CHostClient@@QBE?AW4EClientState@@XZ 19183470 f i c_cliententitydirectory.obj
 0002:0005c490       ?SetCurrentEntity@CGameClient@@QAEXPAVCClientEntity@@@Z 19183490 f i c_cliententitydirectory.obj
 0002:0005c4c0       ?GetCurrentServerSnapshot@CGameClient@@QAEAAVCSnapshot@@XZ 191834c0 f i c_cliententitydirectory.obj
 0002:0005c4f0       ?GetClient@CGameClient@@QBEPAVCHostClient@@XZ 191834f0 f i c_cliententitydirectory.obj
 0002:0005c520       ?push_back@?$vector@IV?$K2VectorAllocator@I@@@std@@QAEXABI@Z 19183520 f i c_cliententitydirectory.obj
 0002:0005c5d0       ?clear@?$vector@IV?$K2VectorAllocator@I@@@std@@QAEXXZ 191835d0 f i c_cliententitydirectory.obj
 0002:0005c690       ??1?$_Vb_reference@V?$vector@_NV?$K2VectorAllocator@_N@@@std@@@std@@QAE@XZ 19183690 f i c_cliententitydirectory.obj
 0002:0005c6c0       ??1?$_Vb_iter_base@V?$vector@_NV?$K2VectorAllocator@_N@@@std@@@std@@QAE@XZ 191836c0 f i c_cliententitydirectory.obj
 0002:0005c6f0       ??1?$_Ranit@_NHPA_N_N@std@@QAE@XZ 191836f0 f i c_cliententitydirectory.obj
 0002:0005c720       ?capacity@?$vector@IV?$K2VectorAllocator@I@@@std@@QBEIXZ 19183720 f i c_cliententitydirectory.obj
 0002:0005c770       ?insert@?$vector@IV?$K2VectorAllocator@I@@@std@@QAE?AV?$_Vector_iterator@IV?$K2VectorAllocator@I@@@2@V32@ABI@Z 19183770 f i c_cliententitydirectory.obj
 0002:0005c8e0       ?erase@?$vector@IV?$K2VectorAllocator@I@@@std@@QAE?AV?$_Vector_iterator@IV?$K2VectorAllocator@I@@@2@V32@0@Z 191838e0 f i c_cliententitydirectory.obj
 0002:0005ca60       ?_Ufill@?$vector@IV?$K2VectorAllocator@I@@@std@@IAEPAIPAIIABI@Z 19183a60 f i c_cliententitydirectory.obj
 0002:0005cab0       ?_Orphan_range@?$vector@IV?$K2VectorAllocator@I@@@std@@IBEXPAI0@Z 19183ab0 f i c_cliententitydirectory.obj
 0002:0005cb50       ?push_back@?$deque@IV?$K2DequeAllocator@I@@@std@@QAEXABI@Z 19183b50 f i c_cliententitydirectory.obj
 0002:0005cc70       ??A?$vector@_NV?$K2VectorAllocator@_N@@@std@@QAE?AV?$_Vb_reference@V?$vector@_NV?$K2VectorAllocator@_N@@@std@@@1@I@Z 19183c70 f i c_cliententitydirectory.obj
 0002:0005cd60       ??1?$_Vb_iterator@V?$vector@_NV?$K2VectorAllocator@_N@@@std@@@std@@QAE@XZ 19183d60 f i c_cliententitydirectory.obj
 0002:0005cd90       ??1?$_Vb_const_iterator@V?$vector@_NV?$K2VectorAllocator@_N@@@std@@@std@@QAE@XZ 19183d90 f i c_cliententitydirectory.obj
 0002:0005cdc0       ?begin@?$vector@_NV?$K2VectorAllocator@_N@@@std@@QAE?AV?$_Vb_iterator@V?$vector@_NV?$K2VectorAllocator@_N@@@std@@@2@XZ 19183dc0 f i c_cliententitydirectory.obj
 0002:0005ce80       ??4?$_Vb_reference@V?$vector@_NV?$K2VectorAllocator@_N@@@std@@@std@@QAEAAV01@_N@Z 19183e80 f i c_cliententitydirectory.obj
 0002:0005cf00       ??B?$_Vb_reference@V?$vector@_NV?$K2VectorAllocator@_N@@@std@@@std@@QBE_NXZ 19183f00 f i c_cliententitydirectory.obj
 0002:0005cf40       ??0?$_Vector_iterator@IV?$K2VectorAllocator@I@@@std@@QAE@ABV01@@Z 19183f40 f i c_cliententitydirectory.obj
 0002:0005cf70       ??1iterator@?$_Tree@V?$_Tmap_traits@IIU?$less@I@std@@V?$K2MapAllocator@U?$pair@$$CBII@std@@@@$0A@@std@@@std@@QAE@XZ 19183f70 f i c_cliententitydirectory.obj
 0002:0005cfa0       ??0?$_Vector_const_iterator@IV?$K2VectorAllocator@I@@@std@@QAE@ABV01@@Z 19183fa0 f i c_cliententitydirectory.obj
 0002:0005cfe0       ??1const_iterator@?$_Tree@V?$_Tmap_traits@IIU?$less@I@std@@V?$K2MapAllocator@U?$pair@$$CBII@std@@@@$0A@@std@@@std@@QAE@XZ 19183fe0 f i c_cliententitydirectory.obj
 0002:0005d010       ??0?$_Ranit@IHPBIABI@std@@QAE@ABU01@@Z 19184010 f i c_cliententitydirectory.obj
 0002:0005d040       ??1?$_Bidit@U?$pair@$$CBII@std@@HPBU12@ABU12@@std@@QAE@XZ 19184040 f i c_cliententitydirectory.obj
 0002:0005d070       ?_Insert_n@?$vector@IV?$K2VectorAllocator@I@@@std@@IAEXV?$_Vector_iterator@IV?$K2VectorAllocator@I@@@2@IABI@Z 19184070 f i c_cliententitydirectory.obj
 0002:0005d520       ?size@?$deque@IV?$K2DequeAllocator@I@@@std@@QBEIXZ 19184520 f i c_cliententitydirectory.obj
 0002:0005d540       ?back@?$deque@IV?$K2DequeAllocator@I@@@std@@QAEAAIXZ 19184540 f i c_cliententitydirectory.obj
 0002:0005d610       ?pop_back@?$deque@IV?$K2DequeAllocator@I@@@std@@QAEXXZ 19184610 f i c_cliententitydirectory.obj
 0002:0005d720       ?_Growmap@?$deque@IV?$K2DequeAllocator@I@@@std@@IAEXI@Z 19184720 f i c_cliententitydirectory.obj
 0002:0005d9e0       ?allocate@?$K2DequeAllocator@I@@QAEPAII@Z 191849e0 f i c_cliententitydirectory.obj
 0002:0005da30       ?_Left@?$_Tree@V?$_Tmap_traits@IIU?$less@I@std@@V?$K2MapAllocator@U?$pair@$$CBII@std@@@@$0A@@std@@@std@@KAAAPAU_Node@?$_Tree_nod@V?$_Tmap_traits@IIU?$less@I@std@@V?$K2MapAllocator@U?$pair@$$CBII@std@@@@$0A@@std@@@2@PAU342@@Z 19184a30 f i c_cliententitydirectory.obj
 0002:0005da50       ?_Parent@?$_Tree@V?$_Tmap_traits@IIU?$less@I@std@@V?$K2MapAllocator@U?$pair@$$CBII@std@@@@$0A@@std@@@std@@KAAAPAU_Node@?$_Tree_nod@V?$_Tmap_traits@IIU?$less@I@std@@V?$K2MapAllocator@U?$pair@$$CBII@std@@@@$0A@@std@@@2@PAU342@@Z 19184a50 f i c_cliententitydirectory.obj
 0002:0005da70       ?_Right@?$_Tree@V?$_Tmap_traits@IIU?$less@I@std@@V?$K2MapAllocator@U?$pair@$$CBII@std@@@@$0A@@std@@@std@@KAAAPAU_Node@?$_Tree_nod@V?$_Tmap_traits@IIU?$less@I@std@@V?$K2MapAllocator@U?$pair@$$CBII@std@@@@$0A@@std@@@2@PAU342@@Z 19184a70 f i c_cliententitydirectory.obj
 0002:0005da90       ?begin@?$_Tree@V?$_Tmap_traits@IIU?$less@I@std@@V?$K2MapAllocator@U?$pair@$$CBII@std@@@@$0A@@std@@@std@@QAE?AViterator@12@XZ 19184a90 f i c_cliententitydirectory.obj
 0002:0005dae0       ?end@?$_Tree@V?$_Tmap_traits@IIU?$less@I@std@@V?$K2MapAllocator@U?$pair@$$CBII@std@@@@$0A@@std@@@std@@QAE?AViterator@12@XZ 19184ae0 f i c_cliententitydirectory.obj
 0002:0005db30       ?deallocate@?$K2MapAllocator@U_Node@?$_Tree_nod@V?$_Tmap_traits@IIU?$less@I@std@@V?$K2MapAllocator@U?$pair@$$CBII@std@@@@$0A@@std@@@std@@@@QAEXPAU_Node@?$_Tree_nod@V?$_Tmap_traits@IIU?$less@I@std@@V?$K2MapAllocator@U?$pair@$$CBII@std@@@@$0A@@std@@@std@@I@Z 19184b30 f i c_cliententitydirectory.obj
 0002:0005db70       ?resize@?$vector@_NV?$K2VectorAllocator@_N@@@std@@QAEXI_N@Z 19184b70 f i c_cliententitydirectory.obj
 0002:0005dce0       ?size@?$vector@_NV?$K2VectorAllocator@_N@@@std@@QBEIXZ 19184ce0 f i c_cliententitydirectory.obj
 0002:0005dd00       ?end@?$vector@_NV?$K2VectorAllocator@_N@@@std@@QAE?AV?$_Vb_iterator@V?$vector@_NV?$K2VectorAllocator@_N@@@std@@@2@XZ 19184d00 f i c_cliententitydirectory.obj
 0002:0005ddc0       ?erase@?$vector@_NV?$K2VectorAllocator@_N@@@std@@QAE?AV?$_Vb_iterator@V?$vector@_NV?$K2VectorAllocator@_N@@@std@@@2@V32@0@Z 19184dc0 f i c_cliententitydirectory.obj
 0002:0005e120       ??0?$_Vb_iterator@V?$vector@_NV?$K2VectorAllocator@_N@@@std@@@std@@QAE@ABV01@@Z 19185120 f i c_cliententitydirectory.obj
 0002:0005e150       ??0?$_Vb_const_iterator@V?$vector@_NV?$K2VectorAllocator@_N@@@std@@@std@@QAE@ABV01@@Z 19185150 f i c_cliententitydirectory.obj
 0002:0005e180       ?_Insert_n@?$vector@_NV?$K2VectorAllocator@_N@@@std@@IAEXV?$_Vb_iterator@V?$vector@_NV?$K2VectorAllocator@_N@@@std@@@2@I_N@Z 19185180 f i c_cliententitydirectory.obj
 0002:0005e320       ?_Orphan_range@?$vector@_NV?$K2VectorAllocator@_N@@@std@@IBEXII@Z 19185320 f i c_cliententitydirectory.obj
 0002:0005e440       ?begin@?$vector@IV?$K2VectorAllocator@I@@@std@@QBE?AV?$_Vector_const_iterator@IV?$K2VectorAllocator@I@@@2@XZ 19185440 f i c_cliententitydirectory.obj
 0002:0005e490       ?_Trim@?$vector@_NV?$K2VectorAllocator@_N@@@std@@IAEXI@Z 19185490 f i c_cliententitydirectory.obj
 0002:0005e640       ??H?$_Vector_iterator@IV?$K2VectorAllocator@I@@@std@@QBE?AV01@H@Z 19185640 f i c_cliententitydirectory.obj
 0002:0005e6f0       ??M?$_Vector_const_iterator@IV?$K2VectorAllocator@I@@@std@@QBE_NABV01@@Z 191856f0 f i c_cliententitydirectory.obj
 0002:0005e730       ??M?$_Vb_const_iterator@V?$vector@_NV?$K2VectorAllocator@_N@@@std@@@std@@QBE_NABV01@@Z 19185730 f i c_cliententitydirectory.obj
 0002:0005e7b0       ??0?$_Vb_iter_base@V?$vector@_NV?$K2VectorAllocator@_N@@@std@@@std@@QAE@ABV01@@Z 191857b0 f i c_cliententitydirectory.obj
 0002:0005e8b0       ??0?$_Vb_iterator@V?$vector@_NV?$K2VectorAllocator@_N@@@std@@@std@@QAE@PAIPAV?$vector@_NV?$K2VectorAllocator@_N@@@1@@Z 191858b0 f i c_cliententitydirectory.obj
 0002:0005e8f0       ??0?$_Vb_const_iterator@V?$vector@_NV?$K2VectorAllocator@_N@@@std@@@std@@QAE@PBIPBV?$vector@_NV?$K2VectorAllocator@_N@@@1@@Z 191858f0 f i c_cliententitydirectory.obj
 0002:0005e930       ??D?$_Vb_iterator@V?$vector@_NV?$K2VectorAllocator@_N@@@std@@@std@@QBE?AV?$_Vb_reference@V?$vector@_NV?$K2VectorAllocator@_N@@@std@@@1@XZ 19185930 f i c_cliententitydirectory.obj
 0002:0005e980       ??Y?$_Vb_iterator@V?$vector@_NV?$K2VectorAllocator@_N@@@std@@@std@@QAEAAV01@H@Z 19185980 f i c_cliententitydirectory.obj
 0002:0005e9b0       ??Y?$_Vb_const_iterator@V?$vector@_NV?$K2VectorAllocator@_N@@@std@@@std@@QAEAAV01@H@Z 191859b0 f i c_cliententitydirectory.obj
 0002:0005ebf0       ??H?$_Vb_iterator@V?$vector@_NV?$K2VectorAllocator@_N@@@std@@@std@@QBE?AV01@H@Z 19185bf0 f i c_cliententitydirectory.obj
 0002:0005eca0       ??G?$_Vb_iterator@V?$vector@_NV?$K2VectorAllocator@_N@@@std@@@std@@QBEHABV?$_Vb_const_iterator@V?$vector@_NV?$K2VectorAllocator@_N@@@std@@@1@@Z 19185ca0 f i c_cliententitydirectory.obj
 0002:0005ecd0       ??0?$_Vb_reference@V?$vector@_NV?$K2VectorAllocator@_N@@@std@@@std@@QAE@ABV?$_Vb_iter_base@V?$vector@_NV?$K2VectorAllocator@_N@@@std@@@1@@Z 19185cd0 f i c_cliententitydirectory.obj
 0002:0005ed00       ?_Getptr@?$_Vb_reference@V?$vector@_NV?$K2VectorAllocator@_N@@@std@@@std@@QBEPAIXZ 19185d00 f i c_cliententitydirectory.obj
 0002:0005edc0       ?_Mask@?$_Vb_reference@V?$vector@_NV?$K2VectorAllocator@_N@@@std@@@std@@IBEIXZ 19185dc0 f i c_cliententitydirectory.obj
 0002:0005edf0       ??1?$_Deque_iterator@IV?$K2DequeAllocator@I@@$00@std@@QAE@XZ 19185df0 f i c_cliententitydirectory.obj
 0002:0005ee20       ??0iterator@?$_Tree@V?$_Tmap_traits@IIU?$less@I@std@@V?$K2MapAllocator@U?$pair@$$CBII@std@@@@$0A@@std@@@std@@QAE@ABV012@@Z 19185e20 f i c_cliententitydirectory.obj
 0002:0005ee50       ??0?$_Ranit@_NHPA_N_N@std@@QAE@XZ 19185e50 f i c_cliententitydirectory.obj
 0002:0005ee80       ??1?$_Deque_const_iterator@IV?$K2DequeAllocator@I@@$00@std@@QAE@XZ 19185e80 f i c_cliententitydirectory.obj
 0002:0005eeb0       ??0const_iterator@?$_Tree@V?$_Tmap_traits@IIU?$less@I@std@@V?$K2MapAllocator@U?$pair@$$CBII@std@@@@$0A@@std@@@std@@QAE@ABV012@@Z 19185eb0 f i c_cliententitydirectory.obj
 0002:0005eef0       ??0?$_Bidit@U?$pair@$$CBII@std@@HPBU12@ABU12@@std@@QAE@ABU01@@Z 19185ef0 f i c_cliententitydirectory.obj
 0002:0005ef20       ?destroy@?$allocator@I@std@@QAEXPAI@Z 19185f20 f i c_cliententitydirectory.obj
 0002:0005ef50       ?end@?$deque@IV?$K2DequeAllocator@I@@@std@@QAE?AV?$_Deque_iterator@IV?$K2DequeAllocator@I@@$00@2@XZ 19185f50 f i c_cliententitydirectory.obj
 0002:0005efb0       ?max_size@?$deque@IV?$K2DequeAllocator@I@@@std@@QBEIXZ 19185fb0 f i c_cliententitydirectory.obj
 0002:0005efe0       ?empty@?$deque@IV?$K2DequeAllocator@I@@@std@@QBE_NXZ 19185fe0 f i c_cliententitydirectory.obj
 0002:0005f010       ?_Xlen@?$deque@IV?$K2DequeAllocator@I@@@std@@KAXXZ 19186010 f i c_cliententitydirectory.obj
 0002:0005f0c0       ?_Orphan_off@?$deque@IV?$K2DequeAllocator@I@@@std@@IBEXI@Z 191860c0 f i c_cliententitydirectory.obj
 0002:0005f1d0       ?allocate@?$K2DequeAllocator@PAI@@QAEPAPAII@Z 191861d0 f i c_cliententitydirectory.obj
 0002:0005f220       ?deallocate@?$K2DequeAllocator@PAI@@QAEXPAPAII@Z 19186220 f i c_cliententitydirectory.obj
 0002:0005f260       ?erase@?$_Tree@V?$_Tmap_traits@IIU?$less@I@std@@V?$K2MapAllocator@U?$pair@$$CBII@std@@@@$0A@@std@@@std@@QAE?AViterator@12@V312@@Z 19186260 f i c_cliententitydirectory.obj
 0002:0005fc40       ?clear@?$_Tree@V?$_Tmap_traits@IIU?$less@I@std@@V?$K2MapAllocator@U?$pair@$$CBII@std@@@@$0A@@std@@@std@@QAEXXZ 19186c40 f i c_cliententitydirectory.obj
 0002:0005fcd0       ?_Lmost@?$_Tree@V?$_Tmap_traits@IIU?$less@I@std@@V?$K2MapAllocator@U?$pair@$$CBII@std@@@@$0A@@std@@@std@@IBEAAPAU_Node@?$_Tree_nod@V?$_Tmap_traits@IIU?$less@I@std@@V?$K2MapAllocator@U?$pair@$$CBII@std@@@@$0A@@std@@@2@XZ 19186cd0 f i c_cliententitydirectory.obj
 0002:0005fd00       ?max_size@?$vector@_NV?$K2VectorAllocator@_N@@@std@@QBEIXZ 19186d00 f i c_cliententitydirectory.obj
 0002:0005fd50       ?_Insert_x@?$vector@_NV?$K2VectorAllocator@_N@@@std@@IAEIV?$_Vb_iterator@V?$vector@_NV?$K2VectorAllocator@_N@@@std@@@2@I@Z 19186d50 f i c_cliententitydirectory.obj
 0002:000600b0       ?_Nw@?$vector@_NV?$K2VectorAllocator@_N@@@std@@KAII@Z 191870b0 f i c_cliententitydirectory.obj
 0002:000600d0       ?_Xlen@?$vector@_NV?$K2VectorAllocator@_N@@@std@@IBEXXZ 191870d0 f i c_cliententitydirectory.obj
 0002:00060180       ??Y?$_Vector_iterator@IV?$K2VectorAllocator@I@@@std@@QAEAAV01@H@Z 19187180 f i c_cliententitydirectory.obj
 0002:000601b0       ??G?$_Vb_const_iterator@V?$vector@_NV?$K2VectorAllocator@_N@@@std@@@std@@QBEHABV01@@Z 191871b0 f i c_cliententitydirectory.obj
 0002:00060200       ?_Compat@?$_Vb_const_iterator@V?$vector@_NV?$K2VectorAllocator@_N@@@std@@@std@@IBEXABV12@@Z 19187200 f i c_cliententitydirectory.obj
 0002:00060260       ??0?$_Vb_iter_base@V?$vector@_NV?$K2VectorAllocator@_N@@@std@@@std@@QAE@PAIPAV?$vector@_NV?$K2VectorAllocator@_N@@@1@@Z 19187260 f i c_cliententitydirectory.obj
 0002:00060360       ?_My_actual_offset@?$_Vb_iter_base@V?$vector@_NV?$K2VectorAllocator@_N@@@std@@@std@@QBEIXZ 19187360 f i c_cliententitydirectory.obj
 0002:000603b0       ??0iterator@?$_Tree@V?$_Tmap_traits@IIU?$less@I@std@@V?$K2MapAllocator@U?$pair@$$CBII@std@@@@$0A@@std@@@std@@QAE@PAU_Node@?$_Tree_nod@V?$_Tmap_traits@IIU?$less@I@std@@V?$K2MapAllocator@U?$pair@$$CBII@std@@@@$0A@@std@@@2@PBV12@@Z 191873b0 f i c_cliententitydirectory.obj
 0002:000603f0       ??8const_iterator@?$_Tree@V?$_Tmap_traits@IIU?$less@I@std@@V?$K2MapAllocator@U?$pair@$$CBII@std@@@@$0A@@std@@@std@@QBE_NABV012@@Z 191873f0 f i c_cliententitydirectory.obj
 0002:000604b0       ??9const_iterator@?$_Tree@V?$_Tmap_traits@IIU?$less@I@std@@V?$K2MapAllocator@U?$pair@$$CBII@std@@@@$0A@@std@@@std@@QBE_NABV012@@Z 191874b0 f i c_cliententitydirectory.obj
 0002:000604f0       ??D?$_Deque_iterator@IV?$K2DequeAllocator@I@@$00@std@@QBEAAIXZ 191874f0 f i c_cliententitydirectory.obj
 0002:00060520       ??G?$_Deque_iterator@IV?$K2DequeAllocator@I@@$00@std@@QBE?AV01@H@Z 19187520 f i c_cliententitydirectory.obj
 0002:000605d0       ??0?$_Deque_iterator@IV?$K2DequeAllocator@I@@$00@std@@QAE@ABV01@@Z 191875d0 f i c_cliententitydirectory.obj
 0002:00060600       ?resize@?$vector@IV?$K2VectorAllocator@I@@@std@@QAEXII@Z 19187600 f i c_cliententitydirectory.obj
 0002:00060770       ?_Color@?$_Tree@V?$_Tmap_traits@IIU?$less@I@std@@V?$K2MapAllocator@U?$pair@$$CBII@std@@@@$0A@@std@@@std@@KAAADPAU_Node@?$_Tree_nod@V?$_Tmap_traits@IIU?$less@I@std@@V?$K2MapAllocator@U?$pair@$$CBII@std@@@@$0A@@std@@@2@@Z 19187770 f i c_cliententitydirectory.obj
 0002:00060790       ?_Isnil@?$_Tree@V?$_Tmap_traits@IIU?$less@I@std@@V?$K2MapAllocator@U?$pair@$$CBII@std@@@@$0A@@std@@@std@@KAAADPAU_Node@?$_Tree_nod@V?$_Tmap_traits@IIU?$less@I@std@@V?$K2MapAllocator@U?$pair@$$CBII@std@@@@$0A@@std@@@2@@Z 19187790 f i c_cliententitydirectory.obj
 0002:000607b0       ?_Erase@?$_Tree@V?$_Tmap_traits@IIU?$less@I@std@@V?$K2MapAllocator@U?$pair@$$CBII@std@@@@$0A@@std@@@std@@IAEXPAU_Node@?$_Tree_nod@V?$_Tmap_traits@IIU?$less@I@std@@V?$K2MapAllocator@U?$pair@$$CBII@std@@@@$0A@@std@@@2@@Z 191877b0 f i c_cliententitydirectory.obj
 0002:00060850       ?_Lrotate@?$_Tree@V?$_Tmap_traits@IIU?$less@I@std@@V?$K2MapAllocator@U?$pair@$$CBII@std@@@@$0A@@std@@@std@@IAEXPAU_Node@?$_Tree_nod@V?$_Tmap_traits@IIU?$less@I@std@@V?$K2MapAllocator@U?$pair@$$CBII@std@@@@$0A@@std@@@2@@Z 19187850 f i c_cliententitydirectory.obj
 0002:000609e0       ?_Max@?$_Tree@V?$_Tmap_traits@IIU?$less@I@std@@V?$K2MapAllocator@U?$pair@$$CBII@std@@@@$0A@@std@@@std@@KAPAU_Node@?$_Tree_nod@V?$_Tmap_traits@IIU?$less@I@std@@V?$K2MapAllocator@U?$pair@$$CBII@std@@@@$0A@@std@@@2@PAU342@@Z 191879e0 f i c_cliententitydirectory.obj
 0002:00060a40       ?_Min@?$_Tree@V?$_Tmap_traits@IIU?$less@I@std@@V?$K2MapAllocator@U?$pair@$$CBII@std@@@@$0A@@std@@@std@@KAPAU_Node@?$_Tree_nod@V?$_Tmap_traits@IIU?$less@I@std@@V?$K2MapAllocator@U?$pair@$$CBII@std@@@@$0A@@std@@@2@PAU342@@Z 19187a40 f i c_cliententitydirectory.obj
 0002:00060aa0       ?_Rmost@?$_Tree@V?$_Tmap_traits@IIU?$less@I@std@@V?$K2MapAllocator@U?$pair@$$CBII@std@@@@$0A@@std@@@std@@IBEAAPAU_Node@?$_Tree_nod@V?$_Tmap_traits@IIU?$less@I@std@@V?$K2MapAllocator@U?$pair@$$CBII@std@@@@$0A@@std@@@2@XZ 19187aa0 f i c_cliententitydirectory.obj
 0002:00060ad0       ?_Root@?$_Tree@V?$_Tmap_traits@IIU?$less@I@std@@V?$K2MapAllocator@U?$pair@$$CBII@std@@@@$0A@@std@@@std@@IBEAAPAU_Node@?$_Tree_nod@V?$_Tmap_traits@IIU?$less@I@std@@V?$K2MapAllocator@U?$pair@$$CBII@std@@@@$0A@@std@@@2@XZ 19187ad0 f i c_cliententitydirectory.obj
 0002:00060b00       ?_Rrotate@?$_Tree@V?$_Tmap_traits@IIU?$less@I@std@@V?$K2MapAllocator@U?$pair@$$CBII@std@@@@$0A@@std@@@std@@IAEXPAU_Node@?$_Tree_nod@V?$_Tmap_traits@IIU?$less@I@std@@V?$K2MapAllocator@U?$pair@$$CBII@std@@@@$0A@@std@@@2@@Z 19187b00 f i c_cliententitydirectory.obj
 0002:00060c90       ?_Orphan_ptr@?$_Tree@V?$_Tmap_traits@IIU?$less@I@std@@V?$K2MapAllocator@U?$pair@$$CBII@std@@@@$0A@@std@@@std@@IBEXAAV12@PAU_Node@?$_Tree_nod@V?$_Tmap_traits@IIU?$less@I@std@@V?$K2MapAllocator@U?$pair@$$CBII@std@@@@$0A@@std@@@2@@Z 19187c90 f i c_cliententitydirectory.obj
 0002:00060d40       ?destroy@?$allocator@U_Node@?$_Tree_nod@V?$_Tmap_traits@IIU?$less@I@std@@V?$K2MapAllocator@U?$pair@$$CBII@std@@@@$0A@@std@@@std@@@std@@QAEXPAU_Node@?$_Tree_nod@V?$_Tmap_traits@IIU?$less@I@std@@V?$K2MapAllocator@U?$pair@$$CBII@std@@@@$0A@@std@@@2@@Z 19187d40 f i c_cliententitydirectory.obj
 0002:00060d70       ?capacity@?$vector@_NV?$K2VectorAllocator@_N@@@std@@QBEIXZ 19187d70 f i c_cliententitydirectory.obj
 0002:00060da0       ??Y?$_Vector_const_iterator@IV?$K2VectorAllocator@I@@@std@@QAEAAV01@H@Z 19187da0 f i c_cliententitydirectory.obj
 0002:00060ed0       ?_My_cont_begin@?$_Vb_iter_base@V?$vector@_NV?$K2VectorAllocator@_N@@@std@@@std@@QBEPAIXZ 19187ed0 f i c_cliententitydirectory.obj
 0002:00060f20       ??Eiterator@?$_Tree@V?$_Tmap_traits@IIU?$less@I@std@@V?$K2MapAllocator@U?$pair@$$CBII@std@@@@$0A@@std@@@std@@QAEAAV012@XZ 19187f20 f i c_cliententitydirectory.obj
 0002:00060f50       ??0const_iterator@?$_Tree@V?$_Tmap_traits@IIU?$less@I@std@@V?$K2MapAllocator@U?$pair@$$CBII@std@@@@$0A@@std@@@std@@QAE@PAU_Node@?$_Tree_nod@V?$_Tmap_traits@IIU?$less@I@std@@V?$K2MapAllocator@U?$pair@$$CBII@std@@@@$0A@@std@@@2@PBV12@@Z 19187f50 f i c_cliententitydirectory.obj
 0002:00060fe0       ?_Mynode@const_iterator@?$_Tree@V?$_Tmap_traits@IIU?$less@I@std@@V?$K2MapAllocator@U?$pair@$$CBII@std@@@@$0A@@std@@@std@@QBEPAU_Node@?$_Tree_nod@V?$_Tmap_traits@IIU?$less@I@std@@V?$K2MapAllocator@U?$pair@$$CBII@std@@@@$0A@@std@@@3@XZ 19187fe0 f i c_cliententitydirectory.obj
 0002:00061000       ??0?$_Deque_iterator@IV?$K2DequeAllocator@I@@$00@std@@QAE@IPBV_Container_base@1@@Z 19188000 f i c_cliententitydirectory.obj
 0002:00061040       ??Z?$_Deque_iterator@IV?$K2DequeAllocator@I@@$00@std@@QAEAAV01@H@Z 19188040 f i c_cliententitydirectory.obj
 0002:00061070       ??0?$_Deque_const_iterator@IV?$K2DequeAllocator@I@@$00@std@@QAE@ABV01@@Z 19188070 f i c_cliententitydirectory.obj
 0002:00061100       ??D?$_Deque_const_iterator@IV?$K2DequeAllocator@I@@$00@std@@QBEABIXZ 19188100 f i c_cliententitydirectory.obj
 0002:00061220       ??0?$_Bidit@U?$pair@$$CBII@std@@HPBU12@ABU12@@std@@QAE@XZ 19188220 f i c_cliententitydirectory.obj
 0002:00061250       ??Econst_iterator@?$_Tree@V?$_Tmap_traits@IIU?$less@I@std@@V?$K2MapAllocator@U?$pair@$$CBII@std@@@@$0A@@std@@@std@@QAEAAV012@XZ 19188250 f i c_cliententitydirectory.obj
 0002:00061280       ??Y?$_Deque_iterator@IV?$K2DequeAllocator@I@@$00@std@@QAEAAV01@H@Z 19188280 f i c_cliententitydirectory.obj
 0002:000612b0       ??0?$_Deque_const_iterator@IV?$K2DequeAllocator@I@@$00@std@@QAE@IPBV_Container_base@1@@Z 191882b0 f i c_cliententitydirectory.obj
 0002:000613c0       ?_Inc@const_iterator@?$_Tree@V?$_Tmap_traits@IIU?$less@I@std@@V?$K2MapAllocator@U?$pair@$$CBII@std@@@@$0A@@std@@@std@@QAEXXZ 191883c0 f i c_cliententitydirectory.obj
 0002:00061530       ??Y?$_Deque_const_iterator@IV?$K2DequeAllocator@I@@$00@std@@QAEAAV01@H@Z 19188530 f i c_cliententitydirectory.obj
 0002:00061670       ??$unchecked_copy@PAIPAI@stdext@@YAPAIPAI00@Z 19188670 f i c_cliententitydirectory.obj
 0002:00061700       ??$_Checked_base@PAI@std@@YAPAIAAPAI@Z 19188700 f i c_cliententitydirectory.obj
 0002:00061730       ??$_Iter_random@PAIPAI@std@@YA?AUrandom_access_iterator_tag@0@ABQAI0@Z 19188730 f i c_cliententitydirectory.obj
 0002:00061750       ??$_Copy_opt@PAIPAIUrandom_access_iterator_tag@std@@@std@@YAPAIPAI00Urandom_access_iterator_tag@0@U_Scalar_ptr_iterator_tag@0@U_Range_checked_iterator_tag@0@@Z 19188750 f i c_cliententitydirectory.obj
 0002:00061800       ??$_Checked_base@PAI@std@@YAPAIAAPAIU_Unchanged_checked_iterator_base_type_tag@0@@Z 19188800 f i c_cliententitydirectory.obj
 0002:00061820       ??$_Debug_range@PAI@std@@YAXPAI0PB_WI@Z 19188820 f i c_cliententitydirectory.obj
 0002:00061870       ??$_Debug_pointer@I@std@@YAXPAIPB_WI@Z 19188870 f i c_cliententitydirectory.obj
 0002:000618b0       ??$_Iter_cat@PAI@std@@YA?AUrandom_access_iterator_tag@0@ABQAI@Z 191888b0 f i c_cliententitydirectory.obj
 0002:000618d0       ??$_Debug_range2@PAI@std@@YAXPAI0PB_WIUrandom_access_iterator_tag@0@@Z 191888d0 f i c_cliententitydirectory.obj
 0002:00061950       ??$unchecked_uninitialized_fill_n@PAIIIV?$K2VectorAllocator@I@@@stdext@@YAXPAIIABIAAV?$K2VectorAllocator@I@@@Z 19188950 f i c_cliententitydirectory.obj
 0002:000619b0       ??$_Uninit_fill_n@PAIIIV?$K2VectorAllocator@I@@@std@@YAXPAIIABIAAV?$K2VectorAllocator@I@@U_Scalar_ptr_iterator_tag@0@U_Range_checked_iterator_tag@0@@Z 191889b0 f i c_cliententitydirectory.obj
 0002:000619e0       ??$unchecked_fill_n@PAIII@stdext@@YAXPAIIABI@Z 191889e0 f i c_cliententitydirectory.obj
 0002:00061a30       ??$_Fill_n@PAIII@std@@YAXPAIIABIUrandom_access_iterator_tag@0@U_Range_checked_iterator_tag@0@@Z 19188a30 f i c_cliententitydirectory.obj
 0002:00061a90       ??$_Fill_n@PAIII@std@@YAXPAIIABIU_Range_checked_iterator_tag@0@@Z 19188a90 f i c_cliententitydirectory.obj
 0002:00061ae0       ??$copy@V?$_Vb_iterator@V?$vector@_NV?$K2VectorAllocator@_N@@@std@@@std@@V12@@std@@YA?AV?$_Vb_iterator@V?$vector@_NV?$K2VectorAllocator@_N@@@std@@@0@V10@00@Z 19188ae0 f i c_cliententitydirectory.obj
 0002:00061c40       ??$_Checked_base@V?$_Vb_iterator@V?$vector@_NV?$K2VectorAllocator@_N@@@std@@@std@@@std@@YA?AV?$_Vb_iterator@V?$vector@_NV?$K2VectorAllocator@_N@@@std@@@0@AAV10@@Z 19188c40 f i c_cliententitydirectory.obj
 0002:00061c90       ??$_Iter_random@V?$_Vb_iterator@V?$vector@_NV?$K2VectorAllocator@_N@@@std@@@std@@V12@@std@@YA?AUrandom_access_iterator_tag@0@ABV?$_Vb_iterator@V?$vector@_NV?$K2VectorAllocator@_N@@@std@@@0@0@Z 19188c90 f i c_cliententitydirectory.obj
 0002:00061cb0       ??$_Ptr_cat@V?$_Vb_iterator@V?$vector@_NV?$K2VectorAllocator@_N@@@std@@@std@@V12@@std@@YA?AU_Nonscalar_ptr_iterator_tag@0@AAV?$_Vb_iterator@V?$vector@_NV?$K2VectorAllocator@_N@@@std@@@0@0@Z 19188cb0 f i c_cliententitydirectory.obj
 0002:00061cd0       ??$_Copy_opt@V?$_Vb_iterator@V?$vector@_NV?$K2VectorAllocator@_N@@@std@@@std@@V12@@std@@YA?AV?$_Vb_iterator@V?$vector@_NV?$K2VectorAllocator@_N@@@std@@@0@V10@00Urandom_access_iterator_tag@0@U_Nonscalar_ptr_iterator_tag@0@U_Range_checked_iterator_tag@0@@Z 19188cd0 f i c_cliententitydirectory.obj
 0002:00061e70       ??$_Checked_base@V?$_Vb_iterator@V?$vector@_NV?$K2VectorAllocator@_N@@@std@@@std@@@std@@YA?AV?$_Vb_iterator@V?$vector@_NV?$K2VectorAllocator@_N@@@std@@@0@AAV10@U_Unchanged_checked_iterator_base_type_tag@0@@Z 19188e70 f i c_cliententitydirectory.obj
 0002:00061eb0       ??$_Copy_opt@V?$_Vb_iterator@V?$vector@_NV?$K2VectorAllocator@_N@@@std@@@std@@V12@Uforward_iterator_tag@2@@std@@YA?AV?$_Vb_iterator@V?$vector@_NV?$K2VectorAllocator@_N@@@std@@@0@V10@00Uforward_iterator_tag@0@U_Nonscalar_ptr_iterator_tag@0@U_Range_checked_iterator_tag@0@@Z 19188eb0 f i c_cliententitydirectory.obj
 0002:00062070       ??9?$_Vb_const_iterator@V?$vector@_NV?$K2VectorAllocator@_N@@@std@@@std@@QBE_NABV01@@Z 19189070 f i c_cliententitydirectory.obj
 0002:000620b0       ??E?$_Vb_iterator@V?$vector@_NV?$K2VectorAllocator@_N@@@std@@@std@@QAEAAV01@XZ 191890b0 f i c_cliententitydirectory.obj
 0002:000620e0       ??E?$_Vb_const_iterator@V?$vector@_NV?$K2VectorAllocator@_N@@@std@@@std@@QAEAAV01@XZ 191890e0 f i c_cliententitydirectory.obj
 0002:00062110       ??8?$_Vb_const_iterator@V?$vector@_NV?$K2VectorAllocator@_N@@@std@@@std@@QBE_NABV01@@Z 19189110 f i c_cliententitydirectory.obj
 0002:00062180       ?_Inc@?$_Vb_const_iterator@V?$vector@_NV?$K2VectorAllocator@_N@@@std@@@std@@IAEXXZ 19189180 f i c_cliententitydirectory.obj
 0002:000622c0       ??$_Debug_range@V?$_Vb_iterator@V?$vector@_NV?$K2VectorAllocator@_N@@@std@@@std@@@std@@YAXV?$_Vb_iterator@V?$vector@_NV?$K2VectorAllocator@_N@@@std@@@0@0PB_WI@Z 191892c0 f i c_cliententitydirectory.obj
 0002:000623b0       ??4?$_Vb_reference@V?$vector@_NV?$K2VectorAllocator@_N@@@std@@@std@@QAEAAV01@ABV01@@Z 191893b0 f i c_cliententitydirectory.obj
 0002:000623e0       ??$_Iter_cat@V?$_Vb_iterator@V?$vector@_NV?$K2VectorAllocator@_N@@@std@@@std@@@std@@YA?AUrandom_access_iterator_tag@0@ABV?$_Vb_iterator@V?$vector@_NV?$K2VectorAllocator@_N@@@std@@@0@@Z 191893e0 f i c_cliententitydirectory.obj
 0002:00062400       ??$_Debug_range2@V?$_Vb_iterator@V?$vector@_NV?$K2VectorAllocator@_N@@@std@@@std@@@std@@YAXV?$_Vb_iterator@V?$vector@_NV?$K2VectorAllocator@_N@@@std@@@0@0PB_WIUrandom_access_iterator_tag@0@@Z 19189400 f i c_cliententitydirectory.obj
 0002:000624f0       ??$_Debug_pointer@V?$_Vb_iterator@V?$vector@_NV?$K2VectorAllocator@_N@@@std@@@std@@@std@@YAXAAV?$_Vb_iterator@V?$vector@_NV?$K2VectorAllocator@_N@@@std@@@0@PB_WI@Z 191894f0 f i c_cliententitydirectory.obj
 0002:00062510       ??$_Umove@PAI@?$vector@IV?$K2VectorAllocator@I@@@std@@IAEPAIPAI00@Z 19189510 f i c_cliententitydirectory.obj
 0002:00062550       ??$_Unchecked_uninitialized_move@PAIPAIV?$K2VectorAllocator@I@@@stdext@@YAPAIPAI00AAV?$K2VectorAllocator@I@@@Z 19189550 f i c_cliententitydirectory.obj
 0002:000625c0       ??$_Move_cat@PAI@std@@YA?AU_Undefined_move_tag@0@ABQAI@Z 191895c0 f i c_cliententitydirectory.obj
 0002:000625e0       ??$_Uninit_move@PAIPAIV?$K2VectorAllocator@I@@U_Undefined_move_tag@std@@@std@@YAPAIPAI00AAV?$K2VectorAllocator@I@@U_Undefined_move_tag@0@U_Range_checked_iterator_tag@0@@Z 191895e0 f i c_cliententitydirectory.obj
 0002:00062620       ??$unchecked_uninitialized_copy@PAIPAIV?$K2VectorAllocator@I@@@stdext@@YAPAIPAI00AAV?$K2VectorAllocator@I@@@Z 19189620 f i c_cliententitydirectory.obj
 0002:00062690       ??$_Uninit_copy@PAIPAIV?$K2VectorAllocator@I@@@std@@YAPAIPAI00AAV?$K2VectorAllocator@I@@U_Scalar_ptr_iterator_tag@0@U_Range_checked_iterator_tag@0@@Z 19189690 f i c_cliententitydirectory.obj
 0002:00062730       ??$fill@PAII@std@@YAXPAI0ABI@Z 19189730 f i c_cliententitydirectory.obj
 0002:00062780       ??$_Fill@PAII@std@@YAXPAI0ABI@Z 19189780 f i c_cliententitydirectory.obj
 0002:000627e0       ??$_Unchecked_move_backward@PAIPAI@stdext@@YAPAIPAI00@Z 191897e0 f i c_cliententitydirectory.obj
 0002:00062870       ??$_Move_backward_opt@PAIPAIUrandom_access_iterator_tag@std@@U_Undefined_move_tag@2@@std@@YAPAIPAI00Urandom_access_iterator_tag@0@U_Undefined_move_tag@0@U_Range_checked_iterator_tag@0@@Z 19189870 f i c_cliententitydirectory.obj
 0002:000628d0       ??$_Copy_backward_opt@PAIPAIUrandom_access_iterator_tag@std@@@std@@YAPAIPAI00Urandom_access_iterator_tag@0@U_Scalar_ptr_iterator_tag@0@U_Range_checked_iterator_tag@0@@Z 191898d0 f i c_cliententitydirectory.obj
 0002:00062980       ??$unchecked_uninitialized_copy@PAPAIPAPAIV?$K2DequeAllocator@PAI@@@stdext@@YAPAPAIPAPAI00AAV?$K2DequeAllocator@PAI@@@Z 19189980 f i c_cliententitydirectory.obj
 0002:000629f0       ??$_Checked_base@PAPAI@std@@YAPAPAIAAPAPAI@Z 191899f0 f i c_cliententitydirectory.obj
 0002:00062a20       ??$_Ptr_cat@PAPAIPAPAI@std@@YA?AU_Scalar_ptr_iterator_tag@0@AAPAPAI0@Z 19189a20 f i c_cliententitydirectory.obj
 0002:00062a40       ??$_Uninit_copy@PAPAIPAPAIV?$K2DequeAllocator@PAI@@@std@@YAPAPAIPAPAI00AAV?$K2DequeAllocator@PAI@@U_Scalar_ptr_iterator_tag@0@U_Range_checked_iterator_tag@0@@Z 19189a40 f i c_cliententitydirectory.obj
 0002:00062ae0       ??$_Checked_base@PAPAI@std@@YAPAPAIAAPAPAIU_Unchanged_checked_iterator_base_type_tag@0@@Z 19189ae0 f i c_cliententitydirectory.obj
 0002:00062b00       ??$_Debug_range@PAPAI@std@@YAXPAPAI0PB_WI@Z 19189b00 f i c_cliententitydirectory.obj
 0002:00062b50       ??$_Debug_pointer@PAI@std@@YAXPAPAIPB_WI@Z 19189b50 f i c_cliententitydirectory.obj
 0002:00062b90       ??$_Iter_cat@PAPAI@std@@YA?AUrandom_access_iterator_tag@0@ABQAPAI@Z 19189b90 f i c_cliententitydirectory.obj
 0002:00062bb0       ??$_Debug_range2@PAPAI@std@@YAXPAPAI0PB_WIUrandom_access_iterator_tag@0@@Z 19189bb0 f i c_cliententitydirectory.obj
 0002:00062c30       ??$unchecked_uninitialized_fill_n@PAPAIIPAIV?$K2DequeAllocator@PAI@@@stdext@@YAXPAPAIIABQAIAAV?$K2DequeAllocator@PAI@@@Z 19189c30 f i c_cliententitydirectory.obj
 0002:00062c90       ??$_Uninit_fill_n@PAPAIIPAIV?$K2DequeAllocator@PAI@@@std@@YAXPAPAIIABQAIAAV?$K2DequeAllocator@PAI@@U_Scalar_ptr_iterator_tag@0@U_Range_checked_iterator_tag@0@@Z 19189c90 f i c_cliententitydirectory.obj
 0002:00062cc0       ??$unchecked_fill_n@PAPAIIPAI@stdext@@YAXPAPAIIABQAI@Z 19189cc0 f i c_cliententitydirectory.obj
 0002:00062d10       ??$_Fill_n@PAPAIIPAI@std@@YAXPAPAIIABQAIUrandom_access_iterator_tag@0@U_Range_checked_iterator_tag@0@@Z 19189d10 f i c_cliententitydirectory.obj
 0002:00062d70       ??$_Fill_n@PAPAIIPAI@std@@YAXPAPAIIABQAIU_Range_checked_iterator_tag@0@@Z 19189d70 f i c_cliententitydirectory.obj
 0002:00062dc0       ??$_Destroy_range@PAIV?$K2DequeAllocator@PAI@@@std@@YAXPAPAI0AAV?$K2DequeAllocator@PAI@@@Z 19189dc0 f i c_cliententitydirectory.obj
 0002:00062e10       ??$_Destroy_range@PAIV?$K2DequeAllocator@PAI@@@std@@YAXPAPAI0AAV?$K2DequeAllocator@PAI@@U_Scalar_ptr_iterator_tag@0@@Z 19189e10 f i c_cliententitydirectory.obj
 0002:00062e30       ??$fill@V?$_Vb_iterator@V?$vector@_NV?$K2VectorAllocator@_N@@@std@@@std@@_N@std@@YAXV?$_Vb_iterator@V?$vector@_NV?$K2VectorAllocator@_N@@@std@@@0@0AB_N@Z 19189e30 f i c_cliententitydirectory.obj
 0002:00062f00       ??$_Fill@V?$_Vb_iterator@V?$vector@_NV?$K2VectorAllocator@_N@@@std@@@std@@_N@std@@YAXV?$_Vb_iterator@V?$vector@_NV?$K2VectorAllocator@_N@@@std@@@0@0AB_N@Z 19189f00 f i c_cliententitydirectory.obj
 0002:00063040       ??$_Destroy@I@std@@YAXPAI@Z 1918a040 f i c_cliententitydirectory.obj
 0002:00063060       ??$copy_backward@V?$_Vb_iterator@V?$vector@_NV?$K2VectorAllocator@_N@@@std@@@std@@V12@@std@@YA?AV?$_Vb_iterator@V?$vector@_NV?$K2VectorAllocator@_N@@@std@@@0@V10@00@Z 1918a060 f i c_cliententitydirectory.obj
 0002:000631c0       ??$_Copy_backward_opt@V?$_Vb_iterator@V?$vector@_NV?$K2VectorAllocator@_N@@@std@@@std@@V12@@std@@YA?AV?$_Vb_iterator@V?$vector@_NV?$K2VectorAllocator@_N@@@std@@@0@V10@00Urandom_access_iterator_tag@0@U_Nonscalar_ptr_iterator_tag@0@U_Range_checked_iterator_tag@0@@Z 1918a1c0 f i c_cliententitydirectory.obj
 0002:00063360       ??G?$_Vb_iterator@V?$vector@_NV?$K2VectorAllocator@_N@@@std@@@std@@QBE?AV01@H@Z 1918a360 f i c_cliententitydirectory.obj
 0002:00063410       ??Z?$_Vb_iterator@V?$vector@_NV?$K2VectorAllocator@_N@@@std@@@std@@QAEAAV01@H@Z 1918a410 f i c_cliententitydirectory.obj
 0002:00063440       ??$_Copy_backward_opt@V?$_Vb_iterator@V?$vector@_NV?$K2VectorAllocator@_N@@@std@@@std@@V12@Uforward_iterator_tag@2@@std@@YA?AV?$_Vb_iterator@V?$vector@_NV?$K2VectorAllocator@_N@@@std@@@0@V10@00Uforward_iterator_tag@0@U_Nonscalar_ptr_iterator_tag@0@U_Range_checked_iterator_tag@0@@Z 1918a440 f i c_cliententitydirectory.obj
 0002:000635f0       ??F?$_Vb_iterator@V?$vector@_NV?$K2VectorAllocator@_N@@@std@@@std@@QAEAAV01@XZ 1918a5f0 f i c_cliententitydirectory.obj
 0002:00063620       ??F?$_Vb_const_iterator@V?$vector@_NV?$K2VectorAllocator@_N@@@std@@@std@@QAEAAV01@XZ 1918a620 f i c_cliententitydirectory.obj
 0002:00063650       ?_Dec@?$_Vb_const_iterator@V?$vector@_NV?$K2VectorAllocator@_N@@@std@@@std@@IAEXXZ 1918a650 f i c_cliententitydirectory.obj
 0002:00063790       ??$_Destroy@U_Node@?$_Tree_nod@V?$_Tmap_traits@IIU?$less@I@std@@V?$K2MapAllocator@U?$pair@$$CBII@std@@@@$0A@@std@@@std@@@std@@YAXPAU_Node@?$_Tree_nod@V?$_Tmap_traits@IIU?$less@I@std@@V?$K2MapAllocator@U?$pair@$$CBII@std@@@@$0A@@std@@@0@@Z 1918a790 f i c_cliententitydirectory.obj
 0002:000637b0       ??0?$list@PAVIUnitEntity@@V?$K2ListAllocator@PAVIUnitEntity@@@@@@QAE@XZ 1918a7b0 f i c_cliententitydirectory.obj
 0002:000637e0       ??0?$list@PAVIUnitEntity@@V?$K2ListAllocator@PAVIUnitEntity@@@@@std@@QAE@XZ 1918a7e0 f i c_cliententitydirectory.obj
 0002:00063880       ??1?$_List_val@PAVIUnitEntity@@V?$K2ListAllocator@PAVIUnitEntity@@@@@std@@QAE@XZ 1918a880 f i c_cliententitydirectory.obj
 0002:00063900       ??1?$_List_ptr@PAVIUnitEntity@@V?$K2ListAllocator@PAVIUnitEntity@@@@@std@@QAE@XZ 1918a900 f i c_cliententitydirectory.obj
 0002:00063980       ??1?$_List_nod@PAVIUnitEntity@@V?$K2ListAllocator@PAVIUnitEntity@@@@@std@@QAE@XZ 1918a980 f i c_cliententitydirectory.obj
 0002:00063a00       ??1?$K2ListAllocator@PAVIUnitEntity@@@@QAE@XZ 1918aa00 f i c_cliententitydirectory.obj
 0002:00063a20       ??1?$K2ListAllocator@U_Node@?$_List_nod@PAVIUnitEntity@@V?$K2ListAllocator@PAVIUnitEntity@@@@@std@@@@QAE@XZ 1918aa20 f i c_cliententitydirectory.obj
 0002:00063a40       ??1?$K2ListAllocator@PAU_Node@?$_List_nod@PAVIUnitEntity@@V?$K2ListAllocator@PAVIUnitEntity@@@@@std@@@@QAE@XZ 1918aa40 f i c_cliententitydirectory.obj
 0002:00063a60       ?_Buynode@?$list@PAVIUnitEntity@@V?$K2ListAllocator@PAVIUnitEntity@@@@@std@@IAEPAU_Node@?$_List_nod@PAVIUnitEntity@@V?$K2ListAllocator@PAVIUnitEntity@@@@@2@XZ 1918aa60 f i c_cliententitydirectory.obj
 0002:00063ba0       ?_Prevnode@?$list@PAVIUnitEntity@@V?$K2ListAllocator@PAVIUnitEntity@@@@@std@@KAAAPAU_Node@?$_List_nod@PAVIUnitEntity@@V?$K2ListAllocator@PAVIUnitEntity@@@@@2@PAU342@@Z 1918aba0 f i c_cliententitydirectory.obj
 0002:00063bc0       ??0?$_List_val@PAVIUnitEntity@@V?$K2ListAllocator@PAVIUnitEntity@@@@@std@@QAE@V?$K2ListAllocator@PAVIUnitEntity@@@@@Z 1918abc0 f i c_cliententitydirectory.obj
 0002:00063c70       ??0?$K2ListAllocator@PAVIUnitEntity@@@@QAE@XZ 1918ac70 f i c_cliententitydirectory.obj
 0002:00063ca0       ?deallocate@?$K2ListAllocator@U_Node@?$_List_nod@PAVIUnitEntity@@V?$K2ListAllocator@PAVIUnitEntity@@@@@std@@@@QAEXPAU_Node@?$_List_nod@PAVIUnitEntity@@V?$K2ListAllocator@PAVIUnitEntity@@@@@std@@I@Z 1918aca0 f i c_cliententitydirectory.obj
 0002:00063ce0       ?destroy@?$allocator@PAU_Node@?$_List_nod@PAVIUnitEntity@@V?$K2ListAllocator@PAVIUnitEntity@@@@@std@@@std@@QAEXPAPAU_Node@?$_List_nod@PAVIUnitEntity@@V?$K2ListAllocator@PAVIUnitEntity@@@@@2@@Z 1918ace0 f i c_cliententitydirectory.obj
 0002:00063d10       ??0?$_List_ptr@PAVIUnitEntity@@V?$K2ListAllocator@PAVIUnitEntity@@@@@std@@IAE@V?$K2ListAllocator@PAVIUnitEntity@@@@@Z 1918ad10 f i c_cliententitydirectory.obj
 0002:00063dc0       ??0?$K2ListAllocator@PAVIUnitEntity@@@@QAE@ABV0@@Z 1918adc0 f i c_cliententitydirectory.obj
 0002:00063df0       ?allocate@?$K2ListAllocator@U_Node@?$_List_nod@PAVIUnitEntity@@V?$K2ListAllocator@PAVIUnitEntity@@@@@std@@@@QAEPAU_Node@?$_List_nod@PAVIUnitEntity@@V?$K2ListAllocator@PAVIUnitEntity@@@@@std@@I@Z 1918adf0 f i c_cliententitydirectory.obj
 0002:00063e40       ?construct@?$allocator@PAU_Node@?$_List_nod@PAVIUnitEntity@@V?$K2ListAllocator@PAVIUnitEntity@@@@@std@@@std@@QAEXPAPAU_Node@?$_List_nod@PAVIUnitEntity@@V?$K2ListAllocator@PAVIUnitEntity@@@@@2@ABQAU342@@Z 1918ae40 f i c_cliententitydirectory.obj
 0002:00063e70       ??0?$_List_nod@PAVIUnitEntity@@V?$K2ListAllocator@PAVIUnitEntity@@@@@std@@IAE@V?$K2ListAllocator@PAVIUnitEntity@@@@@Z 1918ae70 f i c_cliententitydirectory.obj
 0002:00063f10       ??$_Destroy@PAU_Node@?$_List_nod@PAVIUnitEntity@@V?$K2ListAllocator@PAVIUnitEntity@@@@@std@@@std@@YAXPAPAU_Node@?$_List_nod@PAVIUnitEntity@@V?$K2ListAllocator@PAVIUnitEntity@@@@@0@@Z 1918af10 f i c_cliententitydirectory.obj
 0002:00063f30       ??$?0PAVIUnitEntity@@@?$K2ListAllocator@PAU_Node@?$_List_nod@PAVIUnitEntity@@V?$K2ListAllocator@PAVIUnitEntity@@@@@std@@@@QAE@ABV?$K2ListAllocator@PAVIUnitEntity@@@@@Z 1918af30 f i c_cliententitydirectory.obj
 0002:00063f60       ??$_Construct@PAU_Node@?$_List_nod@PAVIUnitEntity@@V?$K2ListAllocator@PAVIUnitEntity@@@@@std@@PAU123@@std@@YAXPAPAU_Node@?$_List_nod@PAVIUnitEntity@@V?$K2ListAllocator@PAVIUnitEntity@@@@@0@ABQAU120@@Z 1918af60 f i c_cliententitydirectory.obj
 0002:00063fc0       ??$?0PAVIUnitEntity@@@?$K2ListAllocator@U_Node@?$_List_nod@PAVIUnitEntity@@V?$K2ListAllocator@PAVIUnitEntity@@@@@std@@@@QAE@ABV?$K2ListAllocator@PAVIUnitEntity@@@@@Z 1918afc0 f i c_cliententitydirectory.obj
 0002:00063ff0       ??0?$allocator@U_Node@?$_List_nod@PAVIUnitEntity@@V?$K2ListAllocator@PAVIUnitEntity@@@@@std@@@std@@QAE@XZ 1918aff0 f i c_cliententitydirectory.obj
 0002:00064010       ??0?$allocator@PAU_Node@?$_List_nod@PAVIUnitEntity@@V?$K2ListAllocator@PAVIUnitEntity@@@@@std@@@std@@QAE@XZ 1918b010 f i c_cliententitydirectory.obj
 0002:00064030       ??0?$CRecyclePool@VCClientEntity@@@@QAE@I@Z 1918b030 f i c_cliententitydirectory.obj
 0002:00064190       ??0?$deque@IV?$K2DequeAllocator@I@@@@QAE@XZ 1918b190 f i c_cliententitydirectory.obj
 0002:000641c0       ??0?$vector@_NV?$K2VectorAllocator@_N@@@@QAE@I@Z 1918b1c0 f i c_cliententitydirectory.obj
 0002:000641f0       ??0?$deque@IV?$K2DequeAllocator@I@@@std@@QAE@XZ 1918b1f0 f i c_cliententitydirectory.obj
 0002:00064260       ??0?$vector@_NV?$K2VectorAllocator@_N@@@std@@QAE@I_N@Z 1918b260 f i c_cliententitydirectory.obj
 0002:00064320       ??1?$vector@_NV?$K2VectorAllocator@_N@@@@QAE@XZ 1918b320 f i c_cliententitydirectory.obj
 0002:00064350       ??0?$vector@IV?$K2VectorAllocator@I@@@std@@QAE@IABI@Z 1918b350 f i c_cliententitydirectory.obj
 0002:000643f0       ??0?$_Deque_val@IV?$K2DequeAllocator@I@@@std@@IAE@V?$K2DequeAllocator@I@@@Z 1918b3f0 f i c_cliententitydirectory.obj
 0002:000644a0       ??0?$K2DequeAllocator@I@@QAE@XZ 1918b4a0 f i c_cliententitydirectory.obj
 0002:000644d0       ?_Construct_n@?$vector@IV?$K2VectorAllocator@I@@@std@@QAEXIABI@Z 1918b4d0 f i c_cliententitydirectory.obj
 0002:000645a0       ??0?$_Deque_map@IV?$K2DequeAllocator@I@@@std@@IAE@V?$K2DequeAllocator@I@@@Z 1918b5a0 f i c_cliententitydirectory.obj
 0002:00064640       ??0?$K2DequeAllocator@I@@QAE@ABV0@@Z 1918b640 f i c_cliententitydirectory.obj
 0002:00064670       ??$?0I@?$K2DequeAllocator@PAI@@QAE@ABV?$K2DequeAllocator@I@@@Z 1918b670 f i c_cliententitydirectory.obj
 0002:000646a0       ??0?$allocator@PAI@std@@QAE@XZ 1918b6a0 f i c_cliententitydirectory.obj
 0002:000646c0       ??1?$vector@_NV?$K2VectorAllocator@_N@@@std@@QAE@XZ 1918b6c0 f i c_cliententitydirectory.obj
 0002:00064750       ??1?$deque@IV?$K2DequeAllocator@I@@@@QAE@XZ 1918b750 f i c_cliententitydirectory.obj
 0002:00064780       ??1?$deque@IV?$K2DequeAllocator@I@@@std@@QAE@XZ 1918b780 f i c_cliententitydirectory.obj
 0002:00064800       ??1?$_Deque_val@IV?$K2DequeAllocator@I@@@std@@QAE@XZ 1918b800 f i c_cliententitydirectory.obj
 0002:00064880       ??1?$_Deque_map@IV?$K2DequeAllocator@I@@@std@@QAE@XZ 1918b880 f i c_cliententitydirectory.obj
 0002:00064900       ?_Tidy@?$deque@IV?$K2DequeAllocator@I@@@std@@IAEXXZ 1918b900 f i c_cliententitydirectory.obj
 0002:000649f0       ??1?$K2DequeAllocator@I@@QAE@XZ 1918b9f0 f i c_cliententitydirectory.obj
 0002:00064a10       ??1?$K2DequeAllocator@PAI@@QAE@XZ 1918ba10 f i c_cliententitydirectory.obj
 0002:00064a30       ?deallocate@?$K2DequeAllocator@I@@QAEXPAII@Z 1918ba30 f i c_cliententitydirectory.obj
 0002:00064a70       ?destroy@?$allocator@PAI@std@@QAEXPAPAI@Z 1918ba70 f i c_cliententitydirectory.obj
 0002:00064aa0       ??$_Destroy@PAI@std@@YAXPAPAI@Z 1918baa0 f i c_cliententitydirectory.obj
 0002:00064ac0       ??1?$list@PAVIUnitEntity@@V?$K2ListAllocator@PAVIUnitEntity@@@@@@QAE@XZ 1918bac0 f i c_cliententitydirectory.obj
 0002:00064af0       ??1?$list@PAVIUnitEntity@@V?$K2ListAllocator@PAVIUnitEntity@@@@@std@@QAE@XZ 1918baf0 f i c_cliententitydirectory.obj
 0002:00064b70       ?_Tidy@?$list@PAVIUnitEntity@@V?$K2ListAllocator@PAVIUnitEntity@@@@@std@@IAEXXZ 1918bb70 f i c_cliententitydirectory.obj
 0002:00064c00       ?clear@?$list@PAVIUnitEntity@@V?$K2ListAllocator@PAVIUnitEntity@@@@@std@@QAEXXZ 1918bc00 f i c_cliententitydirectory.obj
 0002:00064ce0       ?_Orphan_ptr@?$list@PAVIUnitEntity@@V?$K2ListAllocator@PAVIUnitEntity@@@@@std@@IBEXAAV12@PAU_Node@?$_List_nod@PAVIUnitEntity@@V?$K2ListAllocator@PAVIUnitEntity@@@@@2@@Z 1918bce0 f i c_cliententitydirectory.obj
 0002:00064d90       ?destroy@?$allocator@U_Node@?$_List_nod@PAVIUnitEntity@@V?$K2ListAllocator@PAVIUnitEntity@@@@@std@@@std@@QAEXPAU_Node@?$_List_nod@PAVIUnitEntity@@V?$K2ListAllocator@PAVIUnitEntity@@@@@2@@Z 1918bd90 f i c_cliententitydirectory.obj
 0002:00064dc0       ??$_Destroy@U_Node@?$_List_nod@PAVIUnitEntity@@V?$K2ListAllocator@PAVIUnitEntity@@@@@std@@@std@@YAXPAU_Node@?$_List_nod@PAVIUnitEntity@@V?$K2ListAllocator@PAVIUnitEntity@@@@@0@@Z 1918bdc0 f i c_cliententitydirectory.obj
 0002:00064de0       ??1?$CRecyclePool@VCClientEntity@@@@QAE@XZ 1918bde0 f i c_cliententitydirectory.obj
 0002:00064eb0       ??1CGameClient@@UAE@XZ     1918beb0 f   c_gameclient.obj
 0002:00065680       ??1IGame@@UAE@XZ           1918c680 f i c_gameclient.obj
 0002:000657a0       ?IsServer@IGame@@UBE_NXZ   1918c7a0 f i c_gameclient.obj
 0002:000657c0       ?IsClient@IGame@@UBE_NXZ   1918c7c0 f i c_gameclient.obj
 0002:000657e0       ?GetLocalClientNum@IGame@@UAEHXZ 1918c7e0 f i c_gameclient.obj
 0002:00065800       ?GetLocalPlayer@IGame@@UAEPAVCPlayer@@XZ 1918c800 f i c_gameclient.obj
 0002:00065820       ?StartMatch@IGame@@UAEXXZ  1918c820 f i c_gameclient.obj
 0002:00065840       ?EndMatch@IGame@@UAEXH@Z   1918c840 f i c_gameclient.obj
 0002:00065860       ?RegisterGameMechanics@IGame@@UAEII@Z 1918c860 f i c_gameclient.obj
 0002:000658a0       ?SendPopup@IGame@@UAEXEPAVIUnitEntity@@0G@Z 1918c8a0 f i c_gameclient.obj
 0002:000658c0       ?SendPopup@IGame@@UAEXW4EPopup@@PAVIUnitEntity@@1G@Z 1918c8c0 f i c_gameclient.obj
 0002:000658e0       ?SendPing@IGame@@UAEXEPAVIUnitEntity@@0ABV?$CVec2@M@@@Z 1918c8e0 f i c_gameclient.obj
 0002:00065900       ?SendPing@IGame@@UAEXW4EPing@@PAVIUnitEntity@@1ABV?$CVec2@M@@@Z 1918c900 f i c_gameclient.obj
 0002:00065920       ?DeleteWorldEntity@IGame@@UAEXI@Z 1918c920 f i c_gameclient.obj
 0002:00065950       ?DeleteEntity@CWorld@@QBEXI@Z 1918c950 f i c_gameclient.obj
 0002:00065990       ?GetVision@IGame@@UBEGMM@Z 1918c990 f i c_gameclient.obj
 0002:000659b0       ?AllocateEntity@IGame@@UAEPAVIGameEntity@@ABV?$basic_string@_WU?$char_traits@_W@std@@V?$K2StringAllocator@_W@@@std@@I@Z 1918c9b0 f i c_gameclient.obj
 0002:000659d0       ?AllocateEntity@IGame@@UAEPAVIGameEntity@@GI@Z 1918c9d0 f i c_gameclient.obj
 0002:000659f0       ?AllocateDynamicEntity@IGame@@UAEPAVIGameEntity@@ABV?$basic_string@_WU?$char_traits@_W@std@@V?$K2StringAllocator@_W@@@std@@II@Z 1918c9f0 f i c_gameclient.obj
 0002:00065a10       ?AllocateDynamicEntity@IGame@@UAEPAVIGameEntity@@GII@Z 1918ca10 f i c_gameclient.obj
 0002:00065a30       ?DeleteEntity@IGame@@UAEXPAVIGameEntity@@@Z 1918ca30 f i c_gameclient.obj
 0002:00065a50       ?DeleteEntity@IGame@@UAEXI@Z 1918ca50 f i c_gameclient.obj
 0002:00065a70       ?GetEntityString@IGame@@UBEABV?$basic_string@_WU?$char_traits@_W@std@@V?$K2StringAllocator@_W@@@std@@ABV23@@Z 1918ca70 f i c_gameclient.obj
 0002:00065a90       ?GetEntityString@IGame@@UBEABV?$basic_string@_WU?$char_traits@_W@std@@V?$K2StringAllocator@_W@@@std@@I@Z 1918ca90 f i c_gameclient.obj
 0002:00065ab0       ?GetEntityStringIndex@IGame@@UBEIABV?$basic_string@_WU?$char_traits@_W@std@@V?$K2StringAllocator@_W@@@std@@@Z 1918cab0 f i c_gameclient.obj
 0002:00065ad0       ?GetPrecacheList@IGame@@UAEXABV?$basic_string@_WU?$char_traits@_W@std@@V?$K2StringAllocator@_W@@@std@@W4EPrecacheScheme@@0AAV?$deque@USHeroPrecache@@V?$K2DequeAllocator@USHeroPrecache@@@@@@@Z 1918cad0 f i c_gameclient.obj
 0002:00065af0       ?GetCurrentSnapshot@IGame@@UAEPAVCClientSnapshot@@XZ 1918caf0 f i c_gameclient.obj
 0002:00065b10       ?IsEntitySelected@IGame@@UAE_NI@Z 1918cb10 f i c_gameclient.obj
 0002:00065b30       ?IsEntityHoverSelected@IGame@@UAE_NI@Z 1918cb30 f i c_gameclient.obj
 0002:00065b50       ?GetActiveControlEntity@IGame@@UAEIXZ 1918cb50 f i c_gameclient.obj
 0002:00065b70       ?AddCameraEffectAngleOffset@IGame@@UAEXABV?$CVec3@M@@@Z 1918cb70 f i c_gameclient.obj
 0002:00065b90       ?AddCameraEffectOffset@IGame@@UAEXABV?$CVec3@M@@@Z 1918cb90 f i c_gameclient.obj
 0002:00065bb0       ?GetCamera@IGame@@UBEPAVCCamera@@XZ 1918cbb0 f i c_gameclient.obj
 0002:00065bd0       ?AddOverlay@IGame@@UAEXABV?$CVec4@M@@@Z 1918cbd0 f i c_gameclient.obj
 0002:00065bf0       ?AddOverlay@IGame@@UAEXABV?$CVec4@M@@I@Z 1918cbf0 f i c_gameclient.obj
 0002:00065c10       ?GetPropType@IGame@@UBEABV?$basic_string@_WU?$char_traits@_W@std@@V?$K2StringAllocator@_W@@@std@@ABV23@@Z 1918cc10 f i c_gameclient.obj
 0002:00065c30       ?SendMessage@IGame@@UAEXABV?$basic_string@_WU?$char_traits@_W@std@@V?$K2StringAllocator@_W@@@std@@H@Z 1918cc30 f i c_gameclient.obj
 0002:00065c50       ?SendGameData@IGame@@UAEXHABVIBuffer@@_N@Z 1918cc50 f i c_gameclient.obj
 0002:00065c70       ?SendGameData@IGame@@UAEXHABVIBuffer@@_NI@Z 1918cc70 f i c_gameclient.obj
 0002:00065c90       ?SendReliablePacket@IGame@@UAEXHABVIBuffer@@@Z 1918cc90 f i c_gameclient.obj
 0002:00065cb0       ?BroadcastGameData@IGame@@UAEXABVIBuffer@@_NHI@Z 1918ccb0 f i c_gameclient.obj
 0002:00065cd0       ?BroadcastGameDataToTeam@IGame@@UAEXHABVIBuffer@@_NH@Z 1918ccd0 f i c_gameclient.obj
 0002:00065cf0       ?HasMegaCreeps@IGame@@UAE_NI@Z 1918ccf0 f i c_gameclient.obj
 0002:00065d10       ?UpdateHeroList@IGame@@UAEXXZ 1918cd10 f i c_gameclient.obj
 0002:00065d30       ?FindPath@IGame@@UBEIABV?$CVec2@M@@MI0MPAV?$vector@IV?$K2VectorAllocator@I@@@@@Z 1918cd30 f i c_gameclient.obj
 0002:00065d50       ?AccessPath@IGame@@UBEPAVCPath@@I@Z 1918cd50 f i c_gameclient.obj
 0002:00065d70       ?ClonePath@IGame@@UBEII@Z  1918cd70 f i c_gameclient.obj
 0002:00065d90       ?FreePath@IGame@@UBEXI@Z   1918cd90 f i c_gameclient.obj
 0002:00065db0       ?BlockPath@IGame@@UAEIIABV?$CVec2@M@@MM@Z 1918cdb0 f i c_gameclient.obj
 0002:00065dd0       ?BlockPath@IGame@@UAEXAAV?$vector@IV?$K2VectorAllocator@I@@@@IABVCConvexPolyhedron@@M@Z 1918cdd0 f i c_gameclient.obj
 0002:00065df0       ?ClearPath@IGame@@UAEXI@Z  1918cdf0 f i c_gameclient.obj
 0002:00065e10       ?GetConnectedClientCount@IGame@@UAEHH@Z 1918ce10 f i c_gameclient.obj
 0002:00065e30       ?UnitRespawned@IGame@@UAEXI@Z 1918ce30 f i c_gameclient.obj
 0002:00065e50       ?UnitKilled@IGame@@UAEXI@Z 1918ce50 f i c_gameclient.obj
 0002:00065e70       ?UpdateUnitVisibility@IGame@@UAEXPAVIUnitEntity@@@Z 1918ce70 f i c_gameclient.obj
 0002:00065e90       ?LogPlayer@IGame@@UAEXW4EGameLogEvent@@PAVCPlayer@@@Z 1918ce90 f i c_gameclient.obj
 0002:00065eb0       ?LogKill@IGame@@UAEXPAVIUnitEntity@@0PAVIGameEntity@@PAV?$vector@HV?$K2VectorAllocator@H@@@@@Z 1918ceb0 f i c_gameclient.obj
 0002:00065ed0       ?LogAssist@IGame@@UAEXPAVIUnitEntity@@0PAVIGameEntity@@PAVCPlayer@@@Z 1918ced0 f i c_gameclient.obj
 0002:00065ef0       ?LogDamage@IGame@@UAEXPAVIUnitEntity@@HGGM@Z 1918cef0 f i c_gameclient.obj
 0002:00065f10       ?LogDeny@IGame@@UAEXPAVIUnitEntity@@0PAVIGameEntity@@MG@Z 1918cf10 f i c_gameclient.obj
 0002:00065f30       ?LogExperience@IGame@@UAEXW4EGameLogEvent@@PAVIUnitEntity@@1M@Z 1918cf30 f i c_gameclient.obj
 0002:00065f50       ?LogGold@IGame@@UAEXW4EGameLogEvent@@PAVCPlayer@@PAVIUnitEntity@@G@Z 1918cf50 f i c_gameclient.obj
 0002:00065f70       ?LogHero@IGame@@UAEXW4EGameLogEvent@@PAVIHeroEntity@@ABV?$basic_string@_WU?$char_traits@_W@std@@V?$K2StringAllocator@_W@@@std@@@Z 1918cf70 f i c_gameclient.obj
 0002:00065f90       ?LogAward@IGame@@UAEXW4EGameLogEvent@@PAVIUnitEntity@@1G@Z 1918cf90 f i c_gameclient.obj
 0002:00065fb0       ?LogItem@IGame@@UAEXW4EGameLogEvent@@PAVIEntityItem@@PAVIUnitEntity@@@Z 1918cfb0 f i c_gameclient.obj
 0002:00065fd0       ?LogAbility@IGame@@UAEXW4EGameLogEvent@@PAVIEntityAbility@@PAVIUnitEntity@@@Z 1918cfd0 f i c_gameclient.obj
 0002:00065ff0       ?UsePlayerColors@IGame@@UAE_NXZ 1918cff0 f i c_gameclient.obj
 0002:00066010       ?UseHeroIndicators@IGame@@UAE_NXZ 1918d010 f i c_gameclient.obj
 0002:00066030       ?RequestChangeTeam@IGame@@UAEXHII@Z 1918d030 f i c_gameclient.obj
 0002:00066050       ?ChangeTeam@IGame@@UAEXHII@Z 1918d050 f i c_gameclient.obj
 0002:00066070       ?PurchaseItem@IGame@@UAE_NHIGH@Z 1918d070 f i c_gameclient.obj
 0002:00066090       ?SellItem@IGame@@UAEXHIH@Z 1918d090 f i c_gameclient.obj
 0002:000660b0       ?MoveItem@IGame@@UAEXHIHH@Z 1918d0b0 f i c_gameclient.obj
 0002:000660d0       ?BuyBackHero@IGame@@UAE_NHI@Z 1918d0d0 f i c_gameclient.obj
 0002:000660f0       ?SetSelection@IGame@@UAEXHABV?$set@IU?$less@I@std@@V?$K2SetAllocator@I@@@@@Z 1918d0f0 f i c_gameclient.obj
 0002:00066110       ?CanAccessAltAvatar@IGame@@UAE_NABV?$basic_string@_WU?$char_traits@_W@std@@V?$K2StringAllocator@_W@@@std@@0@Z 1918d110 f i c_gameclient.obj
 0002:00066130       ??_GIGame@@UAEPAXI@Z       1918d130 f i c_gameclient.obj
 0002:00066130       ??_EIGame@@UAEPAXI@Z       1918d130 f i c_gameclient.obj
 0002:00066180       ??1?$map@IPAVCTeamInfo@@U?$less@I@std@@V?$K2MapAllocator@U?$pair@$$CBIPAVCTeamInfo@@@std@@@@@@QAE@XZ 1918d180 f i c_gameclient.obj
 0002:000661b0       ??1?$vector@USWaterMarker@IGame@@V?$K2VectorAllocator@USWaterMarker@IGame@@@@@@QAE@XZ 1918d1b0 f i c_gameclient.obj
 0002:000661e0       ??1?$map@HPAVCPlayer@@U?$less@H@std@@V?$K2MapAllocator@U?$pair@$$CBHPAVCPlayer@@@std@@@@@@QAE@XZ 1918d1e0 f i c_gameclient.obj
 0002:00066210       ??_GCGameClient@@UAEPAXI@Z 1918d210 f i c_gameclient.obj
 0002:00066210       ??_ECGameClient@@UAEPAXI@Z 1918d210 f i c_gameclient.obj
 0002:00066260       ??1?$vector@GV?$K2VectorAllocator@G@@@@QAE@XZ 1918d260 f i c_gameclient.obj
 0002:00066290       ??1?$vector@U?$pair@GE@std@@V?$K2VectorAllocator@U?$pair@GE@std@@@@@@QAE@XZ 1918d290 f i c_gameclient.obj
 0002:000662c0       ??1?$vector@USPopupMessage@@V?$K2VectorAllocator@USPopupMessage@@@@@@QAE@XZ 1918d2c0 f i c_gameclient.obj
 0002:000662f0       ??1?$vector@USMinimapPing@@V?$K2VectorAllocator@USMinimapPing@@@@@@QAE@XZ 1918d2f0 f i c_gameclient.obj
 0002:00066320       ??1?$deque@USClientResourceLoadRequest@@V?$K2DequeAllocator@USClientResourceLoadRequest@@@@@@QAE@XZ 1918d320 f i c_gameclient.obj
 0002:00066350       ??1?$deque@USHeroPrecache@@V?$K2DequeAllocator@USHeroPrecache@@@@@@QAE@XZ 1918d350 f i c_gameclient.obj
 0002:00066380       ??1?$vector@USVoiceSet@@V?$K2VectorAllocator@USVoiceSet@@@@@@QAE@XZ 1918d380 f i c_gameclient.obj
 0002:000663b0       ??1?$deque@USWorldThingSpawnRequest@@V?$K2DequeAllocator@USWorldThingSpawnRequest@@@@@@QAE@XZ 1918d3b0 f i c_gameclient.obj
 0002:000663e0       ??1?$map@IPAVCTeamInfo@@U?$less@I@std@@V?$K2MapAllocator@U?$pair@$$CBIPAVCTeamInfo@@@std@@@@@std@@QAE@XZ 1918d3e0 f i c_gameclient.obj
 0002:00066410       ??1?$vector@USOverlayInfo@@V?$K2VectorAllocator@USOverlayInfo@@@@@@QAE@XZ 1918d410 f i c_gameclient.obj
 0002:00066440       ??1?$map@HPAVCPlayer@@U?$less@H@std@@V?$K2MapAllocator@U?$pair@$$CBHPAVCPlayer@@@std@@@@@std@@QAE@XZ 1918d440 f i c_gameclient.obj
 0002:00066470       ??1?$map@HUSWorldSound@CGameClient@@U?$less@H@std@@V?$K2MapAllocator@U?$pair@$$CBHUSWorldSound@CGameClient@@@std@@@@@@QAE@XZ 1918d470 f i c_gameclient.obj
 0002:000664a0       ??1?$vector@PAVIVisualEntity@@V?$K2VectorAllocator@PAVIVisualEntity@@@@@@QAE@XZ 1918d4a0 f i c_gameclient.obj
 0002:000664d0       ??1?$map@IUSWeatherInfo@@U?$less@I@std@@V?$K2MapAllocator@U?$pair@$$CBIUSWeatherInfo@@@std@@@@@@QAE@XZ 1918d4d0 f i c_gameclient.obj
 0002:00066500       ??_GCCamera@@QAEPAXI@Z     1918d500 f i c_gameclient.obj
 0002:00066550       ??_GCClientCommander@@QAEPAXI@Z 1918d550 f i c_gameclient.obj
 0002:000665a0       ??1CClientCommander@@QAE@XZ 1918d5a0 f i c_gameclient.obj
 0002:00066690       ??_GCBitmap@@QAEPAXI@Z     1918d690 f i c_gameclient.obj
 0002:000666e0       ??_GCGameInterfaceManager@@QAEPAXI@Z 1918d6e0 f i c_gameclient.obj
 0002:00066730       ??1?$map@HUSWorldSound@CGameClient@@U?$less@H@std@@V?$K2MapAllocator@U?$pair@$$CBHUSWorldSound@CGameClient@@@std@@@@@std@@QAE@XZ 1918d730 f i c_gameclient.obj
 0002:00066760       ??1?$map@IUSWeatherInfo@@U?$less@I@std@@V?$K2MapAllocator@U?$pair@$$CBIUSWeatherInfo@@@std@@@@@std@@QAE@XZ 1918d760 f i c_gameclient.obj
 0002:00066790       ??0CGameClient@@QAE@XZ     1918d790 f   c_gameclient.obj
 0002:00067140       ??0CClientEntityDirectory@@QAE@XZ 1918e140 f i c_gameclient.obj
 0002:00067230       ?GetUnitList@CClientEntityDirectory@@UAEABV?$list@PAVIUnitEntity@@V?$K2ListAllocator@PAVIUnitEntity@@@@@@XZ 1918e230 f i c_gameclient.obj
 0002:00067250       ??_ECClientEntityDirectory@@UAEPAXI@Z 1918e250 f i c_gameclient.obj
 0002:00067250       ??_GCClientEntityDirectory@@UAEPAXI@Z 1918e250 f i c_gameclient.obj
 0002:000672a0       ??1CClientEntityDirectory@@UAE@XZ 1918e2a0 f i c_gameclient.obj
 0002:00067380       ??1?$map@IPAVIGameEntity@@U?$less@I@std@@V?$K2MapAllocator@U?$pair@$$CBIPAVIGameEntity@@@std@@@@@@QAE@XZ 1918e380 f i c_gameclient.obj
 0002:000673b0       ??1?$list@PAVIGameEntity@@V?$K2ListAllocator@PAVIGameEntity@@@@@@QAE@XZ 1918e3b0 f i c_gameclient.obj
 0002:000673e0       ??1?$vector@PAVIBitEntity@@V?$K2VectorAllocator@PAVIBitEntity@@@@@@QAE@XZ 1918e3e0 f i c_gameclient.obj
 0002:00067410       ??1?$map@IPAVIGameEntity@@U?$less@I@std@@V?$K2MapAllocator@U?$pair@$$CBIPAVIGameEntity@@@std@@@@@std@@QAE@XZ 1918e410 f i c_gameclient.obj
 0002:00067440       ??1?$map@IIU?$less@I@std@@V?$K2MapAllocator@U?$pair@$$CBII@std@@@@@@QAE@XZ 1918e440 f i c_gameclient.obj
 0002:00067470       ??1?$map@IIU?$less@I@std@@V?$K2MapAllocator@U?$pair@$$CBII@std@@@@@std@@QAE@XZ 1918e470 f i c_gameclient.obj
 0002:000674a0       ??0IGame@@QAE@ABV?$basic_string@_WU?$char_traits@_W@std@@V?$K2StringAllocator@_W@@@std@@@Z 1918e4a0 f i c_gameclient.obj
 0002:00067650       ?Initialize@CGameClient@@QAE_NPAVCHostClient@@@Z 1918e650 f   c_gameclient.obj
 0002:00067d80       ?GetBlackTexture@CResourceManager@@QBEIXZ 1918ed80 f i c_gameclient.obj
 0002:00067da0       ?SetWorldPointer@IGame@@QAEXPAVCWorld@@@Z 1918eda0 f i c_gameclient.obj
 0002:00067dd0       ?SetEntityDirectory@IGame@@QAEXPAVIEntityDirectory@@@Z 1918edd0 f i c_gameclient.obj
 0002:00067e00       ?Validate@IGame@@QBE_NXZ   1918ee00 f i c_gameclient.obj
 0002:00067fb0       ?Reinitialize@CGameClient@@QAEXXZ 1918efb0 f   c_gameclient.obj
 0002:00068570       ?SetVisibilitySize@CWorld@@QAEXH@Z 1918f570 f i c_gameclient.obj
 0002:000685a0       ?SetGameTime@IGame@@IAEXI@Z 1918f5a0 f i c_gameclient.obj
 0002:000685d0       ?SetGameInfo@IGame@@QAEXPAVCGameInfo@@@Z 1918f5d0 f i c_gameclient.obj
 0002:00068600       ?ClearTeams@IGame@@QAEXXZ  1918f600 f i c_gameclient.obj
 0002:00068630       ?SetWinningTeam@IGame@@QAEXH@Z 1918f630 f i c_gameclient.obj
 0002:00068660       ?SetFinalMatchTime@IGame@@QAEXI@Z 1918f660 f i c_gameclient.obj
 0002:00068690       ?ClearEventList@IGame@@QAEXXZ 1918f690 f i c_gameclient.obj
 0002:000686c0       ?StartLoading@CGameClient@@QAEXABV?$basic_string@_WU?$char_traits@_W@std@@V?$K2StringAllocator@_W@@@std@@@Z 1918f6c0 f   c_gameclient.obj
 0002:00068870       ?IsWorldPreloaded@IGame@@QBE_NABV?$basic_string@_WU?$char_traits@_W@std@@V?$K2StringAllocator@_W@@@std@@@Z 1918f870 f i c_gameclient.obj
 0002:000688a0       ?IsPreloaded@CWorld@@QBE_NABV?$basic_string@_WU?$char_traits@_W@std@@V?$K2StringAllocator@_W@@@std@@@Z 1918f8a0 f i c_gameclient.obj
 0002:00068920       ?StartLoadingWorld@CGameClient@@QAEXXZ 1918f920 f   c_gameclient.obj
 0002:00069390       ?empty@?$CCvar@V?$basic_string@_WU?$char_traits@_W@std@@V?$K2StringAllocator@_W@@@std@@V12@@@QBE_NXZ 19190390 f i c_gameclient.obj
 0002:000693c0       ??B?$CCvar@V?$basic_string@_WU?$char_traits@_W@std@@V?$K2StringAllocator@_W@@@std@@V12@@@QBE?AV?$basic_string@_WU?$char_traits@_W@std@@V?$K2StringAllocator@_W@@@std@@XZ 191903c0 f i c_gameclient.obj
 0002:00069410       ?ReadShort@IBuffer@@QBEFXZ 19190410 f i c_gameclient.obj
 0002:00069450       ?LittleShort@@YAFF@Z       19190450 f i c_gameclient.obj
 0002:00069470       ?GetScale@CWorld@@QBEMXZ   19190470 f i c_gameclient.obj
 0002:000694a0       ?GetTileWidth@CWorld@@QBEHXZ 191904a0 f i c_gameclient.obj
 0002:000694d0       ?GetTileHeight@CWorld@@QBEHXZ 191904d0 f i c_gameclient.obj
 0002:00069500       ?GetIndex@CWorldLight@@QBEIXZ 19190500 f i c_gameclient.obj
 0002:00069520       ?GetSound@CWorldSound@@QBEABV?$basic_string@_WU?$char_traits@_W@std@@V?$K2StringAllocator@_W@@@std@@XZ 19190520 f i c_gameclient.obj
 0002:00069540       ?IsWorldLoaded@IGame@@QBE_NXZ 19190540 f i c_gameclient.obj
 0002:00069570       ?IsLoaded@CWorld@@QBE_NXZ  19190570 f i c_gameclient.obj
 0002:00069590       ?GetWorldLightsMap@IGame@@QAEAAV?$map@IPAVCWorldLight@@U?$less@I@std@@V?$K2MapAllocator@U?$pair@$$CBIPAVCWorldLight@@@std@@@@@@XZ 19190590 f i c_gameclient.obj
 0002:000695c0       ?GetLightsMap@CWorld@@QBEAAV?$map@IPAVCWorldLight@@U?$less@I@std@@V?$K2MapAllocator@U?$pair@$$CBIPAVCWorldLight@@@std@@@@@@XZ 191905c0 f i c_gameclient.obj
 0002:000695f0       ?GetWorldSoundsMap@IGame@@QAEAAV?$map@IPAVCWorldSound@@U?$less@I@std@@V?$K2MapAllocator@U?$pair@$$CBIPAVCWorldSound@@@std@@@@@@XZ 191905f0 f i c_gameclient.obj
 0002:00069620       ?GetSoundsMap@CWorld@@QBEAAV?$map@IPAVCWorldSound@@U?$less@I@std@@V?$K2MapAllocator@U?$pair@$$CBIPAVCWorldSound@@@std@@@@@@XZ 19190620 f i c_gameclient.obj
 0002:00069650       ??1SWorldThingSpawnRequest@@QAE@XZ 19190650 f i c_gameclient.obj
 0002:00069680       ??1iterator@?$_Tree@V?$_Tmap_traits@IPAVCWorldLight@@U?$less@I@std@@V?$K2MapAllocator@U?$pair@$$CBIPAVCWorldLight@@@std@@@@$0A@@std@@@std@@QAE@XZ 19190680 f i c_gameclient.obj
 0002:000696b0       ??1iterator@?$_Tree@V?$_Tmap_traits@IPAVCWorldSound@@U?$less@I@std@@V?$K2MapAllocator@U?$pair@$$CBIPAVCWorldSound@@@std@@@@$0A@@std@@@std@@QAE@XZ 191906b0 f i c_gameclient.obj
 0002:000696e0       ??1const_iterator@?$_Tree@V?$_Tmap_traits@IPAVCWorldLight@@U?$less@I@std@@V?$K2MapAllocator@U?$pair@$$CBIPAVCWorldLight@@@std@@@@$0A@@std@@@std@@QAE@XZ 191906e0 f i c_gameclient.obj
 0002:00069710       ??1const_iterator@?$_Tree@V?$_Tmap_traits@IPAVCWorldSound@@U?$less@I@std@@V?$K2MapAllocator@U?$pair@$$CBIPAVCWorldSound@@@std@@@@$0A@@std@@@std@@QAE@XZ 19190710 f i c_gameclient.obj
 0002:00069740       ??1?$_Bidit@U?$pair@$$CBIPAVCWorldLight@@@std@@HPBU12@ABU12@@std@@QAE@XZ 19190740 f i c_gameclient.obj
 0002:00069770       ??1?$_Bidit@U?$pair@$$CBIPAVCWorldSound@@@std@@HPBU12@ABU12@@std@@QAE@XZ 19190770 f i c_gameclient.obj
 0002:000697a0       ?SpawnNextWorldEntity@CGameClient@@QAEXXZ 191907a0 f   c_gameclient.obj
 0002:0006a370       ?Delete@CClientEntityDirectory@@QAEXPAVIGameEntity@@@Z 19191370 f i c_gameclient.obj
 0002:0006a3b0       ?GetIndex@CWorldEntity@@QBEIXZ 191913b0 f i c_gameclient.obj
 0002:0006a3d0       ?SetGameIndex@CWorldEntity@@QAEXI@Z 191913d0 f i c_gameclient.obj
 0002:0006a400       ?GetType@CWorldEntity@@QBE?AV?$basic_string@_WU?$char_traits@_W@std@@V?$K2StringAllocator@_W@@@std@@XZ 19191400 f i c_gameclient.obj
 0002:0006a450       ?GetModelPath@CWorldEntity@@QBEABV?$basic_string@_WU?$char_traits@_W@std@@V?$K2StringAllocator@_W@@@std@@XZ 19191450 f i c_gameclient.obj
 0002:0006a480       ?GetProperty@CWorldEntity@@QBE?AV?$basic_string@_WU?$char_traits@_W@std@@V?$K2StringAllocator@_W@@@std@@ABV23@0@Z 19191480 f i c_gameclient.obj
 0002:0006a5d0       ?GetEntityByHandle@CWorld@@QBEPAVCWorldEntity@@I@Z 191915d0 f i c_gameclient.obj
 0002:0006a610       ?FreeEntityByHandle@CWorld@@QBEXI@Z 19191610 f i c_gameclient.obj
 0002:0006a650       ?SetBitIndex@IBitEntity@@QAEXI@Z 19191650 f i c_gameclient.obj
 0002:0006a680       ?StartPreloadingWorld@CGameClient@@QAEXXZ 19191680 f   c_gameclient.obj
 0002:0006aec0       ?PrecacheNextWorldEntity@CGameClient@@QAEXXZ 19191ec0 f   c_gameclient.obj
 0002:0006b780       ??1CCamera@@QAE@XZ         19192780 f i c_gameclient.obj
 0002:0006b7b0       ??1CAxis@@QAE@XZ           191927b0 f i c_gameclient.obj
 0002:0006b7d0       ??0CCamera@@QAE@XZ         191927d0 f i c_gameclient.obj
 0002:0006b9c0       ??0CAxis@@QAE@MMM@Z        191929c0 f i c_gameclient.obj
 0002:0006ba20       ?Set@CAxis@@QAEXMMM@Z      19192a20 f i c_gameclient.obj
 0002:0006bc90       ??0CPlane@@QAE@MMMM@Z      19192c90 f i c_gameclient.obj
 0002:0006bcf0       ?M_SinCos@@YAXMAAM0@Z      19192cf0 f i c_gameclient.obj
 0002:0006bd20       ?GetVoicePath@CGameClient@@AAE?AV?$basic_string@_WU?$char_traits@_W@std@@V?$K2StringAllocator@_W@@@std@@ABV23@0@Z 19192d20 f   c_gameclient.obj
 0002:0006c0f0       ?AddAnnouncerVoiceSampleToLoadingQueue@CGameClient@@AAEXABV?$basic_string@_WU?$char_traits@_W@std@@V?$K2StringAllocator@_W@@@std@@0@Z 191930f0 f   c_gameclient.obj
 0002:0006c1a0       ?LookupAnnouncerVoiceSample@CGameClient@@AAEIABV?$basic_string@_WU?$char_traits@_W@std@@V?$K2StringAllocator@_W@@@std@@0@Z 191931a0 f   c_gameclient.obj
 0002:0006c2d0       ?HasFlags@IResource@@QBE_NH@Z 191932d0 f i c_gameclient.obj
 0002:0006c300       ?SetWorld@CCamera@@QAEXPAVCWorld@@@Z 19193300 f i c_gameclient.obj
 0002:0006c330       ?StartLoadingResources@CGameClient@@QAEXXZ 19193330 f   c_gameclient.obj
 0002:0006d9c0       ?GetPlayerInfo@CReplayInfo@@QBEABVCXMLNode@@I@Z 191949c0 f i c_gameclient.obj
 0002:0006da10       ?XtoW@@YA?AV?$basic_string@_WU?$char_traits@_W@std@@V?$K2StringAllocator@_W@@@std@@HHHH@Z 19194a10 f i c_gameclient.obj
 0002:0006da60       ?GetNumAnnouncerVoices@CHost@@QBEIXZ 19194a60 f i c_gameclient.obj
 0002:0006da90       ?GetNumAnnouncerVoices@CUpgrades@@QBEIXZ 19194a90 f i c_gameclient.obj
 0002:0006dac0       ?GetAnnouncerVoiceSet@CHost@@QBEABV?$basic_string@_WU?$char_traits@_W@std@@V?$K2StringAllocator@_W@@@std@@I@Z 19194ac0 f i c_gameclient.obj
 0002:0006daf0       ?GetAnnouncerVoiceSet@CUpgrades@@QBEABV?$basic_string@_WU?$char_traits@_W@std@@V?$K2StringAllocator@_W@@@std@@I@Z 19194af0 f i c_gameclient.obj
 0002:0006db60       ?GetVoiceSet@CAnnouncerVoice@@QBEABV?$basic_string@_WU?$char_traits@_W@std@@V?$K2StringAllocator@_W@@@std@@XZ 19194b60 f i c_gameclient.obj
 0002:0006db80       ?ReadInt@IBuffer@@QBEHXZ   19194b80 f i c_gameclient.obj
 0002:0006dbc0       ?LittleInt@@YAHH@Z         19194bc0 f i c_gameclient.obj
 0002:0006dbe0       ??1?$_Deque_iterator@USClientResourceLoadRequest@@V?$K2DequeAllocator@USClientResourceLoadRequest@@@@$00@std@@QAE@XZ 19194be0 f i c_gameclient.obj
 0002:0006dc10       ??1?$_Deque_const_iterator@USClientResourceLoadRequest@@V?$K2DequeAllocator@USClientResourceLoadRequest@@@@$00@std@@QAE@XZ 19194c10 f i c_gameclient.obj
 0002:0006dc40       ??1?$_Ranit@USClientResourceLoadRequest@@HPBU1@ABU1@@std@@QAE@XZ 19194c40 f i c_gameclient.obj
 0002:0006dc70       ?LoadNextResource@CGameClient@@QAEXXZ 19194c70 f   c_gameclient.obj
 0002:0006e320       ?GetGameMechanics@IGame@@QBEPAVCGameMechanics@@XZ 19195320 f i c_gameclient.obj
 0002:0006e350       ?FinishLoading@CGameClient@@QAEXXZ 19195350 f   c_gameclient.obj
 0002:0006eee0       ?GetAnnouncerVoiceArcadeText@CHost@@QBEABV?$basic_string@_WU?$char_traits@_W@std@@V?$K2StringAllocator@_W@@@std@@I@Z 19195ee0 f i c_gameclient.obj
 0002:0006ef10       ?GetAnnouncerVoiceArcadeText@CUpgrades@@QBEABV?$basic_string@_WU?$char_traits@_W@std@@V?$K2StringAllocator@_W@@@std@@I@Z 19195f10 f i c_gameclient.obj
 0002:0006ef80       ?GetArcadeText@CAnnouncerVoice@@QBEABV?$basic_string@_WU?$char_traits@_W@std@@V?$K2StringAllocator@_W@@@std@@XZ 19195f80 f i c_gameclient.obj
 0002:0006efa0       ?StartLoadingEntityResources@CGameClient@@QAEXXZ 19195fa0 f   c_gameclient.obj
 0002:0006fa90       ??1?$set@V?$basic_string@_WU?$char_traits@_W@std@@V?$K2StringAllocator@_W@@@std@@U?$less@V?$basic_string@_WU?$char_traits@_W@std@@V?$K2StringAllocator@_W@@@std@@@2@V?$K2SetAllocator@V?$basic_string@_WU?$char_traits@_W@std@@V?$K2StringAllocator@_W@@@std@@@@@@QAE@XZ 19196a90 f i c_gameclient.obj
 0002:0006fac0       ??1?$set@V?$basic_string@_WU?$char_traits@_W@std@@V?$K2StringAllocator@_W@@@std@@U?$less@V?$basic_string@_WU?$char_traits@_W@std@@V?$K2StringAllocator@_W@@@std@@@2@V?$K2SetAllocator@V?$basic_string@_WU?$char_traits@_W@std@@V?$K2StringAllocator@_W@@@std@@@@@std@@QAE@XZ 19196ac0 f i c_gameclient.obj
 0002:0006faf0       ??1?$pair@Viterator@?$_Tree@V?$_Tset_traits@V?$basic_string@_WU?$char_traits@_W@std@@V?$K2StringAllocator@_W@@@std@@U?$less@V?$basic_string@_WU?$char_traits@_W@std@@V?$K2StringAllocator@_W@@@std@@@2@V?$K2SetAllocator@V?$basic_string@_WU?$char_traits@_W@std@@V?$K2StringAllocator@_W@@@std@@@@$0A@@std@@@std@@_N@std@@QAE@XZ 19196af0 f i c_gameclient.obj
 0002:0006fb20       ?LoadNextEntityResource@CGameClient@@QAEXXZ 19196b20 f   c_gameclient.obj
 0002:0006fb50       ?FinishedLoadingWorld@CGameClient@@QAEXXZ 19196b50 f   c_gameclient.obj
 0002:0006fca0       ?PreFrame@CGameClient@@QAEXXZ 19196ca0 f   c_gameclient.obj
 0002:0006fcf0       ?FrameDownloadingReplay@CGameClient@@AAEXXZ 19196cf0 f   c_gameclient.obj
 0002:00070880       ?INT_ROUND@@YAHM@Z         19197880 f i c_gameclient.obj
 0002:000708e0       ?Frame@CGameClient@@QAEXXZ 191978e0 f   c_gameclient.obj
 0002:00070b70       ?SetPlayer@CClientCommander@@QAEXPAVCPlayer@@@Z 19197b70 f i c_gameclient.obj
 0002:00070ba0       ?SetCamera@CClientCommander@@QAEXPAVCCamera@@@Z 19197ba0 f i c_gameclient.obj
 0002:00070bd0       ?SetCursorPos@CClientCommander@@QAEXABV?$CVec2@M@@@Z 19197bd0 f i c_gameclient.obj
 0002:00070c00       ?GetActiveClientIndex@CHost@@QBEIXZ 19197c00 f i c_gameclient.obj
 0002:00070c20       ?GetGamePhase@IGame@@QBEIXZ 19197c20 f i c_gameclient.obj
 0002:00070c70       ?GetGamePhase@CGameInfo@@QBEIXZ 19197c70 f i c_gameclient.obj
 0002:00070ca0       ?ScriptFrame@IGame@@QAEXXZ 19197ca0 f i c_gameclient.obj
 0002:00070cd0       ?PrecacheAll@CGameClient@@QAEXXZ 19197cd0 f   c_gameclient.obj
 0002:00071b30       ?GetNumChatSymbols@CHost@@QBEIXZ 19198b30 f i c_gameclient.obj
 0002:00071b60       ?GetNumChatSymbols@CUpgrades@@QBEIXZ 19198b60 f i c_gameclient.obj
 0002:00071b90       ?GetChatSymbolTexturePath@CHost@@QBEABV?$basic_string@_WU?$char_traits@_W@std@@V?$K2StringAllocator@_W@@@std@@I@Z 19198b90 f i c_gameclient.obj
 0002:00071bc0       ?GetChatSymbolTexturePath@CUpgrades@@QBEABV?$basic_string@_WU?$char_traits@_W@std@@V?$K2StringAllocator@_W@@@std@@I@Z 19198bc0 f i c_gameclient.obj
 0002:00071c30       ?GetTexturePath@CChatSymbol@@QBEABV?$basic_string@_WU?$char_traits@_W@std@@V?$K2StringAllocator@_W@@@std@@XZ 19198c30 f i c_gameclient.obj
 0002:00071c50       ?GetNumChatNameColors@CHost@@QBEIXZ 19198c50 f i c_gameclient.obj
 0002:00071c80       ?GetNumChatNameColors@CUpgrades@@QBEIXZ 19198c80 f i c_gameclient.obj
 0002:00071cb0       ?GetChatNameColorTexturePath@CHost@@QBEABV?$basic_string@_WU?$char_traits@_W@std@@V?$K2StringAllocator@_W@@@std@@I@Z 19198cb0 f i c_gameclient.obj
 0002:00071ce0       ?GetChatNameColorTexturePath@CUpgrades@@QBEABV?$basic_string@_WU?$char_traits@_W@std@@V?$K2StringAllocator@_W@@@std@@I@Z 19198ce0 f i c_gameclient.obj
 0002:00071d50       ?GetTexturePath@CChatNameColor@@QBEABV?$basic_string@_WU?$char_traits@_W@std@@V?$K2StringAllocator@_W@@@std@@XZ 19198d50 f i c_gameclient.obj
 0002:00071d70       ?GetNumAccountIcons@CHost@@QBEIXZ 19198d70 f i c_gameclient.obj
 0002:00071da0       ?GetNumAccountIcons@CUpgrades@@QBEIXZ 19198da0 f i c_gameclient.obj
 0002:00071dd0       ?GetAccountIconTexturePath@CHost@@QBEABV?$basic_string@_WU?$char_traits@_W@std@@V?$K2StringAllocator@_W@@@std@@I@Z 19198dd0 f i c_gameclient.obj
 0002:00071e00       ?GetAccountIconTexturePath@CUpgrades@@QBEABV?$basic_string@_WU?$char_traits@_W@std@@V?$K2StringAllocator@_W@@@std@@I@Z 19198e00 f i c_gameclient.obj
 0002:00071e70       ?GetTexturePath@CAccountIcon@@QBEABV?$basic_string@_WU?$char_traits@_W@std@@V?$K2StringAllocator@_W@@@std@@XZ 19198e70 f i c_gameclient.obj
 0002:00071e90       ??0CLoadWorldFunctions@?1??PrecacheAll@CGameClient@@QAEXXZ@QAE@ABV?$basic_string@_WU?$char_traits@_W@std@@V?$K2StringAllocator@_W@@@std@@W4EResourceType@@@Z 19198e90 f   c_gameclient.obj
 0002:00071f30       ??1CLoadWorldFunctions@?1??PrecacheAll@CGameClient@@QAEXXZ@UAE@XZ 19198f30 f   c_gameclient.obj
 0002:00071fb0       ?Frame@CLoadWorldFunctions@?1??PrecacheAll@CGameClient@@QAEXXZ@UBEMAAV?$_Vector_iterator@V?$basic_string@_WU?$char_traits@_W@std@@V?$K2StringAllocator@_W@@@std@@V?$K2VectorAllocator@V?$basic_string@_WU?$char_traits@_W@std@@V?$K2StringAllocator@_W@@@std@@@@@std@@M@Z 19198fb0 f   c_gameclient.obj
 0002:00072000       ?PostFrame@CLoadWorldFunctions@?1??PrecacheAll@CGameClient@@QAEXXZ@UBEMAAV?$_Vector_iterator@V?$basic_string@_WU?$char_traits@_W@std@@V?$K2StringAllocator@_W@@@std@@V?$K2VectorAllocator@V?$basic_string@_WU?$char_traits@_W@std@@V?$K2StringAllocator@_W@@@std@@@@@std@@M@Z 19199000 f   c_gameclient.obj
 0002:00072080       ??0CLoadTextures@?2??PrecacheAll@CGameClient@@QAEXXZ@QAE@ABV?$basic_string@_WU?$char_traits@_W@std@@V?$K2StringAllocator@_W@@@std@@W4EResourceType@@@Z 19199080 f   c_gameclient.obj
 0002:00072120       ??1CLoadTextures@?2??PrecacheAll@CGameClient@@QAEXXZ@UAE@XZ 19199120 f   c_gameclient.obj
 0002:000721a0       ?Frame@CLoadTextures@?2??PrecacheAll@CGameClient@@QAEXXZ@UBEMAAV?$_Vector_iterator@V?$basic_string@_WU?$char_traits@_W@std@@V?$K2StringAllocator@_W@@@std@@V?$K2VectorAllocator@V?$basic_string@_WU?$char_traits@_W@std@@V?$K2StringAllocator@_W@@@std@@@@@std@@M@Z 191991a0 f   c_gameclient.obj
 0002:000721f0       ?PostFrame@CLoadTextures@?2??PrecacheAll@CGameClient@@QAEXXZ@UBEMAAV?$_Vector_iterator@V?$basic_string@_WU?$char_traits@_W@std@@V?$K2StringAllocator@_W@@@std@@V?$K2VectorAllocator@V?$basic_string@_WU?$char_traits@_W@std@@V?$K2StringAllocator@_W@@@std@@@@@std@@M@Z 191991f0 f   c_gameclient.obj
 0002:00072420       ??0CLoadEffects@?3??PrecacheAll@CGameClient@@QAEXXZ@QAE@ABV?$basic_string@_WU?$char_traits@_W@std@@V?$K2StringAllocator@_W@@@std@@W4EResourceType@@@Z 19199420 f   c_gameclient.obj
 0002:000724c0       ??1CLoadEffects@?3??PrecacheAll@CGameClient@@QAEXXZ@UAE@XZ 191994c0 f   c_gameclient.obj
 0002:00072540       ?Frame@CLoadEffects@?3??PrecacheAll@CGameClient@@QAEXXZ@UBEMAAV?$_Vector_iterator@V?$basic_string@_WU?$char_traits@_W@std@@V?$K2StringAllocator@_W@@@std@@V?$K2VectorAllocator@V?$basic_string@_WU?$char_traits@_W@std@@V?$K2StringAllocator@_W@@@std@@@@@std@@M@Z 19199540 f   c_gameclient.obj
 0002:00072590       ?PostFrame@CLoadEffects@?3??PrecacheAll@CGameClient@@QAEXXZ@UBEMAAV?$_Vector_iterator@V?$basic_string@_WU?$char_traits@_W@std@@V?$K2StringAllocator@_W@@@std@@V?$K2VectorAllocator@V?$basic_string@_WU?$char_traits@_W@std@@V?$K2StringAllocator@_W@@@std@@@@@std@@M@Z 19199590 f   c_gameclient.obj
 0002:000725e0       ?Frame@CLoadEntityFunctions@?6??PrecacheAll@CGameClient@@QAEXXZ@UBEMAAV?$_Vector_iterator@GV?$K2VectorAllocator@G@@@std@@M@Z 191995e0 f   c_gameclient.obj
 0002:00072680       ?PostFrame@CLoadEntityFunctions@?6??PrecacheAll@CGameClient@@QAEXXZ@UBEMAAV?$_Vector_iterator@GV?$K2VectorAllocator@G@@@std@@M@Z 19199680 f   c_gameclient.obj
 0002:00072730       ?Frame@CLoadFunctions@?8??PrecacheAll@CGameClient@@QAEXXZ@UBEMAAV?$_Vector_iterator@V?$basic_string@_WU?$char_traits@_W@std@@V?$K2StringAllocator@_W@@@std@@V?$K2VectorAllocator@V?$basic_string@_WU?$char_traits@_W@std@@V?$K2StringAllocator@_W@@@std@@@@@std@@M@Z 19199730 f   c_gameclient.obj
 0002:000727d0       ?PostFrame@CLoadFunctions@?8??PrecacheAll@CGameClient@@QAEXXZ@UBEMAAV?$_Vector_iterator@V?$basic_string@_WU?$char_traits@_W@std@@V?$K2StringAllocator@_W@@@std@@V?$K2VectorAllocator@V?$basic_string@_WU?$char_traits@_W@std@@V?$K2StringAllocator@_W@@@std@@@@@std@@M@Z 191997d0 f   c_gameclient.obj
 0002:000728b0       ?Frame@CLoadFunctions@?O@??PrecacheAll@CGameClient@@QAEXXZ@UBEMAAV?$_Vector_iterator@V?$basic_string@_WU?$char_traits@_W@std@@V?$K2StringAllocator@_W@@@std@@V?$K2VectorAllocator@V?$basic_string@_WU?$char_traits@_W@std@@V?$K2StringAllocator@_W@@@std@@@@@std@@M@Z 191998b0 f   c_gameclient.obj
 0002:00072950       ?PostFrame@CLoadFunctions@?O@??PrecacheAll@CGameClient@@QAEXXZ@UBEMAAV?$_Vector_iterator@V?$basic_string@_WU?$char_traits@_W@std@@V?$K2StringAllocator@_W@@@std@@V?$K2VectorAllocator@V?$basic_string@_WU?$char_traits@_W@std@@V?$K2StringAllocator@_W@@@std@@@@@std@@M@Z 19199950 f   c_gameclient.obj
 0002:00072a30       ??1?$map@GV?$basic_string@_WU?$char_traits@_W@std@@V?$K2StringAllocator@_W@@@std@@U?$less@G@2@V?$K2MapAllocator@U?$pair@$$CBGV?$basic_string@_WU?$char_traits@_W@std@@V?$K2StringAllocator@_W@@@std@@@std@@@@@@QAE@XZ 19199a30 f i c_gameclient.obj
 0002:00072a60       ??1iterator@?$_Tree@V?$_Tmap_traits@GV?$basic_string@_WU?$char_traits@_W@std@@V?$K2StringAllocator@_W@@@std@@U?$less@G@2@V?$K2MapAllocator@U?$pair@$$CBGV?$basic_string@_WU?$char_traits@_W@std@@V?$K2StringAllocator@_W@@@std@@@std@@@@$0A@@std@@@std@@QAE@XZ 19199a60 f i c_gameclient.obj
 0002:00072a90       ??0CLoadEntityFunctions@?6??PrecacheAll@CGameClient@@QAEXXZ@QAE@XZ 19199a90 f i c_gameclient.obj
 0002:00072ac0       ??1CLoadEntityFunctions@?6??PrecacheAll@CGameClient@@QAEXXZ@UAE@XZ 19199ac0 f i c_gameclient.obj
 0002:00072af0       ??0CLoadFunctions@?8??PrecacheAll@CGameClient@@QAEXXZ@QAE@XZ 19199af0 f i c_gameclient.obj
 0002:00072b20       ??1CLoadFunctions@?8??PrecacheAll@CGameClient@@QAEXXZ@UAE@XZ 19199b20 f i c_gameclient.obj
 0002:00072b50       ??0CLoadFunctions@?O@??PrecacheAll@CGameClient@@QAEXXZ@QAE@XZ 19199b50 f i c_gameclient.obj
 0002:00072b80       ??1CLoadFunctions@?O@??PrecacheAll@CGameClient@@QAEXXZ@UAE@XZ 19199b80 f i c_gameclient.obj
 0002:00072bb0       ??_GCLoadWorldFunctions@?1??PrecacheAll@CGameClient@@QAEXXZ@UAEPAXI@Z 19199bb0 f i c_gameclient.obj
 0002:00072bb0       ??_ECLoadWorldFunctions@?1??PrecacheAll@CGameClient@@QAEXXZ@UAEPAXI@Z 19199bb0 f i c_gameclient.obj
 0002:00072c00       ??_ECLoadTextures@?2??PrecacheAll@CGameClient@@QAEXXZ@UAEPAXI@Z 19199c00 f i c_gameclient.obj
 0002:00072c00       ??_GCLoadTextures@?2??PrecacheAll@CGameClient@@QAEXXZ@UAEPAXI@Z 19199c00 f i c_gameclient.obj
 0002:00072c50       ??_GCLoadEffects@?3??PrecacheAll@CGameClient@@QAEXXZ@UAEPAXI@Z 19199c50 f i c_gameclient.obj
 0002:00072c50       ??_ECLoadEffects@?3??PrecacheAll@CGameClient@@QAEXXZ@UAEPAXI@Z 19199c50 f i c_gameclient.obj
 0002:00072ca0       ??1?$map@GV?$basic_string@_WU?$char_traits@_W@std@@V?$K2StringAllocator@_W@@@std@@U?$less@G@2@V?$K2MapAllocator@U?$pair@$$CBGV?$basic_string@_WU?$char_traits@_W@std@@V?$K2StringAllocator@_W@@@std@@@std@@@@@std@@QAE@XZ 19199ca0 f i c_gameclient.obj
 0002:00072cd0       ??1const_iterator@?$_Tree@V?$_Tmap_traits@GV?$basic_string@_WU?$char_traits@_W@std@@V?$K2StringAllocator@_W@@@std@@U?$less@G@2@V?$K2MapAllocator@U?$pair@$$CBGV?$basic_string@_WU?$char_traits@_W@std@@V?$K2StringAllocator@_W@@@std@@@std@@@@$0A@@std@@@std@@QAE@XZ 19199cd0 f i c_gameclient.obj
 0002:00072d00       ??_ECLoadEntityFunctions@?6??PrecacheAll@CGameClient@@QAEXXZ@UAEPAXI@Z 19199d00 f i c_gameclient.obj
 0002:00072d00       ??_GCLoadEntityFunctions@?6??PrecacheAll@CGameClient@@QAEXXZ@UAEPAXI@Z 19199d00 f i c_gameclient.obj
 0002:00072d50       ??_GCLoadFunctions@?8??PrecacheAll@CGameClient@@QAEXXZ@UAEPAXI@Z 19199d50 f i c_gameclient.obj
 0002:00072d50       ??_ECLoadFunctions@?8??PrecacheAll@CGameClient@@QAEXXZ@UAEPAXI@Z 19199d50 f i c_gameclient.obj
 0002:00072da0       ??_GCLoadFunctions@?O@??PrecacheAll@CGameClient@@QAEXXZ@UAEPAXI@Z 19199da0 f i c_gameclient.obj
 0002:00072da0       ??_ECLoadFunctions@?O@??PrecacheAll@CGameClient@@QAEXXZ@UAEPAXI@Z 19199da0 f i c_gameclient.obj
 0002:00072df0       ??1?$_Bidit@U?$pair@$$CBGV?$basic_string@_WU?$char_traits@_W@std@@V?$K2StringAllocator@_W@@@std@@@std@@HPBU12@ABU12@@std@@QAE@XZ 19199df0 f i c_gameclient.obj
 0002:00072e20       ?LoadHeroesFrame@CGameClient@@AAEXXZ 19199e20 f   c_gameclient.obj
 0002:00073d40       ??6@YAAAVIBuffer@@AAV0@M@Z 1919ad40 f i c_gameclient.obj
 0002:00073d70       ?GetName@IEntityDefinition@@QBEABV?$basic_string@_WU?$char_traits@_W@std@@V?$K2StringAllocator@_W@@@std@@XZ 1919ad70 f i c_gameclient.obj
 0002:00073d90       ?GetModifierID@IEntityDefinition@@QBEIXZ 1919ad90 f i c_gameclient.obj
 0002:00073dc0       ?SetFrameLength@IGame@@IAEXI@Z 1919adc0 f i c_gameclient.obj
 0002:00073df0       ?GetPlayerMap@IGame@@QBEABV?$map@HPAVCPlayer@@U?$less@H@std@@V?$K2MapAllocator@U?$pair@$$CBHPAVCPlayer@@@std@@@@@@XZ 1919adf0 f i c_gameclient.obj
 0002:00073e20       ?GetSelectedHero@CPlayer@@QBEGXZ 1919ae20 f i c_gameclient.obj
 0002:00073e50       ?GetSelectedAvatar@CPlayer@@QBEGXZ 1919ae50 f i c_gameclient.obj
 0002:00073e80       ?HasSelectedAvatar@CPlayer@@QBE_NXZ 1919ae80 f i c_gameclient.obj
 0002:00073ec0       ??1?$_Deque_iterator@USHeroPrecache@@V?$K2DequeAllocator@USHeroPrecache@@@@$00@std@@QAE@XZ 1919aec0 f i c_gameclient.obj
 0002:00073ef0       ??1?$_Deque_const_iterator@USHeroPrecache@@V?$K2DequeAllocator@USHeroPrecache@@@@$00@std@@QAE@XZ 1919aef0 f i c_gameclient.obj
 0002:00073f20       ??1?$_Ranit@USHeroPrecache@@HPBU1@ABU1@@std@@QAE@XZ 1919af20 f i c_gameclient.obj
 0002:00073f50       ?SetupFrame@CGameClient@@AAEXXZ 1919af50 f   c_gameclient.obj
 0002:00074310       ?GetFrameLength@IGame@@QBEIXZ 1919b310 f i c_gameclient.obj
 0002:00074330       ?GetPhaseEndTime@IGame@@QBEIXZ 1919b330 f i c_gameclient.obj
 0002:00074380       ?GetPhaseEndTime@CGameInfo@@QBEIXZ 1919b380 f i c_gameclient.obj
 0002:000743e0       ?SetWorldIndex@IVisualEntity@@QAEXI@Z 1919b3e0 f i c_gameclient.obj
 0002:00074410       ?InterfaceNeedsUpdate@CGameClient@@QAE_NXZ 1919b410 f   c_gameclient.obj
 0002:00074480       ?NeedsRefresh@CInterface@@QBE_NXZ 1919b480 f i c_gameclient.obj
 0002:000744b0       ?NeedsRefresh@CInterface@@QAEX_N@Z 1919b4b0 f i c_gameclient.obj
 0002:000744e0       ?GetCurrentInterface@CGameClient@@QBE?AW4EGameInterface@@XZ 1919b4e0 f   c_gameclient.obj
 0002:00074660       ?GetGameInfo@IGame@@QBEPAVCGameInfo@@XZ 1919b660 f i c_gameclient.obj
 0002:00074690       ?UpdateCamera@CGameClient@@AAEXXZ 1919b690 f   c_gameclient.obj
 0002:00075530       ?GetExclusiveWidget@CInterface@@QAEPAVIWidget@@XZ 1919c530 f i c_gameclient.obj
 0002:00075560       ?GetSceneX@CInterface@@QBEMXZ 1919c560 f i c_gameclient.obj
 0002:00075590       ?GetSceneY@CInterface@@QBEMXZ 1919c590 f i c_gameclient.obj
 0002:000755c0       ?GetSceneWidth@CInterface@@QBEMXZ 1919c5c0 f i c_gameclient.obj
 0002:000755f0       ?GetSceneHeight@CInterface@@QBEMXZ 1919c5f0 f i c_gameclient.obj
 0002:00075620       ?GetPhaseStartTime@IGame@@QBEIXZ 1919c620 f i c_gameclient.obj
 0002:00075670       ?GetPhaseStartTime@CGameInfo@@QBEIXZ 1919c670 f i c_gameclient.obj
 0002:000756a0       ?GetWinningTeam@IGame@@QBEHXZ 1919c6a0 f i c_gameclient.obj
 0002:000756c0       ?GetBuildingEntity@IGame@@QAEPAVIBuildingEntity@@I@Z 1919c6c0 f i c_gameclient.obj
 0002:00075720       ?GetCameraIndex@CPlayer@@QBEIXZ 1919c720 f i c_gameclient.obj
 0002:00075750       ?PrecacheClientResources@CGameClient@@AAEXXZ 1919c750 f   c_gameclient.obj
 0002:000757a0       ?UpdateNotifyFlags@CGameClient@@AAEXXZ 1919c7a0 f   c_gameclient.obj
 0002:00075990       ?GetUsingCustomFiles@CFileManager@@QBE_NXZ 1919c990 f i c_gameclient.obj
 0002:000759c0       ?GetCoreFilesModified@CFileManager@@QBE_NXZ 1919c9c0 f i c_gameclient.obj
 0002:000759f0       ?ActiveFrame@CGameClient@@AAEXXZ 1919c9f0 f   c_gameclient.obj
 0002:00077810       ?Rect@CDraw2D@@QAEXMMMMIH@Z 1919e810 f i c_gameclient.obj
 0002:00077880       ?Trigger@CGameInterfaceManager@@QAEXIABV?$vector@V?$basic_string@_WU?$char_traits@_W@std@@V?$K2StringAllocator@_W@@@std@@V?$K2VectorAllocator@V?$basic_string@_WU?$char_traits@_W@std@@V?$K2StringAllocator@_W@@@std@@@@@@I@Z 1919e880 f i c_gameclient.obj
 0002:00077940       ?MsToSec@@YAMI@Z           1919e940 f i c_gameclient.obj
 0002:00077980       ??0CPlane@@QAE@ABV?$CVec3@M@@0@Z 1919e980 f i c_gameclient.obj
 0002:000779e0       ?HasServer@CHost@@QBE_NXZ  1919e9e0 f i c_gameclient.obj
 0002:00077a10       ?GetActiveClient@CHost@@QBEPAVCHostClient@@XZ 1919ea10 f i c_gameclient.obj
 0002:00077b20       ??1const_iterator@?$_Tree@V?$_Tmap_traits@IPAVCHostClient@@U?$less@I@std@@V?$K2MapAllocator@U?$pair@$$CBIPAVCHostClient@@@std@@@@$0A@@std@@@std@@QAE@XZ 1919eb20 f i c_gameclient.obj
 0002:00077b50       ??1?$_Bidit@U?$pair@$$CBIPAVCHostClient@@@std@@HPBU12@ABU12@@std@@QAE@XZ 1919eb50 f i c_gameclient.obj
 0002:00077b80       ?SetCenter@CSoundManager@@QAEXABV?$CVec3@M@@@Z 1919eb80 f i c_gameclient.obj
 0002:00077bc0       ?GetTimeOfDay@IGame@@QBEMXZ 1919ebc0 f i c_gameclient.obj
 0002:00077c70       ?EventsFrame@IGame@@QAEXXZ 1919ec70 f i c_gameclient.obj
 0002:00077ca0       ?GetMatchTime@IGame@@QBEIXZ 1919eca0 f i c_gameclient.obj
 0002:00077d20       ?SetX@CCamera@@QAEXM@Z     1919ed20 f i c_gameclient.obj
 0002:00077d50       ?SetY@CCamera@@QAEXM@Z     1919ed50 f i c_gameclient.obj
 0002:00077d80       ?SetWidth@CCamera@@QAEXM@Z 1919ed80 f i c_gameclient.obj
 0002:00077db0       ?SetHeight@CCamera@@QAEXM@Z 1919edb0 f i c_gameclient.obj
 0002:00077de0       ?SetTime@CCamera@@QAEXM@Z  1919ede0 f i c_gameclient.obj
 0002:00077e10       ?SetShadowBias@CCamera@@QAEXM@Z 1919ee10 f i c_gameclient.obj
 0002:00077e40       ?SetShadowMaxFov@CCamera@@QAEXM@Z 1919ee40 f i c_gameclient.obj
 0002:00077e70       ?SetReflect@CCamera@@QAEXABVCPlane@@@Z 1919ee70 f i c_gameclient.obj
 0002:00077ec0       ?GetViewAxis@CCamera@@QBEABV?$CVec3@M@@W4EAxisComponent@@@Z 1919eec0 f i c_gameclient.obj
 0002:00077ef0       ??ACAxis@@QBEABV?$CVec3@M@@H@Z 1919eef0 f i c_gameclient.obj
 0002:00077f20       ?AddFlags@CCamera@@QAEXH@Z 1919ef20 f i c_gameclient.obj
 0002:00077f50       ?RemoveFlags@CCamera@@QAEXH@Z 1919ef50 f i c_gameclient.obj
 0002:00077f80       ?GetAngles@CPlayer@@QBEABV?$CVec3@M@@XZ 1919ef80 f i c_gameclient.obj
 0002:00077fb0       ?SetIsolated@CPlayer@@QAEX_N@Z 1919efb0 f i c_gameclient.obj
 0002:00077fe0       ?SetFullVision@CPlayer@@QAEX_N@Z 1919efe0 f i c_gameclient.obj
 0002:00078010       ??1?$_Vector_iterator@USOverlayInfo@@V?$K2VectorAllocator@USOverlayInfo@@@@@std@@QAE@XZ 1919f010 f i c_gameclient.obj
 0002:00078040       ??1?$_Vector_const_iterator@USOverlayInfo@@V?$K2VectorAllocator@USOverlayInfo@@@@@std@@QAE@XZ 1919f040 f i c_gameclient.obj
 0002:00078070       ??1?$_Ranit@USOverlayInfo@@HPBU1@ABU1@@std@@QAE@XZ 1919f070 f i c_gameclient.obj
 0002:000780a0       ?EndedFrame@CGameClient@@AAEXXZ 1919f0a0 f   c_gameclient.obj
 0002:00078c00       ??0CAxis@@QAE@ABV?$CVec3@M@@@Z 1919fc00 f i c_gameclient.obj
 0002:00078c50       ?Forward@CAxis@@QBEABV?$CVec3@M@@XZ 1919fc50 f i c_gameclient.obj
 0002:00078c70       ?Up@CAxis@@QBEABV?$CVec3@M@@XZ 1919fc70 f i c_gameclient.obj
 0002:00078c90       ?Set@CAxis@@QAEXABV?$CVec3@M@@@Z 1919fc90 f i c_gameclient.obj
 0002:00078d00       ??D@YA?AV?$CVec3@M@@ABV0@ABVCAxis@@@Z 1919fd00 f i c_gameclient.obj
 0002:00078d30       ?TransformPoint@@YA?AV?$CVec3@M@@ABV1@ABVCAxis@@@Z 1919fd30 f i c_gameclient.obj
 0002:00078e90       ?Right@CAxis@@QBEABV?$CVec3@M@@XZ 1919fe90 f i c_gameclient.obj
 0002:00078eb0       ?GetCameraHeight@IGame@@QAEMMM@Z 1919feb0 f i c_gameclient.obj
 0002:00078ef0       ?SetFovXCalc@CCamera@@QAEXM@Z 1919fef0 f i c_gameclient.obj
 0002:00078f30       ?SetViewAxis@CCamera@@QAEXABVCAxis@@@Z 1919ff30 f i c_gameclient.obj
 0002:00078f60       ?SetOrigin@CCamera@@QAEXABV?$CVec3@M@@@Z 1919ff60 f i c_gameclient.obj
 0002:00078fa0       ?GetViewAxis@CCamera@@QBEABVCAxis@@XZ 1919ffa0 f i c_gameclient.obj
 0002:00078fc0       ?BackgroundFrame@CGameClient@@AAEX_N@Z 1919ffc0 f   c_gameclient.obj
 0002:00079020       ?GamePhaseChanged@CGameClient@@AAEXXZ 191a0020 f   c_gameclient.obj
 0002:00079360       ?GetMusicList@CWorld@@QBE?AV?$vector@V?$basic_string@_WU?$char_traits@_W@std@@V?$K2StringAllocator@_W@@@std@@V?$K2VectorAllocator@V?$basic_string@_WU?$char_traits@_W@std@@V?$K2StringAllocator@_W@@@std@@@@@@XZ 191a0360 f i c_gameclient.obj
 0002:000793b0       ?GetMusicShuffle@CWorld@@QBE_NXZ 191a03b0 f i c_gameclient.obj
 0002:000793e0       ?WriteConnectionInfo@CGameClient@@AAEXXZ 191a03e0 f   c_gameclient.obj
 0002:00079730       ?GetMatchID@CGameInfo@@QBEIXZ 191a0730 f i c_gameclient.obj
 0002:00079760       ?Shutdown@CGameClient@@QAEIXZ 191a0760 f   c_gameclient.obj
 0002:000798e0       ?ProcessGameEvents@CGameClient@@QAE_NAAVCSnapshot@@@Z 191a08e0 f   c_gameclient.obj
 0002:000799d0       ?DumpSnapshot@CGameClient@@AAEXAAVCSnapshot@@@Z 191a09d0 f   c_gameclient.obj
 0002:0007b210       ??6CConsoleStream@@QAEAAV0@H@Z 191a2210 f i c_gameclient.obj
 0002:0007b2c0       ??6CConsole@@QAEAAVCConsoleStream@@ABV?$basic_string@_WU?$char_traits@_W@std@@V?$K2StringAllocator@_W@@@std@@@Z 191a22c0 f i c_gameclient.obj
 0002:0007b2f0       ??6CConsole@@QAEAAVCConsoleStream@@I@Z 191a22f0 f i c_gameclient.obj
 0002:0007b320       ?GetUnreadBits@CBufferBit@@QBEIXZ 191a2320 f i c_gameclient.obj
 0002:0007b370       ?GetChanged@CEntitySnapshot@@QBE_NXZ 191a2370 f i c_gameclient.obj
 0002:0007b3a0       ?SetIndex@CEntitySnapshot@@QAEXI@Z 191a23a0 f i c_gameclient.obj
 0002:0007b3d0       ?GetIndex@CEntitySnapshot@@QBEIXZ 191a23d0 f i c_gameclient.obj
 0002:0007b3f0       ?GetType@CEntitySnapshot@@QBEGXZ 191a23f0 f i c_gameclient.obj
 0002:0007b410       ?GetTypeChange@CEntitySnapshot@@QBE_NXZ 191a2410 f i c_gameclient.obj
 0002:0007b440       ?GetChanging@CEntitySnapshot@@QBE_NXZ 191a2440 f i c_gameclient.obj
 0002:0007b470       ?IsFieldSet@CEntitySnapshot@@QBE_NI@Z 191a2470 f i c_gameclient.obj
 0002:0007b4a0       ??1?$_Vector_const_iterator@USDataField@@V?$K2VectorAllocator@USDataField@@@@@std@@QAE@XZ 191a24a0 f i c_gameclient.obj
 0002:0007b4d0       ??1?$_Ranit@USDataField@@HPBU1@ABU1@@std@@QAE@XZ 191a24d0 f i c_gameclient.obj
 0002:0007b500       ?GetByHandle@CEntitySnapshot@@SAPAV1@I@Z 191a2500 f i c_gameclient.obj
 0002:0007b530       ??1?$_Vector_iterator@U?$pair@II@std@@V?$K2VectorAllocator@U?$pair@II@std@@@@@std@@QAE@XZ 191a2530 f i c_gameclient.obj
 0002:0007b560       ??1?$_Vector_iterator@USDataField@@V?$K2VectorAllocator@USDataField@@@@@std@@QAE@XZ 191a2560 f i c_gameclient.obj
 0002:0007b590       ??0?$_Vector_const_iterator@USDataField@@V?$K2VectorAllocator@USDataField@@@@@std@@QAE@ABV01@@Z 191a2590 f i c_gameclient.obj
 0002:0007b5d0       ??1?$_Vector_const_iterator@U?$pair@II@std@@V?$K2VectorAllocator@U?$pair@II@std@@@@@std@@QAE@XZ 191a25d0 f i c_gameclient.obj
 0002:0007b600       ??0?$_Ranit@USDataField@@HPBU1@ABU1@@std@@QAE@ABU01@@Z 191a2600 f i c_gameclient.obj
 0002:0007b630       ??1?$_Ranit@U?$pair@II@std@@HPBU12@ABU12@@std@@QAE@XZ 191a2630 f i c_gameclient.obj
 0002:0007b660       ?ProcessFirstSnapshot@CGameClient@@QAEXXZ 191a2660 f   c_gameclient.obj
 0002:0007b690       ?ProcessSnapshot@CGameClient@@QAE_NAAVCSnapshot@@@Z 191a2690 f   c_gameclient.obj
 0002:000809e0       ?GetTeamID@CTeamInfo@@QBEIXZ 191a79e0 f i c_gameclient.obj
 0002:00080a10       ?StoreMatchLength@CGameInterfaceManager@@QAEXI@Z 191a7a10 f i c_gameclient.obj
 0002:00080ae0       ?XtoS@@YA?AV?$basic_string@DU?$char_traits@D@std@@V?$K2StringAllocator@D@@@std@@GHHH@Z 191a7ae0 f i c_gameclient.obj
 0002:00080b30       ??6CConsoleStream@@QAEAAV0@ABV?$basic_string@DU?$char_traits@D@std@@V?$K2StringAllocator@D@@@std@@@Z 191a7b30 f i c_gameclient.obj
 0002:00080b60       ?SetItemName@CShopItemInfo@@QAEXABV?$basic_string@_WU?$char_traits@_W@std@@V?$K2StringAllocator@_W@@@std@@@Z 191a7b60 f i c_gameclient.obj
 0002:00080b90       ?SetApplyToFrame@CEntitySnapshot@@QAEXI@Z 191a7b90 f i c_gameclient.obj
 0002:00080bc0       ?GetApplyToFrame@CEntitySnapshot@@QBEIXZ 191a7bc0 f i c_gameclient.obj
 0002:00080be0       ?SetVersion@CEntitySnapshot@@QAEXI@Z 191a7be0 f i c_gameclient.obj
 0002:00080c10       ?GetVersion@CEntitySnapshot@@QBEIXZ 191a7c10 f i c_gameclient.obj
 0002:00080c30       ?GetItemType@CShopItemInfo@@QAEGXZ 191a7c30 f i c_gameclient.obj
 0002:00080c60       ?GetTeam@CShopItemInfo@@QAEEXZ 191a7c60 f i c_gameclient.obj
 0002:00080c90       ?RewindRead@CEntitySnapshot@@QBEXXZ 191a7c90 f i c_gameclient.obj
 0002:00080cd0       ?RewindBuffer@CBufferDynamic@@QBEXXZ 191a7cd0 f i c_gameclient.obj
 0002:00080d00       ?DeleteByHandle@CEntitySnapshot@@SAXI@Z 191a7d00 f i c_gameclient.obj
 0002:00080d30       ?Allocate@CEntitySnapshot@@SAIABV1@@Z 191a7d30 f i c_gameclient.obj
 0002:00080d60       ?SetFrame@IGameEntity@@QAEXI@Z 191a7d60 f i c_gameclient.obj
 0002:00080d90       ?GetGameName@CGameInfo@@QBE?AV?$basic_string@_WU?$char_traits@_W@std@@V?$K2StringAllocator@_W@@@std@@XZ 191a7d90 f i c_gameclient.obj
 0002:00080df0       ?GetMatchLength@CGameInfo@@QBEIXZ 191a7df0 f i c_gameclient.obj
 0002:00080e20       ?RemoveTeam@IGame@@QAEXI@Z 191a7e20 f i c_gameclient.obj
 0002:00080f40       ?SynchNewEvents@IGame@@QAEXXZ 191a7f40 f i c_gameclient.obj
 0002:00080f70       ?DeleteRelatedEvents@IGame@@QAEXI@Z 191a7f70 f i c_gameclient.obj
 0002:00080fa0       ??1iterator@?$_Tree@V?$_Tmap_traits@IPAVCTeamInfo@@U?$less@I@std@@V?$K2MapAllocator@U?$pair@$$CBIPAVCTeamInfo@@@std@@@@$0A@@std@@@std@@QAE@XZ 191a7fa0 f i c_gameclient.obj
 0002:00080fd0       ??0iterator@?$_Tree@V?$_Tmap_traits@IPAVCTeamInfo@@U?$less@I@std@@V?$K2MapAllocator@U?$pair@$$CBIPAVCTeamInfo@@@std@@@@$0A@@std@@@std@@QAE@ABV012@@Z 191a7fd0 f i c_gameclient.obj
 0002:00081000       ?GetResetSequence@IVisualEntity@@QBEEXZ 191a8000 f i c_gameclient.obj
 0002:00081030       ??0?$_Vector_iterator@U?$pair@II@std@@V?$K2VectorAllocator@U?$pair@II@std@@@@@std@@QAE@ABV01@@Z 191a8030 f i c_gameclient.obj
 0002:00081060       ??4?$_Vector_iterator@U?$pair@II@std@@V?$K2VectorAllocator@U?$pair@II@std@@@@@std@@QAEAAV01@ABV01@@Z 191a8060 f i c_gameclient.obj
 0002:00081090       ??0?$_Vector_const_iterator@U?$pair@II@std@@V?$K2VectorAllocator@U?$pair@II@std@@@@@std@@QAE@ABV01@@Z 191a8090 f i c_gameclient.obj
 0002:000810d0       ??4?$_Vector_const_iterator@U?$pair@II@std@@V?$K2VectorAllocator@U?$pair@II@std@@@@@std@@QAEAAV01@ABV01@@Z 191a80d0 f i c_gameclient.obj
 0002:00081110       ??0?$_Ranit@U?$pair@II@std@@HPBU12@ABU12@@std@@QAE@ABU01@@Z 191a8110 f i c_gameclient.obj
 0002:00081140       ??4?$_Ranit@U?$pair@II@std@@HPBU12@ABU12@@std@@QAEAAU01@ABU01@@Z 191a8140 f i c_gameclient.obj
 0002:00081170       ?ProcessGameData@CGameClient@@QAE_NAAVCPacket@@@Z 191a8170 f   c_gameclient.obj
 0002:0009b460       ?GetName@CTeamInfo@@QBEABV?$basic_string@_WU?$char_traits@_W@std@@V?$K2StringAllocator@_W@@@std@@XZ 191c2460 f i c_gameclient.obj
 0002:0009b4a0       ?GetColor@CTeamInfo@@QBEABV?$CVec4@M@@XZ 191c24a0 f i c_gameclient.obj
 0002:0009b4d0       ?SetShopLock@CGameInterfaceManager@@QAEX_N@Z 191c24d0 f i c_gameclient.obj
 0002:0009b500       ?GetTouchSound@CPowerupDefinition@@QBEIXZ 191c2500 f i c_gameclient.obj
 0002:0009b530       ?XtoW@@YA?AV?$basic_string@_WU?$char_traits@_W@std@@V?$K2StringAllocator@_W@@@std@@EHHH@Z 191c2530 f i c_gameclient.obj
 0002:0009b580       ?XtoW@@YA?AV?$basic_string@_WU?$char_traits@_W@std@@V?$K2StringAllocator@_W@@@std@@GHHH@Z 191c2580 f i c_gameclient.obj
 0002:0009b5d0       ?FormatTimeW@@YA?AV?$basic_string@_WU?$char_traits@_W@std@@V?$K2StringAllocator@_W@@@std@@IHII@Z 191c25d0 f i c_gameclient.obj
 0002:0009b620       ??$GetInlineColorString@V?$basic_string@_WU?$char_traits@_W@std@@V?$K2StringAllocator@_W@@@std@@@@YA?AV?$basic_string@_WU?$char_traits@_W@std@@V?$K2StringAllocator@_W@@@std@@ABV?$CVec4@M@@@Z 191c2620 f i c_gameclient.obj
 0002:0009b8d0       ??4?$CCvar@V?$basic_string@_WU?$char_traits@_W@std@@V?$K2StringAllocator@_W@@@std@@V12@@@QAEABV?$basic_string@_WU?$char_traits@_W@std@@V?$K2StringAllocator@_W@@@std@@ABV12@@Z 191c28d0 f i c_gameclient.obj
 0002:0009b910       ?GetChatNameColorString@CHost@@QBEABV?$basic_string@_WU?$char_traits@_W@std@@V?$K2StringAllocator@_W@@@std@@I@Z 191c2910 f i c_gameclient.obj
 0002:0009b940       ?GetChatNameColorString@CUpgrades@@QBEABV?$basic_string@_WU?$char_traits@_W@std@@V?$K2StringAllocator@_W@@@std@@I@Z 191c2940 f i c_gameclient.obj
 0002:0009b9b0       ?GetColor@CChatNameColor@@QBEABV?$basic_string@_WU?$char_traits@_W@std@@V?$K2StringAllocator@_W@@@std@@XZ 191c29b0 f i c_gameclient.obj
 0002:0009b9d0       ?GetAnnouncerSound@CHeroDefinition@@QBEIXZ 191c29d0 f i c_gameclient.obj
 0002:0009ba00       ?PrecacheAnnouncerSound@CHeroDefinition@@QAEXXZ 191c2a00 f i c_gameclient.obj
 0002:0009ba50       ?GetUsePlayerColor@CPopup@@QBE_NXZ 191c2a50 f i c_gameclient.obj
 0002:0009ba70       ?GetColor@CPopup@@QBEABV?$CVec4@M@@XZ 191c2a70 f i c_gameclient.obj
 0002:0009ba90       ?GetStartX@CPopup@@QBEMXZ  191c2a90 f i c_gameclient.obj
 0002:0009bab0       ?GetStartY@CPopup@@QBEMXZ  191c2ab0 f i c_gameclient.obj
 0002:0009bad0       ?GetSpeedX@CPopup@@QBEMXZ  191c2ad0 f i c_gameclient.obj
 0002:0009baf0       ?GetSpeedY@CPopup@@QBEMXZ  191c2af0 f i c_gameclient.obj
 0002:0009bb10       ?GetDuration@CPopup@@QBEIXZ 191c2b10 f i c_gameclient.obj
 0002:0009bb30       ?GetFadeTime@CPopup@@QBEIXZ 191c2b30 f i c_gameclient.obj
 0002:0009bb50       ??1?$vector@HV?$K2VectorAllocator@H@@@@QAE@XZ 191c2b50 f i c_gameclient.obj
 0002:0009bb80       ?GetTeamNameString@@YA?AV?$basic_string@_WU?$char_traits@_W@std@@V?$K2StringAllocator@_W@@@std@@I@Z 191c2b80 f i c_gameclient.obj
 0002:0009bcc0       ?GetTeamColorString@@YA?AV?$basic_string@_WU?$char_traits@_W@std@@V?$K2StringAllocator@_W@@@std@@I@Z 191c2cc0 f i c_gameclient.obj
 0002:0009be20       ?SetFirstBanTeam@CGameInfo@@QAEXI@Z 191c2e20 f i c_gameclient.obj
 0002:0009be50       ?HasGameOptions@IGame@@QBE_NI@Z 191c2e50 f i c_gameclient.obj
 0002:0009bea0       ?HasGameOptions@CGameInfo@@QBE_NI@Z 191c2ea0 f i c_gameclient.obj
 0002:0009bee0       ?GetPopup@IGame@@QAEPBVCPopup@@E@Z 191c2ee0 f i c_gameclient.obj
 0002:0009bf40       ?GetPopup@CGameMechanics@@QBEPBVCPopup@@E@Z 191c2f40 f i c_gameclient.obj
 0002:0009bfa0       ?GetPlayerFromClientNumber@IGame@@QAEPAVCPlayer@@H@Z 191c2fa0 f i c_gameclient.obj
 0002:0009c0b0       ?SpawnThread@IGame@@QAEPAVCScriptThread@@ABV?$basic_string@_WU?$char_traits@_W@std@@V?$K2StringAllocator@_W@@@std@@I@Z 191c30b0 f i c_gameclient.obj
 0002:0009c0f0       ?Advance@CPacket@@QAEXI@Z  191c30f0 f i c_gameclient.obj
 0002:0009c140       ?HasFaults@CPacket@@QBE_NXZ 191c3140 f i c_gameclient.obj
 0002:0009c170       ?GetFaults@IBuffer@@QBEHXZ 191c3170 f i c_gameclient.obj
 0002:0009c190       ?SelectPotentialHero@CPlayer@@QAEXG@Z 191c3190 f i c_gameclient.obj
 0002:0009c1c0       ?HasSelectedHero@CPlayer@@QBE_NXZ 191c31c0 f i c_gameclient.obj
 0002:0009c200       ?GetName@CPlayer@@QBEABV?$basic_string@_WU?$char_traits@_W@std@@V?$K2StringAllocator@_W@@@std@@XZ 191c3200 f i c_gameclient.obj
 0002:0009c240       ?SetBlindPick@CPlayer@@QAEX_N@Z 191c3240 f i c_gameclient.obj
 0002:0009c270       ?SetOrderTime@IVisualEntity@@QAEXI@Z 191c3270 f i c_gameclient.obj
 0002:0009c2a0       ??1iterator@?$_Tree@V?$_Tmap_traits@EIU?$less@E@std@@V?$K2MapAllocator@U?$pair@$$CBEI@std@@@@$0A@@std@@@std@@QAE@XZ 191c32a0 f i c_gameclient.obj
 0002:0009c2d0       ??1const_iterator@?$_Tree@V?$_Tmap_traits@EIU?$less@E@std@@V?$K2MapAllocator@U?$pair@$$CBEI@std@@@@$0A@@std@@@std@@QAE@XZ 191c32d0 f i c_gameclient.obj
 0002:0009c300       ??1?$_Bidit@U?$pair@$$CBEI@std@@HPBU12@ABU12@@std@@QAE@XZ 191c3300 f i c_gameclient.obj
 0002:0009c330       ?IsVisible@CGameClient@@QAE_NMM@Z 191c3330 f   c_gameclient.obj
 0002:0009c440       ?INT_FLOOR@@YAHM@Z         191c3440 f i c_gameclient.obj
 0002:0009c460       ?SendGameData@CGameClient@@QAEXABVIBuffer@@_N@Z 191c3460 f   c_gameclient.obj
 0002:0009c4a0       ?MinimapPing@CGameClient@@QAEXEE@Z 191c34a0 f   c_gameclient.obj
 0002:0009c830       ?GetHeroStatus@CGameClient@@QBEEG@Z 191c3830 f   c_gameclient.obj
 0002:0009c990       ??1?$_Vector_const_iterator@U?$pair@GE@std@@V?$K2VectorAllocator@U?$pair@GE@std@@@@@std@@QAE@XZ 191c3990 f i c_gameclient.obj
 0002:0009c9c0       ??1?$_Ranit@U?$pair@GE@std@@HPBU12@ABU12@@std@@QAE@XZ 191c39c0 f i c_gameclient.obj
 0002:0009c9f0       ?TraceCursor@CGameClient@@QAE_NAAUSTraceInfo@@H@Z 191c39f0 f   c_gameclient.obj
 0002:0009cad0       ?Cancel@CGameClient@@QAEXXZ 191c3ad0 f   c_gameclient.obj
 0002:0009cc80       ?AddOverlay@CGameClient@@UAEXABV?$CVec4@M@@I@Z 191c3c80 f   c_gameclient.obj
 0002:0009ccf0       ??0SOverlayInfo@@QAE@XZ    191c3cf0 f i c_gameclient.obj
 0002:0009cd20       ?AddOverlay@CGameClient@@UAEXABV?$CVec4@M@@@Z 191c3d20 f   c_gameclient.obj
 0002:0009cd70       ?GetWhiteTexture@CResourceManager@@QBEIXZ 191c3d70 f i c_gameclient.obj
 0002:0009cd90       ?StartEffect@CGameClient@@QAEXABV?$basic_string@_WU?$char_traits@_W@std@@V?$K2StringAllocator@_W@@@std@@HH@Z 191c3d90 f   c_gameclient.obj
 0002:0009cdf0       ?StopEffect@CGameClient@@QAEXH@Z 191c3df0 f   c_gameclient.obj
 0002:0009ce40       ?PlaySound@CGameClient@@QAEXABV?$basic_string@_WU?$char_traits@_W@std@@V?$K2StringAllocator@_W@@@std@@HMMHHHH_NHMMHM@Z 191c3e40 f   c_gameclient.obj
 0002:0009d000       ?PlaySoundStationary@CGameClient@@QAEXABV?$basic_string@_WU?$char_traits@_W@std@@V?$K2StringAllocator@_W@@@std@@HMM@Z 191c4000 f   c_gameclient.obj
 0002:0009d1c0       ?StopSound@CGameClient@@QAEXH@Z 191c41c0 f   c_gameclient.obj
 0002:0009d1f0       ?PlayClientGameSound@CGameClient@@QAEXABV?$basic_string@_WU?$char_traits@_W@std@@V?$K2StringAllocator@_W@@@std@@HMHHHH_NHMMH@Z 191c41f0 f   c_gameclient.obj
 0002:0009d4b0       ?StopClientGameSound@CGameClient@@QAEXH@Z 191c44b0 f   c_gameclient.obj
 0002:0009d520       ?GetClientEntity@CGameClient@@QBEPAVCClientEntity@@I@Z 191c4520 f   c_gameclient.obj
 0002:0009d550       ?GetClientEntityCurrent@CGameClient@@QBEPAVIVisualEntity@@I@Z 191c4550 f   c_gameclient.obj
 0002:0009d580       ?GetClientEntityPrev@CGameClient@@QBEPAVIVisualEntity@@I@Z 191c4580 f   c_gameclient.obj
 0002:0009d5b0       ?GetClientEntityNext@CGameClient@@QBEPAVIVisualEntity@@I@Z 191c45b0 f   c_gameclient.obj
 0002:0009d5e0       ?GetPlayerByName@CGameClient@@QBEPAVCPlayer@@ABV?$basic_string@_WU?$char_traits@_W@std@@V?$K2StringAllocator@_W@@@std@@@Z 191c45e0 f   c_gameclient.obj
 0002:0009d600       ?GetNumClients@CGameClient@@QBEIXZ 191c4600 f   c_gameclient.obj
 0002:0009d730       ?UpdateMinimap@CGameClient@@QAEXXZ 191c4730 f   c_gameclient.obj
 0002:0009e6f0       ?GetMinimapPadding@CWorld@@QBEABV?$CVec4@M@@XZ 191c56f0 f i c_gameclient.obj
 0002:0009e720       ??1?$vector@PAVIUnitEntity@@V?$K2VectorAllocator@PAVIUnitEntity@@@@@@QAE@XZ 191c5720 f i c_gameclient.obj
 0002:0009e750       ??1?$_Vector_iterator@PAVIUnitEntity@@V?$K2VectorAllocator@PAVIUnitEntity@@@@@std@@QAE@XZ 191c5750 f i c_gameclient.obj
 0002:0009e780       ??4?$_Vector_iterator@PAVIUnitEntity@@V?$K2VectorAllocator@PAVIUnitEntity@@@@@std@@QAEAAV01@ABV01@@Z 191c5780 f i c_gameclient.obj
 0002:0009e7b0       ??1?$_Vector_const_iterator@PAVIUnitEntity@@V?$K2VectorAllocator@PAVIUnitEntity@@@@@std@@QAE@XZ 191c57b0 f i c_gameclient.obj
 0002:0009e7e0       ??4?$_Vector_const_iterator@PAVIUnitEntity@@V?$K2VectorAllocator@PAVIUnitEntity@@@@@std@@QAEAAV01@ABV01@@Z 191c57e0 f i c_gameclient.obj
 0002:0009e820       ??1?$_Ranit@PAVIUnitEntity@@HPBQAV1@ABQAV1@@std@@QAE@XZ 191c5820 f i c_gameclient.obj
 0002:0009e850       ??4?$_Ranit@PAVIUnitEntity@@HPBQAV1@ABQAV1@@std@@QAEAAU01@ABU01@@Z 191c5850 f i c_gameclient.obj
 0002:0009e880       ?UpdateMinimapHover@CGameClient@@QAEIXZ 191c5880 f   c_gameclient.obj
 0002:0009fae0       ?UpdateMinimapPings@CGameClient@@QAEXXZ 191c6ae0 f   c_gameclient.obj
 0002:0009ffc0       ??1?$_Vector_iterator@USMinimapPing@@V?$K2VectorAllocator@USMinimapPing@@@@@std@@QAE@XZ 191c6fc0 f i c_gameclient.obj
 0002:0009fff0       ??0?$_Vector_iterator@USMinimapPing@@V?$K2VectorAllocator@USMinimapPing@@@@@std@@QAE@ABV01@@Z 191c6ff0 f i c_gameclient.obj
 0002:000a0020       ??4?$_Vector_iterator@USMinimapPing@@V?$K2VectorAllocator@USMinimapPing@@@@@std@@QAEAAV01@ABV01@@Z 191c7020 f i c_gameclient.obj
 0002:000a0050       ??1?$_Vector_const_iterator@USMinimapPing@@V?$K2VectorAllocator@USMinimapPing@@@@@std@@QAE@XZ 191c7050 f i c_gameclient.obj
 0002:000a0080       ??0?$_Vector_const_iterator@USMinimapPing@@V?$K2VectorAllocator@USMinimapPing@@@@@std@@QAE@ABV01@@Z 191c7080 f i c_gameclient.obj
 0002:000a00c0       ??4?$_Vector_const_iterator@USMinimapPing@@V?$K2VectorAllocator@USMinimapPing@@@@@std@@QAEAAV01@ABV01@@Z 191c70c0 f i c_gameclient.obj
 0002:000a0100       ??1?$_Ranit@USMinimapPing@@HPBU1@ABU1@@std@@QAE@XZ 191c7100 f i c_gameclient.obj
 0002:000a0130       ??0?$_Ranit@USMinimapPing@@HPBU1@ABU1@@std@@QAE@ABU01@@Z 191c7130 f i c_gameclient.obj
 0002:000a0160       ??4?$_Ranit@USMinimapPing@@HPBU1@ABU1@@std@@QAEAAU01@ABU01@@Z 191c7160 f i c_gameclient.obj
 0002:000a0190       ?UpdateMinimapTexture@CGameClient@@QAEXXZ 191c7190 f   c_gameclient.obj
 0002:000a1430       ?BYTE_ROUND@@YAEM@Z        191c8430 f i c_gameclient.obj
 0002:000a1470       ?GetPath@CWorld@@QBEABV?$basic_string@_WU?$char_traits@_W@std@@V?$K2StringAllocator@_W@@@std@@XZ 191c8470 f i c_gameclient.obj
 0002:000a1490       ?GetTexelDensity@CWorld@@QBEHXZ 191c8490 f i c_gameclient.obj
 0002:000a14c0       ?GetTileNormal@CWorld@@QBEABV?$CVec3@M@@HHW4EGridTriangles@@@Z 191c84c0 f i c_gameclient.obj
 0002:000a1500       ?GetGridColor@CWorld@@QBEABV?$CVec4@E@@HH@Z 191c8500 f i c_gameclient.obj
 0002:000a1540       ?GetTexelAlpha@CWorld@@QBEEHH@Z 191c8540 f i c_gameclient.obj
 0002:000a15a0       ?GetTileDiffuseTexture@CWorld@@QBEIHHH@Z 191c85a0 f i c_gameclient.obj
 0002:000a15f0       ?GetTextureHandle@CWorld@@QBEIH@Z 191c85f0 f i c_gameclient.obj
 0002:000a1630       ??1?$map@IV?$CVec4@E@@U?$less@I@std@@V?$K2MapAllocator@U?$pair@$$CBIV?$CVec4@E@@@std@@@@@@QAE@XZ 191c8630 f i c_gameclient.obj
 0002:000a1660       ??1iterator@?$_Tree@V?$_Tmap_traits@IV?$CVec4@E@@U?$less@I@std@@V?$K2MapAllocator@U?$pair@$$CBIV?$CVec4@E@@@std@@@@$0A@@std@@@std@@QAE@XZ 191c8660 f i c_gameclient.obj
 0002:000a1690       ??1?$map@IV?$CVec4@E@@U?$less@I@std@@V?$K2MapAllocator@U?$pair@$$CBIV?$CVec4@E@@@std@@@@@std@@QAE@XZ 191c8690 f i c_gameclient.obj
 0002:000a16c0       ??1const_iterator@?$_Tree@V?$_Tmap_traits@IV?$CVec4@E@@U?$less@I@std@@V?$K2MapAllocator@U?$pair@$$CBIV?$CVec4@E@@@std@@@@$0A@@std@@@std@@QAE@XZ 191c86c0 f i c_gameclient.obj
 0002:000a16f0       ??1?$_Bidit@U?$pair@$$CBIV?$CVec4@E@@@std@@HPBU12@ABU12@@std@@QAE@XZ 191c86f0 f i c_gameclient.obj
 0002:000a1720       ?ForceInterfaceRefresh@CGameClient@@QAEXXZ 191c8720 f   c_gameclient.obj
 0002:000a1750       ?Rebuild@CEntityStringTableWatcher@@UAEXI@Z 191c8750 f   c_gameclient.obj
 0002:000a17a0       ?DrawAreaCast@CGameClient@@AAEXXZ 191c87a0 f   c_gameclient.obj
 0002:000a26b0       ?GetTracePosition@CClientCommander@@QBEABV?$CVec3@M@@XZ 191c96b0 f i c_gameclient.obj
 0002:000a26d0       ?GetHoverEntity@CClientCommander@@QBEIXZ 191c96d0 f i c_gameclient.obj
 0002:000a26f0       ?GetActiveSlot@CClientCommander@@QBEHXZ 191c96f0 f i c_gameclient.obj
 0002:000a2720       ?SetHighlightFrame@IVisualEntity@@QAEXXZ 191c9720 f i c_gameclient.obj
 0002:000a2760       ?GetFrame@CHost@@QAEIXZ    191c9760 f i c_gameclient.obj
 0002:000a2780       ?SetHighlightColor@IVisualEntity@@QAEXABV?$CVec4@M@@@Z 191c9780 f i c_gameclient.obj
 0002:000a27d0       ?IsEntitySelected@CGameClient@@UAE_NI@Z 191c97d0 f   c_gameclient.obj
 0002:000a2800       ?IsSelected@CClientCommander@@QAE_NI@Z 191c9800 f i c_gameclient.obj
 0002:000a2a60       ?IsEntityHoverSelected@CGameClient@@UAE_NI@Z 191c9a60 f   c_gameclient.obj
 0002:000a2a90       ?IsHoverSelected@CClientCommander@@QAE_NI@Z 191c9a90 f i c_gameclient.obj
 0002:000a2b70       ?GetActiveControlEntity@CGameClient@@UAEIXZ 191c9b70 f   c_gameclient.obj
 0002:000a2ba0       ?GetActiveControlEntity@CClientCommander@@QBEIXZ 191c9ba0 f i c_gameclient.obj
 0002:000a2bd0       ?GetLocalClientNum@CGameClient@@UAEHXZ 191c9bd0 f   c_gameclient.obj
 0002:000a2c00       ?DrawVoiceInfo@CGameClient@@AAEXXZ 191c9c00 f   c_gameclient.obj
 0002:000a2c20       ?DrawAltInfo@CGameClient@@AAEXXZ 191c9c20 f   c_gameclient.obj
 0002:000a4c10       ?Trigger@CGameInterfaceManager@@QAEXIABV?$basic_string@_WU?$char_traits@_W@std@@V?$K2StringAllocator@_W@@@std@@I@Z 191cbc10 f i c_gameclient.obj
 0002:000a4cd0       ?GetModifier3@CClientCommander@@QAE_NXZ 191cbcd0 f i c_gameclient.obj
 0002:000a4cf0       ?IsDragSelecting@CClientCommander@@QAE_NXZ 191cbcf0 f i c_gameclient.obj
 0002:000a4d60       ?GetHoveredEntities@CClientCommander@@QBEABV?$set@IU?$less@I@std@@V?$K2SetAllocator@I@@@@XZ 191cbd60 f i c_gameclient.obj
 0002:000a4d90       ?GetShowLifetime@CGadgetDefinition@@QBE_NXZ 191cbd90 f i c_gameclient.obj
 0002:000a4dc0       ?GetWorldBounds@CWorldEntity@@QBEABV?$CBoundingBox@M@@XZ 191cbdc0 f i c_gameclient.obj
 0002:000a4de0       ?SetAlwaysUpdate@CInterface@@QAEX_N@Z 191cbde0 f i c_gameclient.obj
 0002:000a4e10       ?GetExperienceRange@IGame@@QBEMXZ 191cbe10 f i c_gameclient.obj
 0002:000a4e80       ?GetWidth@CCamera@@QBEMXZ  191cbe80 f i c_gameclient.obj
 0002:000a4ea0       ?GetHeight@CCamera@@QBEMXZ 191cbea0 f i c_gameclient.obj
 0002:000a4ec0       ?SendMessage@CGameClient@@UAEXABV?$basic_string@_WU?$char_traits@_W@std@@V?$K2StringAllocator@_W@@@std@@H@Z 191cbec0 f   c_gameclient.obj
 0002:000a4f30       ?DrawPopupMessages@CGameClient@@AAEXXZ 191cbf30 f   c_gameclient.obj
 0002:000a58d0       ??1?$_Vector_iterator@USPopupMessage@@V?$K2VectorAllocator@USPopupMessage@@@@@std@@QAE@XZ 191cc8d0 f i c_gameclient.obj
 0002:000a5900       ??0?$_Vector_iterator@USPopupMessage@@V?$K2VectorAllocator@USPopupMessage@@@@@std@@QAE@ABV01@@Z 191cc900 f i c_gameclient.obj
 0002:000a5930       ??4?$_Vector_iterator@USPopupMessage@@V?$K2VectorAllocator@USPopupMessage@@@@@std@@QAEAAV01@ABV01@@Z 191cc930 f i c_gameclient.obj
 0002:000a5960       ??1?$_Vector_const_iterator@USPopupMessage@@V?$K2VectorAllocator@USPopupMessage@@@@@std@@QAE@XZ 191cc960 f i c_gameclient.obj
 0002:000a5990       ??0?$_Vector_const_iterator@USPopupMessage@@V?$K2VectorAllocator@USPopupMessage@@@@@std@@QAE@ABV01@@Z 191cc990 f i c_gameclient.obj
 0002:000a59d0       ??4?$_Vector_const_iterator@USPopupMessage@@V?$K2VectorAllocator@USPopupMessage@@@@@std@@QAEAAV01@ABV01@@Z 191cc9d0 f i c_gameclient.obj
 0002:000a5a10       ??1?$_Ranit@USPopupMessage@@HPBU1@ABU1@@std@@QAE@XZ 191cca10 f i c_gameclient.obj
 0002:000a5a40       ??0?$_Ranit@USPopupMessage@@HPBU1@ABU1@@std@@QAE@ABU01@@Z 191cca40 f i c_gameclient.obj
 0002:000a5a70       ??4?$_Ranit@USPopupMessage@@HPBU1@ABU1@@std@@QAEAAU01@ABU01@@Z 191cca70 f i c_gameclient.obj
 0002:000a5aa0       ?SpawnPopupMessage@CGameClient@@QAEXABV?$basic_string@_WU?$char_traits@_W@std@@V?$K2StringAllocator@_W@@@std@@IABV?$CVec4@M@@MMMMIII@Z 191ccaa0 f   c_gameclient.obj
 0002:000a5c50       ??0SPopupMessage@@QAE@XZ   191ccc50 f i c_gameclient.obj
 0002:000a5d10       ??1SPopupMessage@@QAE@XZ   191ccd10 f i c_gameclient.obj
 0002:000a5d40       ?SpawnMinimapPing@CGameClient@@QAEXIABV?$CVec2@M@@ABV?$CVec4@M@@_N@Z 191ccd40 f   c_gameclient.obj
 0002:000a5da0       ?PrecacheEntities@CGameClient@@AAEXXZ 191ccda0 f   c_gameclient.obj
 0002:000a6580       ?GetSize@?$CArrayCvar@V?$basic_string@_WU?$char_traits@_W@std@@V?$K2StringAllocator@_W@@@std@@@@QBEIXZ 191cd580 f i c_gameclient.obj
 0002:000a65b0       ??A?$CArrayCvar@V?$basic_string@_WU?$char_traits@_W@std@@V?$K2StringAllocator@_W@@@std@@@@QAEABV?$basic_string@_WU?$char_traits@_W@std@@V?$K2StringAllocator@_W@@@std@@H@Z 191cd5b0 f i c_gameclient.obj
 0002:000a65e0       ?GetItems@CShopDefinition@@QBEABV?$vector@V?$basic_string@_WU?$char_traits@_W@std@@V?$K2StringAllocator@_W@@@std@@V?$K2VectorAllocator@V?$basic_string@_WU?$char_traits@_W@std@@V?$K2StringAllocator@_W@@@std@@@@@@XZ 191cd5e0 f i c_gameclient.obj
 0002:000a6610       ??1?$_Vector_iterator@GV?$K2VectorAllocator@G@@@std@@QAE@XZ 191cd610 f i c_gameclient.obj
 0002:000a6640       ??1?$_Vector_const_iterator@GV?$K2VectorAllocator@G@@@std@@QAE@XZ 191cd640 f i c_gameclient.obj
 0002:000a6670       ??1?$_Ranit@GHPBGABG@std@@QAE@XZ 191cd670 f i c_gameclient.obj
 0002:000a66a0       ?DrawFogofWar@CGameClient@@AAEXXZ 191cd6a0 f   c_gameclient.obj
 0002:000a7480       ?GetOcclusion@CWorld@@QAE_NABV?$CRect@H@@PAEM@Z 191ce480 f i c_gameclient.obj
 0002:000a74c0       ?HasVisibilityFlags@IVisualEntity@@QBE_NG@Z 191ce4c0 f i c_gameclient.obj
 0002:000a7500       ?StartClientGameEffect@CGameClient@@QAEHIHHABV?$CVec3@M@@@Z 191ce500 f   c_gameclient.obj
 0002:000a7910       ?SetSourcePos@CEffectThread@@QAEXABV?$CVec3@M@@@Z 191ce910 f i c_gameclient.obj
 0002:000a7950       ?SetSourceAxis@CEffectThread@@QAEXABVCAxis@@@Z 191ce950 f i c_gameclient.obj
 0002:000a7990       ?SetSourceScale@CEffectThread@@QAEXM@Z 191ce990 f i c_gameclient.obj
 0002:000a79c0       ?StopClientGameEffect@CGameClient@@QAEXH@Z 191ce9c0 f   c_gameclient.obj
 0002:000a7a60       ?UpdateClientGameEffect@CGameClient@@AAEXH_NABV?$CVec3@M@@@Z 191cea60 f   c_gameclient.obj
 0002:000a7b80       ?AddClientGameEffects@CGameClient@@AAEXXZ 191ceb80 f   c_gameclient.obj
 0002:000a7f00       ?GetStateString@CGameClient@@UAEAAVCStateString@@I@Z 191cef00 f   c_gameclient.obj
 0002:000a7f40       ?GetStateBlock@CGameClient@@UAEAAVCStateBlock@@I@Z 191cef40 f   c_gameclient.obj
 0002:000a7f80       ?GetServerFrame@CGameClient@@UAEIXZ 191cef80 f   c_gameclient.obj
 0002:000a7fb0       ?GetServerTime@CGameClient@@UBEIXZ 191cefb0 f   c_gameclient.obj
 0002:000a7fe0       ?GetPrevServerTime@CGameClient@@UAEIXZ 191cefe0 f   c_gameclient.obj
 0002:000a8010       ?GetServerFrameLength@CGameClient@@UAEIXZ 191cf010 f   c_gameclient.obj
 0002:000a8100       ?SecToMs@@YAIM@Z           191cf100 f i c_gameclient.obj
 0002:000a8150       ?GetServerVersion@CGameClient@@UAE?AV?$basic_string@_WU?$char_traits@_W@std@@V?$K2StringAllocator@_W@@@std@@XZ 191cf150 f   c_gameclient.obj
 0002:000a8220       ?SendClientSnapshot@CGameClient@@AAEXXZ 191cf220 f   c_gameclient.obj
 0002:000a86d0       ?StopWorldSounds@CGameClient@@AAEXXZ 191cf6d0 f   c_gameclient.obj
 0002:000a8890       ??1iterator@?$_Tree@V?$_Tmap_traits@HUSWorldSound@CGameClient@@U?$less@H@std@@V?$K2MapAllocator@U?$pair@$$CBHUSWorldSound@CGameClient@@@std@@@@$0A@@std@@@std@@QAE@XZ 191cf890 f i c_gameclient.obj
 0002:000a88c0       ??0iterator@?$_Tree@V?$_Tmap_traits@HUSWorldSound@CGameClient@@U?$less@H@std@@V?$K2MapAllocator@U?$pair@$$CBHUSWorldSound@CGameClient@@@std@@@@$0A@@std@@@std@@QAE@ABV012@@Z 191cf8c0 f i c_gameclient.obj
 0002:000a88f0       ??4iterator@?$_Tree@V?$_Tmap_traits@HUSWorldSound@CGameClient@@U?$less@H@std@@V?$K2MapAllocator@U?$pair@$$CBHUSWorldSound@CGameClient@@@std@@@@$0A@@std@@@std@@QAEAAV012@ABV012@@Z 191cf8f0 f i c_gameclient.obj
 0002:000a8920       ??1const_iterator@?$_Tree@V?$_Tmap_traits@HUSWorldSound@CGameClient@@U?$less@H@std@@V?$K2MapAllocator@U?$pair@$$CBHUSWorldSound@CGameClient@@@std@@@@$0A@@std@@@std@@QAE@XZ 191cf920 f i c_gameclient.obj
 0002:000a8950       ??0const_iterator@?$_Tree@V?$_Tmap_traits@HUSWorldSound@CGameClient@@U?$less@H@std@@V?$K2MapAllocator@U?$pair@$$CBHUSWorldSound@CGameClient@@@std@@@@$0A@@std@@@std@@QAE@ABV012@@Z 191cf950 f i c_gameclient.obj
 0002:000a8990       ??4const_iterator@?$_Tree@V?$_Tmap_traits@HUSWorldSound@CGameClient@@U?$less@H@std@@V?$K2MapAllocator@U?$pair@$$CBHUSWorldSound@CGameClient@@@std@@@@$0A@@std@@@std@@QAEAAV012@ABV012@@Z 191cf990 f i c_gameclient.obj
 0002:000a89d0       ??1?$_Bidit@U?$pair@$$CBHUSWorldSound@CGameClient@@@std@@HPBU12@ABU12@@std@@QAE@XZ 191cf9d0 f i c_gameclient.obj
 0002:000a8a00       ??0?$_Bidit@U?$pair@$$CBHUSWorldSound@CGameClient@@@std@@HPBU12@ABU12@@std@@QAE@ABU01@@Z 191cfa00 f i c_gameclient.obj
 0002:000a8a30       ??4?$_Bidit@U?$pair@$$CBHUSWorldSound@CGameClient@@@std@@HPBU12@ABU12@@std@@QAEAAU01@ABU01@@Z 191cfa30 f i c_gameclient.obj
 0002:000a8a60       ?WorldSoundsFrame@CGameClient@@AAEXXZ 191cfa60 f   c_gameclient.obj
 0002:000a8d10       ?GetPosition@CWorldSound@@QBEABV?$CVec3@M@@XZ 191cfd10 f i c_gameclient.obj
 0002:000a8d30       ?GetVolume@CWorldSound@@QBEMXZ 191cfd30 f i c_gameclient.obj
 0002:000a8d50       ?GetFalloff@CWorldSound@@QBEMXZ 191cfd50 f i c_gameclient.obj
 0002:000a8d70       ?GetLoopDelay@CWorldSound@@QBEABV?$CRange@H@@XZ 191cfd70 f i c_gameclient.obj
 0002:000a8d90       ?GetWorldSound@IGame@@QAEPAVCWorldSound@@I_N@Z 191cfd90 f i c_gameclient.obj
 0002:000a8de0       ?GetSound@CWorld@@QAEPAVCWorldSound@@I_N@Z 191cfde0 f i c_gameclient.obj
 0002:000a8e20       ?RegisterModel@CGameClient@@UAEIABV?$basic_string@_WU?$char_traits@_W@std@@V?$K2StringAllocator@_W@@@std@@@Z 191cfe20 f   c_gameclient.obj
 0002:000a8f70       ?RegisterEffect@CGameClient@@UAEIABV?$basic_string@_WU?$char_traits@_W@std@@V?$K2StringAllocator@_W@@@std@@@Z 191cff70 f   c_gameclient.obj
 0002:000a90a0       ?RegisterIcon@CGameClient@@UAEIABV?$basic_string@_WU?$char_traits@_W@std@@V?$K2StringAllocator@_W@@@std@@@Z 191d00a0 f   c_gameclient.obj
 0002:000a9220       ?RegisterSample@CGameClient@@UAEIABV?$basic_string@_WU?$char_traits@_W@std@@V?$K2StringAllocator@_W@@@std@@@Z 191d0220 f   c_gameclient.obj
 0002:000a9350       ?RegisterMaterial@CGameClient@@UAEIABV?$basic_string@_WU?$char_traits@_W@std@@V?$K2StringAllocator@_W@@@std@@@Z 191d0350 f   c_gameclient.obj
 0002:000a9480       ?RenderSelectedPlayerView@CGameClient@@AAEXI@Z 191d0480 f   c_gameclient.obj
 0002:000a9780       ?SetAngles@CCamera@@QAEXABV?$CVec3@M@@@Z 191d0780 f i c_gameclient.obj
 0002:000a97d0       ?DrawSelectedStats@CGameClient@@AAEXXZ 191d07d0 f   c_gameclient.obj
 0002:000abc40       ?SetColor@CDraw2D@@QAEXMMMM@Z 191d2c40 f i c_gameclient.obj
 0002:000abca0       ?GetFixedAdvance@CFontMap@@QBEMXZ 191d2ca0 f i c_gameclient.obj
 0002:000abcd0       ?GetArmorDamageAdjustment@IGame@@QBEMIM@Z 191d2cd0 f i c_gameclient.obj
 0002:000abd40       ?SetReplayClient@CGameClient@@QAEXH@Z 191d2d40 f   c_gameclient.obj
 0002:000abf60       ?NextReplayClient@CGameClient@@QAEXXZ 191d2f60 f   c_gameclient.obj
 0002:000ac200       ??4iterator@?$_Tree@V?$_Tmap_traits@HPAVCPlayer@@U?$less@H@std@@V?$K2MapAllocator@U?$pair@$$CBHPAVCPlayer@@@std@@@@$0A@@std@@@std@@QAEAAV012@ABV012@@Z 191d3200 f i c_gameclient.obj
 0002:000ac230       ??4const_iterator@?$_Tree@V?$_Tmap_traits@HPAVCPlayer@@U?$less@H@std@@V?$K2MapAllocator@U?$pair@$$CBHPAVCPlayer@@@std@@@@$0A@@std@@@std@@QAEAAV012@ABV012@@Z 191d3230 f i c_gameclient.obj
 0002:000ac270       ??4?$_Bidit@U?$pair@$$CBHPAVCPlayer@@@std@@HPBU12@ABU12@@std@@QAEAAU01@ABU01@@Z 191d3270 f i c_gameclient.obj
 0002:000ac2a0       ?PrevReplayClient@CGameClient@@QAEXXZ 191d32a0 f   c_gameclient.obj
 0002:000ac540       ?UpdateTeamRosters@CGameClient@@QAEXXZ 191d3540 f   c_gameclient.obj
 0002:000ac760       ?GetClientList@CTeamInfo@@QAEAAV?$vector@HV?$K2VectorAllocator@H@@@@XZ 191d3760 f i c_gameclient.obj
 0002:000ac790       ?GetTeamIndex@CPlayer@@QBEHXZ 191d3790 f i c_gameclient.obj
 0002:000ac7c0       ?GetPropType@CGameClient@@UBEABV?$basic_string@_WU?$char_traits@_W@std@@V?$K2StringAllocator@_W@@@std@@ABV23@@Z 191d37c0 f   c_gameclient.obj
 0002:000ac850       ?Connect@CGameClient@@QAEXABV?$basic_string@_WU?$char_traits@_W@std@@V?$K2StringAllocator@_W@@@std@@@Z 191d3850 f   c_gameclient.obj
 0002:000aca80       ?GetTerrainType@CGameClient@@QAEABV?$basic_string@_WU?$char_traits@_W@std@@V?$K2StringAllocator@_W@@@std@@XZ 191d3a80 f   c_gameclient.obj
 0002:000acb60       ?GetConnectedClientCount@CGameClient@@UAEHH@Z 191d3b60 f   c_gameclient.obj
 0002:000acce0       ?RemoveClient@CGameClient@@QAEXH@Z 191d3ce0 f   c_gameclient.obj
 0002:000acd60       ?PrimaryAction@CGameClient@@QAEXH@Z 191d3d60 f   c_gameclient.obj
 0002:000acf40       ?SecondaryAction@CGameClient@@QAEXH@Z 191d3f40 f   c_gameclient.obj
 0002:000ad100       ?ItemPlace@CGameClient@@QAEXH@Z 191d4100 f   c_gameclient.obj
 0002:000ad490       ?PrimaryActionStash@CGameClient@@QAEXH@Z 191d4490 f   c_gameclient.obj
 0002:000ad6b0       ?SecondaryActionStash@CGameClient@@QAEXH@Z 191d46b0 f   c_gameclient.obj
 0002:000ad850       ?ItemPlaceStash@CGameClient@@QAEXH@Z 191d4850 f   c_gameclient.obj
 0002:000adc20       ?ItemTakeFromStash@CGameClient@@QAEXH@Z 191d4c20 f   c_gameclient.obj
 0002:000adf00       ?ItemPlaceHero@CGameClient@@QAEXXZ 191d4f00 f   c_gameclient.obj
 0002:000ae0e0       ?ItemPlaceEntity@CGameClient@@QAEXI@Z 191d50e0 f   c_gameclient.obj
 0002:000ae2c0       ?ItemPlaceSelected@CGameClient@@QAEXH@Z 191d52c0 f   c_gameclient.obj
 0002:000ae690       ?GetSelectedInfoEntities@CClientCommander@@QBEABV?$set@IU?$less@I@std@@V?$K2SetAllocator@I@@@@XZ 191d5690 f i c_gameclient.obj
 0002:000ae6b0       ?GetSelectedControlEntities@CClientCommander@@QBEABV?$set@IU?$less@I@std@@V?$K2SetAllocator@I@@@@XZ 191d56b0 f i c_gameclient.obj
 0002:000ae6d0       ?ItemSell@CGameClient@@QAEXH@Z 191d56d0 f   c_gameclient.obj
 0002:000ae860       ?ItemDisassemble@CGameClient@@QAEXH@Z 191d5860 f   c_gameclient.obj
 0002:000ae980       ?StateStringChanged@CGameClient@@QAEXIABVCStateString@@@Z 191d5980 f   c_gameclient.obj
 0002:000ae9c0       ?StateBlockChanged@CGameClient@@QAEXIABVCStateBlock@@@Z 191d59c0 f   c_gameclient.obj
 0002:000aed60       ?ReadByte@IBuffer@@QBEEXZ  191d5d60 f i c_gameclient.obj
 0002:000aeda0       ?DrawNavGrid@CGameClient@@AAEXXZ 191d5da0 f   c_gameclient.obj
 0002:000b0100       ?GetHorizontal@CNavGridZ@@QBEPAIXZ 191d7100 f i c_gameclient.obj
 0002:000b0120       ?GetVertical@CNavGridZ@@QBEPAIXZ 191d7120 f i c_gameclient.obj
 0002:000b0140       ?GetIntsPerRow@CNavGridZ@@QBEIXZ 191d7140 f i c_gameclient.obj
 0002:000b0160       ?GetDownSize@CNavGridZ@@QBEIXZ 191d7160 f i c_gameclient.obj
 0002:000b0180       ?GetWidth@CNavGridZ@@QBEIXZ 191d7180 f i c_gameclient.obj
 0002:000b01a0       ?GetHeight@CNavGridZ@@QBEIXZ 191d71a0 f i c_gameclient.obj
 0002:000b01c0       ?GetNavigationScale@CWorld@@QBEMXZ 191d71c0 f i c_gameclient.obj
 0002:000b0210       ?GetNavigationSize@CWorld@@QBEIXZ 191d7210 f i c_gameclient.obj
 0002:000b0240       ?GetSize@CWorld@@QBEHXZ    191d7240 f i c_gameclient.obj
 0002:000b0270       ?GetNavigationMap@CWorld@@QBEAAVCNavigationMap@@XZ 191d7270 f i c_gameclient.obj
 0002:000b02a0       ?GetWorld@CHostServer@@QBEPAVCWorld@@XZ 191d72a0 f i c_gameclient.obj
 0002:000b02d0       ??0SSceneFaceVert@@QAE@XZ  191d72d0 f i c_gameclient.obj
 0002:000b0320       ?DrawSelectedPath@CGameClient@@AAEXXZ 191d7320 f   c_gameclient.obj
 0002:000b0e40       ?GetEntity@CHostServer@@QBEPAXI@Z 191d7e40 f i c_gameclient.obj
 0002:000b0e70       ?GetEntity@CServerGameLib@@QBEPAXI@Z 191d7e70 f i c_gameclient.obj
 0002:000b0ec0       ?AddSelectionRingToScene@CGameClient@@AAEXIABV?$CVec3@M@@MI@Z 191d7ec0 f   c_gameclient.obj
 0002:000b1200       ?RenderWorldEntities@CGameClient@@AAEXXZ 191d8200 f   c_gameclient.obj
 0002:000b16a0       ?GetPosition@CWorldEntity@@QBEABV?$CVec3@M@@XZ 191d86a0 f i c_gameclient.obj
 0002:000b16d0       ?GetAxis@CWorldEntity@@QBEABVCAxis@@XZ 191d86d0 f i c_gameclient.obj
 0002:000b1700       ?GetScale@CWorldEntity@@QBEMXZ 191d8700 f i c_gameclient.obj
 0002:000b1730       ?GetModelHandle@CWorldEntity@@QBEIXZ 191d8730 f i c_gameclient.obj
 0002:000b1760       ?GetRenderBounds@CWorldEntity@@QBEABV?$CBoundingBox@M@@XZ 191d8760 f i c_gameclient.obj
 0002:000b1790       ?GetSurfFlags@CWorldEntity@@QAEIXZ 191d8790 f i c_gameclient.obj
 0002:000b17b0       ?GetFrustumBounds@CSceneManager@@QAEAAV?$CBoundingBox@M@@XZ 191d87b0 f i c_gameclient.obj
 0002:000b17e0       ?GetBounds@CFrustum@@QAEAAV?$CBoundingBox@M@@XZ 191d87e0 f i c_gameclient.obj
 0002:000b1800       ?GetEntityHandlesInRegion@IGame@@QAEXAAV?$vector@IV?$K2VectorAllocator@I@@@@ABV?$CBoundingBox@M@@I@Z 191d8800 f i c_gameclient.obj
 0002:000b1840       ?GetEntityHandlesInRegion@CWorld@@QAEXAAV?$vector@IV?$K2VectorAllocator@I@@@@ABV?$CBoundingBox@M@@I@Z 191d8840 f i c_gameclient.obj
 0002:000b1880       ?SetActiveReflection@IGame@@QAEX_N@Z 191d8880 f i c_gameclient.obj
 0002:000b18b0       ?IsHighlighted@IVisualEntity@@QBE_NXZ 191d88b0 f i c_gameclient.obj
 0002:000b18f0       ?GetOrderTime@IVisualEntity@@QBEIXZ 191d88f0 f i c_gameclient.obj
 0002:000b1920       ?GetHighlightColor@IVisualEntity@@QBEABV?$CVec4@M@@XZ 191d8920 f i c_gameclient.obj
 0002:000b1950       ?GetPrecacheList@CGameClient@@UAEXABV?$basic_string@_WU?$char_traits@_W@std@@V?$K2StringAllocator@_W@@@std@@W4EPrecacheScheme@@0AAV?$deque@USHeroPrecache@@V?$K2DequeAllocator@USHeroPrecache@@@@@@@Z 191d8950 f   c_gameclient.obj
 0002:000b19c0       ?Precache@CGameClient@@UAEXABV?$basic_string@_WU?$char_traits@_W@std@@V?$K2StringAllocator@_W@@@std@@W4EPrecacheScheme@@0@Z 191d89c0 f   c_gameclient.obj
 0002:000b1a10       ?Precache@CGameClient@@UAEXGW4EPrecacheScheme@@ABV?$basic_string@_WU?$char_traits@_W@std@@V?$K2StringAllocator@_W@@@std@@@Z 191d8a10 f   c_gameclient.obj
 0002:000b1a50       ?ParticleTrace@CGameClient@@SA_NABV?$CVec3@M@@0AAV2@1@Z 191d8a50 f   c_gameclient.obj
 0002:000b1b40       ?CanAccessShop@CGameClient@@QAE_NABV?$basic_string@_WU?$char_traits@_W@std@@V?$K2StringAllocator@_W@@@std@@@Z 191d8b40 f   c_gameclient.obj
 0002:000b1bc0       ?CanAccessLocalShop@CGameClient@@QAE_NABV?$basic_string@_WU?$char_traits@_W@std@@V?$K2StringAllocator@_W@@@std@@@Z 191d8bc0 f   c_gameclient.obj
 0002:000b1c40       ?CanAccessItem@CGameClient@@QAE_NABV?$basic_string@_WU?$char_traits@_W@std@@V?$K2StringAllocator@_W@@@std@@@Z 191d8c40 f   c_gameclient.obj
 0002:000b1cc0       ?CanAccessItemLocal@CGameClient@@QAE_NABV?$basic_string@_WU?$char_traits@_W@std@@V?$K2StringAllocator@_W@@@std@@@Z 191d8cc0 f   c_gameclient.obj
 0002:000b1d40       ?GetItemRestockTime@CGameClient@@QAEIABV?$basic_string@_WU?$char_traits@_W@std@@V?$K2StringAllocator@_W@@@std@@@Z 191d8d40 f   c_gameclient.obj
 0002:000b1dd0       ?GetItemStock@CGameClient@@QAEIABV?$basic_string@_WU?$char_traits@_W@std@@V?$K2StringAllocator@_W@@@std@@@Z 191d8dd0 f   c_gameclient.obj
 0002:000b1e60       ?GetShop@CGameClient@@QAEGABV?$basic_string@_WU?$char_traits@_W@std@@V?$K2StringAllocator@_W@@@std@@@Z 191d8e60 f   c_gameclient.obj
 0002:000b20e0       ?GetOrder@CShopDefinition@@QBEHXZ 191d90e0 f i c_gameclient.obj
 0002:000b2110       ?GetUsedIn@CGameClient@@QAEXABV?$basic_string@_WU?$char_traits@_W@std@@V?$K2StringAllocator@_W@@@std@@AAV?$vector@GV?$K2VectorAllocator@G@@@@@Z 191d9110 f   c_gameclient.obj
 0002:000b2570       ?GetComponents@CItemDefinition@@QBEABV?$vector@V?$basic_string@_WU?$char_traits@_W@std@@V?$K2StringAllocator@_W@@@std@@V?$K2VectorAllocator@V?$basic_string@_WU?$char_traits@_W@std@@V?$K2StringAllocator@_W@@@std@@@@@@I@Z 191d9570 f i c_gameclient.obj
 0002:000b25f0       ?GetComponentsSize@CItemDefinition@@QBEIXZ 191d95f0 f i c_gameclient.obj
 0002:000b2620       ?SendCreateGameRequest@CGameClient@@QAEXABV?$basic_string@_WU?$char_traits@_W@std@@V?$K2StringAllocator@_W@@@std@@0@Z 191d9620 f   c_gameclient.obj
 0002:000b27c0       ?GetGameMessage@CGameClient@@QAE?AV?$basic_string@_WU?$char_traits@_W@std@@V?$K2StringAllocator@_W@@@std@@ABV23@ABV?$map@V?$basic_string@_WU?$char_traits@_W@std@@V?$K2StringAllocator@_W@@@std@@V12@U?$less@V?$basic_string@_WU?$char_traits@_W@std@@V?$K2StringAllocator@_W@@@std@@@2@V?$K2MapAllocator@U?$pair@$$CBV?$basic_string@_WU?$char_traits@_W@std@@V?$K2StringAllocator@_W@@@std@@V12@@std@@@@@@@Z 191d97c0 f   c_gameclient.obj
 0002:000b2cc0       ?GetEntityString@CGameClient@@UBEABV?$basic_string@_WU?$char_traits@_W@std@@V?$K2StringAllocator@_W@@@std@@ABV23@@Z 191d9cc0 f   c_gameclient.obj
 0002:000b2d20       ?GetEntityString@CGameClient@@UBEABV?$basic_string@_WU?$char_traits@_W@std@@V?$K2StringAllocator@_W@@@std@@I@Z 191d9d20 f   c_gameclient.obj
 0002:000b2d80       ?Get@CStringTable@@QBEABV?$basic_string@_WU?$char_traits@_W@std@@V?$K2StringAllocator@_W@@@std@@I@Z 191d9d80 f i c_gameclient.obj
 0002:000b2de0       ?GetEntityStringIndex@CGameClient@@UBEIABV?$basic_string@_WU?$char_traits@_W@std@@V?$K2StringAllocator@_W@@@std@@@Z 191d9de0 f   c_gameclient.obj
 0002:000b2e40       ?GetIndex@CStringTable@@QBEIABV?$basic_string@_WU?$char_traits@_W@std@@V?$K2StringAllocator@_W@@@std@@@Z 191d9e40 f i c_gameclient.obj
 0002:000b2f50       ??1const_iterator@?$_Tree@V?$_Tmap_traits@V?$basic_string@_WU?$char_traits@_W@std@@V?$K2StringAllocator@_W@@@std@@IU?$less@V?$basic_string@_WU?$char_traits@_W@std@@V?$K2StringAllocator@_W@@@std@@@2@V?$K2MapAllocator@U?$pair@$$CBV?$basic_string@_WU?$char_traits@_W@std@@V?$K2StringAllocator@_W@@@std@@I@std@@@@$0A@@std@@@std@@QAE@XZ 191d9f50 f i c_gameclient.obj
 0002:000b2f80       ??1?$_Bidit@U?$pair@$$CBV?$basic_string@_WU?$char_traits@_W@std@@V?$K2StringAllocator@_W@@@std@@I@std@@HPBU12@ABU12@@std@@QAE@XZ 191d9f80 f i c_gameclient.obj
 0002:000b2fb0       ?PostProcessEntities@CGameClient@@QAEXXZ 191d9fb0 f   c_gameclient.obj
 0002:000b3100       ?LevelupAbility@CGameClient@@QAE_NE@Z 191da100 f   c_gameclient.obj
 0002:000b3240       ?SetLevelup@CGameClient@@QAEX_N@Z 191da240 f   c_gameclient.obj
 0002:000b32b0       ?ValidateLevelup@CGameClient@@AAEXXZ 191da2b0 f   c_gameclient.obj
 0002:000b3310       ?SetActiveShop@CGameClient@@QAEXABV?$basic_string@_WU?$char_traits@_W@std@@V?$K2StringAllocator@_W@@@std@@_N@Z 191da310 f   c_gameclient.obj
 0002:000b3380       ?GetShopLock@CGameInterfaceManager@@QBE_NXZ 191da380 f i c_gameclient.obj
 0002:000b33b0       ?SetActiveRecipe@CGameClient@@QAEXABV?$basic_string@_WU?$char_traits@_W@std@@V?$K2StringAllocator@_W@@@std@@_N1@Z 191da3b0 f   c_gameclient.obj
 0002:000b3460       ?Purchase@CGameClient@@QAE_NH@Z 191da460 f   c_gameclient.obj
 0002:000b3f30       ?GetCost@CItemDefinition@@QBEHXZ 191daf30 f i c_gameclient.obj
 0002:000b3f60       ?IsRecipe@CItemDefinition@@QAE_NXZ 191daf60 f i c_gameclient.obj
 0002:000b3f90       ?GetItem@CShopDefinition@@QBE?BV?$basic_string@_WU?$char_traits@_W@std@@V?$K2StringAllocator@_W@@@std@@I@Z 191daf90 f i c_gameclient.obj
 0002:000b4020       ?GetGold@CPlayer@@QBEGXZ   191db020 f i c_gameclient.obj
 0002:000b4050       ?GetDisplayName@ISlaveDefinition@@QBEABV?$basic_string@_WU?$char_traits@_W@std@@V?$K2StringAllocator@_W@@@std@@XZ 191db050 f i c_gameclient.obj
 0002:000b4090       ?PurchaseComponent@CGameClient@@QAE_NHH@Z 191db090 f   c_gameclient.obj
 0002:000b4670       ?PurchaseAllComponents@CGameClient@@QAE_NV?$basic_string@_WU?$char_traits@_W@std@@V?$K2StringAllocator@_W@@@std@@@Z 191db670 f   c_gameclient.obj
 0002:000b4ec0       ?GetAutoAssemble@CItemDefinition@@QBE_NXZ 191dbec0 f i c_gameclient.obj
 0002:000b4ef0       ?PurchaseUsedIn@CGameClient@@QAE_NH@Z 191dbef0 f   c_gameclient.obj
 0002:000b51a0       ?Shop@CGameClient@@QAEXH@Z 191dc1a0 f   c_gameclient.obj
 0002:000b54c0       ?GetSlot@CShopDefinition@@QBEHXZ 191dc4c0 f i c_gameclient.obj
 0002:000b54f0       ?ToggleLevelup@CGameClient@@QAEXXZ 191dc4f0 f   c_gameclient.obj
 0002:000b5520       ?ToggleLevelupInterface@CGameInterfaceManager@@QAEXXZ 191dc520 f i c_gameclient.obj
 0002:000b5550       ?Ping@CGameClient@@QAEXEMMH@Z 191dc550 f   c_gameclient.obj
 0002:000b5950       ?GetUsePlayerColor@CPing@@QBE_NXZ 191dc950 f i c_gameclient.obj
 0002:000b5970       ?GetColor@CPing@@QBEABV?$CVec4@M@@XZ 191dc970 f i c_gameclient.obj
 0002:000b5990       ?GetEffectPath@CPing@@QBEABV?$basic_string@_WU?$char_traits@_W@std@@V?$K2StringAllocator@_W@@@std@@XZ 191dc990 f i c_gameclient.obj
 0002:000b59b0       ?GetPing@IGame@@QAEPBVCPing@@E@Z 191dc9b0 f i c_gameclient.obj
 0002:000b5a10       ?GetPing@CGameMechanics@@QBEPBVCPing@@E@Z 191dca10 f i c_gameclient.obj
 0002:000b5a70       ?UpdateRecommendedItems@CGameClient@@QAEXXZ 191dca70 f   c_gameclient.obj
 0002:000b5cb0       ?GetRecommendedItems@CHeroDefinition@@QBEABV?$vector@V?$basic_string@_WU?$char_traits@_W@std@@V?$K2StringAllocator@_W@@@std@@V?$K2VectorAllocator@V?$basic_string@_WU?$char_traits@_W@std@@V?$K2StringAllocator@_W@@@std@@@@@@XZ 191dccb0 f i c_gameclient.obj
 0002:000b5ce0       ?GetRecommendedItems@CShopDefinition@@QBE_NXZ 191dcce0 f i c_gameclient.obj
 0002:000b5d10       ?SetItems@CShopDefinition@@QAEXABV?$vector@V?$basic_string@_WU?$char_traits@_W@std@@V?$K2StringAllocator@_W@@@std@@V?$K2VectorAllocator@V?$basic_string@_WU?$char_traits@_W@std@@V?$K2StringAllocator@_W@@@std@@@@@@@Z 191dcd10 f i c_gameclient.obj
 0002:000b5d40       ??4?$vector@V?$basic_string@_WU?$char_traits@_W@std@@V?$K2StringAllocator@_W@@@std@@V?$K2VectorAllocator@V?$basic_string@_WU?$char_traits@_W@std@@V?$K2StringAllocator@_W@@@std@@@@@@QAEAAV0@ABV0@@Z 191dcd40 f i c_gameclient.obj
 0002:000b5d70       ?ClearItems@CShopDefinition@@QAEXXZ 191dcd70 f i c_gameclient.obj
 0002:000b5da0       ?DownloadReplay@CGameClient@@QAE_NABV?$basic_string@_WU?$char_traits@_W@std@@V?$K2StringAllocator@_W@@@std@@@Z 191dcda0 f   c_gameclient.obj
 0002:000b6000       ?GetReplayDownloadProgress@CGameClient@@QAEMXZ 191dd000 f   c_gameclient.obj
 0002:000b6030       ?ReplayDownloadErrorEncountered@CGameClient@@QAE_NXZ 191dd030 f   c_gameclient.obj
 0002:000b6060       ?StopReplayDownload@CGameClient@@QAEXXZ 191dd060 f   c_gameclient.obj
 0002:000b61e0       ?LoadStringTables@CGameClient@@QAEXXZ 191dd1e0 f   c_gameclient.obj
 0002:000b6280       ?SendScriptMessage@CGameClient@@QAE_NABV?$basic_string@_WU?$char_traits@_W@std@@V?$K2StringAllocator@_W@@@std@@0@Z 191dd280 f   c_gameclient.obj
 0002:000b6400       ?GetLocalVoiceSet@CGameClient@@QAEAAUSVoiceSet@@XZ 191dd400 f   c_gameclient.obj
 0002:000b64e0       ?CanAccessAltAvatar@CGameClient@@UAE_NABV?$basic_string@_WU?$char_traits@_W@std@@V?$K2StringAllocator@_W@@@std@@0@Z 191dd4e0 f   c_gameclient.obj
 0002:000b6520       ?ServerRefreshUpgrades@CGameClient@@QAEXXZ 191dd520 f   c_gameclient.obj
 0002:000b65f0       ?CalcAvailableWeatherEffects@CGameClient@@QAEIAAV?$vector@USWeatherInfo@@V?$K2VectorAllocator@USWeatherInfo@@@@@@@Z 191dd5f0 f   c_gameclient.obj
 0002:000b6ff0       ??1SWeatherInfo@@QAE@XZ    191ddff0 f i c_gameclient.obj
 0002:000b7080       ?IsWeatherEffectName@CGameClient@@QAE_NABV?$basic_string@_WU?$char_traits@_W@std@@V?$K2StringAllocator@_W@@@std@@@Z 191de080 f   c_gameclient.obj
 0002:000b72e0       ??1?$vector@USWeatherInfo@@V?$K2VectorAllocator@USWeatherInfo@@@@@@QAE@XZ 191de2e0 f i c_gameclient.obj
 0002:000b7310       ?StartWeatherByName@CGameClient@@QAEIABV?$basic_string@_WU?$char_traits@_W@std@@V?$K2StringAllocator@_W@@@std@@@Z 191de310 f   c_gameclient.obj
 0002:000b7570       ?StartWeather@CGameClient@@QAEIABUSWeatherInfo@@@Z 191de570 f   c_gameclient.obj
 0002:000b7bb0       ??1iterator@?$_Tree@V?$_Tmap_traits@IUSWeatherInfo@@U?$less@I@std@@V?$K2MapAllocator@U?$pair@$$CBIUSWeatherInfo@@@std@@@@$0A@@std@@@std@@QAE@XZ 191debb0 f i c_gameclient.obj
 0002:000b7be0       ??0SWeatherInfo@@QAE@ABU0@@Z 191debe0 f i c_gameclient.obj
 0002:000b7cb0       ??1?$pair@IUSWeatherInfo@@@std@@QAE@XZ 191decb0 f i c_gameclient.obj
 0002:000b7ce0       ??1?$pair@$$CBIUSWeatherInfo@@@std@@QAE@XZ 191dece0 f i c_gameclient.obj
 0002:000b7d10       ??1?$pair@Viterator@?$_Tree@V?$_Tmap_traits@IUSWeatherInfo@@U?$less@I@std@@V?$K2MapAllocator@U?$pair@$$CBIUSWeatherInfo@@@std@@@@$0A@@std@@@std@@_N@std@@QAE@XZ 191ded10 f i c_gameclient.obj
 0002:000b7d40       ??1const_iterator@?$_Tree@V?$_Tmap_traits@IUSWeatherInfo@@U?$less@I@std@@V?$K2MapAllocator@U?$pair@$$CBIUSWeatherInfo@@@std@@@@$0A@@std@@@std@@QAE@XZ 191ded40 f i c_gameclient.obj
 0002:000b7d70       ??1?$_Bidit@U?$pair@$$CBIUSWeatherInfo@@@std@@HPBU12@ABU12@@std@@QAE@XZ 191ded70 f i c_gameclient.obj
 0002:000b7da0       ?StopWeather@CGameClient@@QAEXI@Z 191deda0 f   c_gameclient.obj
 0002:000b7fe0       ??0iterator@?$_Tree@V?$_Tmap_traits@IUSWeatherInfo@@U?$less@I@std@@V?$K2MapAllocator@U?$pair@$$CBIUSWeatherInfo@@@std@@@@$0A@@std@@@std@@QAE@ABV012@@Z 191defe0 f i c_gameclient.obj
 0002:000b8010       ??0const_iterator@?$_Tree@V?$_Tmap_traits@IUSWeatherInfo@@U?$less@I@std@@V?$K2MapAllocator@U?$pair@$$CBIUSWeatherInfo@@@std@@@@$0A@@std@@@std@@QAE@ABV012@@Z 191df010 f i c_gameclient.obj
 0002:000b8050       ??0?$_Bidit@U?$pair@$$CBIUSWeatherInfo@@@std@@HPBU12@ABU12@@std@@QAE@ABU01@@Z 191df050 f i c_gameclient.obj
 0002:000b8080       ?StopWeatherByName@CGameClient@@QAEIABV?$basic_string@_WU?$char_traits@_W@std@@V?$K2StringAllocator@_W@@@std@@@Z 191df080 f   c_gameclient.obj
 0002:000b82b0       ?StopAllWeather@CGameClient@@QAEXXZ 191df2b0 f   c_gameclient.obj
 0002:000b8370       ?resize@?$vector@HV?$K2VectorAllocator@H@@@std@@QAEXIH@Z 191df370 f i c_gameclient.obj
 0002:000b84e0       ??0?$vector@IV?$K2VectorAllocator@I@@@@QAE@IABI@Z 191df4e0 f i c_gameclient.obj
 0002:000b8520       ??0?$vector@V?$basic_string@_WU?$char_traits@_W@std@@V?$K2StringAllocator@_W@@@std@@V?$K2VectorAllocator@V?$basic_string@_WU?$char_traits@_W@std@@V?$K2StringAllocator@_W@@@std@@@@@@QAE@I@Z 191df520 f i c_gameclient.obj
 0002:000b8550       ?back@?$vector@V?$basic_string@_WU?$char_traits@_W@std@@V?$K2StringAllocator@_W@@@std@@V?$K2VectorAllocator@V?$basic_string@_WU?$char_traits@_W@std@@V?$K2StringAllocator@_W@@@std@@@@@std@@QAEAAV?$basic_string@_WU?$char_traits@_W@std@@V?$K2StringAllocator@_W@@@2@XZ 191df550 f i c_gameclient.obj
 0002:000b8620       ?pop_back@?$vector@V?$basic_string@_WU?$char_traits@_W@std@@V?$K2StringAllocator@_W@@@std@@V?$K2VectorAllocator@V?$basic_string@_WU?$char_traits@_W@std@@V?$K2StringAllocator@_W@@@std@@@@@std@@QAEXXZ 191df620 f i c_gameclient.obj
 0002:000b86c0       ??0?$set@V?$basic_string@_WU?$char_traits@_W@std@@V?$K2StringAllocator@_W@@@std@@U?$less@V?$basic_string@_WU?$char_traits@_W@std@@V?$K2StringAllocator@_W@@@std@@@2@V?$K2SetAllocator@V?$basic_string@_WU?$char_traits@_W@std@@V?$K2StringAllocator@_W@@@std@@@@@@QAE@XZ 191df6c0 f i c_gameclient.obj
 0002:000b86f0       ?insert@?$_Tree@V?$_Tset_traits@V?$basic_string@_WU?$char_traits@_W@std@@V?$K2StringAllocator@_W@@@std@@U?$less@V?$basic_string@_WU?$char_traits@_W@std@@V?$K2StringAllocator@_W@@@std@@@2@V?$K2SetAllocator@V?$basic_string@_WU?$char_traits@_W@std@@V?$K2StringAllocator@_W@@@std@@@@$0A@@std@@@std@@QAE?AU?$pair@Viterator@?$_Tree@V?$_Tset_traits@V?$basic_string@_WU?$char_traits@_W@std@@V?$K2StringAllocator@_W@@@std@@U?$less@V?$basic_string@_WU?$char_traits@_W@std@@V?$K2StringAllocator@_W@@@std@@@2@V?$K2SetAllocator@V?$basic_string@_WU?$char_traits@_W@std@@V?$K2StringAllocator@_W@@@std@@@@$0A@@std@@@std@@_N@2@ABV?$basic_string@_WU?$char_traits@_W@std@@V?$K2StringAllocator@_W@@@2@@Z 191df6f0 f i c_gameclient.obj
 0002:000b8b10       ?front@?$deque@IV?$K2DequeAllocator@I@@@std@@QAEAAIXZ 191dfb10 f i c_gameclient.obj
 0002:000b8bb0       ?pop_front@?$deque@IV?$K2DequeAllocator@I@@@std@@QAEXXZ 191dfbb0 f i c_gameclient.obj
 0002:000b8cc0       ?clear@?$deque@IV?$K2DequeAllocator@I@@@std@@QAEXXZ 191dfcc0 f i c_gameclient.obj
 0002:000b8cf0       ?replace@?$basic_string@_WU?$char_traits@_W@std@@V?$K2StringAllocator@_W@@@std@@QAEAAV12@IIABV12@@Z 191dfcf0 f i c_gameclient.obj
 0002:000b8d30       ?substr@?$basic_string@_WU?$char_traits@_W@std@@V?$K2StringAllocator@_W@@@std@@QBE?AV12@II@Z 191dfd30 f i c_gameclient.obj
 0002:000b8d80       ?empty@?$_Tree@V?$_Tmap_traits@V?$basic_string@_WU?$char_traits@_W@std@@V?$K2StringAllocator@_W@@@std@@V12@U?$less@V?$basic_string@_WU?$char_traits@_W@std@@V?$K2StringAllocator@_W@@@std@@@2@V?$K2MapAllocator@U?$pair@$$CBV?$basic_string@_WU?$char_traits@_W@std@@V?$K2StringAllocator@_W@@@std@@V12@@std@@@@$0A@@std@@@std@@QBE_NXZ 191dfd80 f i c_gameclient.obj
 0002:000b8db0       ??0?$map@GV?$basic_string@_WU?$char_traits@_W@std@@V?$K2StringAllocator@_W@@@std@@U?$less@G@2@V?$K2MapAllocator@U?$pair@$$CBGV?$basic_string@_WU?$char_traits@_W@std@@V?$K2StringAllocator@_W@@@std@@@std@@@@@@QAE@XZ 191dfdb0 f i c_gameclient.obj
 0002:000b8de0       ??1?$_Tree@V?$_Tmap_traits@GV?$basic_string@_WU?$char_traits@_W@std@@V?$K2StringAllocator@_W@@@std@@U?$less@G@2@V?$K2MapAllocator@U?$pair@$$CBGV?$basic_string@_WU?$char_traits@_W@std@@V?$K2StringAllocator@_W@@@std@@@std@@@@$0A@@std@@@std@@QAE@XZ 191dfde0 f i c_gameclient.obj
 0002:000b8e60       ?begin@?$_Tree@V?$_Tmap_traits@GV?$basic_string@_WU?$char_traits@_W@std@@V?$K2StringAllocator@_W@@@std@@U?$less@G@2@V?$K2MapAllocator@U?$pair@$$CBGV?$basic_string@_WU?$char_traits@_W@std@@V?$K2StringAllocator@_W@@@std@@@std@@@@$0A@@std@@@std@@QAE?AViterator@12@XZ 191dfe60 f i c_gameclient.obj
 0002:000b8eb0       ?end@?$_Tree@V?$_Tmap_traits@GV?$basic_string@_WU?$char_traits@_W@std@@V?$K2StringAllocator@_W@@@std@@U?$less@G@2@V?$K2MapAllocator@U?$pair@$$CBGV?$basic_string@_WU?$char_traits@_W@std@@V?$K2StringAllocator@_W@@@std@@@std@@@@$0A@@std@@@std@@QAE?AViterator@12@XZ 191dfeb0 f i c_gameclient.obj
 0002:000b8f00       ??C?$_Vector_const_iterator@V?$basic_string@_WU?$char_traits@_W@std@@V?$K2StringAllocator@_W@@@std@@V?$K2VectorAllocator@V?$basic_string@_WU?$char_traits@_W@std@@V?$K2StringAllocator@_W@@@std@@@@@std@@QBEPBV?$basic_string@_WU?$char_traits@_W@std@@V?$K2StringAllocator@_W@@@1@XZ 191dff00 f i c_gameclient.obj
 0002:000b8f30       ??1?$CRect@H@@QAE@XZ       191dff30 f i c_gameclient.obj
 0002:000b8f50       ??0?$CRect@H@@QAE@HHHH@Z   191dff50 f i c_gameclient.obj
 0002:000b8fa0       ?GetWidth@?$CRect@H@@QBEHXZ 191dffa0 f i c_gameclient.obj
 0002:000b8fd0       ??B?$CRect@H@@QAE?AV?$CRect@I@@XZ 191dffd0 f i c_gameclient.obj
 0002:000b9030       ??4?$CCvar@HH@@QAEHABH@Z   191e0030 f i c_gameclient.obj
 0002:000b9080       ??4?$CCvar@_N_N@@QAE_NAB_N@Z 191e0080 f i c_gameclient.obj
 0002:000b90d0       ??B?$CCvar@V?$CVec3@M@@M@@QBE?AV?$CVec3@M@@XZ 191e00d0 f i c_gameclient.obj
 0002:000b9110       ??A?$map@HPAVCPlayer@@U?$less@H@std@@V?$K2MapAllocator@U?$pair@$$CBHPAVCPlayer@@@std@@@@@std@@QAEAAPAVCPlayer@@ABH@Z 191e0110 f i c_gameclient.obj
 0002:000b9320       ?begin@?$_Tree@V?$_Tmap_traits@HPAVCPlayer@@U?$less@H@std@@V?$K2MapAllocator@U?$pair@$$CBHPAVCPlayer@@@std@@@@$0A@@std@@@std@@QBE?AVconst_iterator@12@XZ 191e0320 f i c_gameclient.obj
 0002:000b9370       ?end@?$_Tree@V?$_Tmap_traits@HPAVCPlayer@@U?$less@H@std@@V?$K2MapAllocator@U?$pair@$$CBHPAVCPlayer@@@std@@@@$0A@@std@@@std@@QBE?AVconst_iterator@12@XZ 191e0370 f i c_gameclient.obj
 0002:000b93c0       ?empty@?$_Tree@V?$_Tmap_traits@HPAVCPlayer@@U?$less@H@std@@V?$K2MapAllocator@U?$pair@$$CBHPAVCPlayer@@@std@@@@$0A@@std@@@std@@QBE_NXZ 191e03c0 f i c_gameclient.obj
 0002:000b93f0       ?erase@?$_Tree@V?$_Tmap_traits@HPAVCPlayer@@U?$less@H@std@@V?$K2MapAllocator@U?$pair@$$CBHPAVCPlayer@@@std@@@@$0A@@std@@@std@@QAEIABH@Z 191e03f0 f i c_gameclient.obj
 0002:000b9570       ??0?$vector@U?$pair@GE@std@@V?$K2VectorAllocator@U?$pair@GE@std@@@@@@QAE@XZ 191e0570 f i c_gameclient.obj
 0002:000b95a0       ??1?$vector@U?$pair@GE@std@@V?$K2VectorAllocator@U?$pair@GE@std@@@@@std@@QAE@XZ 191e05a0 f i c_gameclient.obj
 0002:000b9620       ?begin@?$vector@U?$pair@GE@std@@V?$K2VectorAllocator@U?$pair@GE@std@@@@@std@@QBE?AV?$_Vector_const_iterator@U?$pair@GE@std@@V?$K2VectorAllocator@U?$pair@GE@std@@@@@2@XZ 191e0620 f i c_gameclient.obj
 0002:000b9670       ?end@?$vector@U?$pair@GE@std@@V?$K2VectorAllocator@U?$pair@GE@std@@@@@std@@QBE?AV?$_Vector_const_iterator@U?$pair@GE@std@@V?$K2VectorAllocator@U?$pair@GE@std@@@@@2@XZ 191e0670 f i c_gameclient.obj
 0002:000b96c0       ?resize@?$vector@U?$pair@GE@std@@V?$K2VectorAllocator@U?$pair@GE@std@@@@@std@@QAEXI@Z 191e06c0 f i c_gameclient.obj
 0002:000b9700       ?size@?$vector@U?$pair@GE@std@@V?$K2VectorAllocator@U?$pair@GE@std@@@@@std@@QBEIXZ 191e0700 f i c_gameclient.obj
 0002:000b9750       ??A?$vector@U?$pair@GE@std@@V?$K2VectorAllocator@U?$pair@GE@std@@@@@std@@QAEAAU?$pair@GE@1@I@Z 191e0750 f i c_gameclient.obj
 0002:000b9870       ?clear@?$vector@U?$pair@GE@std@@V?$K2VectorAllocator@U?$pair@GE@std@@@@@std@@QAEXXZ 191e0870 f i c_gameclient.obj
 0002:000b9930       ??0?$map@IIU?$less@I@std@@V?$K2MapAllocator@U?$pair@$$CBII@std@@@@@@QAE@XZ 191e0930 f i c_gameclient.obj
 0002:000b9960       ?begin@?$_Tree@V?$_Tmap_traits@IPAVCWorldLight@@U?$less@I@std@@V?$K2MapAllocator@U?$pair@$$CBIPAVCWorldLight@@@std@@@@$0A@@std@@@std@@QAE?AViterator@12@XZ 191e0960 f i c_gameclient.obj
 0002:000b99b0       ?end@?$_Tree@V?$_Tmap_traits@IPAVCWorldLight@@U?$less@I@std@@V?$K2MapAllocator@U?$pair@$$CBIPAVCWorldLight@@@std@@@@$0A@@std@@@std@@QAE?AViterator@12@XZ 191e09b0 f i c_gameclient.obj
 0002:000b9a00       ?begin@?$_Tree@V?$_Tmap_traits@IPAVCWorldSound@@U?$less@I@std@@V?$K2MapAllocator@U?$pair@$$CBIPAVCWorldSound@@@std@@@@$0A@@std@@@std@@QAE?AViterator@12@XZ 191e0a00 f i c_gameclient.obj
 0002:000b9a50       ?end@?$_Tree@V?$_Tmap_traits@IPAVCWorldSound@@U?$less@I@std@@V?$K2MapAllocator@U?$pair@$$CBIPAVCWorldSound@@@std@@@@$0A@@std@@@std@@QAE?AViterator@12@XZ 191e0a50 f i c_gameclient.obj
 0002:000b9aa0       ??0?$CRect@M@@QAE@MMMM@Z   191e0aa0 f i c_gameclient.obj
 0002:000b9b00       ??0?$map@IPAVIGameEntity@@U?$less@I@std@@V?$K2MapAllocator@U?$pair@$$CBIPAVIGameEntity@@@std@@@@@@QAE@XZ 191e0b00 f i c_gameclient.obj
 0002:000b9b30       ??1?$_Tree@V?$_Tmap_traits@IPAVIGameEntity@@U?$less@I@std@@V?$K2MapAllocator@U?$pair@$$CBIPAVIGameEntity@@@std@@@@$0A@@std@@@std@@QAE@XZ 191e0b30 f i c_gameclient.obj
 0002:000b9bb0       ??0?$list@PAVIGameEntity@@V?$K2ListAllocator@PAVIGameEntity@@@@@@QAE@XZ 191e0bb0 f i c_gameclient.obj
 0002:000b9be0       ??1?$list@PAVIGameEntity@@V?$K2ListAllocator@PAVIGameEntity@@@@@std@@QAE@XZ 191e0be0 f i c_gameclient.obj
 0002:000b9c60       ??0?$CTransmitFlags@$07@@QAE@I@Z 191e0c60 f i c_gameclient.obj
 0002:000b9cb0       ?begin@?$vector@USDataField@@V?$K2VectorAllocator@USDataField@@@@@std@@QAE?AV?$_Vector_iterator@USDataField@@V?$K2VectorAllocator@USDataField@@@@@2@XZ 191e0cb0 f i c_gameclient.obj
 0002:000b9d00       ?end@?$vector@USDataField@@V?$K2VectorAllocator@USDataField@@@@@std@@QAE?AV?$_Vector_iterator@USDataField@@V?$K2VectorAllocator@USDataField@@@@@2@XZ 191e0d00 f i c_gameclient.obj
 0002:000b9d50       ??C?$_Vector_const_iterator@USDataField@@V?$K2VectorAllocator@USDataField@@@@@std@@QBEPBUSDataField@@XZ 191e0d50 f i c_gameclient.obj
 0002:000b9d80       ??G?$_Vector_const_iterator@USDataField@@V?$K2VectorAllocator@USDataField@@@@@std@@QBEHABV01@@Z 191e0d80 f i c_gameclient.obj
 0002:000b9dd0       ??9?$_Vector_const_iterator@USDataField@@V?$K2VectorAllocator@USDataField@@@@@std@@QBE_NABV01@@Z 191e0dd0 f i c_gameclient.obj
 0002:000b9e10       ?begin@?$vector@GV?$K2VectorAllocator@G@@@std@@QAE?AV?$_Vector_iterator@GV?$K2VectorAllocator@G@@@2@XZ 191e0e10 f i c_gameclient.obj
 0002:000b9e60       ?end@?$vector@GV?$K2VectorAllocator@G@@@std@@QAE?AV?$_Vector_iterator@GV?$K2VectorAllocator@G@@@2@XZ 191e0e60 f i c_gameclient.obj
 0002:000b9eb0       ?size@?$vector@GV?$K2VectorAllocator@G@@@std@@QBEIXZ 191e0eb0 f i c_gameclient.obj
 0002:000b9f00       ??A?$vector@GV?$K2VectorAllocator@G@@@std@@QAEAAGI@Z 191e0f00 f i c_gameclient.obj
 0002:000ba020       ?push_back@?$vector@GV?$K2VectorAllocator@G@@@std@@QAEXABG@Z 191e1020 f i c_gameclient.obj
 0002:000ba0d0       ?clear@?$vector@GV?$K2VectorAllocator@G@@@std@@QAEXXZ 191e10d0 f i c_gameclient.obj
 0002:000ba190       ??Fiterator@?$_Tree@V?$_Tmap_traits@HPAVCPlayer@@U?$less@H@std@@V?$K2MapAllocator@U?$pair@$$CBHPAVCPlayer@@@std@@@@$0A@@std@@@std@@QAEAAV012@XZ 191e1190 f i c_gameclient.obj
 0002:000ba1c0       ??Cconst_iterator@?$_Tree@V?$_Tmap_traits@HPAVCPlayer@@U?$less@H@std@@V?$K2MapAllocator@U?$pair@$$CBHPAVCPlayer@@@std@@@@$0A@@std@@@std@@QBEPBU?$pair@$$CBHPAVCPlayer@@@2@XZ 191e11c0 f i c_gameclient.obj
 0002:000ba1f0       ?begin@?$vector@U?$pair@II@std@@V?$K2VectorAllocator@U?$pair@II@std@@@@@std@@QAE?AV?$_Vector_iterator@U?$pair@II@std@@V?$K2VectorAllocator@U?$pair@II@std@@@@@2@XZ 191e11f0 f i c_gameclient.obj
 0002:000ba240       ?end@?$vector@U?$pair@II@std@@V?$K2VectorAllocator@U?$pair@II@std@@@@@std@@QAE?AV?$_Vector_iterator@U?$pair@II@std@@V?$K2VectorAllocator@U?$pair@II@std@@@@@2@XZ 191e1240 f i c_gameclient.obj
 0002:000ba290       ?insert@?$vector@U?$pair@II@std@@V?$K2VectorAllocator@U?$pair@II@std@@@@@std@@QAE?AV?$_Vector_iterator@U?$pair@II@std@@V?$K2VectorAllocator@U?$pair@II@std@@@@@2@V32@ABU?$pair@II@2@@Z 191e1290 f i c_gameclient.obj
 0002:000ba400       ?erase@?$vector@U?$pair@II@std@@V?$K2VectorAllocator@U?$pair@II@std@@@@@std@@QAE?AV?$_Vector_iterator@U?$pair@II@std@@V?$K2VectorAllocator@U?$pair@II@std@@@@@2@V32@@Z 191e1400 f i c_gameclient.obj
 0002:000ba540       ??0?$deque@USClientResourceLoadRequest@@V?$K2DequeAllocator@USClientResourceLoadRequest@@@@@@QAE@XZ 191e1540 f i c_gameclient.obj
 0002:000ba570       ??1?$deque@USClientResourceLoadRequest@@V?$K2DequeAllocator@USClientResourceLoadRequest@@@@@std@@QAE@XZ 191e1570 f i c_gameclient.obj
 0002:000ba5f0       ?begin@?$deque@USClientResourceLoadRequest@@V?$K2DequeAllocator@USClientResourceLoadRequest@@@@@std@@QAE?AV?$_Deque_iterator@USClientResourceLoadRequest@@V?$K2DequeAllocator@USClientResourceLoadRequest@@@@$00@2@XZ 191e15f0 f i c_gameclient.obj
 0002:000ba640       ?end@?$deque@USClientResourceLoadRequest@@V?$K2DequeAllocator@USClientResourceLoadRequest@@@@@std@@QAE?AV?$_Deque_iterator@USClientResourceLoadRequest@@V?$K2DequeAllocator@USClientResourceLoadRequest@@@@$00@2@XZ 191e1640 f i c_gameclient.obj
 0002:000ba6a0       ?front@?$deque@USClientResourceLoadRequest@@V?$K2DequeAllocator@USClientResourceLoadRequest@@@@@std@@QAEAAUSClientResourceLoadRequest@@XZ 191e16a0 f i c_gameclient.obj
 0002:000ba740       ?pop_front@?$deque@USClientResourceLoadRequest@@V?$K2DequeAllocator@USClientResourceLoadRequest@@@@@std@@QAEXXZ 191e1740 f i c_gameclient.obj
 0002:000ba840       ?clear@?$deque@USClientResourceLoadRequest@@V?$K2DequeAllocator@USClientResourceLoadRequest@@@@@std@@QAEXXZ 191e1840 f i c_gameclient.obj
 0002:000ba870       ??0?$deque@USWorldThingSpawnRequest@@V?$K2DequeAllocator@USWorldThingSpawnRequest@@@@@@QAE@XZ 191e1870 f i c_gameclient.obj
 0002:000ba8a0       ??1?$deque@USWorldThingSpawnRequest@@V?$K2DequeAllocator@USWorldThingSpawnRequest@@@@@std@@QAE@XZ 191e18a0 f i c_gameclient.obj
 0002:000ba920       ?front@?$deque@USWorldThingSpawnRequest@@V?$K2DequeAllocator@USWorldThingSpawnRequest@@@@@std@@QAEAAUSWorldThingSpawnRequest@@XZ 191e1920 f i c_gameclient.obj
 0002:000ba9c0       ?pop_front@?$deque@USWorldThingSpawnRequest@@V?$K2DequeAllocator@USWorldThingSpawnRequest@@@@@std@@QAEXXZ 191e19c0 f i c_gameclient.obj
 0002:000baac0       ?push_back@?$deque@USWorldThingSpawnRequest@@V?$K2DequeAllocator@USWorldThingSpawnRequest@@@@@std@@QAEXABUSWorldThingSpawnRequest@@@Z 191e1ac0 f i c_gameclient.obj
 0002:000babe0       ?clear@?$deque@USWorldThingSpawnRequest@@V?$K2DequeAllocator@USWorldThingSpawnRequest@@@@@std@@QAEXXZ 191e1be0 f i c_gameclient.obj
 0002:000bac10       ??0?$vector@USPopupMessage@@V?$K2VectorAllocator@USPopupMessage@@@@@@QAE@XZ 191e1c10 f i c_gameclient.obj
 0002:000bac40       ??1?$vector@USPopupMessage@@V?$K2VectorAllocator@USPopupMessage@@@@@std@@QAE@XZ 191e1c40 f i c_gameclient.obj
 0002:000bacc0       ?begin@?$vector@USPopupMessage@@V?$K2VectorAllocator@USPopupMessage@@@@@std@@QAE?AV?$_Vector_iterator@USPopupMessage@@V?$K2VectorAllocator@USPopupMessage@@@@@2@XZ 191e1cc0 f i c_gameclient.obj
 0002:000bad10       ?end@?$vector@USPopupMessage@@V?$K2VectorAllocator@USPopupMessage@@@@@std@@QAE?AV?$_Vector_iterator@USPopupMessage@@V?$K2VectorAllocator@USPopupMessage@@@@@2@XZ 191e1d10 f i c_gameclient.obj
 0002:000bad60       ?push_back@?$vector@USPopupMessage@@V?$K2VectorAllocator@USPopupMessage@@@@@std@@QAEXABUSPopupMessage@@@Z 191e1d60 f i c_gameclient.obj
 0002:000bae10       ?erase@?$vector@USPopupMessage@@V?$K2VectorAllocator@USPopupMessage@@@@@std@@QAE?AV?$_Vector_iterator@USPopupMessage@@V?$K2VectorAllocator@USPopupMessage@@@@@2@V32@@Z 191e1e10 f i c_gameclient.obj
 0002:000baf50       ??0?$vector@USMinimapPing@@V?$K2VectorAllocator@USMinimapPing@@@@@@QAE@XZ 191e1f50 f i c_gameclient.obj
 0002:000baf80       ??1?$vector@USMinimapPing@@V?$K2VectorAllocator@USMinimapPing@@@@@std@@QAE@XZ 191e1f80 f i c_gameclient.obj
 0002:000bb000       ?begin@?$vector@USMinimapPing@@V?$K2VectorAllocator@USMinimapPing@@@@@std@@QAE?AV?$_Vector_iterator@USMinimapPing@@V?$K2VectorAllocator@USMinimapPing@@@@@2@XZ 191e2000 f i c_gameclient.obj
 0002:000bb050       ?end@?$vector@USMinimapPing@@V?$K2VectorAllocator@USMinimapPing@@@@@std@@QAE?AV?$_Vector_iterator@USMinimapPing@@V?$K2VectorAllocator@USMinimapPing@@@@@2@XZ 191e2050 f i c_gameclient.obj
 0002:000bb0a0       ?erase@?$vector@USMinimapPing@@V?$K2VectorAllocator@USMinimapPing@@@@@std@@QAE?AV?$_Vector_iterator@USMinimapPing@@V?$K2VectorAllocator@USMinimapPing@@@@@2@V32@@Z 191e20a0 f i c_gameclient.obj
 0002:000bb1e0       ??0?$deque@USHeroPrecache@@V?$K2DequeAllocator@USHeroPrecache@@@@@@QAE@XZ 191e21e0 f i c_gameclient.obj
 0002:000bb210       ??1?$deque@USHeroPrecache@@V?$K2DequeAllocator@USHeroPrecache@@@@@std@@QAE@XZ 191e2210 f i c_gameclient.obj
 0002:000bb290       ?begin@?$deque@USHeroPrecache@@V?$K2DequeAllocator@USHeroPrecache@@@@@std@@QAE?AV?$_Deque_iterator@USHeroPrecache@@V?$K2DequeAllocator@USHeroPrecache@@@@$00@2@XZ 191e2290 f i c_gameclient.obj
 0002:000bb2e0       ?end@?$deque@USHeroPrecache@@V?$K2DequeAllocator@USHeroPrecache@@@@@std@@QAE?AV?$_Deque_iterator@USHeroPrecache@@V?$K2DequeAllocator@USHeroPrecache@@@@$00@2@XZ 191e22e0 f i c_gameclient.obj
 0002:000bb340       ?front@?$deque@USHeroPrecache@@V?$K2DequeAllocator@USHeroPrecache@@@@@std@@QAEAAUSHeroPrecache@@XZ 191e2340 f i c_gameclient.obj
 0002:000bb3e0       ?pop_front@?$deque@USHeroPrecache@@V?$K2DequeAllocator@USHeroPrecache@@@@@std@@QAEXXZ 191e23e0 f i c_gameclient.obj
 0002:000bb4e0       ?clear@?$deque@USHeroPrecache@@V?$K2DequeAllocator@USHeroPrecache@@@@@std@@QAEXXZ 191e24e0 f i c_gameclient.obj
 0002:000bb510       ??0?$vector@USVoiceSet@@V?$K2VectorAllocator@USVoiceSet@@@@@@QAE@XZ 191e2510 f i c_gameclient.obj
 0002:000bb540       ??1?$vector@USVoiceSet@@V?$K2VectorAllocator@USVoiceSet@@@@@std@@QAE@XZ 191e2540 f i c_gameclient.obj
 0002:000bb5c0       ?resize@?$vector@USVoiceSet@@V?$K2VectorAllocator@USVoiceSet@@@@@std@@QAEXI@Z 191e25c0 f i c_gameclient.obj
 0002:000bb610       ?size@?$vector@USVoiceSet@@V?$K2VectorAllocator@USVoiceSet@@@@@std@@QBEIXZ 191e2610 f i c_gameclient.obj
 0002:000bb660       ?empty@?$vector@USVoiceSet@@V?$K2VectorAllocator@USVoiceSet@@@@@std@@QBE_NXZ 191e2660 f i c_gameclient.obj
 0002:000bb690       ??A?$vector@USVoiceSet@@V?$K2VectorAllocator@USVoiceSet@@@@@std@@QAEAAUSVoiceSet@@I@Z 191e2690 f i c_gameclient.obj
 0002:000bb7b0       ?back@?$vector@USVoiceSet@@V?$K2VectorAllocator@USVoiceSet@@@@@std@@QAEAAUSVoiceSet@@XZ 191e27b0 f i c_gameclient.obj
 0002:000bb880       ??0?$vector@USOverlayInfo@@V?$K2VectorAllocator@USOverlayInfo@@@@@@QAE@XZ 191e2880 f i c_gameclient.obj
 0002:000bb8b0       ??1?$vector@USOverlayInfo@@V?$K2VectorAllocator@USOverlayInfo@@@@@std@@QAE@XZ 191e28b0 f i c_gameclient.obj
 0002:000bb930       ?begin@?$vector@USOverlayInfo@@V?$K2VectorAllocator@USOverlayInfo@@@@@std@@QAE?AV?$_Vector_iterator@USOverlayInfo@@V?$K2VectorAllocator@USOverlayInfo@@@@@2@XZ 191e2930 f i c_gameclient.obj
 0002:000bb980       ?end@?$vector@USOverlayInfo@@V?$K2VectorAllocator@USOverlayInfo@@@@@std@@QAE?AV?$_Vector_iterator@USOverlayInfo@@V?$K2VectorAllocator@USOverlayInfo@@@@@2@XZ 191e2980 f i c_gameclient.obj
 0002:000bb9d0       ?push_back@?$vector@USOverlayInfo@@V?$K2VectorAllocator@USOverlayInfo@@@@@std@@QAEXABUSOverlayInfo@@@Z 191e29d0 f i c_gameclient.obj
 0002:000bba80       ?clear@?$vector@USOverlayInfo@@V?$K2VectorAllocator@USOverlayInfo@@@@@std@@QAEXXZ 191e2a80 f i c_gameclient.obj
 0002:000bbb40       ??0?$map@HUSWorldSound@CGameClient@@U?$less@H@std@@V?$K2MapAllocator@U?$pair@$$CBHUSWorldSound@CGameClient@@@std@@@@@@QAE@XZ 191e2b40 f i c_gameclient.obj
 0002:000bbb70       ??A?$map@HUSWorldSound@CGameClient@@U?$less@H@std@@V?$K2MapAllocator@U?$pair@$$CBHUSWorldSound@CGameClient@@@std@@@@@std@@QAEAAUSWorldSound@CGameClient@@ABH@Z 191e2b70 f i c_gameclient.obj
 0002:000bbd90       ??1?$_Tree@V?$_Tmap_traits@HUSWorldSound@CGameClient@@U?$less@H@std@@V?$K2MapAllocator@U?$pair@$$CBHUSWorldSound@CGameClient@@@std@@@@$0A@@std@@@std@@QAE@XZ 191e2d90 f i c_gameclient.obj
